   1              		.syntax unified
   2              		.cpu cortex-m4
   3              		.eabi_attribute 27, 3
   4              		.fpu fpv4-sp-d16
   5              		.eabi_attribute 20, 1
   6              		.eabi_attribute 21, 1
   7              		.eabi_attribute 23, 3
   8              		.eabi_attribute 24, 1
   9              		.eabi_attribute 25, 1
  10              		.eabi_attribute 26, 1
  11              		.eabi_attribute 30, 2
  12              		.eabi_attribute 34, 1
  13              		.eabi_attribute 18, 4
  14              		.thumb
  15              		.file	"testsuite.cpp"
  16              		.text
  17              	.Ltext0:
  18              		.cfi_sections	.debug_frame
  19              		.section	.text._ZN8unittest9TestSuiteD2Ev,"ax",%progbits
  20              		.align	2
  21              		.global	_ZN8unittest9TestSuiteD2Ev
  22              		.thumb
  23              		.thumb_func
  25              	_ZN8unittest9TestSuiteD2Ev:
  26              	.LFB72:
  27              		.file 1 "/home/jonas/warwick/3dProfilometer/xpcc/src/unittest/testsuite.cpp"
   1:/home/jonas/warwick/3dProfilometer/xpcc/src/unittest/testsuite.cpp **** // coding: utf-8
   2:/home/jonas/warwick/3dProfilometer/xpcc/src/unittest/testsuite.cpp **** // ----------------------------------------------------------------------------
   3:/home/jonas/warwick/3dProfilometer/xpcc/src/unittest/testsuite.cpp **** /* Copyright (c) 2009, Roboterclub Aachen e.V.
   4:/home/jonas/warwick/3dProfilometer/xpcc/src/unittest/testsuite.cpp ****  * All rights reserved.
   5:/home/jonas/warwick/3dProfilometer/xpcc/src/unittest/testsuite.cpp ****  *
   6:/home/jonas/warwick/3dProfilometer/xpcc/src/unittest/testsuite.cpp ****  * Redistribution and use in source and binary forms, with or without
   7:/home/jonas/warwick/3dProfilometer/xpcc/src/unittest/testsuite.cpp ****  * modification, are permitted provided that the following conditions are met:
   8:/home/jonas/warwick/3dProfilometer/xpcc/src/unittest/testsuite.cpp ****  *
   9:/home/jonas/warwick/3dProfilometer/xpcc/src/unittest/testsuite.cpp ****  *     * Redistributions of source code must retain the above copyright
  10:/home/jonas/warwick/3dProfilometer/xpcc/src/unittest/testsuite.cpp ****  *       notice, this list of conditions and the following disclaimer.
  11:/home/jonas/warwick/3dProfilometer/xpcc/src/unittest/testsuite.cpp ****  *     * Redistributions in binary form must reproduce the above copyright
  12:/home/jonas/warwick/3dProfilometer/xpcc/src/unittest/testsuite.cpp ****  *       notice, this list of conditions and the following disclaimer in the
  13:/home/jonas/warwick/3dProfilometer/xpcc/src/unittest/testsuite.cpp ****  *       documentation and/or other materials provided with the distribution.
  14:/home/jonas/warwick/3dProfilometer/xpcc/src/unittest/testsuite.cpp ****  *     * Neither the name of the Roboterclub Aachen e.V. nor the
  15:/home/jonas/warwick/3dProfilometer/xpcc/src/unittest/testsuite.cpp ****  *       names of its contributors may be used to endorse or promote products
  16:/home/jonas/warwick/3dProfilometer/xpcc/src/unittest/testsuite.cpp ****  *       derived from this software without specific prior written permission.
  17:/home/jonas/warwick/3dProfilometer/xpcc/src/unittest/testsuite.cpp ****  *
  18:/home/jonas/warwick/3dProfilometer/xpcc/src/unittest/testsuite.cpp ****  * THIS SOFTWARE IS PROVIDED BY ROBOTERCLUB AACHEN E.V. ''AS IS'' AND ANY
  19:/home/jonas/warwick/3dProfilometer/xpcc/src/unittest/testsuite.cpp ****  * EXPRESS OR IMPLIED WARRANTIES, INCLUDING, BUT NOT LIMITED TO, THE IMPLIED
  20:/home/jonas/warwick/3dProfilometer/xpcc/src/unittest/testsuite.cpp ****  * WARRANTIES OF MERCHANTABILITY AND FITNESS FOR A PARTICULAR PURPOSE ARE
  21:/home/jonas/warwick/3dProfilometer/xpcc/src/unittest/testsuite.cpp ****  * DISCLAIMED. IN NO EVENT SHALL ROBOTERCLUB AACHEN E.V. BE LIABLE FOR ANY
  22:/home/jonas/warwick/3dProfilometer/xpcc/src/unittest/testsuite.cpp ****  * DIRECT, INDIRECT, INCIDENTAL, SPECIAL, EXEMPLARY, OR CONSEQUENTIAL DAMAGES
  23:/home/jonas/warwick/3dProfilometer/xpcc/src/unittest/testsuite.cpp ****  * (INCLUDING, BUT NOT LIMITED TO, PROCUREMENT OF SUBSTITUTE GOODS OR SERVICES;
  24:/home/jonas/warwick/3dProfilometer/xpcc/src/unittest/testsuite.cpp ****  * LOSS OF USE, DATA, OR PROFITS; OR BUSINESS INTERRUPTION) HOWEVER CAUSED AND
  25:/home/jonas/warwick/3dProfilometer/xpcc/src/unittest/testsuite.cpp ****  * ON ANY THEORY OF LIABILITY, WHETHER IN CONTRACT, STRICT LIABILITY, OR TORT
  26:/home/jonas/warwick/3dProfilometer/xpcc/src/unittest/testsuite.cpp ****  * (INCLUDING NEGLIGENCE OR OTHERWISE) ARISING IN ANY WAY OUT OF THE USE OF
  27:/home/jonas/warwick/3dProfilometer/xpcc/src/unittest/testsuite.cpp ****  * THIS SOFTWARE, EVEN IF ADVISED OF THE POSSIBILITY OF SUCH DAMAGE.
  28:/home/jonas/warwick/3dProfilometer/xpcc/src/unittest/testsuite.cpp ****  */
  29:/home/jonas/warwick/3dProfilometer/xpcc/src/unittest/testsuite.cpp **** // ----------------------------------------------------------------------------
  30:/home/jonas/warwick/3dProfilometer/xpcc/src/unittest/testsuite.cpp **** 
  31:/home/jonas/warwick/3dProfilometer/xpcc/src/unittest/testsuite.cpp **** #include "testsuite.hpp"
  32:/home/jonas/warwick/3dProfilometer/xpcc/src/unittest/testsuite.cpp **** 
  33:/home/jonas/warwick/3dProfilometer/xpcc/src/unittest/testsuite.cpp **** // ----------------------------------------------------------------------------
  34:/home/jonas/warwick/3dProfilometer/xpcc/src/unittest/testsuite.cpp **** unittest::TestSuite::~TestSuite()
  28              		.loc 1 34 0
  29              		.cfi_startproc
  30              		@ args = 0, pretend = 0, frame = 0
  31              		@ frame_needed = 0, uses_anonymous_args = 0
  32              		@ link register save eliminated.
  33              	.LVL0:
  34              	.LBB8:
  35              		.loc 1 34 0
  36 0000 014B     		ldr	r3, .L2
  37 0002 0360     		str	r3, [r0, #0]
  38              	.LBE8:
  35:/home/jonas/warwick/3dProfilometer/xpcc/src/unittest/testsuite.cpp **** {
  36:/home/jonas/warwick/3dProfilometer/xpcc/src/unittest/testsuite.cpp **** }
  39              		.loc 1 36 0
  40 0004 7047     		bx	lr
  41              	.L3:
  42 0006 00BF     		.align	2
  43              	.L2:
  44 0008 08000000 		.word	.LANCHOR0+8
  45              		.cfi_endproc
  46              	.LFE72:
  48              		.global	_ZN8unittest9TestSuiteD1Ev
  49              		.thumb_set _ZN8unittest9TestSuiteD1Ev,_ZN8unittest9TestSuiteD2Ev
  50              		.section	.text._ZN8unittest9TestSuite5setUpEv,"ax",%progbits
  51              		.align	2
  52              		.global	_ZN8unittest9TestSuite5setUpEv
  53              		.thumb
  54              		.thumb_func
  56              	_ZN8unittest9TestSuite5setUpEv:
  57              	.LFB75:
  37:/home/jonas/warwick/3dProfilometer/xpcc/src/unittest/testsuite.cpp **** 		
  38:/home/jonas/warwick/3dProfilometer/xpcc/src/unittest/testsuite.cpp **** // ----------------------------------------------------------------------------
  39:/home/jonas/warwick/3dProfilometer/xpcc/src/unittest/testsuite.cpp **** void
  40:/home/jonas/warwick/3dProfilometer/xpcc/src/unittest/testsuite.cpp **** unittest::TestSuite::setUp()
  41:/home/jonas/warwick/3dProfilometer/xpcc/src/unittest/testsuite.cpp **** {
  58              		.loc 1 41 0
  59              		.cfi_startproc
  60              		@ args = 0, pretend = 0, frame = 0
  61              		@ frame_needed = 0, uses_anonymous_args = 0
  62              		@ link register save eliminated.
  63              	.LVL1:
  64 0000 7047     		bx	lr
  65              		.cfi_endproc
  66              	.LFE75:
  68 0002 00BF     		.section	.text._ZN8unittest9TestSuite8tearDownEv,"ax",%progbits
  69              		.align	2
  70              		.global	_ZN8unittest9TestSuite8tearDownEv
  71              		.thumb
  72              		.thumb_func
  74              	_ZN8unittest9TestSuite8tearDownEv:
  75              	.LFB76:
  42:/home/jonas/warwick/3dProfilometer/xpcc/src/unittest/testsuite.cpp **** }
  43:/home/jonas/warwick/3dProfilometer/xpcc/src/unittest/testsuite.cpp **** 
  44:/home/jonas/warwick/3dProfilometer/xpcc/src/unittest/testsuite.cpp **** // ----------------------------------------------------------------------------
  45:/home/jonas/warwick/3dProfilometer/xpcc/src/unittest/testsuite.cpp **** void
  46:/home/jonas/warwick/3dProfilometer/xpcc/src/unittest/testsuite.cpp **** unittest::TestSuite::tearDown()
  47:/home/jonas/warwick/3dProfilometer/xpcc/src/unittest/testsuite.cpp **** {
  76              		.loc 1 47 0
  77              		.cfi_startproc
  78              		@ args = 0, pretend = 0, frame = 0
  79              		@ frame_needed = 0, uses_anonymous_args = 0
  80              		@ link register save eliminated.
  81              	.LVL2:
  82 0000 7047     		bx	lr
  83              		.cfi_endproc
  84              	.LFE76:
  86 0002 00BF     		.section	.text._ZN8unittest9TestSuiteD0Ev,"ax",%progbits
  87              		.align	2
  88              		.global	_ZN8unittest9TestSuiteD0Ev
  89              		.thumb
  90              		.thumb_func
  92              	_ZN8unittest9TestSuiteD0Ev:
  93              	.LFB74:
  34:/home/jonas/warwick/3dProfilometer/xpcc/src/unittest/testsuite.cpp **** unittest::TestSuite::~TestSuite()
  94              		.loc 1 34 0
  95              		.cfi_startproc
  96              		@ args = 0, pretend = 0, frame = 0
  97              		@ frame_needed = 0, uses_anonymous_args = 0
  98              	.LVL3:
  99              	.LBB9:
 100              	.LBB10:
  34:/home/jonas/warwick/3dProfilometer/xpcc/src/unittest/testsuite.cpp **** unittest::TestSuite::~TestSuite()
 101              		.loc 1 34 0
 102 0000 034B     		ldr	r3, .L7
 103              	.LBE10:
 104              	.LBE9:
 105 0002 10B5     		push	{r4, lr}
 106              	.LCFI0:
 107              		.cfi_def_cfa_offset 8
 108              		.cfi_offset 4, -8
 109              		.cfi_offset 14, -4
  34:/home/jonas/warwick/3dProfilometer/xpcc/src/unittest/testsuite.cpp **** unittest::TestSuite::~TestSuite()
 110              		.loc 1 34 0
 111 0004 0446     		mov	r4, r0
 112              	.LVL4:
 113              	.LBB12:
 114              	.LBB11:
 115 0006 0360     		str	r3, [r0, #0]
 116              	.LBE11:
 117              	.LBE12:
  36:/home/jonas/warwick/3dProfilometer/xpcc/src/unittest/testsuite.cpp **** }
 118              		.loc 1 36 0
 119 0008 024B     		ldr	r3, .L7+4
 120 000a 9847     		blx	r3
 121              	.LVL5:
 122 000c 2046     		mov	r0, r4
 123 000e 10BD     		pop	{r4, pc}
 124              	.L8:
 125              		.align	2
 126              	.L7:
 127 0010 08000000 		.word	.LANCHOR0+8
 128 0014 00000000 		.word	_ZdlPv
 129              		.cfi_endproc
 130              	.LFE74:
 132              		.global	_ZTVN8unittest9TestSuiteE
 133              		.section	.rodata._ZTVN8unittest9TestSuiteE,"a",%progbits
 134              		.align	3
 135              		.set	.LANCHOR0,. + 0
 138              	_ZTVN8unittest9TestSuiteE:
 139 0000 00000000 		.word	0
 140 0004 00000000 		.word	0
 141 0008 00000000 		.word	_ZN8unittest9TestSuiteD1Ev
 142 000c 00000000 		.word	_ZN8unittest9TestSuiteD0Ev
 143 0010 00000000 		.word	_ZN8unittest9TestSuite5setUpEv
 144 0014 00000000 		.word	_ZN8unittest9TestSuite8tearDownEv
 145              		.text
 146              	.Letext0:
 147              		.file 2 "/opt/arm-2012.09/bin/../lib/gcc/arm-none-eabi/4.7.2/../../../../arm-none-eabi/include/c++
 148              		.file 3 "/opt/arm-2012.09/bin/../lib/gcc/arm-none-eabi/4.7.2/../../../../arm-none-eabi/include/str
 149              		.file 4 "/home/jonas/warwick/3dProfilometer/xpcc/src/xpcc/io/iodevice.hpp"
 150              		.file 5 "/home/jonas/warwick/3dProfilometer/xpcc/src/unittest/reporter.hpp"
 151              		.file 6 "/home/jonas/warwick/3dProfilometer/xpcc/src/unittest/harness.hpp"
 152              		.file 7 "/home/jonas/warwick/3dProfilometer/xpcc/src/xpcc/architecture/driver/accessor/flash.hpp"
 153              		.file 8 "/opt/arm-2012.09/bin/../lib/gcc/arm-none-eabi/4.7.2/include/stddef.h"
 154              		.file 9 "<built-in>"
 155              		.file 10 "/home/jonas/warwick/3dProfilometer/xpcc/src/unittest/testsuite.hpp"