   1              		.syntax unified
   2              		.cpu cortex-m4
   3              		.eabi_attribute 27, 3
   4              		.fpu fpv4-sp-d16
   5              		.eabi_attribute 20, 1
   6              		.eabi_attribute 21, 1
   7              		.eabi_attribute 23, 3
   8              		.eabi_attribute 24, 1
   9              		.eabi_attribute 25, 1
  10              		.eabi_attribute 26, 1
  11              		.eabi_attribute 30, 2
  12              		.eabi_attribute 34, 1
  13              		.eabi_attribute 18, 4
  14              		.thumb
  15              		.file	"character_display.cpp"
  16              		.text
  17              	.Ltext0:
  18              		.cfi_sections	.debug_frame
  19              		.section	.text._ZN4xpcc16CharacterDisplay6Writer5flushEv,"ax",%progbits
  20              		.align	2
  21              		.global	_ZN4xpcc16CharacterDisplay6Writer5flushEv
  22              		.thumb
  23              		.thumb_func
  25              	_ZN4xpcc16CharacterDisplay6Writer5flushEv:
  26              	.LFB53:
  27              		.file 1 "/home/jonas/warwick/3dProfilometer/xpcc/src/xpcc/driver/ui/display/character_display.cpp"
   1:/home/jonas/warwick/3dProfilometer/xpcc/src/xpcc/driver/ui/display/character_display.cpp **** // coding: utf-8
   2:/home/jonas/warwick/3dProfilometer/xpcc/src/xpcc/driver/ui/display/character_display.cpp **** // ----------------------------------------------------------------------------
   3:/home/jonas/warwick/3dProfilometer/xpcc/src/xpcc/driver/ui/display/character_display.cpp **** /* Copyright (c) 2009, Roboterclub Aachen e.V.
   4:/home/jonas/warwick/3dProfilometer/xpcc/src/xpcc/driver/ui/display/character_display.cpp ****  * All rights reserved.
   5:/home/jonas/warwick/3dProfilometer/xpcc/src/xpcc/driver/ui/display/character_display.cpp ****  *
   6:/home/jonas/warwick/3dProfilometer/xpcc/src/xpcc/driver/ui/display/character_display.cpp ****  * Redistribution and use in source and binary forms, with or without
   7:/home/jonas/warwick/3dProfilometer/xpcc/src/xpcc/driver/ui/display/character_display.cpp ****  * modification, are permitted provided that the following conditions are met:
   8:/home/jonas/warwick/3dProfilometer/xpcc/src/xpcc/driver/ui/display/character_display.cpp ****  * 
   9:/home/jonas/warwick/3dProfilometer/xpcc/src/xpcc/driver/ui/display/character_display.cpp ****  *     * Redistributions of source code must retain the above copyright
  10:/home/jonas/warwick/3dProfilometer/xpcc/src/xpcc/driver/ui/display/character_display.cpp ****  *       notice, this list of conditions and the following disclaimer.
  11:/home/jonas/warwick/3dProfilometer/xpcc/src/xpcc/driver/ui/display/character_display.cpp ****  *     * Redistributions in binary form must reproduce the above copyright
  12:/home/jonas/warwick/3dProfilometer/xpcc/src/xpcc/driver/ui/display/character_display.cpp ****  *       notice, this list of conditions and the following disclaimer in the
  13:/home/jonas/warwick/3dProfilometer/xpcc/src/xpcc/driver/ui/display/character_display.cpp ****  *       documentation and/or other materials provided with the distribution.
  14:/home/jonas/warwick/3dProfilometer/xpcc/src/xpcc/driver/ui/display/character_display.cpp ****  *     * Neither the name of the Roboterclub Aachen e.V. nor the
  15:/home/jonas/warwick/3dProfilometer/xpcc/src/xpcc/driver/ui/display/character_display.cpp ****  *       names of its contributors may be used to endorse or promote products
  16:/home/jonas/warwick/3dProfilometer/xpcc/src/xpcc/driver/ui/display/character_display.cpp ****  *       derived from this software without specific prior written permission.
  17:/home/jonas/warwick/3dProfilometer/xpcc/src/xpcc/driver/ui/display/character_display.cpp ****  *
  18:/home/jonas/warwick/3dProfilometer/xpcc/src/xpcc/driver/ui/display/character_display.cpp ****  * THIS SOFTWARE IS PROVIDED BY ROBOTERCLUB AACHEN E.V. ''AS IS'' AND ANY
  19:/home/jonas/warwick/3dProfilometer/xpcc/src/xpcc/driver/ui/display/character_display.cpp ****  * EXPRESS OR IMPLIED WARRANTIES, INCLUDING, BUT NOT LIMITED TO, THE IMPLIED
  20:/home/jonas/warwick/3dProfilometer/xpcc/src/xpcc/driver/ui/display/character_display.cpp ****  * WARRANTIES OF MERCHANTABILITY AND FITNESS FOR A PARTICULAR PURPOSE ARE
  21:/home/jonas/warwick/3dProfilometer/xpcc/src/xpcc/driver/ui/display/character_display.cpp ****  * DISCLAIMED. IN NO EVENT SHALL ROBOTERCLUB AACHEN E.V. BE LIABLE FOR ANY
  22:/home/jonas/warwick/3dProfilometer/xpcc/src/xpcc/driver/ui/display/character_display.cpp ****  * DIRECT, INDIRECT, INCIDENTAL, SPECIAL, EXEMPLARY, OR CONSEQUENTIAL DAMAGES
  23:/home/jonas/warwick/3dProfilometer/xpcc/src/xpcc/driver/ui/display/character_display.cpp ****  * (INCLUDING, BUT NOT LIMITED TO, PROCUREMENT OF SUBSTITUTE GOODS OR SERVICES;
  24:/home/jonas/warwick/3dProfilometer/xpcc/src/xpcc/driver/ui/display/character_display.cpp ****  * LOSS OF USE, DATA, OR PROFITS; OR BUSINESS INTERRUPTION) HOWEVER CAUSED AND
  25:/home/jonas/warwick/3dProfilometer/xpcc/src/xpcc/driver/ui/display/character_display.cpp ****  * ON ANY THEORY OF LIABILITY, WHETHER IN CONTRACT, STRICT LIABILITY, OR TORT
  26:/home/jonas/warwick/3dProfilometer/xpcc/src/xpcc/driver/ui/display/character_display.cpp ****  * (INCLUDING NEGLIGENCE OR OTHERWISE) ARISING IN ANY WAY OUT OF THE USE OF
  27:/home/jonas/warwick/3dProfilometer/xpcc/src/xpcc/driver/ui/display/character_display.cpp ****  * THIS SOFTWARE, EVEN IF ADVISED OF THE POSSIBILITY OF SUCH DAMAGE.
  28:/home/jonas/warwick/3dProfilometer/xpcc/src/xpcc/driver/ui/display/character_display.cpp ****  */
  29:/home/jonas/warwick/3dProfilometer/xpcc/src/xpcc/driver/ui/display/character_display.cpp **** // ----------------------------------------------------------------------------
  30:/home/jonas/warwick/3dProfilometer/xpcc/src/xpcc/driver/ui/display/character_display.cpp **** 
  31:/home/jonas/warwick/3dProfilometer/xpcc/src/xpcc/driver/ui/display/character_display.cpp **** #include "character_display.hpp"
  32:/home/jonas/warwick/3dProfilometer/xpcc/src/xpcc/driver/ui/display/character_display.cpp **** 
  33:/home/jonas/warwick/3dProfilometer/xpcc/src/xpcc/driver/ui/display/character_display.cpp **** xpcc::CharacterDisplay::CharacterDisplay(uint8_t width, uint8_t height) :
  34:/home/jonas/warwick/3dProfilometer/xpcc/src/xpcc/driver/ui/display/character_display.cpp **** 	IOStream(writer),
  35:/home/jonas/warwick/3dProfilometer/xpcc/src/xpcc/driver/ui/display/character_display.cpp **** 	writer(this),
  36:/home/jonas/warwick/3dProfilometer/xpcc/src/xpcc/driver/ui/display/character_display.cpp **** 	lineWidth(width), lineCount(height),
  37:/home/jonas/warwick/3dProfilometer/xpcc/src/xpcc/driver/ui/display/character_display.cpp **** 	column(0), line(0)
  38:/home/jonas/warwick/3dProfilometer/xpcc/src/xpcc/driver/ui/display/character_display.cpp **** {
  39:/home/jonas/warwick/3dProfilometer/xpcc/src/xpcc/driver/ui/display/character_display.cpp **** }
  40:/home/jonas/warwick/3dProfilometer/xpcc/src/xpcc/driver/ui/display/character_display.cpp **** 
  41:/home/jonas/warwick/3dProfilometer/xpcc/src/xpcc/driver/ui/display/character_display.cpp **** void
  42:/home/jonas/warwick/3dProfilometer/xpcc/src/xpcc/driver/ui/display/character_display.cpp **** xpcc::CharacterDisplay::write(char c)
  43:/home/jonas/warwick/3dProfilometer/xpcc/src/xpcc/driver/ui/display/character_display.cpp **** {
  44:/home/jonas/warwick/3dProfilometer/xpcc/src/xpcc/driver/ui/display/character_display.cpp **** 	if (c == '\n')
  45:/home/jonas/warwick/3dProfilometer/xpcc/src/xpcc/driver/ui/display/character_display.cpp **** 	{
  46:/home/jonas/warwick/3dProfilometer/xpcc/src/xpcc/driver/ui/display/character_display.cpp **** 		line++;
  47:/home/jonas/warwick/3dProfilometer/xpcc/src/xpcc/driver/ui/display/character_display.cpp **** 		if (line >= lineCount) {
  48:/home/jonas/warwick/3dProfilometer/xpcc/src/xpcc/driver/ui/display/character_display.cpp **** 			line = 0;
  49:/home/jonas/warwick/3dProfilometer/xpcc/src/xpcc/driver/ui/display/character_display.cpp **** 		}
  50:/home/jonas/warwick/3dProfilometer/xpcc/src/xpcc/driver/ui/display/character_display.cpp **** 		column = 0;
  51:/home/jonas/warwick/3dProfilometer/xpcc/src/xpcc/driver/ui/display/character_display.cpp **** 		this->setCursor(column, line);
  52:/home/jonas/warwick/3dProfilometer/xpcc/src/xpcc/driver/ui/display/character_display.cpp **** 	}
  53:/home/jonas/warwick/3dProfilometer/xpcc/src/xpcc/driver/ui/display/character_display.cpp **** 	else {
  54:/home/jonas/warwick/3dProfilometer/xpcc/src/xpcc/driver/ui/display/character_display.cpp **** 		if (column >= lineWidth) {
  55:/home/jonas/warwick/3dProfilometer/xpcc/src/xpcc/driver/ui/display/character_display.cpp **** 			this->write('\n');
  56:/home/jonas/warwick/3dProfilometer/xpcc/src/xpcc/driver/ui/display/character_display.cpp **** 		}
  57:/home/jonas/warwick/3dProfilometer/xpcc/src/xpcc/driver/ui/display/character_display.cpp **** 		this->writeRaw(c);
  58:/home/jonas/warwick/3dProfilometer/xpcc/src/xpcc/driver/ui/display/character_display.cpp **** 		column++;
  59:/home/jonas/warwick/3dProfilometer/xpcc/src/xpcc/driver/ui/display/character_display.cpp **** 	}
  60:/home/jonas/warwick/3dProfilometer/xpcc/src/xpcc/driver/ui/display/character_display.cpp **** }
  61:/home/jonas/warwick/3dProfilometer/xpcc/src/xpcc/driver/ui/display/character_display.cpp **** 
  62:/home/jonas/warwick/3dProfilometer/xpcc/src/xpcc/driver/ui/display/character_display.cpp **** // ----------------------------------------------------------------------------
  63:/home/jonas/warwick/3dProfilometer/xpcc/src/xpcc/driver/ui/display/character_display.cpp **** void
  64:/home/jonas/warwick/3dProfilometer/xpcc/src/xpcc/driver/ui/display/character_display.cpp **** xpcc::CharacterDisplay::Writer::write(char c)
  65:/home/jonas/warwick/3dProfilometer/xpcc/src/xpcc/driver/ui/display/character_display.cpp **** {
  66:/home/jonas/warwick/3dProfilometer/xpcc/src/xpcc/driver/ui/display/character_display.cpp **** 	this->parent->write(c);
  67:/home/jonas/warwick/3dProfilometer/xpcc/src/xpcc/driver/ui/display/character_display.cpp **** }
  68:/home/jonas/warwick/3dProfilometer/xpcc/src/xpcc/driver/ui/display/character_display.cpp **** 
  69:/home/jonas/warwick/3dProfilometer/xpcc/src/xpcc/driver/ui/display/character_display.cpp **** void
  70:/home/jonas/warwick/3dProfilometer/xpcc/src/xpcc/driver/ui/display/character_display.cpp **** xpcc::CharacterDisplay::Writer::flush()
  71:/home/jonas/warwick/3dProfilometer/xpcc/src/xpcc/driver/ui/display/character_display.cpp **** {
  28              		.loc 1 71 0
  29              		.cfi_startproc
  30              		@ args = 0, pretend = 0, frame = 0
  31              		@ frame_needed = 0, uses_anonymous_args = 0
  32              		@ link register save eliminated.
  33              	.LVL0:
  34 0000 7047     		bx	lr
  35              		.cfi_endproc
  36              	.LFE53:
  38 0002 00BF     		.section	.text._ZN4xpcc16CharacterDisplay6Writer4readERc,"ax",%progbits
  39              		.align	2
  40              		.global	_ZN4xpcc16CharacterDisplay6Writer4readERc
  41              		.thumb
  42              		.thumb_func
  44              	_ZN4xpcc16CharacterDisplay6Writer4readERc:
  45              	.LFB54:
  72:/home/jonas/warwick/3dProfilometer/xpcc/src/xpcc/driver/ui/display/character_display.cpp **** }
  73:/home/jonas/warwick/3dProfilometer/xpcc/src/xpcc/driver/ui/display/character_display.cpp **** 
  74:/home/jonas/warwick/3dProfilometer/xpcc/src/xpcc/driver/ui/display/character_display.cpp **** bool
  75:/home/jonas/warwick/3dProfilometer/xpcc/src/xpcc/driver/ui/display/character_display.cpp **** xpcc::CharacterDisplay::Writer::read(char&)
  76:/home/jonas/warwick/3dProfilometer/xpcc/src/xpcc/driver/ui/display/character_display.cpp **** {
  46              		.loc 1 76 0
  47              		.cfi_startproc
  48              		@ args = 0, pretend = 0, frame = 0
  49              		@ frame_needed = 0, uses_anonymous_args = 0
  50              		@ link register save eliminated.
  51              	.LVL1:
  77:/home/jonas/warwick/3dProfilometer/xpcc/src/xpcc/driver/ui/display/character_display.cpp **** 	return false;
  78:/home/jonas/warwick/3dProfilometer/xpcc/src/xpcc/driver/ui/display/character_display.cpp **** }
  52              		.loc 1 78 0
  53 0000 0020     		movs	r0, #0
  54              	.LVL2:
  55 0002 7047     		bx	lr
  56              		.cfi_endproc
  57              	.LFE54:
  59              		.section	.text._ZN4xpcc16CharacterDisplay6WriterD2Ev,"axG",%progbits,_ZN4xpcc16CharacterDisplay6Wr
  60              		.align	2
  61              		.weak	_ZN4xpcc16CharacterDisplay6WriterD2Ev
  62              		.thumb
  63              		.thumb_func
  65              	_ZN4xpcc16CharacterDisplay6WriterD2Ev:
  66              	.LFB56:
  67              		.file 2 "/home/jonas/warwick/3dProfilometer/xpcc/src/xpcc/driver/ui/display/character_display.hpp"
   1:/home/jonas/warwick/3dProfilometer/xpcc/src/xpcc/driver/ui/display/character_display.hpp **** // coding: utf-8
   2:/home/jonas/warwick/3dProfilometer/xpcc/src/xpcc/driver/ui/display/character_display.hpp **** // ----------------------------------------------------------------------------
   3:/home/jonas/warwick/3dProfilometer/xpcc/src/xpcc/driver/ui/display/character_display.hpp **** /* Copyright (c) 2009, Roboterclub Aachen e.V.
   4:/home/jonas/warwick/3dProfilometer/xpcc/src/xpcc/driver/ui/display/character_display.hpp ****  * All rights reserved.
   5:/home/jonas/warwick/3dProfilometer/xpcc/src/xpcc/driver/ui/display/character_display.hpp ****  *
   6:/home/jonas/warwick/3dProfilometer/xpcc/src/xpcc/driver/ui/display/character_display.hpp ****  * Redistribution and use in source and binary forms, with or without
   7:/home/jonas/warwick/3dProfilometer/xpcc/src/xpcc/driver/ui/display/character_display.hpp ****  * modification, are permitted provided that the following conditions are met:
   8:/home/jonas/warwick/3dProfilometer/xpcc/src/xpcc/driver/ui/display/character_display.hpp ****  * 
   9:/home/jonas/warwick/3dProfilometer/xpcc/src/xpcc/driver/ui/display/character_display.hpp ****  *     * Redistributions of source code must retain the above copyright
  10:/home/jonas/warwick/3dProfilometer/xpcc/src/xpcc/driver/ui/display/character_display.hpp ****  *       notice, this list of conditions and the following disclaimer.
  11:/home/jonas/warwick/3dProfilometer/xpcc/src/xpcc/driver/ui/display/character_display.hpp ****  *     * Redistributions in binary form must reproduce the above copyright
  12:/home/jonas/warwick/3dProfilometer/xpcc/src/xpcc/driver/ui/display/character_display.hpp ****  *       notice, this list of conditions and the following disclaimer in the
  13:/home/jonas/warwick/3dProfilometer/xpcc/src/xpcc/driver/ui/display/character_display.hpp ****  *       documentation and/or other materials provided with the distribution.
  14:/home/jonas/warwick/3dProfilometer/xpcc/src/xpcc/driver/ui/display/character_display.hpp ****  *     * Neither the name of the Roboterclub Aachen e.V. nor the
  15:/home/jonas/warwick/3dProfilometer/xpcc/src/xpcc/driver/ui/display/character_display.hpp ****  *       names of its contributors may be used to endorse or promote products
  16:/home/jonas/warwick/3dProfilometer/xpcc/src/xpcc/driver/ui/display/character_display.hpp ****  *       derived from this software without specific prior written permission.
  17:/home/jonas/warwick/3dProfilometer/xpcc/src/xpcc/driver/ui/display/character_display.hpp ****  *
  18:/home/jonas/warwick/3dProfilometer/xpcc/src/xpcc/driver/ui/display/character_display.hpp ****  * THIS SOFTWARE IS PROVIDED BY ROBOTERCLUB AACHEN E.V. ''AS IS'' AND ANY
  19:/home/jonas/warwick/3dProfilometer/xpcc/src/xpcc/driver/ui/display/character_display.hpp ****  * EXPRESS OR IMPLIED WARRANTIES, INCLUDING, BUT NOT LIMITED TO, THE IMPLIED
  20:/home/jonas/warwick/3dProfilometer/xpcc/src/xpcc/driver/ui/display/character_display.hpp ****  * WARRANTIES OF MERCHANTABILITY AND FITNESS FOR A PARTICULAR PURPOSE ARE
  21:/home/jonas/warwick/3dProfilometer/xpcc/src/xpcc/driver/ui/display/character_display.hpp ****  * DISCLAIMED. IN NO EVENT SHALL ROBOTERCLUB AACHEN E.V. BE LIABLE FOR ANY
  22:/home/jonas/warwick/3dProfilometer/xpcc/src/xpcc/driver/ui/display/character_display.hpp ****  * DIRECT, INDIRECT, INCIDENTAL, SPECIAL, EXEMPLARY, OR CONSEQUENTIAL DAMAGES
  23:/home/jonas/warwick/3dProfilometer/xpcc/src/xpcc/driver/ui/display/character_display.hpp ****  * (INCLUDING, BUT NOT LIMITED TO, PROCUREMENT OF SUBSTITUTE GOODS OR SERVICES;
  24:/home/jonas/warwick/3dProfilometer/xpcc/src/xpcc/driver/ui/display/character_display.hpp ****  * LOSS OF USE, DATA, OR PROFITS; OR BUSINESS INTERRUPTION) HOWEVER CAUSED AND
  25:/home/jonas/warwick/3dProfilometer/xpcc/src/xpcc/driver/ui/display/character_display.hpp ****  * ON ANY THEORY OF LIABILITY, WHETHER IN CONTRACT, STRICT LIABILITY, OR TORT
  26:/home/jonas/warwick/3dProfilometer/xpcc/src/xpcc/driver/ui/display/character_display.hpp ****  * (INCLUDING NEGLIGENCE OR OTHERWISE) ARISING IN ANY WAY OUT OF THE USE OF
  27:/home/jonas/warwick/3dProfilometer/xpcc/src/xpcc/driver/ui/display/character_display.hpp ****  * THIS SOFTWARE, EVEN IF ADVISED OF THE POSSIBILITY OF SUCH DAMAGE.
  28:/home/jonas/warwick/3dProfilometer/xpcc/src/xpcc/driver/ui/display/character_display.hpp ****  */
  29:/home/jonas/warwick/3dProfilometer/xpcc/src/xpcc/driver/ui/display/character_display.hpp **** // ----------------------------------------------------------------------------
  30:/home/jonas/warwick/3dProfilometer/xpcc/src/xpcc/driver/ui/display/character_display.hpp **** 
  31:/home/jonas/warwick/3dProfilometer/xpcc/src/xpcc/driver/ui/display/character_display.hpp **** #ifndef XPCC__CHARACTER_DISPLAY_HPP
  32:/home/jonas/warwick/3dProfilometer/xpcc/src/xpcc/driver/ui/display/character_display.hpp **** #define XPCC__CHARACTER_DISPLAY_HPP
  33:/home/jonas/warwick/3dProfilometer/xpcc/src/xpcc/driver/ui/display/character_display.hpp **** 
  34:/home/jonas/warwick/3dProfilometer/xpcc/src/xpcc/driver/ui/display/character_display.hpp **** #include <stdint.h>
  35:/home/jonas/warwick/3dProfilometer/xpcc/src/xpcc/driver/ui/display/character_display.hpp **** #include <xpcc/io/iostream.hpp>
  36:/home/jonas/warwick/3dProfilometer/xpcc/src/xpcc/driver/ui/display/character_display.hpp **** 
  37:/home/jonas/warwick/3dProfilometer/xpcc/src/xpcc/driver/ui/display/character_display.hpp **** namespace xpcc
  38:/home/jonas/warwick/3dProfilometer/xpcc/src/xpcc/driver/ui/display/character_display.hpp **** {
  39:/home/jonas/warwick/3dProfilometer/xpcc/src/xpcc/driver/ui/display/character_display.hpp **** 	/**
  40:/home/jonas/warwick/3dProfilometer/xpcc/src/xpcc/driver/ui/display/character_display.hpp **** 	 * \brief	Base class for alpha-numeric LCDs (liquid crystal display)
  41:/home/jonas/warwick/3dProfilometer/xpcc/src/xpcc/driver/ui/display/character_display.hpp **** 	 * 
  42:/home/jonas/warwick/3dProfilometer/xpcc/src/xpcc/driver/ui/display/character_display.hpp **** 	 * <h3>About this implementation:</h3> 
  43:/home/jonas/warwick/3dProfilometer/xpcc/src/xpcc/driver/ui/display/character_display.hpp **** 	 * 
  44:/home/jonas/warwick/3dProfilometer/xpcc/src/xpcc/driver/ui/display/character_display.hpp **** 	 * In contrast to other drivers which use static methods,
  45:/home/jonas/warwick/3dProfilometer/xpcc/src/xpcc/driver/ui/display/character_display.hpp **** 	 * this class is directly derived from IODevice with all the virtual
  46:/home/jonas/warwick/3dProfilometer/xpcc/src/xpcc/driver/ui/display/character_display.hpp **** 	 * methods because it will be most likely used to create a IOStream
  47:/home/jonas/warwick/3dProfilometer/xpcc/src/xpcc/driver/ui/display/character_display.hpp **** 	 * which then handles the output to the display.
  48:/home/jonas/warwick/3dProfilometer/xpcc/src/xpcc/driver/ui/display/character_display.hpp **** 	 * 
  49:/home/jonas/warwick/3dProfilometer/xpcc/src/xpcc/driver/ui/display/character_display.hpp **** 	 * Therefore creating this class with static methods and using a wrapper
  50:/home/jonas/warwick/3dProfilometer/xpcc/src/xpcc/driver/ui/display/character_display.hpp **** 	 * class to create a IODevice seems unnecessary complicated.
  51:/home/jonas/warwick/3dProfilometer/xpcc/src/xpcc/driver/ui/display/character_display.hpp **** 	 * 
  52:/home/jonas/warwick/3dProfilometer/xpcc/src/xpcc/driver/ui/display/character_display.hpp **** 	 * \author	Fabian Greif
  53:/home/jonas/warwick/3dProfilometer/xpcc/src/xpcc/driver/ui/display/character_display.hpp **** 	 * \ingroup	lcd
  54:/home/jonas/warwick/3dProfilometer/xpcc/src/xpcc/driver/ui/display/character_display.hpp **** 	 */
  55:/home/jonas/warwick/3dProfilometer/xpcc/src/xpcc/driver/ui/display/character_display.hpp **** 	class CharacterDisplay : public IOStream
  56:/home/jonas/warwick/3dProfilometer/xpcc/src/xpcc/driver/ui/display/character_display.hpp **** 	{
  57:/home/jonas/warwick/3dProfilometer/xpcc/src/xpcc/driver/ui/display/character_display.hpp **** 	public:
  58:/home/jonas/warwick/3dProfilometer/xpcc/src/xpcc/driver/ui/display/character_display.hpp **** 		enum Command
  59:/home/jonas/warwick/3dProfilometer/xpcc/src/xpcc/driver/ui/display/character_display.hpp **** 		{
  60:/home/jonas/warwick/3dProfilometer/xpcc/src/xpcc/driver/ui/display/character_display.hpp **** 			CLEAR_DISPLAY = 0x01,	///< Clear the display content
  61:/home/jonas/warwick/3dProfilometer/xpcc/src/xpcc/driver/ui/display/character_display.hpp **** 			
  62:/home/jonas/warwick/3dProfilometer/xpcc/src/xpcc/driver/ui/display/character_display.hpp **** 			DISPLAY_ON = 0x0C,		///< Enable display
  63:/home/jonas/warwick/3dProfilometer/xpcc/src/xpcc/driver/ui/display/character_display.hpp **** 			DISPLAY_OFF = 0x08,		///< Deactivate display
  64:/home/jonas/warwick/3dProfilometer/xpcc/src/xpcc/driver/ui/display/character_display.hpp **** 			
  65:/home/jonas/warwick/3dProfilometer/xpcc/src/xpcc/driver/ui/display/character_display.hpp **** 			CURSOR_HOME = 0x02,		///< Set cursor to position (0, 0)
  66:/home/jonas/warwick/3dProfilometer/xpcc/src/xpcc/driver/ui/display/character_display.hpp **** 			CURSOR_ON = 0x0E,		///< Display cursor
  67:/home/jonas/warwick/3dProfilometer/xpcc/src/xpcc/driver/ui/display/character_display.hpp **** 			CURSOR_OFF = 0x0C,		///< Hide cursor
  68:/home/jonas/warwick/3dProfilometer/xpcc/src/xpcc/driver/ui/display/character_display.hpp **** 			CURSOR_BLINK = 0x0F		///< Display a blinking cursor
  69:/home/jonas/warwick/3dProfilometer/xpcc/src/xpcc/driver/ui/display/character_display.hpp **** 		};
  70:/home/jonas/warwick/3dProfilometer/xpcc/src/xpcc/driver/ui/display/character_display.hpp **** 		
  71:/home/jonas/warwick/3dProfilometer/xpcc/src/xpcc/driver/ui/display/character_display.hpp **** 	public:
  72:/home/jonas/warwick/3dProfilometer/xpcc/src/xpcc/driver/ui/display/character_display.hpp **** 		/// Constructor
  73:/home/jonas/warwick/3dProfilometer/xpcc/src/xpcc/driver/ui/display/character_display.hpp **** 		CharacterDisplay(uint8_t width, uint8_t height);
  74:/home/jonas/warwick/3dProfilometer/xpcc/src/xpcc/driver/ui/display/character_display.hpp **** 		
  75:/home/jonas/warwick/3dProfilometer/xpcc/src/xpcc/driver/ui/display/character_display.hpp **** 		/// Initialize the display
  76:/home/jonas/warwick/3dProfilometer/xpcc/src/xpcc/driver/ui/display/character_display.hpp **** 		virtual void
  77:/home/jonas/warwick/3dProfilometer/xpcc/src/xpcc/driver/ui/display/character_display.hpp **** 		initialize() = 0;
  78:/home/jonas/warwick/3dProfilometer/xpcc/src/xpcc/driver/ui/display/character_display.hpp **** 		
  79:/home/jonas/warwick/3dProfilometer/xpcc/src/xpcc/driver/ui/display/character_display.hpp **** 		/**
  80:/home/jonas/warwick/3dProfilometer/xpcc/src/xpcc/driver/ui/display/character_display.hpp **** 		 * \brief	Write a character
  81:/home/jonas/warwick/3dProfilometer/xpcc/src/xpcc/driver/ui/display/character_display.hpp **** 		 * 
  82:/home/jonas/warwick/3dProfilometer/xpcc/src/xpcc/driver/ui/display/character_display.hpp **** 		 * This method provides an automatic wrap-round if the output reaches
  83:/home/jonas/warwick/3dProfilometer/xpcc/src/xpcc/driver/ui/display/character_display.hpp **** 		 * the end of the current line or a newline character is detected.
  84:/home/jonas/warwick/3dProfilometer/xpcc/src/xpcc/driver/ui/display/character_display.hpp **** 		 * 
  85:/home/jonas/warwick/3dProfilometer/xpcc/src/xpcc/driver/ui/display/character_display.hpp **** 		 * Use writeRaw() if this behavior is not wanted.
  86:/home/jonas/warwick/3dProfilometer/xpcc/src/xpcc/driver/ui/display/character_display.hpp **** 		 */
  87:/home/jonas/warwick/3dProfilometer/xpcc/src/xpcc/driver/ui/display/character_display.hpp **** 		void
  88:/home/jonas/warwick/3dProfilometer/xpcc/src/xpcc/driver/ui/display/character_display.hpp **** 		write(char c);
  89:/home/jonas/warwick/3dProfilometer/xpcc/src/xpcc/driver/ui/display/character_display.hpp **** 		
  90:/home/jonas/warwick/3dProfilometer/xpcc/src/xpcc/driver/ui/display/character_display.hpp **** 		/**
  91:/home/jonas/warwick/3dProfilometer/xpcc/src/xpcc/driver/ui/display/character_display.hpp **** 		 * \brief	Write a raw character at cursor position
  92:/home/jonas/warwick/3dProfilometer/xpcc/src/xpcc/driver/ui/display/character_display.hpp **** 		 * 
  93:/home/jonas/warwick/3dProfilometer/xpcc/src/xpcc/driver/ui/display/character_display.hpp **** 		 * Unlike write() no further processing will occur.
  94:/home/jonas/warwick/3dProfilometer/xpcc/src/xpcc/driver/ui/display/character_display.hpp **** 		 * 
  95:/home/jonas/warwick/3dProfilometer/xpcc/src/xpcc/driver/ui/display/character_display.hpp **** 		 * \see	write()
  96:/home/jonas/warwick/3dProfilometer/xpcc/src/xpcc/driver/ui/display/character_display.hpp **** 		 */
  97:/home/jonas/warwick/3dProfilometer/xpcc/src/xpcc/driver/ui/display/character_display.hpp **** 		virtual void
  98:/home/jonas/warwick/3dProfilometer/xpcc/src/xpcc/driver/ui/display/character_display.hpp **** 		writeRaw(char c) = 0;
  99:/home/jonas/warwick/3dProfilometer/xpcc/src/xpcc/driver/ui/display/character_display.hpp **** 		
 100:/home/jonas/warwick/3dProfilometer/xpcc/src/xpcc/driver/ui/display/character_display.hpp **** 		/**
 101:/home/jonas/warwick/3dProfilometer/xpcc/src/xpcc/driver/ui/display/character_display.hpp **** 		 * \brief	Excute a command
 102:/home/jonas/warwick/3dProfilometer/xpcc/src/xpcc/driver/ui/display/character_display.hpp **** 		 * \param	command		Command to execute
 103:/home/jonas/warwick/3dProfilometer/xpcc/src/xpcc/driver/ui/display/character_display.hpp **** 		 */
 104:/home/jonas/warwick/3dProfilometer/xpcc/src/xpcc/driver/ui/display/character_display.hpp **** 		virtual void
 105:/home/jonas/warwick/3dProfilometer/xpcc/src/xpcc/driver/ui/display/character_display.hpp **** 		execute(Command command) = 0;
 106:/home/jonas/warwick/3dProfilometer/xpcc/src/xpcc/driver/ui/display/character_display.hpp **** 		
 107:/home/jonas/warwick/3dProfilometer/xpcc/src/xpcc/driver/ui/display/character_display.hpp **** 		/**
 108:/home/jonas/warwick/3dProfilometer/xpcc/src/xpcc/driver/ui/display/character_display.hpp **** 		 * \brief	Set cursor to specified position
 109:/home/jonas/warwick/3dProfilometer/xpcc/src/xpcc/driver/ui/display/character_display.hpp **** 		 * 
 110:/home/jonas/warwick/3dProfilometer/xpcc/src/xpcc/driver/ui/display/character_display.hpp **** 		 * \param	column	horizontal position
 111:/home/jonas/warwick/3dProfilometer/xpcc/src/xpcc/driver/ui/display/character_display.hpp **** 		 * \param	line	vertical position
 112:/home/jonas/warwick/3dProfilometer/xpcc/src/xpcc/driver/ui/display/character_display.hpp **** 		 */
 113:/home/jonas/warwick/3dProfilometer/xpcc/src/xpcc/driver/ui/display/character_display.hpp **** 		virtual void
 114:/home/jonas/warwick/3dProfilometer/xpcc/src/xpcc/driver/ui/display/character_display.hpp **** 		setCursor(uint8_t column, uint8_t line) = 0;
 115:/home/jonas/warwick/3dProfilometer/xpcc/src/xpcc/driver/ui/display/character_display.hpp **** 		
 116:/home/jonas/warwick/3dProfilometer/xpcc/src/xpcc/driver/ui/display/character_display.hpp **** 	protected:
 117:/home/jonas/warwick/3dProfilometer/xpcc/src/xpcc/driver/ui/display/character_display.hpp **** 		// Interface class for the IOStream
 118:/home/jonas/warwick/3dProfilometer/xpcc/src/xpcc/driver/ui/display/character_display.hpp **** 		class Writer : public IODevice
  68              		.loc 2 118 0
  69              		.cfi_startproc
  70              		@ args = 0, pretend = 0, frame = 0
  71              		@ frame_needed = 0, uses_anonymous_args = 0
  72              		@ link register save eliminated.
  73              	.LVL3:
  74              	.LBB24:
  75              	.LBB25:
  76              	.LBB26:
  77              		.file 3 "/home/jonas/warwick/3dProfilometer/xpcc/src/xpcc/io/iodevice.hpp"
   1:/home/jonas/warwick/3dProfilometer/xpcc/src/xpcc/io/iodevice.hpp **** // coding: utf-8
   2:/home/jonas/warwick/3dProfilometer/xpcc/src/xpcc/io/iodevice.hpp **** // ----------------------------------------------------------------------------
   3:/home/jonas/warwick/3dProfilometer/xpcc/src/xpcc/io/iodevice.hpp **** /* Copyright (c) 2009, Roboterclub Aachen e.V.
   4:/home/jonas/warwick/3dProfilometer/xpcc/src/xpcc/io/iodevice.hpp ****  * All rights reserved.
   5:/home/jonas/warwick/3dProfilometer/xpcc/src/xpcc/io/iodevice.hpp ****  *
   6:/home/jonas/warwick/3dProfilometer/xpcc/src/xpcc/io/iodevice.hpp ****  * Redistribution and use in source and binary forms, with or without
   7:/home/jonas/warwick/3dProfilometer/xpcc/src/xpcc/io/iodevice.hpp ****  * modification, are permitted provided that the following conditions are met:
   8:/home/jonas/warwick/3dProfilometer/xpcc/src/xpcc/io/iodevice.hpp ****  * 
   9:/home/jonas/warwick/3dProfilometer/xpcc/src/xpcc/io/iodevice.hpp ****  *     * Redistributions of source code must retain the above copyright
  10:/home/jonas/warwick/3dProfilometer/xpcc/src/xpcc/io/iodevice.hpp ****  *       notice, this list of conditions and the following disclaimer.
  11:/home/jonas/warwick/3dProfilometer/xpcc/src/xpcc/io/iodevice.hpp ****  *     * Redistributions in binary form must reproduce the above copyright
  12:/home/jonas/warwick/3dProfilometer/xpcc/src/xpcc/io/iodevice.hpp ****  *       notice, this list of conditions and the following disclaimer in the
  13:/home/jonas/warwick/3dProfilometer/xpcc/src/xpcc/io/iodevice.hpp ****  *       documentation and/or other materials provided with the distribution.
  14:/home/jonas/warwick/3dProfilometer/xpcc/src/xpcc/io/iodevice.hpp ****  *     * Neither the name of the Roboterclub Aachen e.V. nor the
  15:/home/jonas/warwick/3dProfilometer/xpcc/src/xpcc/io/iodevice.hpp ****  *       names of its contributors may be used to endorse or promote products
  16:/home/jonas/warwick/3dProfilometer/xpcc/src/xpcc/io/iodevice.hpp ****  *       derived from this software without specific prior written permission.
  17:/home/jonas/warwick/3dProfilometer/xpcc/src/xpcc/io/iodevice.hpp ****  *
  18:/home/jonas/warwick/3dProfilometer/xpcc/src/xpcc/io/iodevice.hpp ****  * THIS SOFTWARE IS PROVIDED BY ROBOTERCLUB AACHEN E.V. ''AS IS'' AND ANY
  19:/home/jonas/warwick/3dProfilometer/xpcc/src/xpcc/io/iodevice.hpp ****  * EXPRESS OR IMPLIED WARRANTIES, INCLUDING, BUT NOT LIMITED TO, THE IMPLIED
  20:/home/jonas/warwick/3dProfilometer/xpcc/src/xpcc/io/iodevice.hpp ****  * WARRANTIES OF MERCHANTABILITY AND FITNESS FOR A PARTICULAR PURPOSE ARE
  21:/home/jonas/warwick/3dProfilometer/xpcc/src/xpcc/io/iodevice.hpp ****  * DISCLAIMED. IN NO EVENT SHALL ROBOTERCLUB AACHEN E.V. BE LIABLE FOR ANY
  22:/home/jonas/warwick/3dProfilometer/xpcc/src/xpcc/io/iodevice.hpp ****  * DIRECT, INDIRECT, INCIDENTAL, SPECIAL, EXEMPLARY, OR CONSEQUENTIAL DAMAGES
  23:/home/jonas/warwick/3dProfilometer/xpcc/src/xpcc/io/iodevice.hpp ****  * (INCLUDING, BUT NOT LIMITED TO, PROCUREMENT OF SUBSTITUTE GOODS OR SERVICES;
  24:/home/jonas/warwick/3dProfilometer/xpcc/src/xpcc/io/iodevice.hpp ****  * LOSS OF USE, DATA, OR PROFITS; OR BUSINESS INTERRUPTION) HOWEVER CAUSED AND
  25:/home/jonas/warwick/3dProfilometer/xpcc/src/xpcc/io/iodevice.hpp ****  * ON ANY THEORY OF LIABILITY, WHETHER IN CONTRACT, STRICT LIABILITY, OR TORT
  26:/home/jonas/warwick/3dProfilometer/xpcc/src/xpcc/io/iodevice.hpp ****  * (INCLUDING NEGLIGENCE OR OTHERWISE) ARISING IN ANY WAY OUT OF THE USE OF
  27:/home/jonas/warwick/3dProfilometer/xpcc/src/xpcc/io/iodevice.hpp ****  * THIS SOFTWARE, EVEN IF ADVISED OF THE POSSIBILITY OF SUCH DAMAGE.
  28:/home/jonas/warwick/3dProfilometer/xpcc/src/xpcc/io/iodevice.hpp ****  */
  29:/home/jonas/warwick/3dProfilometer/xpcc/src/xpcc/io/iodevice.hpp **** // ----------------------------------------------------------------------------
  30:/home/jonas/warwick/3dProfilometer/xpcc/src/xpcc/io/iodevice.hpp **** 
  31:/home/jonas/warwick/3dProfilometer/xpcc/src/xpcc/io/iodevice.hpp **** #ifndef XPCC__IODEVICE_HPP
  32:/home/jonas/warwick/3dProfilometer/xpcc/src/xpcc/io/iodevice.hpp **** #define XPCC__IODEVICE_HPP
  33:/home/jonas/warwick/3dProfilometer/xpcc/src/xpcc/io/iodevice.hpp **** 
  34:/home/jonas/warwick/3dProfilometer/xpcc/src/xpcc/io/iodevice.hpp **** namespace xpcc
  35:/home/jonas/warwick/3dProfilometer/xpcc/src/xpcc/io/iodevice.hpp **** {
  36:/home/jonas/warwick/3dProfilometer/xpcc/src/xpcc/io/iodevice.hpp **** 	/**
  37:/home/jonas/warwick/3dProfilometer/xpcc/src/xpcc/io/iodevice.hpp **** 	 * \brief 	Abstract calls of io-devices
  38:/home/jonas/warwick/3dProfilometer/xpcc/src/xpcc/io/iodevice.hpp **** 	 *
  39:/home/jonas/warwick/3dProfilometer/xpcc/src/xpcc/io/iodevice.hpp **** 	 * \ingroup io
  40:/home/jonas/warwick/3dProfilometer/xpcc/src/xpcc/io/iodevice.hpp **** 	 * \author	Martin Rosekeit <martin.rosekeit@rwth-aachen.de>
  41:/home/jonas/warwick/3dProfilometer/xpcc/src/xpcc/io/iodevice.hpp **** 	 */
  42:/home/jonas/warwick/3dProfilometer/xpcc/src/xpcc/io/iodevice.hpp **** 	class IODevice
  43:/home/jonas/warwick/3dProfilometer/xpcc/src/xpcc/io/iodevice.hpp **** 	{
  44:/home/jonas/warwick/3dProfilometer/xpcc/src/xpcc/io/iodevice.hpp **** 	public :
  45:/home/jonas/warwick/3dProfilometer/xpcc/src/xpcc/io/iodevice.hpp **** 		IODevice()
  46:/home/jonas/warwick/3dProfilometer/xpcc/src/xpcc/io/iodevice.hpp **** 		{
  47:/home/jonas/warwick/3dProfilometer/xpcc/src/xpcc/io/iodevice.hpp **** 		}
  48:/home/jonas/warwick/3dProfilometer/xpcc/src/xpcc/io/iodevice.hpp **** 		
  49:/home/jonas/warwick/3dProfilometer/xpcc/src/xpcc/io/iodevice.hpp **** 		virtual
  50:/home/jonas/warwick/3dProfilometer/xpcc/src/xpcc/io/iodevice.hpp **** 		~IODevice()
  51:/home/jonas/warwick/3dProfilometer/xpcc/src/xpcc/io/iodevice.hpp **** 		{
  78              		.loc 3 51 0
  79 0000 014B     		ldr	r3, .L4
  80 0002 0360     		str	r3, [r0, #0]
  81              	.LBE26:
  82              	.LBE25:
  83              	.LBE24:
  84              		.loc 2 118 0
  85 0004 7047     		bx	lr
  86              	.L5:
  87 0006 00BF     		.align	2
  88              	.L4:
  89 0008 08000000 		.word	_ZTVN4xpcc8IODeviceE+8
  90              		.cfi_endproc
  91              	.LFE56:
  93              		.weak	_ZN4xpcc16CharacterDisplay6WriterD1Ev
  94              		.thumb_set _ZN4xpcc16CharacterDisplay6WriterD1Ev,_ZN4xpcc16CharacterDisplay6WriterD2Ev
  95              		.section	.text._ZN4xpcc16CharacterDisplay6WriterD0Ev,"axG",%progbits,_ZN4xpcc16CharacterDisplay6Wr
  96              		.align	2
  97              		.weak	_ZN4xpcc16CharacterDisplay6WriterD0Ev
  98              		.thumb
  99              		.thumb_func
 101              	_ZN4xpcc16CharacterDisplay6WriterD0Ev:
 102              	.LFB58:
 103              		.loc 2 118 0
 104              		.cfi_startproc
 105              		@ args = 0, pretend = 0, frame = 0
 106              		@ frame_needed = 0, uses_anonymous_args = 0
 107              	.LVL4:
 108              	.LBB27:
 109              	.LBB28:
 110              	.LBB29:
 111              	.LBB30:
 112              		.loc 3 51 0
 113 0000 034B     		ldr	r3, .L7
 114              	.LBE30:
 115              	.LBE29:
 116              	.LBE28:
 117              	.LBE27:
 118              		.loc 2 118 0
 119 0002 10B5     		push	{r4, lr}
 120              	.LCFI0:
 121              		.cfi_def_cfa_offset 8
 122              		.cfi_offset 4, -8
 123              		.cfi_offset 14, -4
 124              		.loc 2 118 0
 125 0004 0446     		mov	r4, r0
 126              	.LVL5:
 127              	.LBB34:
 128              	.LBB33:
 129              	.LBB32:
 130              	.LBB31:
 131              		.loc 3 51 0
 132 0006 0360     		str	r3, [r0, #0]
 133              	.LBE31:
 134              	.LBE32:
 135              	.LBE33:
 136              	.LBE34:
 137              		.loc 2 118 0
 138 0008 024B     		ldr	r3, .L7+4
 139 000a 9847     		blx	r3
 140              	.LVL6:
 141 000c 2046     		mov	r0, r4
 142 000e 10BD     		pop	{r4, pc}
 143              	.L8:
 144              		.align	2
 145              	.L7:
 146 0010 08000000 		.word	_ZTVN4xpcc8IODeviceE+8
 147 0014 00000000 		.word	_ZdlPv
 148              		.cfi_endproc
 149              	.LFE58:
 151              		.section	.text._ZN4xpcc16CharacterDisplayC2Ehh,"ax",%progbits
 152              		.align	2
 153              		.global	_ZN4xpcc16CharacterDisplayC2Ehh
 154              		.thumb
 155              		.thumb_func
 157              	_ZN4xpcc16CharacterDisplayC2Ehh:
 158              	.LFB49:
  33:/home/jonas/warwick/3dProfilometer/xpcc/src/xpcc/driver/ui/display/character_display.cpp **** xpcc::CharacterDisplay::CharacterDisplay(uint8_t width, uint8_t height) :
 159              		.loc 1 33 0
 160              		.cfi_startproc
 161              		@ args = 0, pretend = 0, frame = 0
 162              		@ frame_needed = 0, uses_anonymous_args = 0
 163              	.LVL7:
 164 0000 70B5     		push	{r4, r5, r6, lr}
 165              	.LCFI1:
 166              		.cfi_def_cfa_offset 16
 167              		.cfi_offset 4, -16
 168              		.cfi_offset 5, -12
 169              		.cfi_offset 6, -8
 170              		.cfi_offset 14, -4
  33:/home/jonas/warwick/3dProfilometer/xpcc/src/xpcc/driver/ui/display/character_display.cpp **** xpcc::CharacterDisplay::CharacterDisplay(uint8_t width, uint8_t height) :
 171              		.loc 1 33 0
 172 0002 0446     		mov	r4, r0
 173 0004 0D46     		mov	r5, r1
 174              	.LBB35:
  37:/home/jonas/warwick/3dProfilometer/xpcc/src/xpcc/driver/ui/display/character_display.cpp **** 	column(0), line(0)
 175              		.loc 1 37 0
 176 0006 0430     		adds	r0, r0, #4
 177              	.LVL8:
 178 0008 04F10C01 		add	r1, r4, #12
 179              	.LVL9:
 180 000c 074B     		ldr	r3, .L10
 181              	.LBE35:
  33:/home/jonas/warwick/3dProfilometer/xpcc/src/xpcc/driver/ui/display/character_display.cpp **** xpcc::CharacterDisplay::CharacterDisplay(uint8_t width, uint8_t height) :
 182              		.loc 1 33 0
 183 000e 1646     		mov	r6, r2
 184              	.LBB40:
  37:/home/jonas/warwick/3dProfilometer/xpcc/src/xpcc/driver/ui/display/character_display.cpp **** 	column(0), line(0)
 185              		.loc 1 37 0
 186 0010 9847     		blx	r3
 187              	.LVL10:
 188 0012 074B     		ldr	r3, .L10+4
 189              	.LBB36:
 190              	.LBB37:
 119:/home/jonas/warwick/3dProfilometer/xpcc/src/xpcc/driver/ui/display/character_display.hpp **** 		{
 120:/home/jonas/warwick/3dProfilometer/xpcc/src/xpcc/driver/ui/display/character_display.hpp **** 		public:
 121:/home/jonas/warwick/3dProfilometer/xpcc/src/xpcc/driver/ui/display/character_display.hpp **** 			Writer(CharacterDisplay *parent) :
 122:/home/jonas/warwick/3dProfilometer/xpcc/src/xpcc/driver/ui/display/character_display.hpp **** 				parent(parent)
 191              		.loc 2 122 0
 192 0014 074A     		ldr	r2, .L10+8
 193              	.LBE37:
 194              	.LBE36:
  37:/home/jonas/warwick/3dProfilometer/xpcc/src/xpcc/driver/ui/display/character_display.cpp **** 	column(0), line(0)
 195              		.loc 1 37 0
 196 0016 2360     		str	r3, [r4, #0]
 197              	.LVL11:
 198 0018 0023     		movs	r3, #0
 199              	.LBB39:
 200              	.LBB38:
 201              		.loc 2 122 0
 202 001a E260     		str	r2, [r4, #12]
 203 001c 2461     		str	r4, [r4, #16]
 204              	.LBE38:
 205              	.LBE39:
  37:/home/jonas/warwick/3dProfilometer/xpcc/src/xpcc/driver/ui/display/character_display.cpp **** 	column(0), line(0)
 206              		.loc 1 37 0
 207 001e 2575     		strb	r5, [r4, #20]
 208 0020 6675     		strb	r6, [r4, #21]
 209 0022 A375     		strb	r3, [r4, #22]
 210 0024 E375     		strb	r3, [r4, #23]
 211              	.LBE40:
  39:/home/jonas/warwick/3dProfilometer/xpcc/src/xpcc/driver/ui/display/character_display.cpp **** }
 212              		.loc 1 39 0
 213 0026 2046     		mov	r0, r4
 214 0028 70BD     		pop	{r4, r5, r6, pc}
 215              	.L11:
 216 002a 00BF     		.align	2
 217              	.L10:
 218 002c 00000000 		.word	_ZN4xpcc8IOStreamC2ERNS_8IODeviceE
 219 0030 08000000 		.word	_ZTVN4xpcc16CharacterDisplayE+8
 220 0034 08000000 		.word	.LANCHOR0+8
 221              		.cfi_endproc
 222              	.LFE49:
 224              		.global	_ZN4xpcc16CharacterDisplayC1Ehh
 225              		.thumb_set _ZN4xpcc16CharacterDisplayC1Ehh,_ZN4xpcc16CharacterDisplayC2Ehh
 226              		.section	.text._ZN4xpcc16CharacterDisplay5writeEc,"ax",%progbits
 227              		.align	2
 228              		.global	_ZN4xpcc16CharacterDisplay5writeEc
 229              		.thumb
 230              		.thumb_func
 232              	_ZN4xpcc16CharacterDisplay5writeEc:
 233              	.LFB51:
  43:/home/jonas/warwick/3dProfilometer/xpcc/src/xpcc/driver/ui/display/character_display.cpp **** {
 234              		.loc 1 43 0
 235              		.cfi_startproc
 236              		@ args = 0, pretend = 0, frame = 0
 237              		@ frame_needed = 0, uses_anonymous_args = 0
 238              	.LVL12:
  44:/home/jonas/warwick/3dProfilometer/xpcc/src/xpcc/driver/ui/display/character_display.cpp **** 	if (c == '\n')
 239              		.loc 1 44 0
 240 0000 0A29     		cmp	r1, #10
  43:/home/jonas/warwick/3dProfilometer/xpcc/src/xpcc/driver/ui/display/character_display.cpp **** {
 241              		.loc 1 43 0
 242 0002 38B5     		push	{r3, r4, r5, lr}
 243              	.LCFI2:
 244              		.cfi_def_cfa_offset 16
 245              		.cfi_offset 3, -16
 246              		.cfi_offset 4, -12
 247              		.cfi_offset 5, -8
 248              		.cfi_offset 14, -4
  43:/home/jonas/warwick/3dProfilometer/xpcc/src/xpcc/driver/ui/display/character_display.cpp **** {
 249              		.loc 1 43 0
 250 0004 0D46     		mov	r5, r1
 251 0006 0446     		mov	r4, r0
  44:/home/jonas/warwick/3dProfilometer/xpcc/src/xpcc/driver/ui/display/character_display.cpp **** 	if (c == '\n')
 252              		.loc 1 44 0
 253 0008 0CD0     		beq	.L19
  54:/home/jonas/warwick/3dProfilometer/xpcc/src/xpcc/driver/ui/display/character_display.cpp **** 		if (column >= lineWidth) {
 254              		.loc 1 54 0
 255 000a 827D     		ldrb	r2, [r0, #22]	@ zero_extendqisi2
 256 000c 037D     		ldrb	r3, [r0, #20]	@ zero_extendqisi2
 257 000e 9A42     		cmp	r2, r3
 258 0010 19D2     		bcs	.L20
 259              	.LVL13:
 260              	.L16:
  57:/home/jonas/warwick/3dProfilometer/xpcc/src/xpcc/driver/ui/display/character_display.cpp **** 		this->writeRaw(c);
 261              		.loc 1 57 0
 262 0012 2368     		ldr	r3, [r4, #0]
 263 0014 2046     		mov	r0, r4
 264 0016 5B68     		ldr	r3, [r3, #4]
 265 0018 2946     		mov	r1, r5
 266 001a 9847     		blx	r3
 267              	.LVL14:
  58:/home/jonas/warwick/3dProfilometer/xpcc/src/xpcc/driver/ui/display/character_display.cpp **** 		column++;
 268              		.loc 1 58 0
 269 001c A37D     		ldrb	r3, [r4, #22]	@ zero_extendqisi2
 270 001e 0133     		adds	r3, r3, #1
 271 0020 A375     		strb	r3, [r4, #22]
 272 0022 38BD     		pop	{r3, r4, r5, pc}
 273              	.LVL15:
 274              	.L19:
  46:/home/jonas/warwick/3dProfilometer/xpcc/src/xpcc/driver/ui/display/character_display.cpp **** 		line++;
 275              		.loc 1 46 0
 276 0024 C37D     		ldrb	r3, [r0, #23]	@ zero_extendqisi2
  47:/home/jonas/warwick/3dProfilometer/xpcc/src/xpcc/driver/ui/display/character_display.cpp **** 		if (line >= lineCount) {
 277              		.loc 1 47 0
 278 0026 427D     		ldrb	r2, [r0, #21]	@ zero_extendqisi2
  46:/home/jonas/warwick/3dProfilometer/xpcc/src/xpcc/driver/ui/display/character_display.cpp **** 		line++;
 279              		.loc 1 46 0
 280 0028 0133     		adds	r3, r3, #1
 281 002a DBB2     		uxtb	r3, r3
  47:/home/jonas/warwick/3dProfilometer/xpcc/src/xpcc/driver/ui/display/character_display.cpp **** 		if (line >= lineCount) {
 282              		.loc 1 47 0
 283 002c 9A42     		cmp	r2, r3
  46:/home/jonas/warwick/3dProfilometer/xpcc/src/xpcc/driver/ui/display/character_display.cpp **** 		line++;
 284              		.loc 1 46 0
 285 002e C375     		strb	r3, [r0, #23]
  47:/home/jonas/warwick/3dProfilometer/xpcc/src/xpcc/driver/ui/display/character_display.cpp **** 		if (line >= lineCount) {
 286              		.loc 1 47 0
 287 0030 01D8     		bhi	.L14
  48:/home/jonas/warwick/3dProfilometer/xpcc/src/xpcc/driver/ui/display/character_display.cpp **** 			line = 0;
 288              		.loc 1 48 0
 289 0032 0023     		movs	r3, #0
 290 0034 C375     		strb	r3, [r0, #23]
 291              	.L14:
  50:/home/jonas/warwick/3dProfilometer/xpcc/src/xpcc/driver/ui/display/character_display.cpp **** 		column = 0;
 292              		.loc 1 50 0
 293 0036 0021     		movs	r1, #0
 294              	.LVL16:
  51:/home/jonas/warwick/3dProfilometer/xpcc/src/xpcc/driver/ui/display/character_display.cpp **** 		this->setCursor(column, line);
 295              		.loc 1 51 0
 296 0038 2368     		ldr	r3, [r4, #0]
  50:/home/jonas/warwick/3dProfilometer/xpcc/src/xpcc/driver/ui/display/character_display.cpp **** 		column = 0;
 297              		.loc 1 50 0
 298 003a A175     		strb	r1, [r4, #22]
  51:/home/jonas/warwick/3dProfilometer/xpcc/src/xpcc/driver/ui/display/character_display.cpp **** 		this->setCursor(column, line);
 299              		.loc 1 51 0
 300 003c 2046     		mov	r0, r4
 301              	.LVL17:
 302 003e DB68     		ldr	r3, [r3, #12]
 303 0040 E27D     		ldrb	r2, [r4, #23]	@ zero_extendqisi2
 304 0042 9847     		blx	r3
 305              	.LVL18:
 306 0044 38BD     		pop	{r3, r4, r5, pc}
 307              	.LVL19:
 308              	.L20:
 309              	.LBB43:
 310              	.LBB44:
  46:/home/jonas/warwick/3dProfilometer/xpcc/src/xpcc/driver/ui/display/character_display.cpp **** 		line++;
 311              		.loc 1 46 0
 312 0046 C37D     		ldrb	r3, [r0, #23]	@ zero_extendqisi2
  47:/home/jonas/warwick/3dProfilometer/xpcc/src/xpcc/driver/ui/display/character_display.cpp **** 		if (line >= lineCount) {
 313              		.loc 1 47 0
 314 0048 427D     		ldrb	r2, [r0, #21]	@ zero_extendqisi2
  46:/home/jonas/warwick/3dProfilometer/xpcc/src/xpcc/driver/ui/display/character_display.cpp **** 		line++;
 315              		.loc 1 46 0
 316 004a 0133     		adds	r3, r3, #1
 317 004c DBB2     		uxtb	r3, r3
  47:/home/jonas/warwick/3dProfilometer/xpcc/src/xpcc/driver/ui/display/character_display.cpp **** 		if (line >= lineCount) {
 318              		.loc 1 47 0
 319 004e 9A42     		cmp	r2, r3
  46:/home/jonas/warwick/3dProfilometer/xpcc/src/xpcc/driver/ui/display/character_display.cpp **** 		line++;
 320              		.loc 1 46 0
 321 0050 C375     		strb	r3, [r0, #23]
  47:/home/jonas/warwick/3dProfilometer/xpcc/src/xpcc/driver/ui/display/character_display.cpp **** 		if (line >= lineCount) {
 322              		.loc 1 47 0
 323 0052 01D8     		bhi	.L17
  48:/home/jonas/warwick/3dProfilometer/xpcc/src/xpcc/driver/ui/display/character_display.cpp **** 			line = 0;
 324              		.loc 1 48 0
 325 0054 0023     		movs	r3, #0
 326 0056 C375     		strb	r3, [r0, #23]
 327              	.L17:
  50:/home/jonas/warwick/3dProfilometer/xpcc/src/xpcc/driver/ui/display/character_display.cpp **** 		column = 0;
 328              		.loc 1 50 0
 329 0058 0021     		movs	r1, #0
 330              	.LVL20:
  51:/home/jonas/warwick/3dProfilometer/xpcc/src/xpcc/driver/ui/display/character_display.cpp **** 		this->setCursor(column, line);
 331              		.loc 1 51 0
 332 005a 2368     		ldr	r3, [r4, #0]
  50:/home/jonas/warwick/3dProfilometer/xpcc/src/xpcc/driver/ui/display/character_display.cpp **** 		column = 0;
 333              		.loc 1 50 0
 334 005c A175     		strb	r1, [r4, #22]
  51:/home/jonas/warwick/3dProfilometer/xpcc/src/xpcc/driver/ui/display/character_display.cpp **** 		this->setCursor(column, line);
 335              		.loc 1 51 0
 336 005e DB68     		ldr	r3, [r3, #12]
 337 0060 E27D     		ldrb	r2, [r4, #23]	@ zero_extendqisi2
 338 0062 2046     		mov	r0, r4
 339              	.LVL21:
 340 0064 9847     		blx	r3
 341              	.LVL22:
 342 0066 D4E7     		b	.L16
 343              	.LBE44:
 344              	.LBE43:
 345              		.cfi_endproc
 346              	.LFE51:
 348              		.section	.text._ZN4xpcc16CharacterDisplay6Writer5writeEc,"ax",%progbits
 349              		.align	2
 350              		.global	_ZN4xpcc16CharacterDisplay6Writer5writeEc
 351              		.thumb
 352              		.thumb_func
 354              	_ZN4xpcc16CharacterDisplay6Writer5writeEc:
 355              	.LFB52:
  65:/home/jonas/warwick/3dProfilometer/xpcc/src/xpcc/driver/ui/display/character_display.cpp **** {
 356              		.loc 1 65 0
 357              		.cfi_startproc
 358              		@ args = 0, pretend = 0, frame = 0
 359              		@ frame_needed = 0, uses_anonymous_args = 0
 360              	.LVL23:
 361              	.LBB47:
 362              	.LBB48:
  44:/home/jonas/warwick/3dProfilometer/xpcc/src/xpcc/driver/ui/display/character_display.cpp **** 	if (c == '\n')
 363              		.loc 1 44 0
 364 0000 0A29     		cmp	r1, #10
 365              	.LBE48:
 366              	.LBE47:
  65:/home/jonas/warwick/3dProfilometer/xpcc/src/xpcc/driver/ui/display/character_display.cpp **** {
 367              		.loc 1 65 0
 368 0002 38B5     		push	{r3, r4, r5, lr}
 369              	.LCFI3:
 370              		.cfi_def_cfa_offset 16
 371              		.cfi_offset 3, -16
 372              		.cfi_offset 4, -12
 373              		.cfi_offset 5, -8
 374              		.cfi_offset 14, -4
  65:/home/jonas/warwick/3dProfilometer/xpcc/src/xpcc/driver/ui/display/character_display.cpp **** {
 375              		.loc 1 65 0
 376 0004 0D46     		mov	r5, r1
  66:/home/jonas/warwick/3dProfilometer/xpcc/src/xpcc/driver/ui/display/character_display.cpp **** 	this->parent->write(c);
 377              		.loc 1 66 0
 378 0006 4468     		ldr	r4, [r0, #4]
 379              	.LVL24:
 380              	.LBB50:
 381              	.LBB49:
  44:/home/jonas/warwick/3dProfilometer/xpcc/src/xpcc/driver/ui/display/character_display.cpp **** 	if (c == '\n')
 382              		.loc 1 44 0
 383 0008 0CD0     		beq	.L26
  54:/home/jonas/warwick/3dProfilometer/xpcc/src/xpcc/driver/ui/display/character_display.cpp **** 		if (column >= lineWidth) {
 384              		.loc 1 54 0
 385 000a A27D     		ldrb	r2, [r4, #22]	@ zero_extendqisi2
 386 000c 237D     		ldrb	r3, [r4, #20]	@ zero_extendqisi2
 387 000e 9A42     		cmp	r2, r3
 388 0010 19D2     		bcs	.L27
 389              	.LVL25:
 390              	.L25:
  57:/home/jonas/warwick/3dProfilometer/xpcc/src/xpcc/driver/ui/display/character_display.cpp **** 		this->writeRaw(c);
 391              		.loc 1 57 0
 392 0012 2368     		ldr	r3, [r4, #0]
 393 0014 2046     		mov	r0, r4
 394 0016 5B68     		ldr	r3, [r3, #4]
 395 0018 2946     		mov	r1, r5
 396 001a 9847     		blx	r3
 397              	.LVL26:
  58:/home/jonas/warwick/3dProfilometer/xpcc/src/xpcc/driver/ui/display/character_display.cpp **** 		column++;
 398              		.loc 1 58 0
 399 001c A37D     		ldrb	r3, [r4, #22]	@ zero_extendqisi2
 400 001e 0133     		adds	r3, r3, #1
 401 0020 A375     		strb	r3, [r4, #22]
 402 0022 38BD     		pop	{r3, r4, r5, pc}
 403              	.LVL27:
 404              	.L26:
  46:/home/jonas/warwick/3dProfilometer/xpcc/src/xpcc/driver/ui/display/character_display.cpp **** 		line++;
 405              		.loc 1 46 0
 406 0024 E37D     		ldrb	r3, [r4, #23]	@ zero_extendqisi2
  47:/home/jonas/warwick/3dProfilometer/xpcc/src/xpcc/driver/ui/display/character_display.cpp **** 		if (line >= lineCount) {
 407              		.loc 1 47 0
 408 0026 627D     		ldrb	r2, [r4, #21]	@ zero_extendqisi2
  46:/home/jonas/warwick/3dProfilometer/xpcc/src/xpcc/driver/ui/display/character_display.cpp **** 		line++;
 409              		.loc 1 46 0
 410 0028 0133     		adds	r3, r3, #1
 411 002a DBB2     		uxtb	r3, r3
  47:/home/jonas/warwick/3dProfilometer/xpcc/src/xpcc/driver/ui/display/character_display.cpp **** 		if (line >= lineCount) {
 412              		.loc 1 47 0
 413 002c 9A42     		cmp	r2, r3
  46:/home/jonas/warwick/3dProfilometer/xpcc/src/xpcc/driver/ui/display/character_display.cpp **** 		line++;
 414              		.loc 1 46 0
 415 002e E375     		strb	r3, [r4, #23]
  47:/home/jonas/warwick/3dProfilometer/xpcc/src/xpcc/driver/ui/display/character_display.cpp **** 		if (line >= lineCount) {
 416              		.loc 1 47 0
 417 0030 01D8     		bhi	.L23
  48:/home/jonas/warwick/3dProfilometer/xpcc/src/xpcc/driver/ui/display/character_display.cpp **** 			line = 0;
 418              		.loc 1 48 0
 419 0032 0023     		movs	r3, #0
 420 0034 E375     		strb	r3, [r4, #23]
 421              	.L23:
  50:/home/jonas/warwick/3dProfilometer/xpcc/src/xpcc/driver/ui/display/character_display.cpp **** 		column = 0;
 422              		.loc 1 50 0
 423 0036 0021     		movs	r1, #0
 424              	.LVL28:
  51:/home/jonas/warwick/3dProfilometer/xpcc/src/xpcc/driver/ui/display/character_display.cpp **** 		this->setCursor(column, line);
 425              		.loc 1 51 0
 426 0038 2368     		ldr	r3, [r4, #0]
  50:/home/jonas/warwick/3dProfilometer/xpcc/src/xpcc/driver/ui/display/character_display.cpp **** 		column = 0;
 427              		.loc 1 50 0
 428 003a A175     		strb	r1, [r4, #22]
  51:/home/jonas/warwick/3dProfilometer/xpcc/src/xpcc/driver/ui/display/character_display.cpp **** 		this->setCursor(column, line);
 429              		.loc 1 51 0
 430 003c 2046     		mov	r0, r4
 431              	.LVL29:
 432 003e DB68     		ldr	r3, [r3, #12]
 433 0040 E27D     		ldrb	r2, [r4, #23]	@ zero_extendqisi2
 434 0042 9847     		blx	r3
 435              	.LVL30:
 436 0044 38BD     		pop	{r3, r4, r5, pc}
 437              	.LVL31:
 438              	.L27:
  55:/home/jonas/warwick/3dProfilometer/xpcc/src/xpcc/driver/ui/display/character_display.cpp **** 			this->write('\n');
 439              		.loc 1 55 0
 440 0046 2046     		mov	r0, r4
 441              	.LVL32:
 442 0048 0A21     		movs	r1, #10
 443              	.LVL33:
 444 004a 014B     		ldr	r3, .L28
 445 004c 9847     		blx	r3
 446              	.LVL34:
 447 004e E0E7     		b	.L25
 448              	.L29:
 449              		.align	2
 450              	.L28:
 451 0050 00000000 		.word	_ZN4xpcc16CharacterDisplay5writeEc
 452              	.LBE49:
 453              	.LBE50:
 454              		.cfi_endproc
 455              	.LFE52:
 457              		.global	_ZTVN4xpcc16CharacterDisplay6WriterE
 458              		.weak	_ZTVN4xpcc16CharacterDisplayE
 459              		.section	.rodata._ZTVN4xpcc16CharacterDisplayE,"aG",%progbits,_ZTVN4xpcc16CharacterDisplayE,comdat
 460              		.align	3
 463              	_ZTVN4xpcc16CharacterDisplayE:
 464 0000 00000000 		.word	0
 465 0004 00000000 		.word	0
 466 0008 00000000 		.word	__cxa_pure_virtual
 467 000c 00000000 		.word	__cxa_pure_virtual
 468 0010 00000000 		.word	__cxa_pure_virtual
 469 0014 00000000 		.word	__cxa_pure_virtual
 470              		.section	.rodata._ZTVN4xpcc16CharacterDisplay6WriterE,"a",%progbits
 471              		.align	3
 472              		.set	.LANCHOR0,. + 0
 475              	_ZTVN4xpcc16CharacterDisplay6WriterE:
 476 0000 00000000 		.word	0
 477 0004 00000000 		.word	0
 478 0008 00000000 		.word	_ZN4xpcc16CharacterDisplay6WriterD1Ev
 479 000c 00000000 		.word	_ZN4xpcc16CharacterDisplay6WriterD0Ev
 480 0010 00000000 		.word	_ZN4xpcc16CharacterDisplay6Writer5writeEc
 481 0014 00000000 		.word	_ZN4xpcc8IODevice5writeEPKc
 482 0018 00000000 		.word	_ZN4xpcc16CharacterDisplay6Writer5flushEv
 483 001c 00000000 		.word	_ZN4xpcc16CharacterDisplay6Writer4readERc
 484              		.text
 485              	.Letext0:
 486              		.file 4 "/opt/arm-2012.09/bin/../lib/gcc/arm-none-eabi/4.7.2/../../../../arm-none-eabi/include/std
 487              		.file 5 "/home/jonas/warwick/3dProfilometer/xpcc/src/xpcc/io/iostream.hpp"