   1              		.syntax unified
   2              		.cpu cortex-m4
   3              		.eabi_attribute 27, 3
   4              		.fpu fpv4-sp-d16
   5              		.eabi_attribute 20, 1
   6              		.eabi_attribute 21, 1
   7              		.eabi_attribute 23, 3
   8              		.eabi_attribute 24, 1
   9              		.eabi_attribute 25, 1
  10              		.eabi_attribute 26, 1
  11              		.eabi_attribute 30, 2
  12              		.eabi_attribute 34, 1
  13              		.eabi_attribute 18, 4
  14              		.thumb
  15              		.file	"graphic_display.cpp"
  16              		.text
  17              	.Ltext0:
  18              		.cfi_sections	.debug_frame
  19              		.section	.text._ZN4xpcc14GraphicDisplayD2Ev,"axG",%progbits,_ZN4xpcc14GraphicDisplayD5Ev,comdat
  20              		.align	2
  21              		.weak	_ZN4xpcc14GraphicDisplayD2Ev
  22              		.thumb
  23              		.thumb_func
  25              	_ZN4xpcc14GraphicDisplayD2Ev:
  26              	.LFB1188:
  27              		.file 1 "/home/jonas/warwick/3dProfilometer/xpcc/src/xpcc/driver/ui/display/graphic_display.hpp"
   1:/home/jonas/warwick/3dProfilometer/xpcc/src/xpcc/driver/ui/display/graphic_display.hpp **** // coding: utf-8
   2:/home/jonas/warwick/3dProfilometer/xpcc/src/xpcc/driver/ui/display/graphic_display.hpp **** // ----------------------------------------------------------------------------
   3:/home/jonas/warwick/3dProfilometer/xpcc/src/xpcc/driver/ui/display/graphic_display.hpp **** /* Copyright (c) 2009, Roboterclub Aachen e.V.
   4:/home/jonas/warwick/3dProfilometer/xpcc/src/xpcc/driver/ui/display/graphic_display.hpp ****  * All rights reserved.
   5:/home/jonas/warwick/3dProfilometer/xpcc/src/xpcc/driver/ui/display/graphic_display.hpp ****  *
   6:/home/jonas/warwick/3dProfilometer/xpcc/src/xpcc/driver/ui/display/graphic_display.hpp ****  * Redistribution and use in source and binary forms, with or without
   7:/home/jonas/warwick/3dProfilometer/xpcc/src/xpcc/driver/ui/display/graphic_display.hpp ****  * modification, are permitted provided that the following conditions are met:
   8:/home/jonas/warwick/3dProfilometer/xpcc/src/xpcc/driver/ui/display/graphic_display.hpp ****  * 
   9:/home/jonas/warwick/3dProfilometer/xpcc/src/xpcc/driver/ui/display/graphic_display.hpp ****  *     * Redistributions of source code must retain the above copyright
  10:/home/jonas/warwick/3dProfilometer/xpcc/src/xpcc/driver/ui/display/graphic_display.hpp ****  *       notice, this list of conditions and the following disclaimer.
  11:/home/jonas/warwick/3dProfilometer/xpcc/src/xpcc/driver/ui/display/graphic_display.hpp ****  *     * Redistributions in binary form must reproduce the above copyright
  12:/home/jonas/warwick/3dProfilometer/xpcc/src/xpcc/driver/ui/display/graphic_display.hpp ****  *       notice, this list of conditions and the following disclaimer in the
  13:/home/jonas/warwick/3dProfilometer/xpcc/src/xpcc/driver/ui/display/graphic_display.hpp ****  *       documentation and/or other materials provided with the distribution.
  14:/home/jonas/warwick/3dProfilometer/xpcc/src/xpcc/driver/ui/display/graphic_display.hpp ****  *     * Neither the name of the Roboterclub Aachen e.V. nor the
  15:/home/jonas/warwick/3dProfilometer/xpcc/src/xpcc/driver/ui/display/graphic_display.hpp ****  *       names of its contributors may be used to endorse or promote products
  16:/home/jonas/warwick/3dProfilometer/xpcc/src/xpcc/driver/ui/display/graphic_display.hpp ****  *       derived from this software without specific prior written permission.
  17:/home/jonas/warwick/3dProfilometer/xpcc/src/xpcc/driver/ui/display/graphic_display.hpp ****  *
  18:/home/jonas/warwick/3dProfilometer/xpcc/src/xpcc/driver/ui/display/graphic_display.hpp ****  * THIS SOFTWARE IS PROVIDED BY ROBOTERCLUB AACHEN E.V. ''AS IS'' AND ANY
  19:/home/jonas/warwick/3dProfilometer/xpcc/src/xpcc/driver/ui/display/graphic_display.hpp ****  * EXPRESS OR IMPLIED WARRANTIES, INCLUDING, BUT NOT LIMITED TO, THE IMPLIED
  20:/home/jonas/warwick/3dProfilometer/xpcc/src/xpcc/driver/ui/display/graphic_display.hpp ****  * WARRANTIES OF MERCHANTABILITY AND FITNESS FOR A PARTICULAR PURPOSE ARE
  21:/home/jonas/warwick/3dProfilometer/xpcc/src/xpcc/driver/ui/display/graphic_display.hpp ****  * DISCLAIMED. IN NO EVENT SHALL ROBOTERCLUB AACHEN E.V. BE LIABLE FOR ANY
  22:/home/jonas/warwick/3dProfilometer/xpcc/src/xpcc/driver/ui/display/graphic_display.hpp ****  * DIRECT, INDIRECT, INCIDENTAL, SPECIAL, EXEMPLARY, OR CONSEQUENTIAL DAMAGES
  23:/home/jonas/warwick/3dProfilometer/xpcc/src/xpcc/driver/ui/display/graphic_display.hpp ****  * (INCLUDING, BUT NOT LIMITED TO, PROCUREMENT OF SUBSTITUTE GOODS OR SERVICES;
  24:/home/jonas/warwick/3dProfilometer/xpcc/src/xpcc/driver/ui/display/graphic_display.hpp ****  * LOSS OF USE, DATA, OR PROFITS; OR BUSINESS INTERRUPTION) HOWEVER CAUSED AND
  25:/home/jonas/warwick/3dProfilometer/xpcc/src/xpcc/driver/ui/display/graphic_display.hpp ****  * ON ANY THEORY OF LIABILITY, WHETHER IN CONTRACT, STRICT LIABILITY, OR TORT
  26:/home/jonas/warwick/3dProfilometer/xpcc/src/xpcc/driver/ui/display/graphic_display.hpp ****  * (INCLUDING NEGLIGENCE OR OTHERWISE) ARISING IN ANY WAY OUT OF THE USE OF
  27:/home/jonas/warwick/3dProfilometer/xpcc/src/xpcc/driver/ui/display/graphic_display.hpp ****  * THIS SOFTWARE, EVEN IF ADVISED OF THE POSSIBILITY OF SUCH DAMAGE.
  28:/home/jonas/warwick/3dProfilometer/xpcc/src/xpcc/driver/ui/display/graphic_display.hpp ****  */
  29:/home/jonas/warwick/3dProfilometer/xpcc/src/xpcc/driver/ui/display/graphic_display.hpp **** // ----------------------------------------------------------------------------
  30:/home/jonas/warwick/3dProfilometer/xpcc/src/xpcc/driver/ui/display/graphic_display.hpp **** 
  31:/home/jonas/warwick/3dProfilometer/xpcc/src/xpcc/driver/ui/display/graphic_display.hpp **** #ifndef XPCC__GRAPHIC_DISPLAY_HPP
  32:/home/jonas/warwick/3dProfilometer/xpcc/src/xpcc/driver/ui/display/graphic_display.hpp **** #define XPCC__GRAPHIC_DISPLAY_HPP
  33:/home/jonas/warwick/3dProfilometer/xpcc/src/xpcc/driver/ui/display/graphic_display.hpp **** 
  34:/home/jonas/warwick/3dProfilometer/xpcc/src/xpcc/driver/ui/display/graphic_display.hpp **** #include <xpcc/architecture/driver/accessor.hpp>
  35:/home/jonas/warwick/3dProfilometer/xpcc/src/xpcc/driver/ui/display/graphic_display.hpp **** #include <xpcc/math/geometry.hpp>
  36:/home/jonas/warwick/3dProfilometer/xpcc/src/xpcc/driver/ui/display/graphic_display.hpp **** 
  37:/home/jonas/warwick/3dProfilometer/xpcc/src/xpcc/driver/ui/display/graphic_display.hpp **** #include <xpcc/io/iodevice.hpp>
  38:/home/jonas/warwick/3dProfilometer/xpcc/src/xpcc/driver/ui/display/graphic_display.hpp **** #include <xpcc/io/iostream.hpp>
  39:/home/jonas/warwick/3dProfilometer/xpcc/src/xpcc/driver/ui/display/graphic_display.hpp **** 
  40:/home/jonas/warwick/3dProfilometer/xpcc/src/xpcc/driver/ui/display/graphic_display.hpp **** #include "font.hpp"
  41:/home/jonas/warwick/3dProfilometer/xpcc/src/xpcc/driver/ui/display/graphic_display.hpp **** 
  42:/home/jonas/warwick/3dProfilometer/xpcc/src/xpcc/driver/ui/display/graphic_display.hpp **** namespace xpcc
  43:/home/jonas/warwick/3dProfilometer/xpcc/src/xpcc/driver/ui/display/graphic_display.hpp **** {
  44:/home/jonas/warwick/3dProfilometer/xpcc/src/xpcc/driver/ui/display/graphic_display.hpp **** 	namespace glcd
  45:/home/jonas/warwick/3dProfilometer/xpcc/src/xpcc/driver/ui/display/graphic_display.hpp **** 	{
  46:/home/jonas/warwick/3dProfilometer/xpcc/src/xpcc/driver/ui/display/graphic_display.hpp **** 		typedef Vector<int16_t, 2> Point;
  47:/home/jonas/warwick/3dProfilometer/xpcc/src/xpcc/driver/ui/display/graphic_display.hpp **** 		
  48:/home/jonas/warwick/3dProfilometer/xpcc/src/xpcc/driver/ui/display/graphic_display.hpp **** 		// RGB16 (565) Format
  49:/home/jonas/warwick/3dProfilometer/xpcc/src/xpcc/driver/ui/display/graphic_display.hpp **** 		class Color
  50:/home/jonas/warwick/3dProfilometer/xpcc/src/xpcc/driver/ui/display/graphic_display.hpp **** 		{
  51:/home/jonas/warwick/3dProfilometer/xpcc/src/xpcc/driver/ui/display/graphic_display.hpp **** 		public:
  52:/home/jonas/warwick/3dProfilometer/xpcc/src/xpcc/driver/ui/display/graphic_display.hpp **** 			static ALWAYS_INLINE Color white()   { return Color(0xffff); };
  53:/home/jonas/warwick/3dProfilometer/xpcc/src/xpcc/driver/ui/display/graphic_display.hpp **** 			static ALWAYS_INLINE Color yellow()  { return Color(0xFFE0); };
  54:/home/jonas/warwick/3dProfilometer/xpcc/src/xpcc/driver/ui/display/graphic_display.hpp **** 			static ALWAYS_INLINE Color magenta() { return Color(0xF81F); };
  55:/home/jonas/warwick/3dProfilometer/xpcc/src/xpcc/driver/ui/display/graphic_display.hpp **** 			static ALWAYS_INLINE Color red()     { return Color(0xF800); };
  56:/home/jonas/warwick/3dProfilometer/xpcc/src/xpcc/driver/ui/display/graphic_display.hpp **** 			static ALWAYS_INLINE Color orange()  { return Color(0xFD20); };
  57:/home/jonas/warwick/3dProfilometer/xpcc/src/xpcc/driver/ui/display/graphic_display.hpp **** 			static ALWAYS_INLINE Color sliver()  { return Color(0xC618); };
  58:/home/jonas/warwick/3dProfilometer/xpcc/src/xpcc/driver/ui/display/graphic_display.hpp **** 			static ALWAYS_INLINE Color gray()    { return Color(0x8410); };
  59:/home/jonas/warwick/3dProfilometer/xpcc/src/xpcc/driver/ui/display/graphic_display.hpp **** 			static ALWAYS_INLINE Color maroon()  { return Color(0x8000); };
  60:/home/jonas/warwick/3dProfilometer/xpcc/src/xpcc/driver/ui/display/graphic_display.hpp **** 			static ALWAYS_INLINE Color lime()    { return Color(0x07E0); };
  61:/home/jonas/warwick/3dProfilometer/xpcc/src/xpcc/driver/ui/display/graphic_display.hpp **** 			static ALWAYS_INLINE Color green()   { return Color(0x0400); };
  62:/home/jonas/warwick/3dProfilometer/xpcc/src/xpcc/driver/ui/display/graphic_display.hpp **** 			static ALWAYS_INLINE Color blue()    { return Color(0x001F); };
  63:/home/jonas/warwick/3dProfilometer/xpcc/src/xpcc/driver/ui/display/graphic_display.hpp **** 			static ALWAYS_INLINE Color navy()    { return Color(0x0010); };
  64:/home/jonas/warwick/3dProfilometer/xpcc/src/xpcc/driver/ui/display/graphic_display.hpp **** 			static ALWAYS_INLINE Color black()   { return Color(0x0000); };
  65:/home/jonas/warwick/3dProfilometer/xpcc/src/xpcc/driver/ui/display/graphic_display.hpp **** 			
  66:/home/jonas/warwick/3dProfilometer/xpcc/src/xpcc/driver/ui/display/graphic_display.hpp **** 			/**
  67:/home/jonas/warwick/3dProfilometer/xpcc/src/xpcc/driver/ui/display/graphic_display.hpp **** 			 * @param	red
  68:/home/jonas/warwick/3dProfilometer/xpcc/src/xpcc/driver/ui/display/graphic_display.hpp **** 			 * 		Range [0..255]
  69:/home/jonas/warwick/3dProfilometer/xpcc/src/xpcc/driver/ui/display/graphic_display.hpp **** 			 * @param	green
  70:/home/jonas/warwick/3dProfilometer/xpcc/src/xpcc/driver/ui/display/graphic_display.hpp **** 			 * 		Range [0..255]
  71:/home/jonas/warwick/3dProfilometer/xpcc/src/xpcc/driver/ui/display/graphic_display.hpp **** 			 * @param	blue
  72:/home/jonas/warwick/3dProfilometer/xpcc/src/xpcc/driver/ui/display/graphic_display.hpp **** 			 * 		Range [0..255]
  73:/home/jonas/warwick/3dProfilometer/xpcc/src/xpcc/driver/ui/display/graphic_display.hpp **** 			 */
  74:/home/jonas/warwick/3dProfilometer/xpcc/src/xpcc/driver/ui/display/graphic_display.hpp **** 			Color(uint8_t red, uint8_t green, uint8_t blue) :
  75:/home/jonas/warwick/3dProfilometer/xpcc/src/xpcc/driver/ui/display/graphic_display.hpp **** 				color(((static_cast<uint16_t>(red >> 3) << 11) |
  76:/home/jonas/warwick/3dProfilometer/xpcc/src/xpcc/driver/ui/display/graphic_display.hpp **** 						(static_cast<uint16_t>(green >> 2) << 5) |
  77:/home/jonas/warwick/3dProfilometer/xpcc/src/xpcc/driver/ui/display/graphic_display.hpp **** 						static_cast<uint16_t>(blue >> 3)))
  78:/home/jonas/warwick/3dProfilometer/xpcc/src/xpcc/driver/ui/display/graphic_display.hpp **** 			{
  79:/home/jonas/warwick/3dProfilometer/xpcc/src/xpcc/driver/ui/display/graphic_display.hpp **** 			}
  80:/home/jonas/warwick/3dProfilometer/xpcc/src/xpcc/driver/ui/display/graphic_display.hpp **** 			
  81:/home/jonas/warwick/3dProfilometer/xpcc/src/xpcc/driver/ui/display/graphic_display.hpp **** 			Color(uint16_t color) :
  82:/home/jonas/warwick/3dProfilometer/xpcc/src/xpcc/driver/ui/display/graphic_display.hpp **** 				color(color)
  83:/home/jonas/warwick/3dProfilometer/xpcc/src/xpcc/driver/ui/display/graphic_display.hpp **** 			{
  84:/home/jonas/warwick/3dProfilometer/xpcc/src/xpcc/driver/ui/display/graphic_display.hpp **** 			}
  85:/home/jonas/warwick/3dProfilometer/xpcc/src/xpcc/driver/ui/display/graphic_display.hpp **** 			
  86:/home/jonas/warwick/3dProfilometer/xpcc/src/xpcc/driver/ui/display/graphic_display.hpp **** 			inline uint16_t
  87:/home/jonas/warwick/3dProfilometer/xpcc/src/xpcc/driver/ui/display/graphic_display.hpp **** 			getValue() const
  88:/home/jonas/warwick/3dProfilometer/xpcc/src/xpcc/driver/ui/display/graphic_display.hpp **** 			{
  89:/home/jonas/warwick/3dProfilometer/xpcc/src/xpcc/driver/ui/display/graphic_display.hpp **** 				return color;
  90:/home/jonas/warwick/3dProfilometer/xpcc/src/xpcc/driver/ui/display/graphic_display.hpp **** 			}
  91:/home/jonas/warwick/3dProfilometer/xpcc/src/xpcc/driver/ui/display/graphic_display.hpp **** 			
  92:/home/jonas/warwick/3dProfilometer/xpcc/src/xpcc/driver/ui/display/graphic_display.hpp **** 			bool
  93:/home/jonas/warwick/3dProfilometer/xpcc/src/xpcc/driver/ui/display/graphic_display.hpp **** 			operator == (const Color& other) const {
  94:/home/jonas/warwick/3dProfilometer/xpcc/src/xpcc/driver/ui/display/graphic_display.hpp **** 				return (color == other.color);
  95:/home/jonas/warwick/3dProfilometer/xpcc/src/xpcc/driver/ui/display/graphic_display.hpp **** 			}
  96:/home/jonas/warwick/3dProfilometer/xpcc/src/xpcc/driver/ui/display/graphic_display.hpp **** 			
  97:/home/jonas/warwick/3dProfilometer/xpcc/src/xpcc/driver/ui/display/graphic_display.hpp **** 		private:
  98:/home/jonas/warwick/3dProfilometer/xpcc/src/xpcc/driver/ui/display/graphic_display.hpp **** 			uint16_t color;
  99:/home/jonas/warwick/3dProfilometer/xpcc/src/xpcc/driver/ui/display/graphic_display.hpp **** 		};
 100:/home/jonas/warwick/3dProfilometer/xpcc/src/xpcc/driver/ui/display/graphic_display.hpp **** 	}
 101:/home/jonas/warwick/3dProfilometer/xpcc/src/xpcc/driver/ui/display/graphic_display.hpp **** 	
 102:/home/jonas/warwick/3dProfilometer/xpcc/src/xpcc/driver/ui/display/graphic_display.hpp **** 	// TODO
 103:/home/jonas/warwick/3dProfilometer/xpcc/src/xpcc/driver/ui/display/graphic_display.hpp **** //	enum class Orientation : uint8_t
 104:/home/jonas/warwick/3dProfilometer/xpcc/src/xpcc/driver/ui/display/graphic_display.hpp **** //	{
 105:/home/jonas/warwick/3dProfilometer/xpcc/src/xpcc/driver/ui/display/graphic_display.hpp **** //		Portrait, 				//< Connector top
 106:/home/jonas/warwick/3dProfilometer/xpcc/src/xpcc/driver/ui/display/graphic_display.hpp **** //		LandscapeRight,			//< Connector right
 107:/home/jonas/warwick/3dProfilometer/xpcc/src/xpcc/driver/ui/display/graphic_display.hpp **** //		LandscapeLeft,			//< Connector left
 108:/home/jonas/warwick/3dProfilometer/xpcc/src/xpcc/driver/ui/display/graphic_display.hpp **** //		PortraitUpsideDown,		//< Connector bottom
 109:/home/jonas/warwick/3dProfilometer/xpcc/src/xpcc/driver/ui/display/graphic_display.hpp **** //	};
 110:/home/jonas/warwick/3dProfilometer/xpcc/src/xpcc/driver/ui/display/graphic_display.hpp **** 	
 111:/home/jonas/warwick/3dProfilometer/xpcc/src/xpcc/driver/ui/display/graphic_display.hpp **** 	/**
 112:/home/jonas/warwick/3dProfilometer/xpcc/src/xpcc/driver/ui/display/graphic_display.hpp **** 	 * Base class for graphical displays. 
 113:/home/jonas/warwick/3dProfilometer/xpcc/src/xpcc/driver/ui/display/graphic_display.hpp **** 	 * 
 114:/home/jonas/warwick/3dProfilometer/xpcc/src/xpcc/driver/ui/display/graphic_display.hpp **** 	 * Coordinate System:
 115:/home/jonas/warwick/3dProfilometer/xpcc/src/xpcc/driver/ui/display/graphic_display.hpp **** 	 * \code
 116:/home/jonas/warwick/3dProfilometer/xpcc/src/xpcc/driver/ui/display/graphic_display.hpp **** 	 * (0, 0)
 117:/home/jonas/warwick/3dProfilometer/xpcc/src/xpcc/driver/ui/display/graphic_display.hpp **** 	 *    +---------------------+
 118:/home/jonas/warwick/3dProfilometer/xpcc/src/xpcc/driver/ui/display/graphic_display.hpp **** 	 *    |  ----> X            |
 119:/home/jonas/warwick/3dProfilometer/xpcc/src/xpcc/driver/ui/display/graphic_display.hpp **** 	 *    | |                   |
 120:/home/jonas/warwick/3dProfilometer/xpcc/src/xpcc/driver/ui/display/graphic_display.hpp **** 	 *    | |                   |
 121:/home/jonas/warwick/3dProfilometer/xpcc/src/xpcc/driver/ui/display/graphic_display.hpp **** 	 *    | V Y                 |
 122:/home/jonas/warwick/3dProfilometer/xpcc/src/xpcc/driver/ui/display/graphic_display.hpp **** 	 *    |                     |
 123:/home/jonas/warwick/3dProfilometer/xpcc/src/xpcc/driver/ui/display/graphic_display.hpp **** 	 *    |                     |
 124:/home/jonas/warwick/3dProfilometer/xpcc/src/xpcc/driver/ui/display/graphic_display.hpp **** 	 *    |                     |
 125:/home/jonas/warwick/3dProfilometer/xpcc/src/xpcc/driver/ui/display/graphic_display.hpp **** 	 *    +---------------------+
 126:/home/jonas/warwick/3dProfilometer/xpcc/src/xpcc/driver/ui/display/graphic_display.hpp **** 	 *                e.g. (127, 63)
 127:/home/jonas/warwick/3dProfilometer/xpcc/src/xpcc/driver/ui/display/graphic_display.hpp **** 	 * \endcode
 128:/home/jonas/warwick/3dProfilometer/xpcc/src/xpcc/driver/ui/display/graphic_display.hpp **** 	 * 
 129:/home/jonas/warwick/3dProfilometer/xpcc/src/xpcc/driver/ui/display/graphic_display.hpp **** 	 * The size (width and height) of a graphics primitive always correspond
 130:/home/jonas/warwick/3dProfilometer/xpcc/src/xpcc/driver/ui/display/graphic_display.hpp **** 	 * to its mathematical model, ignoring the rendered with. As everything
 131:/home/jonas/warwick/3dProfilometer/xpcc/src/xpcc/driver/ui/display/graphic_display.hpp **** 	 * is drawn one pixel wide, the pixels will be rendered to the right and
 132:/home/jonas/warwick/3dProfilometer/xpcc/src/xpcc/driver/ui/display/graphic_display.hpp **** 	 * below the mathematically defined points.
 133:/home/jonas/warwick/3dProfilometer/xpcc/src/xpcc/driver/ui/display/graphic_display.hpp **** 	 * 
 134:/home/jonas/warwick/3dProfilometer/xpcc/src/xpcc/driver/ui/display/graphic_display.hpp **** 	 * \ingroup	lcd
 135:/home/jonas/warwick/3dProfilometer/xpcc/src/xpcc/driver/ui/display/graphic_display.hpp **** 	 */
 136:/home/jonas/warwick/3dProfilometer/xpcc/src/xpcc/driver/ui/display/graphic_display.hpp **** 	/*
 137:/home/jonas/warwick/3dProfilometer/xpcc/src/xpcc/driver/ui/display/graphic_display.hpp **** 	 * TODO
 138:/home/jonas/warwick/3dProfilometer/xpcc/src/xpcc/driver/ui/display/graphic_display.hpp **** 	 * 
 139:/home/jonas/warwick/3dProfilometer/xpcc/src/xpcc/driver/ui/display/graphic_display.hpp **** 	 * setBrush() and setPen() for filling and the border?
 140:/home/jonas/warwick/3dProfilometer/xpcc/src/xpcc/driver/ui/display/graphic_display.hpp **** 	 * possible Brush/Pen modes:
 141:/home/jonas/warwick/3dProfilometer/xpcc/src/xpcc/driver/ui/display/graphic_display.hpp **** 	 * - NONE
 142:/home/jonas/warwick/3dProfilometer/xpcc/src/xpcc/driver/ui/display/graphic_display.hpp **** 	 * - BLACK
 143:/home/jonas/warwick/3dProfilometer/xpcc/src/xpcc/driver/ui/display/graphic_display.hpp **** 	 * - WHITE
 144:/home/jonas/warwick/3dProfilometer/xpcc/src/xpcc/driver/ui/display/graphic_display.hpp **** 	 * - INVERT
 145:/home/jonas/warwick/3dProfilometer/xpcc/src/xpcc/driver/ui/display/graphic_display.hpp **** 	 * 
 146:/home/jonas/warwick/3dProfilometer/xpcc/src/xpcc/driver/ui/display/graphic_display.hpp **** 	 * Text mode:
 147:/home/jonas/warwick/3dProfilometer/xpcc/src/xpcc/driver/ui/display/graphic_display.hpp **** 	 * - left adjusted (default)
 148:/home/jonas/warwick/3dProfilometer/xpcc/src/xpcc/driver/ui/display/graphic_display.hpp **** 	 * - right adjusted
 149:/home/jonas/warwick/3dProfilometer/xpcc/src/xpcc/driver/ui/display/graphic_display.hpp **** 	 * - centered
 150:/home/jonas/warwick/3dProfilometer/xpcc/src/xpcc/driver/ui/display/graphic_display.hpp **** 	 * 
 151:/home/jonas/warwick/3dProfilometer/xpcc/src/xpcc/driver/ui/display/graphic_display.hpp **** 	 * All modes relative to the current viewport. This would make
 152:/home/jonas/warwick/3dProfilometer/xpcc/src/xpcc/driver/ui/display/graphic_display.hpp **** 	 * drawing a menu system easier.
 153:/home/jonas/warwick/3dProfilometer/xpcc/src/xpcc/driver/ui/display/graphic_display.hpp **** 	 */
 154:/home/jonas/warwick/3dProfilometer/xpcc/src/xpcc/driver/ui/display/graphic_display.hpp **** 	class GraphicDisplay : public IOStream
 155:/home/jonas/warwick/3dProfilometer/xpcc/src/xpcc/driver/ui/display/graphic_display.hpp **** 	{
 156:/home/jonas/warwick/3dProfilometer/xpcc/src/xpcc/driver/ui/display/graphic_display.hpp **** 	public:
 157:/home/jonas/warwick/3dProfilometer/xpcc/src/xpcc/driver/ui/display/graphic_display.hpp **** 		friend class VirtualGraphicDisplay;
 158:/home/jonas/warwick/3dProfilometer/xpcc/src/xpcc/driver/ui/display/graphic_display.hpp **** 
 159:/home/jonas/warwick/3dProfilometer/xpcc/src/xpcc/driver/ui/display/graphic_display.hpp **** 		GraphicDisplay();
 160:/home/jonas/warwick/3dProfilometer/xpcc/src/xpcc/driver/ui/display/graphic_display.hpp **** 		
 161:/home/jonas/warwick/3dProfilometer/xpcc/src/xpcc/driver/ui/display/graphic_display.hpp **** 		virtual
 162:/home/jonas/warwick/3dProfilometer/xpcc/src/xpcc/driver/ui/display/graphic_display.hpp **** 		~GraphicDisplay()
  28              		.loc 1 162 0
  29              		.cfi_startproc
  30              		@ args = 0, pretend = 0, frame = 0
  31              		@ frame_needed = 0, uses_anonymous_args = 0
  32              		@ link register save eliminated.
  33              	.LVL0:
  34              	.LBB229:
 163:/home/jonas/warwick/3dProfilometer/xpcc/src/xpcc/driver/ui/display/graphic_display.hpp **** 		{
  35              		.loc 1 163 0
  36 0000 024A     		ldr	r2, .L2
  37 0002 0260     		str	r2, [r0, #0]
  38              	.LVL1:
  39              	.LBB230:
  40              	.LBB231:
  41              	.LBB232:
  42              	.LBB233:
  43              		.file 2 "/home/jonas/warwick/3dProfilometer/xpcc/src/xpcc/io/iodevice.hpp"
   1:/home/jonas/warwick/3dProfilometer/xpcc/src/xpcc/io/iodevice.hpp **** // coding: utf-8
   2:/home/jonas/warwick/3dProfilometer/xpcc/src/xpcc/io/iodevice.hpp **** // ----------------------------------------------------------------------------
   3:/home/jonas/warwick/3dProfilometer/xpcc/src/xpcc/io/iodevice.hpp **** /* Copyright (c) 2009, Roboterclub Aachen e.V.
   4:/home/jonas/warwick/3dProfilometer/xpcc/src/xpcc/io/iodevice.hpp ****  * All rights reserved.
   5:/home/jonas/warwick/3dProfilometer/xpcc/src/xpcc/io/iodevice.hpp ****  *
   6:/home/jonas/warwick/3dProfilometer/xpcc/src/xpcc/io/iodevice.hpp ****  * Redistribution and use in source and binary forms, with or without
   7:/home/jonas/warwick/3dProfilometer/xpcc/src/xpcc/io/iodevice.hpp ****  * modification, are permitted provided that the following conditions are met:
   8:/home/jonas/warwick/3dProfilometer/xpcc/src/xpcc/io/iodevice.hpp ****  * 
   9:/home/jonas/warwick/3dProfilometer/xpcc/src/xpcc/io/iodevice.hpp ****  *     * Redistributions of source code must retain the above copyright
  10:/home/jonas/warwick/3dProfilometer/xpcc/src/xpcc/io/iodevice.hpp ****  *       notice, this list of conditions and the following disclaimer.
  11:/home/jonas/warwick/3dProfilometer/xpcc/src/xpcc/io/iodevice.hpp ****  *     * Redistributions in binary form must reproduce the above copyright
  12:/home/jonas/warwick/3dProfilometer/xpcc/src/xpcc/io/iodevice.hpp ****  *       notice, this list of conditions and the following disclaimer in the
  13:/home/jonas/warwick/3dProfilometer/xpcc/src/xpcc/io/iodevice.hpp ****  *       documentation and/or other materials provided with the distribution.
  14:/home/jonas/warwick/3dProfilometer/xpcc/src/xpcc/io/iodevice.hpp ****  *     * Neither the name of the Roboterclub Aachen e.V. nor the
  15:/home/jonas/warwick/3dProfilometer/xpcc/src/xpcc/io/iodevice.hpp ****  *       names of its contributors may be used to endorse or promote products
  16:/home/jonas/warwick/3dProfilometer/xpcc/src/xpcc/io/iodevice.hpp ****  *       derived from this software without specific prior written permission.
  17:/home/jonas/warwick/3dProfilometer/xpcc/src/xpcc/io/iodevice.hpp ****  *
  18:/home/jonas/warwick/3dProfilometer/xpcc/src/xpcc/io/iodevice.hpp ****  * THIS SOFTWARE IS PROVIDED BY ROBOTERCLUB AACHEN E.V. ''AS IS'' AND ANY
  19:/home/jonas/warwick/3dProfilometer/xpcc/src/xpcc/io/iodevice.hpp ****  * EXPRESS OR IMPLIED WARRANTIES, INCLUDING, BUT NOT LIMITED TO, THE IMPLIED
  20:/home/jonas/warwick/3dProfilometer/xpcc/src/xpcc/io/iodevice.hpp ****  * WARRANTIES OF MERCHANTABILITY AND FITNESS FOR A PARTICULAR PURPOSE ARE
  21:/home/jonas/warwick/3dProfilometer/xpcc/src/xpcc/io/iodevice.hpp ****  * DISCLAIMED. IN NO EVENT SHALL ROBOTERCLUB AACHEN E.V. BE LIABLE FOR ANY
  22:/home/jonas/warwick/3dProfilometer/xpcc/src/xpcc/io/iodevice.hpp ****  * DIRECT, INDIRECT, INCIDENTAL, SPECIAL, EXEMPLARY, OR CONSEQUENTIAL DAMAGES
  23:/home/jonas/warwick/3dProfilometer/xpcc/src/xpcc/io/iodevice.hpp ****  * (INCLUDING, BUT NOT LIMITED TO, PROCUREMENT OF SUBSTITUTE GOODS OR SERVICES;
  24:/home/jonas/warwick/3dProfilometer/xpcc/src/xpcc/io/iodevice.hpp ****  * LOSS OF USE, DATA, OR PROFITS; OR BUSINESS INTERRUPTION) HOWEVER CAUSED AND
  25:/home/jonas/warwick/3dProfilometer/xpcc/src/xpcc/io/iodevice.hpp ****  * ON ANY THEORY OF LIABILITY, WHETHER IN CONTRACT, STRICT LIABILITY, OR TORT
  26:/home/jonas/warwick/3dProfilometer/xpcc/src/xpcc/io/iodevice.hpp ****  * (INCLUDING NEGLIGENCE OR OTHERWISE) ARISING IN ANY WAY OUT OF THE USE OF
  27:/home/jonas/warwick/3dProfilometer/xpcc/src/xpcc/io/iodevice.hpp ****  * THIS SOFTWARE, EVEN IF ADVISED OF THE POSSIBILITY OF SUCH DAMAGE.
  28:/home/jonas/warwick/3dProfilometer/xpcc/src/xpcc/io/iodevice.hpp ****  */
  29:/home/jonas/warwick/3dProfilometer/xpcc/src/xpcc/io/iodevice.hpp **** // ----------------------------------------------------------------------------
  30:/home/jonas/warwick/3dProfilometer/xpcc/src/xpcc/io/iodevice.hpp **** 
  31:/home/jonas/warwick/3dProfilometer/xpcc/src/xpcc/io/iodevice.hpp **** #ifndef XPCC__IODEVICE_HPP
  32:/home/jonas/warwick/3dProfilometer/xpcc/src/xpcc/io/iodevice.hpp **** #define XPCC__IODEVICE_HPP
  33:/home/jonas/warwick/3dProfilometer/xpcc/src/xpcc/io/iodevice.hpp **** 
  34:/home/jonas/warwick/3dProfilometer/xpcc/src/xpcc/io/iodevice.hpp **** namespace xpcc
  35:/home/jonas/warwick/3dProfilometer/xpcc/src/xpcc/io/iodevice.hpp **** {
  36:/home/jonas/warwick/3dProfilometer/xpcc/src/xpcc/io/iodevice.hpp **** 	/**
  37:/home/jonas/warwick/3dProfilometer/xpcc/src/xpcc/io/iodevice.hpp **** 	 * \brief 	Abstract calls of io-devices
  38:/home/jonas/warwick/3dProfilometer/xpcc/src/xpcc/io/iodevice.hpp **** 	 *
  39:/home/jonas/warwick/3dProfilometer/xpcc/src/xpcc/io/iodevice.hpp **** 	 * \ingroup io
  40:/home/jonas/warwick/3dProfilometer/xpcc/src/xpcc/io/iodevice.hpp **** 	 * \author	Martin Rosekeit <martin.rosekeit@rwth-aachen.de>
  41:/home/jonas/warwick/3dProfilometer/xpcc/src/xpcc/io/iodevice.hpp **** 	 */
  42:/home/jonas/warwick/3dProfilometer/xpcc/src/xpcc/io/iodevice.hpp **** 	class IODevice
  43:/home/jonas/warwick/3dProfilometer/xpcc/src/xpcc/io/iodevice.hpp **** 	{
  44:/home/jonas/warwick/3dProfilometer/xpcc/src/xpcc/io/iodevice.hpp **** 	public :
  45:/home/jonas/warwick/3dProfilometer/xpcc/src/xpcc/io/iodevice.hpp **** 		IODevice()
  46:/home/jonas/warwick/3dProfilometer/xpcc/src/xpcc/io/iodevice.hpp **** 		{
  47:/home/jonas/warwick/3dProfilometer/xpcc/src/xpcc/io/iodevice.hpp **** 		}
  48:/home/jonas/warwick/3dProfilometer/xpcc/src/xpcc/io/iodevice.hpp **** 		
  49:/home/jonas/warwick/3dProfilometer/xpcc/src/xpcc/io/iodevice.hpp **** 		virtual
  50:/home/jonas/warwick/3dProfilometer/xpcc/src/xpcc/io/iodevice.hpp **** 		~IODevice()
  51:/home/jonas/warwick/3dProfilometer/xpcc/src/xpcc/io/iodevice.hpp **** 		{
  44              		.loc 2 51 0
  45 0004 024A     		ldr	r2, .L2+4
  46 0006 C260     		str	r2, [r0, #12]
  47              	.LBE233:
  48              	.LBE232:
  49              	.LBE231:
  50              	.LBE230:
  51              	.LBE229:
 164:/home/jonas/warwick/3dProfilometer/xpcc/src/xpcc/driver/ui/display/graphic_display.hpp **** 		}
  52              		.loc 1 164 0
  53 0008 7047     		bx	lr
  54              	.L3:
  55 000a 00BF     		.align	2
  56              	.L2:
  57 000c 08000000 		.word	.LANCHOR0+8
  58 0010 08000000 		.word	_ZTVN4xpcc8IODeviceE+8
  59              		.cfi_endproc
  60              	.LFE1188:
  62              		.weak	_ZN4xpcc14GraphicDisplayD1Ev
  63              		.thumb_set _ZN4xpcc14GraphicDisplayD1Ev,_ZN4xpcc14GraphicDisplayD2Ev
  64              		.section	.text._ZN4xpcc14GraphicDisplay18drawHorizontalLineENS_6VectorIsLh2EEEt,"ax",%progbits
  65              		.align	2
  66              		.global	_ZN4xpcc14GraphicDisplay18drawHorizontalLineENS_6VectorIsLh2EEEt
  67              		.thumb
  68              		.thumb_func
  70              	_ZN4xpcc14GraphicDisplay18drawHorizontalLineENS_6VectorIsLh2EEEt:
  71              	.LFB1212:
  72              		.file 3 "/home/jonas/warwick/3dProfilometer/xpcc/src/xpcc/driver/ui/display/graphic_display.cpp"
   1:/home/jonas/warwick/3dProfilometer/xpcc/src/xpcc/driver/ui/display/graphic_display.cpp **** // coding: utf-8
   2:/home/jonas/warwick/3dProfilometer/xpcc/src/xpcc/driver/ui/display/graphic_display.cpp **** // ----------------------------------------------------------------------------
   3:/home/jonas/warwick/3dProfilometer/xpcc/src/xpcc/driver/ui/display/graphic_display.cpp **** /* Copyright (c) 2009, Roboterclub Aachen e.V.
   4:/home/jonas/warwick/3dProfilometer/xpcc/src/xpcc/driver/ui/display/graphic_display.cpp ****  * All rights reserved.
   5:/home/jonas/warwick/3dProfilometer/xpcc/src/xpcc/driver/ui/display/graphic_display.cpp ****  *
   6:/home/jonas/warwick/3dProfilometer/xpcc/src/xpcc/driver/ui/display/graphic_display.cpp ****  * Redistribution and use in source and binary forms, with or without
   7:/home/jonas/warwick/3dProfilometer/xpcc/src/xpcc/driver/ui/display/graphic_display.cpp ****  * modification, are permitted provided that the following conditions are met:
   8:/home/jonas/warwick/3dProfilometer/xpcc/src/xpcc/driver/ui/display/graphic_display.cpp ****  * 
   9:/home/jonas/warwick/3dProfilometer/xpcc/src/xpcc/driver/ui/display/graphic_display.cpp ****  *	 * Redistributions of source code must retain the above copyright
  10:/home/jonas/warwick/3dProfilometer/xpcc/src/xpcc/driver/ui/display/graphic_display.cpp ****  *	   notice, this list of conditions and the following disclaimer.
  11:/home/jonas/warwick/3dProfilometer/xpcc/src/xpcc/driver/ui/display/graphic_display.cpp ****  *	 * Redistributions in binary form must reproduce the above copyright
  12:/home/jonas/warwick/3dProfilometer/xpcc/src/xpcc/driver/ui/display/graphic_display.cpp ****  *	   notice, this list of conditions and the following disclaimer in the
  13:/home/jonas/warwick/3dProfilometer/xpcc/src/xpcc/driver/ui/display/graphic_display.cpp ****  *	   documentation and/or other materials provided with the distribution.
  14:/home/jonas/warwick/3dProfilometer/xpcc/src/xpcc/driver/ui/display/graphic_display.cpp ****  *	 * Neither the name of the Roboterclub Aachen e.V. nor the
  15:/home/jonas/warwick/3dProfilometer/xpcc/src/xpcc/driver/ui/display/graphic_display.cpp ****  *	   names of its contributors may be used to endorse or promote products
  16:/home/jonas/warwick/3dProfilometer/xpcc/src/xpcc/driver/ui/display/graphic_display.cpp ****  *	   derived from this software without specific prior written permission.
  17:/home/jonas/warwick/3dProfilometer/xpcc/src/xpcc/driver/ui/display/graphic_display.cpp ****  *
  18:/home/jonas/warwick/3dProfilometer/xpcc/src/xpcc/driver/ui/display/graphic_display.cpp ****  * THIS SOFTWARE IS PROVIDED BY ROBOTERCLUB AACHEN E.V. ''AS IS'' AND ANY
  19:/home/jonas/warwick/3dProfilometer/xpcc/src/xpcc/driver/ui/display/graphic_display.cpp ****  * EXPRESS OR IMPLIED WARRANTIES, INCLUDING, BUT NOT LIMITED TO, THE IMPLIED
  20:/home/jonas/warwick/3dProfilometer/xpcc/src/xpcc/driver/ui/display/graphic_display.cpp ****  * WARRANTIES OF MERCHANTABILITY AND FITNESS FOR A PARTICULAR PURPOSE ARE
  21:/home/jonas/warwick/3dProfilometer/xpcc/src/xpcc/driver/ui/display/graphic_display.cpp ****  * DISCLAIMED. IN NO EVENT SHALL ROBOTERCLUB AACHEN E.V. BE LIABLE FOR ANY
  22:/home/jonas/warwick/3dProfilometer/xpcc/src/xpcc/driver/ui/display/graphic_display.cpp ****  * DIRECT, INDIRECT, INCIDENTAL, SPECIAL, EXEMPLARY, OR CONSEQUENTIAL DAMAGES
  23:/home/jonas/warwick/3dProfilometer/xpcc/src/xpcc/driver/ui/display/graphic_display.cpp ****  * (INCLUDING, BUT NOT LIMITED TO, PROCUREMENT OF SUBSTITUTE GOODS OR SERVICES;
  24:/home/jonas/warwick/3dProfilometer/xpcc/src/xpcc/driver/ui/display/graphic_display.cpp ****  * LOSS OF USE, DATA, OR PROFITS; OR BUSINESS INTERRUPTION) HOWEVER CAUSED AND
  25:/home/jonas/warwick/3dProfilometer/xpcc/src/xpcc/driver/ui/display/graphic_display.cpp ****  * ON ANY THEORY OF LIABILITY, WHETHER IN CONTRACT, STRICT LIABILITY, OR TORT
  26:/home/jonas/warwick/3dProfilometer/xpcc/src/xpcc/driver/ui/display/graphic_display.cpp ****  * (INCLUDING NEGLIGENCE OR OTHERWISE) ARISING IN ANY WAY OUT OF THE USE OF
  27:/home/jonas/warwick/3dProfilometer/xpcc/src/xpcc/driver/ui/display/graphic_display.cpp ****  * THIS SOFTWARE, EVEN IF ADVISED OF THE POSSIBILITY OF SUCH DAMAGE.
  28:/home/jonas/warwick/3dProfilometer/xpcc/src/xpcc/driver/ui/display/graphic_display.cpp ****  */
  29:/home/jonas/warwick/3dProfilometer/xpcc/src/xpcc/driver/ui/display/graphic_display.cpp **** // ----------------------------------------------------------------------------
  30:/home/jonas/warwick/3dProfilometer/xpcc/src/xpcc/driver/ui/display/graphic_display.cpp **** 
  31:/home/jonas/warwick/3dProfilometer/xpcc/src/xpcc/driver/ui/display/graphic_display.cpp **** #include <stdlib.h>
  32:/home/jonas/warwick/3dProfilometer/xpcc/src/xpcc/driver/ui/display/graphic_display.cpp **** #include <xpcc/math/utils/bit_operation.hpp>
  33:/home/jonas/warwick/3dProfilometer/xpcc/src/xpcc/driver/ui/display/graphic_display.cpp **** 
  34:/home/jonas/warwick/3dProfilometer/xpcc/src/xpcc/driver/ui/display/graphic_display.cpp **** #include "font/fixed_width_5x8.hpp"
  35:/home/jonas/warwick/3dProfilometer/xpcc/src/xpcc/driver/ui/display/graphic_display.cpp **** #include "graphic_display.hpp"
  36:/home/jonas/warwick/3dProfilometer/xpcc/src/xpcc/driver/ui/display/graphic_display.cpp **** 
  37:/home/jonas/warwick/3dProfilometer/xpcc/src/xpcc/driver/ui/display/graphic_display.cpp **** // ----------------------------------------------------------------------------
  38:/home/jonas/warwick/3dProfilometer/xpcc/src/xpcc/driver/ui/display/graphic_display.cpp **** xpcc::GraphicDisplay::GraphicDisplay() :
  39:/home/jonas/warwick/3dProfilometer/xpcc/src/xpcc/driver/ui/display/graphic_display.cpp **** 	IOStream(writer),
  40:/home/jonas/warwick/3dProfilometer/xpcc/src/xpcc/driver/ui/display/graphic_display.cpp **** 	writer(this),
  41:/home/jonas/warwick/3dProfilometer/xpcc/src/xpcc/driver/ui/display/graphic_display.cpp **** 	draw(&xpcc::GraphicDisplay::setPixel),
  42:/home/jonas/warwick/3dProfilometer/xpcc/src/xpcc/driver/ui/display/graphic_display.cpp **** 	foregroundColor(glcd::Color::white()),
  43:/home/jonas/warwick/3dProfilometer/xpcc/src/xpcc/driver/ui/display/graphic_display.cpp **** 	backgroundColor(glcd::Color::black()),
  44:/home/jonas/warwick/3dProfilometer/xpcc/src/xpcc/driver/ui/display/graphic_display.cpp **** 	font(xpcc::accessor::asFlash(xpcc::font::FixedWidth5x8))
  45:/home/jonas/warwick/3dProfilometer/xpcc/src/xpcc/driver/ui/display/graphic_display.cpp **** {
  46:/home/jonas/warwick/3dProfilometer/xpcc/src/xpcc/driver/ui/display/graphic_display.cpp **** }
  47:/home/jonas/warwick/3dProfilometer/xpcc/src/xpcc/driver/ui/display/graphic_display.cpp **** 
  48:/home/jonas/warwick/3dProfilometer/xpcc/src/xpcc/driver/ui/display/graphic_display.cpp **** // ----------------------------------------------------------------------------
  49:/home/jonas/warwick/3dProfilometer/xpcc/src/xpcc/driver/ui/display/graphic_display.cpp **** void
  50:/home/jonas/warwick/3dProfilometer/xpcc/src/xpcc/driver/ui/display/graphic_display.cpp **** xpcc::GraphicDisplay::setColor(const glcd::Color& newColor)
  51:/home/jonas/warwick/3dProfilometer/xpcc/src/xpcc/driver/ui/display/graphic_display.cpp **** {
  52:/home/jonas/warwick/3dProfilometer/xpcc/src/xpcc/driver/ui/display/graphic_display.cpp **** 	if (newColor == glcd::Color::black()) {
  53:/home/jonas/warwick/3dProfilometer/xpcc/src/xpcc/driver/ui/display/graphic_display.cpp **** 		draw = &xpcc::GraphicDisplay::clearPixel;
  54:/home/jonas/warwick/3dProfilometer/xpcc/src/xpcc/driver/ui/display/graphic_display.cpp **** 	}
  55:/home/jonas/warwick/3dProfilometer/xpcc/src/xpcc/driver/ui/display/graphic_display.cpp **** 	else {
  56:/home/jonas/warwick/3dProfilometer/xpcc/src/xpcc/driver/ui/display/graphic_display.cpp **** 		draw = &xpcc::GraphicDisplay::setPixel;
  57:/home/jonas/warwick/3dProfilometer/xpcc/src/xpcc/driver/ui/display/graphic_display.cpp **** 	}
  58:/home/jonas/warwick/3dProfilometer/xpcc/src/xpcc/driver/ui/display/graphic_display.cpp **** 	this->foregroundColor = newColor;
  59:/home/jonas/warwick/3dProfilometer/xpcc/src/xpcc/driver/ui/display/graphic_display.cpp **** }
  60:/home/jonas/warwick/3dProfilometer/xpcc/src/xpcc/driver/ui/display/graphic_display.cpp **** 
  61:/home/jonas/warwick/3dProfilometer/xpcc/src/xpcc/driver/ui/display/graphic_display.cpp **** void
  62:/home/jonas/warwick/3dProfilometer/xpcc/src/xpcc/driver/ui/display/graphic_display.cpp **** xpcc::GraphicDisplay::setBackgroundColor(const glcd::Color& newColor)
  63:/home/jonas/warwick/3dProfilometer/xpcc/src/xpcc/driver/ui/display/graphic_display.cpp **** {
  64:/home/jonas/warwick/3dProfilometer/xpcc/src/xpcc/driver/ui/display/graphic_display.cpp **** 	this->backgroundColor = newColor;
  65:/home/jonas/warwick/3dProfilometer/xpcc/src/xpcc/driver/ui/display/graphic_display.cpp **** }
  66:/home/jonas/warwick/3dProfilometer/xpcc/src/xpcc/driver/ui/display/graphic_display.cpp **** 
  67:/home/jonas/warwick/3dProfilometer/xpcc/src/xpcc/driver/ui/display/graphic_display.cpp **** // ----------------------------------------------------------------------------
  68:/home/jonas/warwick/3dProfilometer/xpcc/src/xpcc/driver/ui/display/graphic_display.cpp **** void
  69:/home/jonas/warwick/3dProfilometer/xpcc/src/xpcc/driver/ui/display/graphic_display.cpp **** xpcc::GraphicDisplay::drawLine(int16_t x1, int16_t y1, int16_t x2, int16_t y2)
  70:/home/jonas/warwick/3dProfilometer/xpcc/src/xpcc/driver/ui/display/graphic_display.cpp **** {
  71:/home/jonas/warwick/3dProfilometer/xpcc/src/xpcc/driver/ui/display/graphic_display.cpp **** 	if (x1 == x2)
  72:/home/jonas/warwick/3dProfilometer/xpcc/src/xpcc/driver/ui/display/graphic_display.cpp **** 	{
  73:/home/jonas/warwick/3dProfilometer/xpcc/src/xpcc/driver/ui/display/graphic_display.cpp **** 		// x1|y1 must be the upper point
  74:/home/jonas/warwick/3dProfilometer/xpcc/src/xpcc/driver/ui/display/graphic_display.cpp **** 		if (y1 > y2) {
  75:/home/jonas/warwick/3dProfilometer/xpcc/src/xpcc/driver/ui/display/graphic_display.cpp **** 			xpcc::swap(y1, y2);
  76:/home/jonas/warwick/3dProfilometer/xpcc/src/xpcc/driver/ui/display/graphic_display.cpp **** 		}
  77:/home/jonas/warwick/3dProfilometer/xpcc/src/xpcc/driver/ui/display/graphic_display.cpp **** 		this->drawVerticalLine(glcd::Point(x1, y1), y2 - y1);
  78:/home/jonas/warwick/3dProfilometer/xpcc/src/xpcc/driver/ui/display/graphic_display.cpp **** 	}
  79:/home/jonas/warwick/3dProfilometer/xpcc/src/xpcc/driver/ui/display/graphic_display.cpp **** 	else if (y1 == y2)
  80:/home/jonas/warwick/3dProfilometer/xpcc/src/xpcc/driver/ui/display/graphic_display.cpp **** 	{
  81:/home/jonas/warwick/3dProfilometer/xpcc/src/xpcc/driver/ui/display/graphic_display.cpp **** 		// x1|y1 must be the left point
  82:/home/jonas/warwick/3dProfilometer/xpcc/src/xpcc/driver/ui/display/graphic_display.cpp **** 		if (x1 > x2) {
  83:/home/jonas/warwick/3dProfilometer/xpcc/src/xpcc/driver/ui/display/graphic_display.cpp **** 			xpcc::swap(x1, x2);
  84:/home/jonas/warwick/3dProfilometer/xpcc/src/xpcc/driver/ui/display/graphic_display.cpp **** 		}
  85:/home/jonas/warwick/3dProfilometer/xpcc/src/xpcc/driver/ui/display/graphic_display.cpp **** 		this->drawHorizontalLine(glcd::Point(x1, y1), x2 - x1);
  86:/home/jonas/warwick/3dProfilometer/xpcc/src/xpcc/driver/ui/display/graphic_display.cpp **** 	}
  87:/home/jonas/warwick/3dProfilometer/xpcc/src/xpcc/driver/ui/display/graphic_display.cpp **** 	else
  88:/home/jonas/warwick/3dProfilometer/xpcc/src/xpcc/driver/ui/display/graphic_display.cpp **** 	{
  89:/home/jonas/warwick/3dProfilometer/xpcc/src/xpcc/driver/ui/display/graphic_display.cpp **** 		// bresenham algorithm
  90:/home/jonas/warwick/3dProfilometer/xpcc/src/xpcc/driver/ui/display/graphic_display.cpp **** 		bool steep = abs(y2 - y1) > abs(x2 - x1);
  91:/home/jonas/warwick/3dProfilometer/xpcc/src/xpcc/driver/ui/display/graphic_display.cpp **** 		if (steep) {
  92:/home/jonas/warwick/3dProfilometer/xpcc/src/xpcc/driver/ui/display/graphic_display.cpp **** 			xpcc::swap(x1, y1);
  93:/home/jonas/warwick/3dProfilometer/xpcc/src/xpcc/driver/ui/display/graphic_display.cpp **** 			xpcc::swap(x2, y2);
  94:/home/jonas/warwick/3dProfilometer/xpcc/src/xpcc/driver/ui/display/graphic_display.cpp **** 		}
  95:/home/jonas/warwick/3dProfilometer/xpcc/src/xpcc/driver/ui/display/graphic_display.cpp **** 		if (x1 > x2) {
  96:/home/jonas/warwick/3dProfilometer/xpcc/src/xpcc/driver/ui/display/graphic_display.cpp **** 			xpcc::swap(x1, x2);
  97:/home/jonas/warwick/3dProfilometer/xpcc/src/xpcc/driver/ui/display/graphic_display.cpp **** 			xpcc::swap(y1, y2);
  98:/home/jonas/warwick/3dProfilometer/xpcc/src/xpcc/driver/ui/display/graphic_display.cpp **** 		}
  99:/home/jonas/warwick/3dProfilometer/xpcc/src/xpcc/driver/ui/display/graphic_display.cpp **** 		
 100:/home/jonas/warwick/3dProfilometer/xpcc/src/xpcc/driver/ui/display/graphic_display.cpp **** 		int16_t deltaX = x2 - x1;
 101:/home/jonas/warwick/3dProfilometer/xpcc/src/xpcc/driver/ui/display/graphic_display.cpp **** 		int16_t deltaY = abs(y2 - y1);
 102:/home/jonas/warwick/3dProfilometer/xpcc/src/xpcc/driver/ui/display/graphic_display.cpp **** 		int16_t error = deltaX / 2;
 103:/home/jonas/warwick/3dProfilometer/xpcc/src/xpcc/driver/ui/display/graphic_display.cpp **** 		
 104:/home/jonas/warwick/3dProfilometer/xpcc/src/xpcc/driver/ui/display/graphic_display.cpp **** 		int16_t yStep;
 105:/home/jonas/warwick/3dProfilometer/xpcc/src/xpcc/driver/ui/display/graphic_display.cpp **** 		int16_t y = y1;
 106:/home/jonas/warwick/3dProfilometer/xpcc/src/xpcc/driver/ui/display/graphic_display.cpp **** 		
 107:/home/jonas/warwick/3dProfilometer/xpcc/src/xpcc/driver/ui/display/graphic_display.cpp **** 		if (y1 < y2) {
 108:/home/jonas/warwick/3dProfilometer/xpcc/src/xpcc/driver/ui/display/graphic_display.cpp **** 			yStep = 1;
 109:/home/jonas/warwick/3dProfilometer/xpcc/src/xpcc/driver/ui/display/graphic_display.cpp **** 		}
 110:/home/jonas/warwick/3dProfilometer/xpcc/src/xpcc/driver/ui/display/graphic_display.cpp **** 		else {
 111:/home/jonas/warwick/3dProfilometer/xpcc/src/xpcc/driver/ui/display/graphic_display.cpp **** 			yStep = -1;
 112:/home/jonas/warwick/3dProfilometer/xpcc/src/xpcc/driver/ui/display/graphic_display.cpp **** 		}
 113:/home/jonas/warwick/3dProfilometer/xpcc/src/xpcc/driver/ui/display/graphic_display.cpp **** 		
 114:/home/jonas/warwick/3dProfilometer/xpcc/src/xpcc/driver/ui/display/graphic_display.cpp **** 		for (int_fast16_t x = x1; x < x2; ++x)
 115:/home/jonas/warwick/3dProfilometer/xpcc/src/xpcc/driver/ui/display/graphic_display.cpp **** 		{
 116:/home/jonas/warwick/3dProfilometer/xpcc/src/xpcc/driver/ui/display/graphic_display.cpp **** 			if (steep) {
 117:/home/jonas/warwick/3dProfilometer/xpcc/src/xpcc/driver/ui/display/graphic_display.cpp **** 				(this->*draw)(y, x);
 118:/home/jonas/warwick/3dProfilometer/xpcc/src/xpcc/driver/ui/display/graphic_display.cpp **** 			}
 119:/home/jonas/warwick/3dProfilometer/xpcc/src/xpcc/driver/ui/display/graphic_display.cpp **** 			else {
 120:/home/jonas/warwick/3dProfilometer/xpcc/src/xpcc/driver/ui/display/graphic_display.cpp **** 				(this->*draw)(x, y);
 121:/home/jonas/warwick/3dProfilometer/xpcc/src/xpcc/driver/ui/display/graphic_display.cpp **** 			}
 122:/home/jonas/warwick/3dProfilometer/xpcc/src/xpcc/driver/ui/display/graphic_display.cpp **** 			error = error - deltaY;
 123:/home/jonas/warwick/3dProfilometer/xpcc/src/xpcc/driver/ui/display/graphic_display.cpp **** 			if (error < 0) {
 124:/home/jonas/warwick/3dProfilometer/xpcc/src/xpcc/driver/ui/display/graphic_display.cpp **** 				y += yStep;
 125:/home/jonas/warwick/3dProfilometer/xpcc/src/xpcc/driver/ui/display/graphic_display.cpp **** 				error += deltaX;
 126:/home/jonas/warwick/3dProfilometer/xpcc/src/xpcc/driver/ui/display/graphic_display.cpp **** 			}
 127:/home/jonas/warwick/3dProfilometer/xpcc/src/xpcc/driver/ui/display/graphic_display.cpp **** 		}
 128:/home/jonas/warwick/3dProfilometer/xpcc/src/xpcc/driver/ui/display/graphic_display.cpp **** 	}
 129:/home/jonas/warwick/3dProfilometer/xpcc/src/xpcc/driver/ui/display/graphic_display.cpp **** }
 130:/home/jonas/warwick/3dProfilometer/xpcc/src/xpcc/driver/ui/display/graphic_display.cpp **** 
 131:/home/jonas/warwick/3dProfilometer/xpcc/src/xpcc/driver/ui/display/graphic_display.cpp **** void
 132:/home/jonas/warwick/3dProfilometer/xpcc/src/xpcc/driver/ui/display/graphic_display.cpp **** xpcc::GraphicDisplay::drawHorizontalLine(glcd::Point start, uint16_t length)
 133:/home/jonas/warwick/3dProfilometer/xpcc/src/xpcc/driver/ui/display/graphic_display.cpp **** {
  73              		.loc 3 133 0
  74              		.cfi_startproc
  75              		@ args = 0, pretend = 0, frame = 0
  76              		@ frame_needed = 0, uses_anonymous_args = 0
  77              	.LVL2:
  78 0000 2DE9F041 		push	{r4, r5, r6, r7, r8, lr}
  79              	.LCFI0:
  80              		.cfi_def_cfa_offset 24
  81              		.cfi_offset 4, -24
  82              		.cfi_offset 5, -20
  83              		.cfi_offset 6, -16
  84              		.cfi_offset 7, -12
  85              		.cfi_offset 8, -8
  86              		.cfi_offset 14, -4
  87              	.LBB234:
 134:/home/jonas/warwick/3dProfilometer/xpcc/src/xpcc/driver/ui/display/graphic_display.cpp **** 	for (int_fast16_t i = start.getX(); i < static_cast<int16_t>(start.getX() + length); ++i) {
  88              		.loc 3 134 0
  89 0004 0C88     		ldrh	r4, [r1, #0]
  90 0006 1319     		adds	r3, r2, r4
  91 0008 1BB2     		sxth	r3, r3
  92 000a 24B2     		sxth	r4, r4
  93 000c 9C42     		cmp	r4, r3
  94              	.LBE234:
 133:/home/jonas/warwick/3dProfilometer/xpcc/src/xpcc/driver/ui/display/graphic_display.cpp **** {
  95              		.loc 3 133 0
  96 000e 0E46     		mov	r6, r1
  97              	.LVL3:
  98 0010 9046     		mov	r8, r2
  99 0012 0546     		mov	r5, r0
 100              	.LBB235:
 101              		.loc 3 134 0
 102 0014 0DDB     		blt	.L10
 103 0016 15E0     		b	.L4
 104              	.LVL4:
 105              	.L13:
 135:/home/jonas/warwick/3dProfilometer/xpcc/src/xpcc/driver/ui/display/graphic_display.cpp **** 		(this->*draw)(i, start.getY());
 106              		.loc 3 135 0 discriminator 1
 107 0018 6F69     		ldr	r7, [r5, #20]
 108 001a 05EB6300 		add	r0, r5, r3, asr #1
 109              	.L7:
 110              	.LVL5:
 111              		.loc 3 135 0 is_stmt 0 discriminator 3
 112 001e 21B2     		sxth	r1, r4
 113 0020 B6F90220 		ldrsh	r2, [r6, #2]
 114 0024 B847     		blx	r7
 115              	.LVL6:
 134:/home/jonas/warwick/3dProfilometer/xpcc/src/xpcc/driver/ui/display/graphic_display.cpp **** 	for (int_fast16_t i = start.getX(); i < static_cast<int16_t>(start.getX() + length); ++i) {
 116              		.loc 3 134 0 is_stmt 1 discriminator 3
 117 0026 3388     		ldrh	r3, [r6, #0]
 118 0028 4344     		add	r3, r8, r3
 119 002a 0134     		adds	r4, r4, #1
 120              	.LVL7:
 121 002c 1BB2     		sxth	r3, r3
 122 002e A342     		cmp	r3, r4
 123 0030 08DD     		ble	.L4
 124              	.LVL8:
 125              	.L10:
 126              		.loc 3 135 0
 127 0032 AB69     		ldr	r3, [r5, #24]
 128 0034 5810     		asrs	r0, r3, #1
 129 0036 DA07     		lsls	r2, r3, #31
 130 0038 EED5     		bpl	.L13
 131              		.loc 3 135 0 is_stmt 0 discriminator 2
 132 003a 2A58     		ldr	r2, [r5, r0]
 133 003c 6B69     		ldr	r3, [r5, #20]
 134 003e 2818     		adds	r0, r5, r0
 135 0040 D758     		ldr	r7, [r2, r3]
 136 0042 ECE7     		b	.L7
 137              	.L4:
 138 0044 BDE8F081 		pop	{r4, r5, r6, r7, r8, pc}
 139              	.LBE235:
 140              		.cfi_endproc
 141              	.LFE1212:
 143              		.section	.text._ZN4xpcc14GraphicDisplay16drawVerticalLineENS_6VectorIsLh2EEEt,"ax",%progbits
 144              		.align	2
 145              		.global	_ZN4xpcc14GraphicDisplay16drawVerticalLineENS_6VectorIsLh2EEEt
 146              		.thumb
 147              		.thumb_func
 149              	_ZN4xpcc14GraphicDisplay16drawVerticalLineENS_6VectorIsLh2EEEt:
 150              	.LFB1213:
 136:/home/jonas/warwick/3dProfilometer/xpcc/src/xpcc/driver/ui/display/graphic_display.cpp **** 	}
 137:/home/jonas/warwick/3dProfilometer/xpcc/src/xpcc/driver/ui/display/graphic_display.cpp **** }
 138:/home/jonas/warwick/3dProfilometer/xpcc/src/xpcc/driver/ui/display/graphic_display.cpp **** 
 139:/home/jonas/warwick/3dProfilometer/xpcc/src/xpcc/driver/ui/display/graphic_display.cpp **** void
 140:/home/jonas/warwick/3dProfilometer/xpcc/src/xpcc/driver/ui/display/graphic_display.cpp **** xpcc::GraphicDisplay::drawVerticalLine(glcd::Point start, uint16_t length)
 141:/home/jonas/warwick/3dProfilometer/xpcc/src/xpcc/driver/ui/display/graphic_display.cpp **** {
 151              		.loc 3 141 0 is_stmt 1
 152              		.cfi_startproc
 153              		@ args = 0, pretend = 0, frame = 0
 154              		@ frame_needed = 0, uses_anonymous_args = 0
 155              	.LVL9:
 156 0000 2DE9F041 		push	{r4, r5, r6, r7, r8, lr}
 157              	.LCFI1:
 158              		.cfi_def_cfa_offset 24
 159              		.cfi_offset 4, -24
 160              		.cfi_offset 5, -20
 161              		.cfi_offset 6, -16
 162              		.cfi_offset 7, -12
 163              		.cfi_offset 8, -8
 164              		.cfi_offset 14, -4
 165              	.LBB236:
 142:/home/jonas/warwick/3dProfilometer/xpcc/src/xpcc/driver/ui/display/graphic_display.cpp **** 	for (int_fast16_t i = start.getY(); i < static_cast<int16_t>(start.getY() + length); ++i) {
 166              		.loc 3 142 0
 167 0004 4C88     		ldrh	r4, [r1, #2]
 168 0006 1319     		adds	r3, r2, r4
 169 0008 1BB2     		sxth	r3, r3
 170 000a 24B2     		sxth	r4, r4
 171 000c 9C42     		cmp	r4, r3
 172              	.LBE236:
 141:/home/jonas/warwick/3dProfilometer/xpcc/src/xpcc/driver/ui/display/graphic_display.cpp **** {
 173              		.loc 3 141 0
 174 000e 0E46     		mov	r6, r1
 175              	.LVL10:
 176 0010 9046     		mov	r8, r2
 177 0012 0546     		mov	r5, r0
 178              	.LBB237:
 179              		.loc 3 142 0
 180 0014 0DDB     		blt	.L20
 181 0016 15E0     		b	.L14
 182              	.LVL11:
 183              	.L22:
 143:/home/jonas/warwick/3dProfilometer/xpcc/src/xpcc/driver/ui/display/graphic_display.cpp **** 		(this->*draw)(start.getX(), i);
 184              		.loc 3 143 0 discriminator 1
 185 0018 6F69     		ldr	r7, [r5, #20]
 186 001a 05EB6300 		add	r0, r5, r3, asr #1
 187              	.L17:
 188              	.LVL12:
 189              		.loc 3 143 0 is_stmt 0 discriminator 3
 190 001e 22B2     		sxth	r2, r4
 191 0020 B6F90010 		ldrsh	r1, [r6, #0]
 192 0024 B847     		blx	r7
 193              	.LVL13:
 142:/home/jonas/warwick/3dProfilometer/xpcc/src/xpcc/driver/ui/display/graphic_display.cpp **** 	for (int_fast16_t i = start.getY(); i < static_cast<int16_t>(start.getY() + length); ++i) {
 194              		.loc 3 142 0 is_stmt 1 discriminator 3
 195 0026 7388     		ldrh	r3, [r6, #2]
 196 0028 4344     		add	r3, r8, r3
 197 002a 0134     		adds	r4, r4, #1
 198              	.LVL14:
 199 002c 1BB2     		sxth	r3, r3
 200 002e A342     		cmp	r3, r4
 201 0030 08DD     		ble	.L14
 202              	.LVL15:
 203              	.L20:
 204              		.loc 3 143 0
 205 0032 AB69     		ldr	r3, [r5, #24]
 206 0034 5810     		asrs	r0, r3, #1
 207 0036 D907     		lsls	r1, r3, #31
 208 0038 EED5     		bpl	.L22
 209              		.loc 3 143 0 is_stmt 0 discriminator 2
 210 003a 2A58     		ldr	r2, [r5, r0]
 211 003c 6B69     		ldr	r3, [r5, #20]
 212 003e 2818     		adds	r0, r5, r0
 213 0040 D758     		ldr	r7, [r2, r3]
 214 0042 ECE7     		b	.L17
 215              	.L14:
 216 0044 BDE8F081 		pop	{r4, r5, r6, r7, r8, pc}
 217              	.LBE237:
 218              		.cfi_endproc
 219              	.LFE1213:
 221              		.section	.text._ZN4xpcc14GraphicDisplay12drawImageRawENS_6VectorIsLh2EEEttNS_8accessor5FlashIhEE,"
 222              		.align	2
 223              		.global	_ZN4xpcc14GraphicDisplay12drawImageRawENS_6VectorIsLh2EEEttNS_8accessor5FlashIhEE
 224              		.thumb
 225              		.thumb_func
 227              	_ZN4xpcc14GraphicDisplay12drawImageRawENS_6VectorIsLh2EEEttNS_8accessor5FlashIhEE:
 228              	.LFB1220:
 144:/home/jonas/warwick/3dProfilometer/xpcc/src/xpcc/driver/ui/display/graphic_display.cpp **** 	}
 145:/home/jonas/warwick/3dProfilometer/xpcc/src/xpcc/driver/ui/display/graphic_display.cpp **** }
 146:/home/jonas/warwick/3dProfilometer/xpcc/src/xpcc/driver/ui/display/graphic_display.cpp **** 
 147:/home/jonas/warwick/3dProfilometer/xpcc/src/xpcc/driver/ui/display/graphic_display.cpp **** void
 148:/home/jonas/warwick/3dProfilometer/xpcc/src/xpcc/driver/ui/display/graphic_display.cpp **** xpcc::GraphicDisplay::drawRectangle(glcd::Point upperLeft,
 149:/home/jonas/warwick/3dProfilometer/xpcc/src/xpcc/driver/ui/display/graphic_display.cpp **** 		uint16_t width, uint16_t height)
 150:/home/jonas/warwick/3dProfilometer/xpcc/src/xpcc/driver/ui/display/graphic_display.cpp **** {
 151:/home/jonas/warwick/3dProfilometer/xpcc/src/xpcc/driver/ui/display/graphic_display.cpp **** 	uint16_t x2 = upperLeft.getX() + width  - 1;
 152:/home/jonas/warwick/3dProfilometer/xpcc/src/xpcc/driver/ui/display/graphic_display.cpp **** 	uint16_t y2 = upperLeft.getY() + height - 1;
 153:/home/jonas/warwick/3dProfilometer/xpcc/src/xpcc/driver/ui/display/graphic_display.cpp **** 	
 154:/home/jonas/warwick/3dProfilometer/xpcc/src/xpcc/driver/ui/display/graphic_display.cpp **** 	this->drawHorizontalLine(upperLeft,  width);
 155:/home/jonas/warwick/3dProfilometer/xpcc/src/xpcc/driver/ui/display/graphic_display.cpp **** 	this->drawHorizontalLine(glcd::Point(upperLeft.getX(), y2), width);
 156:/home/jonas/warwick/3dProfilometer/xpcc/src/xpcc/driver/ui/display/graphic_display.cpp **** 	this->drawVerticalLine(upperLeft, height);
 157:/home/jonas/warwick/3dProfilometer/xpcc/src/xpcc/driver/ui/display/graphic_display.cpp **** 	this->drawVerticalLine(glcd::Point(x2, upperLeft.getY()), height);
 158:/home/jonas/warwick/3dProfilometer/xpcc/src/xpcc/driver/ui/display/graphic_display.cpp **** }
 159:/home/jonas/warwick/3dProfilometer/xpcc/src/xpcc/driver/ui/display/graphic_display.cpp **** 
 160:/home/jonas/warwick/3dProfilometer/xpcc/src/xpcc/driver/ui/display/graphic_display.cpp **** void
 161:/home/jonas/warwick/3dProfilometer/xpcc/src/xpcc/driver/ui/display/graphic_display.cpp **** xpcc::GraphicDisplay::drawRoundedRectangle(glcd::Point upperLeft,
 162:/home/jonas/warwick/3dProfilometer/xpcc/src/xpcc/driver/ui/display/graphic_display.cpp **** 		uint16_t width, uint16_t height, uint16_t radius)
 163:/home/jonas/warwick/3dProfilometer/xpcc/src/xpcc/driver/ui/display/graphic_display.cpp **** {
 164:/home/jonas/warwick/3dProfilometer/xpcc/src/xpcc/driver/ui/display/graphic_display.cpp **** 	if (radius == 0) {
 165:/home/jonas/warwick/3dProfilometer/xpcc/src/xpcc/driver/ui/display/graphic_display.cpp **** 		this->drawRectangle(upperLeft, width, height);
 166:/home/jonas/warwick/3dProfilometer/xpcc/src/xpcc/driver/ui/display/graphic_display.cpp **** 	}
 167:/home/jonas/warwick/3dProfilometer/xpcc/src/xpcc/driver/ui/display/graphic_display.cpp **** 	
 168:/home/jonas/warwick/3dProfilometer/xpcc/src/xpcc/driver/ui/display/graphic_display.cpp **** 	const int16_t x = upperLeft.getX();
 169:/home/jonas/warwick/3dProfilometer/xpcc/src/xpcc/driver/ui/display/graphic_display.cpp **** 	const int16_t y = upperLeft.getY();
 170:/home/jonas/warwick/3dProfilometer/xpcc/src/xpcc/driver/ui/display/graphic_display.cpp **** 	
 171:/home/jonas/warwick/3dProfilometer/xpcc/src/xpcc/driver/ui/display/graphic_display.cpp **** 	int16_t x1 = 0;
 172:/home/jonas/warwick/3dProfilometer/xpcc/src/xpcc/driver/ui/display/graphic_display.cpp **** 	int16_t y1 = radius;
 173:/home/jonas/warwick/3dProfilometer/xpcc/src/xpcc/driver/ui/display/graphic_display.cpp ****   	int16_t f = 3 - 2 * radius;
 174:/home/jonas/warwick/3dProfilometer/xpcc/src/xpcc/driver/ui/display/graphic_display.cpp **** 	
 175:/home/jonas/warwick/3dProfilometer/xpcc/src/xpcc/driver/ui/display/graphic_display.cpp **** 	while (x1 <= y1)
 176:/home/jonas/warwick/3dProfilometer/xpcc/src/xpcc/driver/ui/display/graphic_display.cpp **** 	{
 177:/home/jonas/warwick/3dProfilometer/xpcc/src/xpcc/driver/ui/display/graphic_display.cpp **** 		(this->*draw)(x + radius - x1, y + radius - y1);
 178:/home/jonas/warwick/3dProfilometer/xpcc/src/xpcc/driver/ui/display/graphic_display.cpp **** 		(this->*draw)(x + radius - x1, y + height - radius + y1);
 179:/home/jonas/warwick/3dProfilometer/xpcc/src/xpcc/driver/ui/display/graphic_display.cpp **** 		(this->*draw)(x + radius - y1, y + radius - x1);
 180:/home/jonas/warwick/3dProfilometer/xpcc/src/xpcc/driver/ui/display/graphic_display.cpp **** 		(this->*draw)(x + radius - y1, y + height - radius + x1);
 181:/home/jonas/warwick/3dProfilometer/xpcc/src/xpcc/driver/ui/display/graphic_display.cpp **** 		
 182:/home/jonas/warwick/3dProfilometer/xpcc/src/xpcc/driver/ui/display/graphic_display.cpp **** 		(this->*draw)(x + width - radius + x1, y + radius - y1);
 183:/home/jonas/warwick/3dProfilometer/xpcc/src/xpcc/driver/ui/display/graphic_display.cpp **** 		(this->*draw)(x + width - radius + x1, y + height - radius + y1);
 184:/home/jonas/warwick/3dProfilometer/xpcc/src/xpcc/driver/ui/display/graphic_display.cpp **** 		(this->*draw)(x + width - radius + y1, y + radius - x1);
 185:/home/jonas/warwick/3dProfilometer/xpcc/src/xpcc/driver/ui/display/graphic_display.cpp **** 		(this->*draw)(x + width - radius + y1, y + height - radius + x1);
 186:/home/jonas/warwick/3dProfilometer/xpcc/src/xpcc/driver/ui/display/graphic_display.cpp **** 		
 187:/home/jonas/warwick/3dProfilometer/xpcc/src/xpcc/driver/ui/display/graphic_display.cpp **** 		if (f < 0) {
 188:/home/jonas/warwick/3dProfilometer/xpcc/src/xpcc/driver/ui/display/graphic_display.cpp **** 			f += (4 * x1 + 6);
 189:/home/jonas/warwick/3dProfilometer/xpcc/src/xpcc/driver/ui/display/graphic_display.cpp **** 		}
 190:/home/jonas/warwick/3dProfilometer/xpcc/src/xpcc/driver/ui/display/graphic_display.cpp **** 		else {
 191:/home/jonas/warwick/3dProfilometer/xpcc/src/xpcc/driver/ui/display/graphic_display.cpp **** 			f += (4 * (x1 - y1) + 10);
 192:/home/jonas/warwick/3dProfilometer/xpcc/src/xpcc/driver/ui/display/graphic_display.cpp **** 			y1--;
 193:/home/jonas/warwick/3dProfilometer/xpcc/src/xpcc/driver/ui/display/graphic_display.cpp **** 		}
 194:/home/jonas/warwick/3dProfilometer/xpcc/src/xpcc/driver/ui/display/graphic_display.cpp **** 		x1++;
 195:/home/jonas/warwick/3dProfilometer/xpcc/src/xpcc/driver/ui/display/graphic_display.cpp **** 	}
 196:/home/jonas/warwick/3dProfilometer/xpcc/src/xpcc/driver/ui/display/graphic_display.cpp **** 	
 197:/home/jonas/warwick/3dProfilometer/xpcc/src/xpcc/driver/ui/display/graphic_display.cpp **** 	this->drawHorizontalLine(glcd::Point(x + radius, y), width - (2 * radius));
 198:/home/jonas/warwick/3dProfilometer/xpcc/src/xpcc/driver/ui/display/graphic_display.cpp **** 	this->drawHorizontalLine(glcd::Point(x + radius, y + height), width - (2 * radius));
 199:/home/jonas/warwick/3dProfilometer/xpcc/src/xpcc/driver/ui/display/graphic_display.cpp **** 	this->drawVerticalLine(glcd::Point(x, y + radius), height - (2 * radius));
 200:/home/jonas/warwick/3dProfilometer/xpcc/src/xpcc/driver/ui/display/graphic_display.cpp **** 	this->drawVerticalLine(glcd::Point(x + width, y + radius), height - (2 * radius));
 201:/home/jonas/warwick/3dProfilometer/xpcc/src/xpcc/driver/ui/display/graphic_display.cpp **** }
 202:/home/jonas/warwick/3dProfilometer/xpcc/src/xpcc/driver/ui/display/graphic_display.cpp **** 
 203:/home/jonas/warwick/3dProfilometer/xpcc/src/xpcc/driver/ui/display/graphic_display.cpp **** void
 204:/home/jonas/warwick/3dProfilometer/xpcc/src/xpcc/driver/ui/display/graphic_display.cpp **** xpcc::GraphicDisplay::drawCircle(glcd::Point center, uint16_t radius)
 205:/home/jonas/warwick/3dProfilometer/xpcc/src/xpcc/driver/ui/display/graphic_display.cpp **** {
 206:/home/jonas/warwick/3dProfilometer/xpcc/src/xpcc/driver/ui/display/graphic_display.cpp **** 	if (radius == 0) {
 207:/home/jonas/warwick/3dProfilometer/xpcc/src/xpcc/driver/ui/display/graphic_display.cpp **** 		return;
 208:/home/jonas/warwick/3dProfilometer/xpcc/src/xpcc/driver/ui/display/graphic_display.cpp **** 	}
 209:/home/jonas/warwick/3dProfilometer/xpcc/src/xpcc/driver/ui/display/graphic_display.cpp **** 	
 210:/home/jonas/warwick/3dProfilometer/xpcc/src/xpcc/driver/ui/display/graphic_display.cpp **** 	int16_t error = -radius;
 211:/home/jonas/warwick/3dProfilometer/xpcc/src/xpcc/driver/ui/display/graphic_display.cpp **** 	int16_t x = radius;
 212:/home/jonas/warwick/3dProfilometer/xpcc/src/xpcc/driver/ui/display/graphic_display.cpp **** 	int16_t y = 0;
 213:/home/jonas/warwick/3dProfilometer/xpcc/src/xpcc/driver/ui/display/graphic_display.cpp **** 	
 214:/home/jonas/warwick/3dProfilometer/xpcc/src/xpcc/driver/ui/display/graphic_display.cpp **** 	while (x > y)
 215:/home/jonas/warwick/3dProfilometer/xpcc/src/xpcc/driver/ui/display/graphic_display.cpp **** 	{
 216:/home/jonas/warwick/3dProfilometer/xpcc/src/xpcc/driver/ui/display/graphic_display.cpp **** 		this->drawCircle4(center, x, y);
 217:/home/jonas/warwick/3dProfilometer/xpcc/src/xpcc/driver/ui/display/graphic_display.cpp **** 		this->drawCircle4(center, y, x);
 218:/home/jonas/warwick/3dProfilometer/xpcc/src/xpcc/driver/ui/display/graphic_display.cpp **** 		
 219:/home/jonas/warwick/3dProfilometer/xpcc/src/xpcc/driver/ui/display/graphic_display.cpp **** 		error += y;
 220:/home/jonas/warwick/3dProfilometer/xpcc/src/xpcc/driver/ui/display/graphic_display.cpp **** 		++y;
 221:/home/jonas/warwick/3dProfilometer/xpcc/src/xpcc/driver/ui/display/graphic_display.cpp **** 		error += y;
 222:/home/jonas/warwick/3dProfilometer/xpcc/src/xpcc/driver/ui/display/graphic_display.cpp **** 		
 223:/home/jonas/warwick/3dProfilometer/xpcc/src/xpcc/driver/ui/display/graphic_display.cpp **** 		if (error >= 0)
 224:/home/jonas/warwick/3dProfilometer/xpcc/src/xpcc/driver/ui/display/graphic_display.cpp **** 		{
 225:/home/jonas/warwick/3dProfilometer/xpcc/src/xpcc/driver/ui/display/graphic_display.cpp **** 			--x;
 226:/home/jonas/warwick/3dProfilometer/xpcc/src/xpcc/driver/ui/display/graphic_display.cpp **** 			error -= x;
 227:/home/jonas/warwick/3dProfilometer/xpcc/src/xpcc/driver/ui/display/graphic_display.cpp **** 			error -= x;
 228:/home/jonas/warwick/3dProfilometer/xpcc/src/xpcc/driver/ui/display/graphic_display.cpp **** 		}
 229:/home/jonas/warwick/3dProfilometer/xpcc/src/xpcc/driver/ui/display/graphic_display.cpp **** 	}
 230:/home/jonas/warwick/3dProfilometer/xpcc/src/xpcc/driver/ui/display/graphic_display.cpp **** 	this->drawCircle4(center, x, y);
 231:/home/jonas/warwick/3dProfilometer/xpcc/src/xpcc/driver/ui/display/graphic_display.cpp **** }
 232:/home/jonas/warwick/3dProfilometer/xpcc/src/xpcc/driver/ui/display/graphic_display.cpp **** 
 233:/home/jonas/warwick/3dProfilometer/xpcc/src/xpcc/driver/ui/display/graphic_display.cpp **** void
 234:/home/jonas/warwick/3dProfilometer/xpcc/src/xpcc/driver/ui/display/graphic_display.cpp **** xpcc::GraphicDisplay::drawCircle4(glcd::Point center, int16_t x, int16_t y)
 235:/home/jonas/warwick/3dProfilometer/xpcc/src/xpcc/driver/ui/display/graphic_display.cpp **** {
 236:/home/jonas/warwick/3dProfilometer/xpcc/src/xpcc/driver/ui/display/graphic_display.cpp **** 	const int16_t cx = center.getX();
 237:/home/jonas/warwick/3dProfilometer/xpcc/src/xpcc/driver/ui/display/graphic_display.cpp **** 	const int16_t cy = center.getY();
 238:/home/jonas/warwick/3dProfilometer/xpcc/src/xpcc/driver/ui/display/graphic_display.cpp **** 	
 239:/home/jonas/warwick/3dProfilometer/xpcc/src/xpcc/driver/ui/display/graphic_display.cpp **** 	(this->*draw)(cx + x, cy + y);
 240:/home/jonas/warwick/3dProfilometer/xpcc/src/xpcc/driver/ui/display/graphic_display.cpp **** 	(this->*draw)(cx - x, cy - y);
 241:/home/jonas/warwick/3dProfilometer/xpcc/src/xpcc/driver/ui/display/graphic_display.cpp **** 	if (x != 0) {
 242:/home/jonas/warwick/3dProfilometer/xpcc/src/xpcc/driver/ui/display/graphic_display.cpp **** 		(this->*draw)(cx - x, cy + y);
 243:/home/jonas/warwick/3dProfilometer/xpcc/src/xpcc/driver/ui/display/graphic_display.cpp **** 	}
 244:/home/jonas/warwick/3dProfilometer/xpcc/src/xpcc/driver/ui/display/graphic_display.cpp **** 	if (y != 0) {
 245:/home/jonas/warwick/3dProfilometer/xpcc/src/xpcc/driver/ui/display/graphic_display.cpp **** 		(this->*draw)(cx + x, cy - y);
 246:/home/jonas/warwick/3dProfilometer/xpcc/src/xpcc/driver/ui/display/graphic_display.cpp **** 	}
 247:/home/jonas/warwick/3dProfilometer/xpcc/src/xpcc/driver/ui/display/graphic_display.cpp **** }
 248:/home/jonas/warwick/3dProfilometer/xpcc/src/xpcc/driver/ui/display/graphic_display.cpp **** 
 249:/home/jonas/warwick/3dProfilometer/xpcc/src/xpcc/driver/ui/display/graphic_display.cpp **** void
 250:/home/jonas/warwick/3dProfilometer/xpcc/src/xpcc/driver/ui/display/graphic_display.cpp **** xpcc::GraphicDisplay::drawEllipse(glcd::Point center, int16_t rx, int16_t ry)
 251:/home/jonas/warwick/3dProfilometer/xpcc/src/xpcc/driver/ui/display/graphic_display.cpp **** {
 252:/home/jonas/warwick/3dProfilometer/xpcc/src/xpcc/driver/ui/display/graphic_display.cpp **** 	int32_t rx_2 = rx * rx;
 253:/home/jonas/warwick/3dProfilometer/xpcc/src/xpcc/driver/ui/display/graphic_display.cpp **** 	int32_t ry_2 = ry * ry;
 254:/home/jonas/warwick/3dProfilometer/xpcc/src/xpcc/driver/ui/display/graphic_display.cpp **** 	
 255:/home/jonas/warwick/3dProfilometer/xpcc/src/xpcc/driver/ui/display/graphic_display.cpp **** 	int16_t x = 0;
 256:/home/jonas/warwick/3dProfilometer/xpcc/src/xpcc/driver/ui/display/graphic_display.cpp **** 	int16_t y = ry;
 257:/home/jonas/warwick/3dProfilometer/xpcc/src/xpcc/driver/ui/display/graphic_display.cpp **** 	
 258:/home/jonas/warwick/3dProfilometer/xpcc/src/xpcc/driver/ui/display/graphic_display.cpp **** 	int32_t fx = 0;
 259:/home/jonas/warwick/3dProfilometer/xpcc/src/xpcc/driver/ui/display/graphic_display.cpp **** 	int32_t fy = rx_2 * 2 * ry;
 260:/home/jonas/warwick/3dProfilometer/xpcc/src/xpcc/driver/ui/display/graphic_display.cpp **** 	
 261:/home/jonas/warwick/3dProfilometer/xpcc/src/xpcc/driver/ui/display/graphic_display.cpp **** 	int32_t p = ry_2 - (rx_2 * ry) + (rx_2 + 2) / 4;
 262:/home/jonas/warwick/3dProfilometer/xpcc/src/xpcc/driver/ui/display/graphic_display.cpp **** 	
 263:/home/jonas/warwick/3dProfilometer/xpcc/src/xpcc/driver/ui/display/graphic_display.cpp **** 	drawCircle4(center, x, y);
 264:/home/jonas/warwick/3dProfilometer/xpcc/src/xpcc/driver/ui/display/graphic_display.cpp **** 	while (fx < fy)
 265:/home/jonas/warwick/3dProfilometer/xpcc/src/xpcc/driver/ui/display/graphic_display.cpp **** 	{
 266:/home/jonas/warwick/3dProfilometer/xpcc/src/xpcc/driver/ui/display/graphic_display.cpp **** 		x++;
 267:/home/jonas/warwick/3dProfilometer/xpcc/src/xpcc/driver/ui/display/graphic_display.cpp **** 		fx += ry_2 * 2;
 268:/home/jonas/warwick/3dProfilometer/xpcc/src/xpcc/driver/ui/display/graphic_display.cpp **** 		
 269:/home/jonas/warwick/3dProfilometer/xpcc/src/xpcc/driver/ui/display/graphic_display.cpp **** 		if (p < 0) {
 270:/home/jonas/warwick/3dProfilometer/xpcc/src/xpcc/driver/ui/display/graphic_display.cpp **** 			p += (fx + ry_2);
 271:/home/jonas/warwick/3dProfilometer/xpcc/src/xpcc/driver/ui/display/graphic_display.cpp **** 		}
 272:/home/jonas/warwick/3dProfilometer/xpcc/src/xpcc/driver/ui/display/graphic_display.cpp **** 		else {
 273:/home/jonas/warwick/3dProfilometer/xpcc/src/xpcc/driver/ui/display/graphic_display.cpp **** 			y--;
 274:/home/jonas/warwick/3dProfilometer/xpcc/src/xpcc/driver/ui/display/graphic_display.cpp **** 			fy -= rx_2 * 2;
 275:/home/jonas/warwick/3dProfilometer/xpcc/src/xpcc/driver/ui/display/graphic_display.cpp **** 			p += (fx + ry_2 - fy);
 276:/home/jonas/warwick/3dProfilometer/xpcc/src/xpcc/driver/ui/display/graphic_display.cpp **** 		}
 277:/home/jonas/warwick/3dProfilometer/xpcc/src/xpcc/driver/ui/display/graphic_display.cpp **** 		
 278:/home/jonas/warwick/3dProfilometer/xpcc/src/xpcc/driver/ui/display/graphic_display.cpp **** 		drawCircle4(center, x, y);
 279:/home/jonas/warwick/3dProfilometer/xpcc/src/xpcc/driver/ui/display/graphic_display.cpp **** 	}
 280:/home/jonas/warwick/3dProfilometer/xpcc/src/xpcc/driver/ui/display/graphic_display.cpp **** 	
 281:/home/jonas/warwick/3dProfilometer/xpcc/src/xpcc/driver/ui/display/graphic_display.cpp **** 	p = ((ry_2 * (4 * x * x + 4 * x + 1) / 2) + 
 282:/home/jonas/warwick/3dProfilometer/xpcc/src/xpcc/driver/ui/display/graphic_display.cpp **** 		 2 * (rx_2 * (y - 1) * (y - 1)) -
 283:/home/jonas/warwick/3dProfilometer/xpcc/src/xpcc/driver/ui/display/graphic_display.cpp **** 		 2 * (rx_2 * ry_2)
 284:/home/jonas/warwick/3dProfilometer/xpcc/src/xpcc/driver/ui/display/graphic_display.cpp **** 		 + 1) / 2;
 285:/home/jonas/warwick/3dProfilometer/xpcc/src/xpcc/driver/ui/display/graphic_display.cpp **** 	
 286:/home/jonas/warwick/3dProfilometer/xpcc/src/xpcc/driver/ui/display/graphic_display.cpp **** 	while (y > 0) {
 287:/home/jonas/warwick/3dProfilometer/xpcc/src/xpcc/driver/ui/display/graphic_display.cpp **** 		y--;
 288:/home/jonas/warwick/3dProfilometer/xpcc/src/xpcc/driver/ui/display/graphic_display.cpp **** 		fy -= rx_2 * 2;
 289:/home/jonas/warwick/3dProfilometer/xpcc/src/xpcc/driver/ui/display/graphic_display.cpp **** 		
 290:/home/jonas/warwick/3dProfilometer/xpcc/src/xpcc/driver/ui/display/graphic_display.cpp **** 		if (p >= 0) {
 291:/home/jonas/warwick/3dProfilometer/xpcc/src/xpcc/driver/ui/display/graphic_display.cpp **** 			p += (rx_2 - fy);
 292:/home/jonas/warwick/3dProfilometer/xpcc/src/xpcc/driver/ui/display/graphic_display.cpp **** 		}
 293:/home/jonas/warwick/3dProfilometer/xpcc/src/xpcc/driver/ui/display/graphic_display.cpp **** 		else {
 294:/home/jonas/warwick/3dProfilometer/xpcc/src/xpcc/driver/ui/display/graphic_display.cpp **** 			x++;
 295:/home/jonas/warwick/3dProfilometer/xpcc/src/xpcc/driver/ui/display/graphic_display.cpp **** 			fx += ry_2 * 2;
 296:/home/jonas/warwick/3dProfilometer/xpcc/src/xpcc/driver/ui/display/graphic_display.cpp **** 			p += (fx + rx_2 - fy);
 297:/home/jonas/warwick/3dProfilometer/xpcc/src/xpcc/driver/ui/display/graphic_display.cpp **** 		}
 298:/home/jonas/warwick/3dProfilometer/xpcc/src/xpcc/driver/ui/display/graphic_display.cpp **** 		
 299:/home/jonas/warwick/3dProfilometer/xpcc/src/xpcc/driver/ui/display/graphic_display.cpp **** 		drawCircle4(center, x, y);
 300:/home/jonas/warwick/3dProfilometer/xpcc/src/xpcc/driver/ui/display/graphic_display.cpp **** 	}
 301:/home/jonas/warwick/3dProfilometer/xpcc/src/xpcc/driver/ui/display/graphic_display.cpp **** }
 302:/home/jonas/warwick/3dProfilometer/xpcc/src/xpcc/driver/ui/display/graphic_display.cpp **** 
 303:/home/jonas/warwick/3dProfilometer/xpcc/src/xpcc/driver/ui/display/graphic_display.cpp **** // ----------------------------------------------------------------------------
 304:/home/jonas/warwick/3dProfilometer/xpcc/src/xpcc/driver/ui/display/graphic_display.cpp **** void
 305:/home/jonas/warwick/3dProfilometer/xpcc/src/xpcc/driver/ui/display/graphic_display.cpp **** xpcc::GraphicDisplay::drawImage(glcd::Point upperLeft,
 306:/home/jonas/warwick/3dProfilometer/xpcc/src/xpcc/driver/ui/display/graphic_display.cpp **** 		xpcc::accessor::Flash<uint8_t> image)
 307:/home/jonas/warwick/3dProfilometer/xpcc/src/xpcc/driver/ui/display/graphic_display.cpp **** {
 308:/home/jonas/warwick/3dProfilometer/xpcc/src/xpcc/driver/ui/display/graphic_display.cpp **** 	uint8_t width = image[0];
 309:/home/jonas/warwick/3dProfilometer/xpcc/src/xpcc/driver/ui/display/graphic_display.cpp **** 	uint8_t height = image[1];
 310:/home/jonas/warwick/3dProfilometer/xpcc/src/xpcc/driver/ui/display/graphic_display.cpp **** 	
 311:/home/jonas/warwick/3dProfilometer/xpcc/src/xpcc/driver/ui/display/graphic_display.cpp **** 	drawImageRaw(upperLeft, width, height,
 312:/home/jonas/warwick/3dProfilometer/xpcc/src/xpcc/driver/ui/display/graphic_display.cpp **** 			xpcc::accessor::Flash<uint8_t>(image.getPointer() + 2));
 313:/home/jonas/warwick/3dProfilometer/xpcc/src/xpcc/driver/ui/display/graphic_display.cpp **** }
 314:/home/jonas/warwick/3dProfilometer/xpcc/src/xpcc/driver/ui/display/graphic_display.cpp **** 
 315:/home/jonas/warwick/3dProfilometer/xpcc/src/xpcc/driver/ui/display/graphic_display.cpp **** void
 316:/home/jonas/warwick/3dProfilometer/xpcc/src/xpcc/driver/ui/display/graphic_display.cpp **** xpcc::GraphicDisplay::drawImageRaw(glcd::Point upperLeft,
 317:/home/jonas/warwick/3dProfilometer/xpcc/src/xpcc/driver/ui/display/graphic_display.cpp **** 		uint16_t width, uint16_t height,
 318:/home/jonas/warwick/3dProfilometer/xpcc/src/xpcc/driver/ui/display/graphic_display.cpp **** 		xpcc::accessor::Flash<uint8_t> data)
 319:/home/jonas/warwick/3dProfilometer/xpcc/src/xpcc/driver/ui/display/graphic_display.cpp **** {
 229              		.loc 3 319 0 is_stmt 1
 230              		.cfi_startproc
 231              		@ args = 4, pretend = 0, frame = 16
 232              		@ frame_needed = 0, uses_anonymous_args = 0
 233              	.LVL16:
 234 0000 2DE9F04F 		push	{r4, r5, r6, r7, r8, r9, sl, fp, lr}
 235              	.LCFI2:
 236              		.cfi_def_cfa_offset 36
 237              		.cfi_offset 4, -36
 238              		.cfi_offset 5, -32
 239              		.cfi_offset 6, -28
 240              		.cfi_offset 7, -24
 241              		.cfi_offset 8, -20
 242              		.cfi_offset 9, -16
 243              		.cfi_offset 10, -12
 244              		.cfi_offset 11, -8
 245              		.cfi_offset 14, -4
 246              	.LBB238:
 320:/home/jonas/warwick/3dProfilometer/xpcc/src/xpcc/driver/ui/display/graphic_display.cpp **** 	uint16_t rows = (height + 7) / 8;
 247              		.loc 3 320 0
 248 0004 DC1D     		adds	r4, r3, #7
 249              	.LBE238:
 319:/home/jonas/warwick/3dProfilometer/xpcc/src/xpcc/driver/ui/display/graphic_display.cpp **** {
 250              		.loc 3 319 0
 251 0006 85B0     		sub	sp, sp, #20
 252              	.LCFI3:
 253              		.cfi_def_cfa_offset 56
 254              	.LBB244:
 255              		.loc 3 320 0
 256 0008 E408     		lsrs	r4, r4, #3
 257              	.LBE244:
 319:/home/jonas/warwick/3dProfilometer/xpcc/src/xpcc/driver/ui/display/graphic_display.cpp **** {
 258              		.loc 3 319 0
 259 000a 0393     		str	r3, [sp, #12]
 260              	.LBB245:
 261              	.LBB239:
 321:/home/jonas/warwick/3dProfilometer/xpcc/src/xpcc/driver/ui/display/graphic_display.cpp **** 	for (uint16_t i = 0; i < width; i++)
 262              		.loc 3 321 0
 263 000c 0092     		str	r2, [sp, #0]
 264              	.LBE239:
 265              	.LBE245:
 319:/home/jonas/warwick/3dProfilometer/xpcc/src/xpcc/driver/ui/display/graphic_display.cpp **** {
 266              		.loc 3 319 0
 267 000e 0646     		mov	r6, r0
 268 0010 8B46     		mov	fp, r1
 269              	.LBB246:
 320:/home/jonas/warwick/3dProfilometer/xpcc/src/xpcc/driver/ui/display/graphic_display.cpp **** 	uint16_t rows = (height + 7) / 8;
 270              		.loc 3 320 0
 271 0012 0194     		str	r4, [sp, #4]
 272              	.LVL17:
 273              	.LBB243:
 274              		.loc 3 321 0
 275 0014 002A     		cmp	r2, #0
 276 0016 4AD0     		beq	.L23
 277 0018 4FF00009 		mov	r9, #0
 278              	.LVL18:
 279              	.L24:
 280              	.LBB240:
 322:/home/jonas/warwick/3dProfilometer/xpcc/src/xpcc/driver/ui/display/graphic_display.cpp **** 	{
 323:/home/jonas/warwick/3dProfilometer/xpcc/src/xpcc/driver/ui/display/graphic_display.cpp **** 		for (uint16_t k = 0; k < rows; k++)
 281              		.loc 3 323 0 discriminator 1
 282 001c 019B     		ldr	r3, [sp, #4]
 283 001e 002B     		cmp	r3, #0
 284 0020 3ED0     		beq	.L31
 285 0022 0E9B     		ldr	r3, [sp, #56]
 286 0024 4B44     		add	r3, r3, r9
 287              		.loc 3 323 0 is_stmt 0
 288 0026 4FF0000A 		mov	sl, #0
 289 002a 0293     		str	r3, [sp, #8]
 290              	.LVL19:
 291              	.L30:
 292              	.LBB241:
 324:/home/jonas/warwick/3dProfilometer/xpcc/src/xpcc/driver/ui/display/graphic_display.cpp **** 		{
 325:/home/jonas/warwick/3dProfilometer/xpcc/src/xpcc/driver/ui/display/graphic_display.cpp **** 			uint16_t byte = data[i + k * width];
 326:/home/jonas/warwick/3dProfilometer/xpcc/src/xpcc/driver/ui/display/graphic_display.cpp **** 			uint16_t rowHeight = height - k * 8;
 293              		.loc 3 326 0 is_stmt 1
 294 002c 039B     		ldr	r3, [sp, #12]
 295 002e CAEB4A37 		rsb	r7, sl, sl, lsl #13
 296 0032 03EBC707 		add	r7, r3, r7, lsl #3
 325:/home/jonas/warwick/3dProfilometer/xpcc/src/xpcc/driver/ui/display/graphic_display.cpp **** 			uint16_t byte = data[i + k * width];
 297              		.loc 3 325 0
 298 0036 009B     		ldr	r3, [sp, #0]
 299              		.loc 3 326 0
 300 0038 BFB2     		uxth	r7, r7
 325:/home/jonas/warwick/3dProfilometer/xpcc/src/xpcc/driver/ui/display/graphic_display.cpp **** 			uint16_t byte = data[i + k * width];
 301              		.loc 3 325 0
 302 003a 03FB0AF2 		mul	r2, r3, sl
 303 003e 029B     		ldr	r3, [sp, #8]
 304 0040 082F     		cmp	r7, #8
 305 0042 28BF     		it	cs
 306 0044 0827     		movcs	r7, #8
 307 0046 9D5C     		ldrb	r5, [r3, r2]	@ zero_extendqisi2
 308              	.LVL20:
 309              	.LBB242:
 327:/home/jonas/warwick/3dProfilometer/xpcc/src/xpcc/driver/ui/display/graphic_display.cpp **** 			if (rowHeight > 8) {
 328:/home/jonas/warwick/3dProfilometer/xpcc/src/xpcc/driver/ui/display/graphic_display.cpp **** 				rowHeight = 8;
 329:/home/jonas/warwick/3dProfilometer/xpcc/src/xpcc/driver/ui/display/graphic_display.cpp **** 			}
 330:/home/jonas/warwick/3dProfilometer/xpcc/src/xpcc/driver/ui/display/graphic_display.cpp **** 			for (uint16_t j = 0; j < rowHeight; j++)
 310              		.loc 3 330 0
 311 0048 1FB3     		cbz	r7, .L26
 312 004a 0024     		movs	r4, #0
 313 004c 4FEACA08 		lsl	r8, sl, #3
 314 0050 0AE0     		b	.L29
 315              	.LVL21:
 316              	.L41:
 331:/home/jonas/warwick/3dProfilometer/xpcc/src/xpcc/driver/ui/display/graphic_display.cpp **** 			{
 332:/home/jonas/warwick/3dProfilometer/xpcc/src/xpcc/driver/ui/display/graphic_display.cpp **** 				if (byte & 0x01) {
 333:/home/jonas/warwick/3dProfilometer/xpcc/src/xpcc/driver/ui/display/graphic_display.cpp **** 					this->setPixel(upperLeft.getX() + i, upperLeft.getY() + k * 8 + j);
 317              		.loc 3 333 0
 318 0052 A218     		adds	r2, r4, r2
 319 0054 4944     		add	r1, r9, r1
 330:/home/jonas/warwick/3dProfilometer/xpcc/src/xpcc/driver/ui/display/graphic_display.cpp **** 			for (uint16_t j = 0; j < rowHeight; j++)
 320              		.loc 3 330 0
 321 0056 0134     		adds	r4, r4, #1
 322              		.loc 3 333 0
 323 0058 5B6A     		ldr	r3, [r3, #36]
 324 005a 09B2     		sxth	r1, r1
 325 005c 12B2     		sxth	r2, r2
 330:/home/jonas/warwick/3dProfilometer/xpcc/src/xpcc/driver/ui/display/graphic_display.cpp **** 			for (uint16_t j = 0; j < rowHeight; j++)
 326              		.loc 3 330 0
 327 005e A4B2     		uxth	r4, r4
 328              		.loc 3 333 0
 329 0060 9847     		blx	r3
 330              	.LVL22:
 334:/home/jonas/warwick/3dProfilometer/xpcc/src/xpcc/driver/ui/display/graphic_display.cpp **** 				}
 335:/home/jonas/warwick/3dProfilometer/xpcc/src/xpcc/driver/ui/display/graphic_display.cpp **** 				else {
 336:/home/jonas/warwick/3dProfilometer/xpcc/src/xpcc/driver/ui/display/graphic_display.cpp **** 					this->clearPixel(upperLeft.getX() + i, upperLeft.getY() + k * 8 + j);
 337:/home/jonas/warwick/3dProfilometer/xpcc/src/xpcc/driver/ui/display/graphic_display.cpp **** 				}
 338:/home/jonas/warwick/3dProfilometer/xpcc/src/xpcc/driver/ui/display/graphic_display.cpp **** 				byte >>= 1;
 331              		.loc 3 338 0
 332 0062 6D08     		lsrs	r5, r5, #1
 333              	.LVL23:
 330:/home/jonas/warwick/3dProfilometer/xpcc/src/xpcc/driver/ui/display/graphic_display.cpp **** 			for (uint16_t j = 0; j < rowHeight; j++)
 334              		.loc 3 330 0
 335 0064 A742     		cmp	r7, r4
 336 0066 14D9     		bls	.L26
 337              	.LVL24:
 338              	.L29:
 333:/home/jonas/warwick/3dProfilometer/xpcc/src/xpcc/driver/ui/display/graphic_display.cpp **** 					this->setPixel(upperLeft.getX() + i, upperLeft.getY() + k * 8 + j);
 339              		.loc 3 333 0
 340 0068 BBF80220 		ldrh	r2, [fp, #2]
 341 006c BBF80010 		ldrh	r1, [fp, #0]
 342 0070 3368     		ldr	r3, [r6, #0]
 332:/home/jonas/warwick/3dProfilometer/xpcc/src/xpcc/driver/ui/display/graphic_display.cpp **** 				if (byte & 0x01) {
 343              		.loc 3 332 0
 344 0072 15F0010F 		tst	r5, #1
 333:/home/jonas/warwick/3dProfilometer/xpcc/src/xpcc/driver/ui/display/graphic_display.cpp **** 					this->setPixel(upperLeft.getX() + i, upperLeft.getY() + k * 8 + j);
 345              		.loc 3 333 0
 346 0076 4244     		add	r2, r8, r2
 336:/home/jonas/warwick/3dProfilometer/xpcc/src/xpcc/driver/ui/display/graphic_display.cpp **** 					this->clearPixel(upperLeft.getX() + i, upperLeft.getY() + k * 8 + j);
 347              		.loc 3 336 0
 348 0078 3046     		mov	r0, r6
 332:/home/jonas/warwick/3dProfilometer/xpcc/src/xpcc/driver/ui/display/graphic_display.cpp **** 				if (byte & 0x01) {
 349              		.loc 3 332 0
 350 007a EAD1     		bne	.L41
 351              	.LVL25:
 336:/home/jonas/warwick/3dProfilometer/xpcc/src/xpcc/driver/ui/display/graphic_display.cpp **** 					this->clearPixel(upperLeft.getX() + i, upperLeft.getY() + k * 8 + j);
 352              		.loc 3 336 0
 353 007c A218     		adds	r2, r4, r2
 354 007e 4944     		add	r1, r9, r1
 330:/home/jonas/warwick/3dProfilometer/xpcc/src/xpcc/driver/ui/display/graphic_display.cpp **** 			for (uint16_t j = 0; j < rowHeight; j++)
 355              		.loc 3 330 0
 356 0080 0134     		adds	r4, r4, #1
 336:/home/jonas/warwick/3dProfilometer/xpcc/src/xpcc/driver/ui/display/graphic_display.cpp **** 					this->clearPixel(upperLeft.getX() + i, upperLeft.getY() + k * 8 + j);
 357              		.loc 3 336 0
 358 0082 9B6A     		ldr	r3, [r3, #40]
 359 0084 09B2     		sxth	r1, r1
 360 0086 12B2     		sxth	r2, r2
 330:/home/jonas/warwick/3dProfilometer/xpcc/src/xpcc/driver/ui/display/graphic_display.cpp **** 			for (uint16_t j = 0; j < rowHeight; j++)
 361              		.loc 3 330 0
 362 0088 A4B2     		uxth	r4, r4
 336:/home/jonas/warwick/3dProfilometer/xpcc/src/xpcc/driver/ui/display/graphic_display.cpp **** 					this->clearPixel(upperLeft.getX() + i, upperLeft.getY() + k * 8 + j);
 363              		.loc 3 336 0
 364 008a 9847     		blx	r3
 365              	.LVL26:
 366              		.loc 3 338 0
 367 008c 6D08     		lsrs	r5, r5, #1
 368              	.LVL27:
 330:/home/jonas/warwick/3dProfilometer/xpcc/src/xpcc/driver/ui/display/graphic_display.cpp **** 			for (uint16_t j = 0; j < rowHeight; j++)
 369              		.loc 3 330 0
 370 008e A742     		cmp	r7, r4
 371 0090 EAD8     		bhi	.L29
 372              	.LVL28:
 373              	.L26:
 374              	.LBE242:
 375              	.LBE241:
 323:/home/jonas/warwick/3dProfilometer/xpcc/src/xpcc/driver/ui/display/graphic_display.cpp **** 		for (uint16_t k = 0; k < rows; k++)
 376              		.loc 3 323 0
 377 0092 0AF1010A 		add	sl, sl, #1
 378 0096 019B     		ldr	r3, [sp, #4]
 379 0098 1FFA8AFA 		uxth	sl, sl
 380              	.LVL29:
 381 009c 5345     		cmp	r3, sl
 382 009e C5D8     		bhi	.L30
 383              	.LVL30:
 384              	.L31:
 385              	.LBE240:
 321:/home/jonas/warwick/3dProfilometer/xpcc/src/xpcc/driver/ui/display/graphic_display.cpp **** 	for (uint16_t i = 0; i < width; i++)
 386              		.loc 3 321 0
 387 00a0 09F10109 		add	r9, r9, #1
 388 00a4 009B     		ldr	r3, [sp, #0]
 389 00a6 1FFA89F9 		uxth	r9, r9
 390              	.LVL31:
 391 00aa 4B45     		cmp	r3, r9
 392 00ac B6D8     		bhi	.L24
 393              	.LVL32:
 394              	.L23:
 395              	.LBE243:
 396              	.LBE246:
 339:/home/jonas/warwick/3dProfilometer/xpcc/src/xpcc/driver/ui/display/graphic_display.cpp **** 			}
 340:/home/jonas/warwick/3dProfilometer/xpcc/src/xpcc/driver/ui/display/graphic_display.cpp **** 		}
 341:/home/jonas/warwick/3dProfilometer/xpcc/src/xpcc/driver/ui/display/graphic_display.cpp **** 	}
 342:/home/jonas/warwick/3dProfilometer/xpcc/src/xpcc/driver/ui/display/graphic_display.cpp **** }
 397              		.loc 3 342 0
 398 00ae 05B0     		add	sp, sp, #20
 399 00b0 BDE8F08F 		pop	{r4, r5, r6, r7, r8, r9, sl, fp, pc}
 400              		.cfi_endproc
 401              	.LFE1220:
 403              		.section	.text._ZN4xpcc14GraphicDisplayD0Ev,"axG",%progbits,_ZN4xpcc14GraphicDisplayD0Ev,comdat
 404              		.align	2
 405              		.weak	_ZN4xpcc14GraphicDisplayD0Ev
 406              		.thumb
 407              		.thumb_func
 409              	_ZN4xpcc14GraphicDisplayD0Ev:
 410              	.LFB1190:
 162:/home/jonas/warwick/3dProfilometer/xpcc/src/xpcc/driver/ui/display/graphic_display.hpp **** 		~GraphicDisplay()
 411              		.loc 1 162 0
 412              		.cfi_startproc
 413              		@ args = 0, pretend = 0, frame = 0
 414              		@ frame_needed = 0, uses_anonymous_args = 0
 415              	.LVL33:
 416              	.LBB247:
 417              	.LBB248:
 163:/home/jonas/warwick/3dProfilometer/xpcc/src/xpcc/driver/ui/display/graphic_display.hpp **** 		{
 418              		.loc 1 163 0
 419 0000 044B     		ldr	r3, .L43
 420              	.LBE248:
 421              	.LBE247:
 162:/home/jonas/warwick/3dProfilometer/xpcc/src/xpcc/driver/ui/display/graphic_display.hpp **** 		~GraphicDisplay()
 422              		.loc 1 162 0
 423 0002 10B5     		push	{r4, lr}
 424              	.LCFI4:
 425              		.cfi_def_cfa_offset 8
 426              		.cfi_offset 4, -8
 427              		.cfi_offset 14, -4
 428              	.LBB259:
 429              	.LBB257:
 163:/home/jonas/warwick/3dProfilometer/xpcc/src/xpcc/driver/ui/display/graphic_display.hpp **** 		{
 430              		.loc 1 163 0
 431 0004 0360     		str	r3, [r0, #0]
 432              	.LBB249:
 433              	.LBB250:
 434              	.LBB251:
 435              	.LBB252:
 436              		.loc 2 51 0
 437 0006 044B     		ldr	r3, .L43+4
 438              	.LBE252:
 439              	.LBE251:
 440              	.LBE250:
 441              	.LBE249:
 442              	.LBE257:
 443              	.LBE259:
 162:/home/jonas/warwick/3dProfilometer/xpcc/src/xpcc/driver/ui/display/graphic_display.hpp **** 		~GraphicDisplay()
 444              		.loc 1 162 0
 445 0008 0446     		mov	r4, r0
 446              	.LVL34:
 447              	.LBB260:
 448              	.LBB258:
 449              	.LBB256:
 450              	.LBB255:
 451              	.LBB254:
 452              	.LBB253:
 453              		.loc 2 51 0
 454 000a C360     		str	r3, [r0, #12]
 455              	.LBE253:
 456              	.LBE254:
 457              	.LBE255:
 458              	.LBE256:
 459              	.LBE258:
 460              	.LBE260:
 461              		.loc 1 164 0
 462 000c 034B     		ldr	r3, .L43+8
 463 000e 9847     		blx	r3
 464              	.LVL35:
 465 0010 2046     		mov	r0, r4
 466 0012 10BD     		pop	{r4, pc}
 467              	.L44:
 468              		.align	2
 469              	.L43:
 470 0014 08000000 		.word	.LANCHOR0+8
 471 0018 08000000 		.word	_ZTVN4xpcc8IODeviceE+8
 472 001c 00000000 		.word	_ZdlPv
 473              		.cfi_endproc
 474              	.LFE1190:
 476              		.section	.text._ZN4xpcc14GraphicDisplayC2Ev,"ax",%progbits
 477              		.align	2
 478              		.global	_ZN4xpcc14GraphicDisplayC2Ev
 479              		.thumb
 480              		.thumb_func
 482              	_ZN4xpcc14GraphicDisplayC2Ev:
 483              	.LFB1207:
  38:/home/jonas/warwick/3dProfilometer/xpcc/src/xpcc/driver/ui/display/graphic_display.cpp **** xpcc::GraphicDisplay::GraphicDisplay() :
 484              		.loc 3 38 0
 485              		.cfi_startproc
 486              		@ args = 0, pretend = 0, frame = 8
 487              		@ frame_needed = 0, uses_anonymous_args = 0
 488              	.LVL36:
 489 0000 30B5     		push	{r4, r5, lr}
 490              	.LCFI5:
 491              		.cfi_def_cfa_offset 12
 492              		.cfi_offset 4, -12
 493              		.cfi_offset 5, -8
 494              		.cfi_offset 14, -4
 495              	.LBB261:
  44:/home/jonas/warwick/3dProfilometer/xpcc/src/xpcc/driver/ui/display/graphic_display.cpp **** 	font(xpcc::accessor::asFlash(xpcc::font::FixedWidth5x8))
 496              		.loc 3 44 0
 497 0002 00F10C01 		add	r1, r0, #12
 498              	.LBE261:
  38:/home/jonas/warwick/3dProfilometer/xpcc/src/xpcc/driver/ui/display/graphic_display.cpp **** xpcc::GraphicDisplay::GraphicDisplay() :
 499              		.loc 3 38 0
 500 0006 0446     		mov	r4, r0
 501 0008 83B0     		sub	sp, sp, #12
 502              	.LCFI6:
 503              		.cfi_def_cfa_offset 24
 504              	.LBB272:
  44:/home/jonas/warwick/3dProfilometer/xpcc/src/xpcc/driver/ui/display/graphic_display.cpp **** 	font(xpcc::accessor::asFlash(xpcc::font::FixedWidth5x8))
 505              		.loc 3 44 0
 506 000a 0430     		adds	r0, r0, #4
 507              	.LVL37:
 508 000c 0D4B     		ldr	r3, .L46
 509 000e 0E4D     		ldr	r5, .L46+4
 510 0010 9847     		blx	r3
 511              	.LVL38:
 512 0012 0E4B     		ldr	r3, .L46+8
 513              	.LBB262:
 514              	.LBB263:
 165:/home/jonas/warwick/3dProfilometer/xpcc/src/xpcc/driver/ui/display/graphic_display.hpp **** 		
 166:/home/jonas/warwick/3dProfilometer/xpcc/src/xpcc/driver/ui/display/graphic_display.hpp **** 		/**
 167:/home/jonas/warwick/3dProfilometer/xpcc/src/xpcc/driver/ui/display/graphic_display.hpp **** 		 * Number of pixel in horizontal direction.
 168:/home/jonas/warwick/3dProfilometer/xpcc/src/xpcc/driver/ui/display/graphic_display.hpp **** 		 */
 169:/home/jonas/warwick/3dProfilometer/xpcc/src/xpcc/driver/ui/display/graphic_display.hpp **** 		virtual uint16_t
 170:/home/jonas/warwick/3dProfilometer/xpcc/src/xpcc/driver/ui/display/graphic_display.hpp **** 		getWidth() const = 0;
 171:/home/jonas/warwick/3dProfilometer/xpcc/src/xpcc/driver/ui/display/graphic_display.hpp **** 
 172:/home/jonas/warwick/3dProfilometer/xpcc/src/xpcc/driver/ui/display/graphic_display.hpp **** 		/**
 173:/home/jonas/warwick/3dProfilometer/xpcc/src/xpcc/driver/ui/display/graphic_display.hpp **** 		 * Number of pixel in vertical direction.
 174:/home/jonas/warwick/3dProfilometer/xpcc/src/xpcc/driver/ui/display/graphic_display.hpp **** 		 */
 175:/home/jonas/warwick/3dProfilometer/xpcc/src/xpcc/driver/ui/display/graphic_display.hpp **** 		virtual uint16_t
 176:/home/jonas/warwick/3dProfilometer/xpcc/src/xpcc/driver/ui/display/graphic_display.hpp **** 		getHeight() const = 0;
 177:/home/jonas/warwick/3dProfilometer/xpcc/src/xpcc/driver/ui/display/graphic_display.hpp **** 
 178:/home/jonas/warwick/3dProfilometer/xpcc/src/xpcc/driver/ui/display/graphic_display.hpp **** 		/**
 179:/home/jonas/warwick/3dProfilometer/xpcc/src/xpcc/driver/ui/display/graphic_display.hpp **** 		 * Clear screen and reset the cursor.
 180:/home/jonas/warwick/3dProfilometer/xpcc/src/xpcc/driver/ui/display/graphic_display.hpp **** 		 */
 181:/home/jonas/warwick/3dProfilometer/xpcc/src/xpcc/driver/ui/display/graphic_display.hpp **** 		virtual void
 182:/home/jonas/warwick/3dProfilometer/xpcc/src/xpcc/driver/ui/display/graphic_display.hpp **** 		clear() = 0;
 183:/home/jonas/warwick/3dProfilometer/xpcc/src/xpcc/driver/ui/display/graphic_display.hpp **** 		
 184:/home/jonas/warwick/3dProfilometer/xpcc/src/xpcc/driver/ui/display/graphic_display.hpp **** 		/**
 185:/home/jonas/warwick/3dProfilometer/xpcc/src/xpcc/driver/ui/display/graphic_display.hpp **** 		 * Transfer the content of the RAM buffer to the real display.
 186:/home/jonas/warwick/3dProfilometer/xpcc/src/xpcc/driver/ui/display/graphic_display.hpp **** 		 */
 187:/home/jonas/warwick/3dProfilometer/xpcc/src/xpcc/driver/ui/display/graphic_display.hpp **** 		virtual void
 188:/home/jonas/warwick/3dProfilometer/xpcc/src/xpcc/driver/ui/display/graphic_display.hpp **** 		update() = 0;
 189:/home/jonas/warwick/3dProfilometer/xpcc/src/xpcc/driver/ui/display/graphic_display.hpp **** 		
 190:/home/jonas/warwick/3dProfilometer/xpcc/src/xpcc/driver/ui/display/graphic_display.hpp **** 		/**
 191:/home/jonas/warwick/3dProfilometer/xpcc/src/xpcc/driver/ui/display/graphic_display.hpp **** 		 * Set a new foreground color.
 192:/home/jonas/warwick/3dProfilometer/xpcc/src/xpcc/driver/ui/display/graphic_display.hpp **** 		 * 
 193:/home/jonas/warwick/3dProfilometer/xpcc/src/xpcc/driver/ui/display/graphic_display.hpp **** 		 * The foreground color is used for all drawing operations. Default
 194:/home/jonas/warwick/3dProfilometer/xpcc/src/xpcc/driver/ui/display/graphic_display.hpp **** 		 * is white.
 195:/home/jonas/warwick/3dProfilometer/xpcc/src/xpcc/driver/ui/display/graphic_display.hpp **** 		 * 
 196:/home/jonas/warwick/3dProfilometer/xpcc/src/xpcc/driver/ui/display/graphic_display.hpp **** 		 * @see	setBackgroundColor()
 197:/home/jonas/warwick/3dProfilometer/xpcc/src/xpcc/driver/ui/display/graphic_display.hpp **** 		 */
 198:/home/jonas/warwick/3dProfilometer/xpcc/src/xpcc/driver/ui/display/graphic_display.hpp **** 		void
 199:/home/jonas/warwick/3dProfilometer/xpcc/src/xpcc/driver/ui/display/graphic_display.hpp **** 		setColor(const glcd::Color& color);
 200:/home/jonas/warwick/3dProfilometer/xpcc/src/xpcc/driver/ui/display/graphic_display.hpp **** 		
 201:/home/jonas/warwick/3dProfilometer/xpcc/src/xpcc/driver/ui/display/graphic_display.hpp **** 		inline glcd::Color
 202:/home/jonas/warwick/3dProfilometer/xpcc/src/xpcc/driver/ui/display/graphic_display.hpp **** 		getForegroundColor() const
 203:/home/jonas/warwick/3dProfilometer/xpcc/src/xpcc/driver/ui/display/graphic_display.hpp **** 		{
 204:/home/jonas/warwick/3dProfilometer/xpcc/src/xpcc/driver/ui/display/graphic_display.hpp **** 			return this->foregroundColor;
 205:/home/jonas/warwick/3dProfilometer/xpcc/src/xpcc/driver/ui/display/graphic_display.hpp **** 		}
 206:/home/jonas/warwick/3dProfilometer/xpcc/src/xpcc/driver/ui/display/graphic_display.hpp **** 		
 207:/home/jonas/warwick/3dProfilometer/xpcc/src/xpcc/driver/ui/display/graphic_display.hpp **** 		/**
 208:/home/jonas/warwick/3dProfilometer/xpcc/src/xpcc/driver/ui/display/graphic_display.hpp **** 		 * Set new background color.
 209:/home/jonas/warwick/3dProfilometer/xpcc/src/xpcc/driver/ui/display/graphic_display.hpp **** 		 * 
 210:/home/jonas/warwick/3dProfilometer/xpcc/src/xpcc/driver/ui/display/graphic_display.hpp **** 		 * The background color used when clearing the screen. Default is black.
 211:/home/jonas/warwick/3dProfilometer/xpcc/src/xpcc/driver/ui/display/graphic_display.hpp **** 		 * 
 212:/home/jonas/warwick/3dProfilometer/xpcc/src/xpcc/driver/ui/display/graphic_display.hpp **** 		 * @see	setColor()
 213:/home/jonas/warwick/3dProfilometer/xpcc/src/xpcc/driver/ui/display/graphic_display.hpp **** 		 */
 214:/home/jonas/warwick/3dProfilometer/xpcc/src/xpcc/driver/ui/display/graphic_display.hpp **** 		void
 215:/home/jonas/warwick/3dProfilometer/xpcc/src/xpcc/driver/ui/display/graphic_display.hpp **** 		setBackgroundColor(const glcd::Color& color);
 216:/home/jonas/warwick/3dProfilometer/xpcc/src/xpcc/driver/ui/display/graphic_display.hpp **** 		
 217:/home/jonas/warwick/3dProfilometer/xpcc/src/xpcc/driver/ui/display/graphic_display.hpp **** 		/**
 218:/home/jonas/warwick/3dProfilometer/xpcc/src/xpcc/driver/ui/display/graphic_display.hpp **** 		 * Limit the coordinate system to a smaller area.
 219:/home/jonas/warwick/3dProfilometer/xpcc/src/xpcc/driver/ui/display/graphic_display.hpp **** 		 * 
 220:/home/jonas/warwick/3dProfilometer/xpcc/src/xpcc/driver/ui/display/graphic_display.hpp **** 		 * The default viewport is the complete screen.
 221:/home/jonas/warwick/3dProfilometer/xpcc/src/xpcc/driver/ui/display/graphic_display.hpp **** 		 */
 222:/home/jonas/warwick/3dProfilometer/xpcc/src/xpcc/driver/ui/display/graphic_display.hpp **** 		//void
 223:/home/jonas/warwick/3dProfilometer/xpcc/src/xpcc/driver/ui/display/graphic_display.hpp **** 		//setViewport();
 224:/home/jonas/warwick/3dProfilometer/xpcc/src/xpcc/driver/ui/display/graphic_display.hpp **** 		
 225:/home/jonas/warwick/3dProfilometer/xpcc/src/xpcc/driver/ui/display/graphic_display.hpp **** 		// TODO Set a clipping area
 226:/home/jonas/warwick/3dProfilometer/xpcc/src/xpcc/driver/ui/display/graphic_display.hpp **** 		// Everything drawn outside this area will be discarded.
 227:/home/jonas/warwick/3dProfilometer/xpcc/src/xpcc/driver/ui/display/graphic_display.hpp **** 		//void
 228:/home/jonas/warwick/3dProfilometer/xpcc/src/xpcc/driver/ui/display/graphic_display.hpp **** 		//setClippingWindow();
 229:/home/jonas/warwick/3dProfilometer/xpcc/src/xpcc/driver/ui/display/graphic_display.hpp **** 		
 230:/home/jonas/warwick/3dProfilometer/xpcc/src/xpcc/driver/ui/display/graphic_display.hpp **** 		/**
 231:/home/jonas/warwick/3dProfilometer/xpcc/src/xpcc/driver/ui/display/graphic_display.hpp **** 		 * Draw a pixel in currently active foreground color.
 232:/home/jonas/warwick/3dProfilometer/xpcc/src/xpcc/driver/ui/display/graphic_display.hpp **** 		 * 
 233:/home/jonas/warwick/3dProfilometer/xpcc/src/xpcc/driver/ui/display/graphic_display.hpp **** 		 * \param	x	x-position
 234:/home/jonas/warwick/3dProfilometer/xpcc/src/xpcc/driver/ui/display/graphic_display.hpp **** 		 * \param	y	y-position
 235:/home/jonas/warwick/3dProfilometer/xpcc/src/xpcc/driver/ui/display/graphic_display.hpp **** 		 */
 236:/home/jonas/warwick/3dProfilometer/xpcc/src/xpcc/driver/ui/display/graphic_display.hpp **** 		inline void
 237:/home/jonas/warwick/3dProfilometer/xpcc/src/xpcc/driver/ui/display/graphic_display.hpp **** 		drawPixel(int16_t x, int16_t y)
 238:/home/jonas/warwick/3dProfilometer/xpcc/src/xpcc/driver/ui/display/graphic_display.hpp **** 		{
 239:/home/jonas/warwick/3dProfilometer/xpcc/src/xpcc/driver/ui/display/graphic_display.hpp **** 			(this->*draw)(x, y);
 240:/home/jonas/warwick/3dProfilometer/xpcc/src/xpcc/driver/ui/display/graphic_display.hpp **** 		}
 241:/home/jonas/warwick/3dProfilometer/xpcc/src/xpcc/driver/ui/display/graphic_display.hpp **** 		
 242:/home/jonas/warwick/3dProfilometer/xpcc/src/xpcc/driver/ui/display/graphic_display.hpp **** 		inline void
 243:/home/jonas/warwick/3dProfilometer/xpcc/src/xpcc/driver/ui/display/graphic_display.hpp **** 		drawPixel(glcd::Point center)
 244:/home/jonas/warwick/3dProfilometer/xpcc/src/xpcc/driver/ui/display/graphic_display.hpp **** 		{
 245:/home/jonas/warwick/3dProfilometer/xpcc/src/xpcc/driver/ui/display/graphic_display.hpp **** 			(this->*draw)(center.x, center.y);
 246:/home/jonas/warwick/3dProfilometer/xpcc/src/xpcc/driver/ui/display/graphic_display.hpp **** 		}
 247:/home/jonas/warwick/3dProfilometer/xpcc/src/xpcc/driver/ui/display/graphic_display.hpp **** 		
 248:/home/jonas/warwick/3dProfilometer/xpcc/src/xpcc/driver/ui/display/graphic_display.hpp **** 		/**
 249:/home/jonas/warwick/3dProfilometer/xpcc/src/xpcc/driver/ui/display/graphic_display.hpp **** 		 * Draw a line.
 250:/home/jonas/warwick/3dProfilometer/xpcc/src/xpcc/driver/ui/display/graphic_display.hpp **** 		 * 
 251:/home/jonas/warwick/3dProfilometer/xpcc/src/xpcc/driver/ui/display/graphic_display.hpp **** 		 * Uses the faster drawHorizontalLine() or drawVerticalLine() if
 252:/home/jonas/warwick/3dProfilometer/xpcc/src/xpcc/driver/ui/display/graphic_display.hpp **** 		 * possible, otherwise the line is rastered with the Bresenham line
 253:/home/jonas/warwick/3dProfilometer/xpcc/src/xpcc/driver/ui/display/graphic_display.hpp **** 		 * algorithm.
 254:/home/jonas/warwick/3dProfilometer/xpcc/src/xpcc/driver/ui/display/graphic_display.hpp **** 		 * 
 255:/home/jonas/warwick/3dProfilometer/xpcc/src/xpcc/driver/ui/display/graphic_display.hpp **** 		 * \param start	first point
 256:/home/jonas/warwick/3dProfilometer/xpcc/src/xpcc/driver/ui/display/graphic_display.hpp **** 		 * \param end	second point
 257:/home/jonas/warwick/3dProfilometer/xpcc/src/xpcc/driver/ui/display/graphic_display.hpp **** 		 */
 258:/home/jonas/warwick/3dProfilometer/xpcc/src/xpcc/driver/ui/display/graphic_display.hpp **** 		inline void
 259:/home/jonas/warwick/3dProfilometer/xpcc/src/xpcc/driver/ui/display/graphic_display.hpp **** 		drawLine(glcd::Point start, glcd::Point end)
 260:/home/jonas/warwick/3dProfilometer/xpcc/src/xpcc/driver/ui/display/graphic_display.hpp **** 		{
 261:/home/jonas/warwick/3dProfilometer/xpcc/src/xpcc/driver/ui/display/graphic_display.hpp **** 			this->drawLine(start.getX(), start.getY(), end.getX(), end.getY());
 262:/home/jonas/warwick/3dProfilometer/xpcc/src/xpcc/driver/ui/display/graphic_display.hpp **** 		}
 263:/home/jonas/warwick/3dProfilometer/xpcc/src/xpcc/driver/ui/display/graphic_display.hpp **** 		
 264:/home/jonas/warwick/3dProfilometer/xpcc/src/xpcc/driver/ui/display/graphic_display.hpp **** 		/**
 265:/home/jonas/warwick/3dProfilometer/xpcc/src/xpcc/driver/ui/display/graphic_display.hpp **** 		 * Draw a line specified by x and y coordinates of both points.
 266:/home/jonas/warwick/3dProfilometer/xpcc/src/xpcc/driver/ui/display/graphic_display.hpp **** 		 */
 267:/home/jonas/warwick/3dProfilometer/xpcc/src/xpcc/driver/ui/display/graphic_display.hpp **** 		void
 268:/home/jonas/warwick/3dProfilometer/xpcc/src/xpcc/driver/ui/display/graphic_display.hpp **** 		drawLine(int16_t x1, int16_t y1, int16_t x2, int16_t y2);
 269:/home/jonas/warwick/3dProfilometer/xpcc/src/xpcc/driver/ui/display/graphic_display.hpp **** 		
 270:/home/jonas/warwick/3dProfilometer/xpcc/src/xpcc/driver/ui/display/graphic_display.hpp **** 		inline void
 271:/home/jonas/warwick/3dProfilometer/xpcc/src/xpcc/driver/ui/display/graphic_display.hpp **** 		drawRectangle(int16_t x, int16_t y, uint16_t width, uint16_t height)
 272:/home/jonas/warwick/3dProfilometer/xpcc/src/xpcc/driver/ui/display/graphic_display.hpp **** 		{
 273:/home/jonas/warwick/3dProfilometer/xpcc/src/xpcc/driver/ui/display/graphic_display.hpp **** 			drawRectangle(glcd::Point(x, y), width, height);
 274:/home/jonas/warwick/3dProfilometer/xpcc/src/xpcc/driver/ui/display/graphic_display.hpp **** 		}
 275:/home/jonas/warwick/3dProfilometer/xpcc/src/xpcc/driver/ui/display/graphic_display.hpp **** 		
 276:/home/jonas/warwick/3dProfilometer/xpcc/src/xpcc/driver/ui/display/graphic_display.hpp **** 		/**
 277:/home/jonas/warwick/3dProfilometer/xpcc/src/xpcc/driver/ui/display/graphic_display.hpp **** 		 * Draw a rectangle.
 278:/home/jonas/warwick/3dProfilometer/xpcc/src/xpcc/driver/ui/display/graphic_display.hpp **** 		 */
 279:/home/jonas/warwick/3dProfilometer/xpcc/src/xpcc/driver/ui/display/graphic_display.hpp **** 		void
 280:/home/jonas/warwick/3dProfilometer/xpcc/src/xpcc/driver/ui/display/graphic_display.hpp **** 		drawRectangle(glcd::Point upperLeft, uint16_t width, uint16_t height);
 281:/home/jonas/warwick/3dProfilometer/xpcc/src/xpcc/driver/ui/display/graphic_display.hpp **** 		
 282:/home/jonas/warwick/3dProfilometer/xpcc/src/xpcc/driver/ui/display/graphic_display.hpp **** 		/**
 283:/home/jonas/warwick/3dProfilometer/xpcc/src/xpcc/driver/ui/display/graphic_display.hpp **** 		 * Draw a rectangle with rounded corners.
 284:/home/jonas/warwick/3dProfilometer/xpcc/src/xpcc/driver/ui/display/graphic_display.hpp **** 		 */
 285:/home/jonas/warwick/3dProfilometer/xpcc/src/xpcc/driver/ui/display/graphic_display.hpp **** 		void
 286:/home/jonas/warwick/3dProfilometer/xpcc/src/xpcc/driver/ui/display/graphic_display.hpp **** 		drawRoundedRectangle(glcd::Point upperLeft,
 287:/home/jonas/warwick/3dProfilometer/xpcc/src/xpcc/driver/ui/display/graphic_display.hpp **** 				uint16_t width, uint16_t height,
 288:/home/jonas/warwick/3dProfilometer/xpcc/src/xpcc/driver/ui/display/graphic_display.hpp **** 				uint16_t radius);
 289:/home/jonas/warwick/3dProfilometer/xpcc/src/xpcc/driver/ui/display/graphic_display.hpp **** 		
 290:/home/jonas/warwick/3dProfilometer/xpcc/src/xpcc/driver/ui/display/graphic_display.hpp **** 		/**
 291:/home/jonas/warwick/3dProfilometer/xpcc/src/xpcc/driver/ui/display/graphic_display.hpp **** 		 * Draw a circle
 292:/home/jonas/warwick/3dProfilometer/xpcc/src/xpcc/driver/ui/display/graphic_display.hpp **** 		 * 
 293:/home/jonas/warwick/3dProfilometer/xpcc/src/xpcc/driver/ui/display/graphic_display.hpp **** 		 * Uses the midpoint circle algorithm.
 294:/home/jonas/warwick/3dProfilometer/xpcc/src/xpcc/driver/ui/display/graphic_display.hpp **** 		 * 
 295:/home/jonas/warwick/3dProfilometer/xpcc/src/xpcc/driver/ui/display/graphic_display.hpp **** 		 * \param center	Center of the circle
 296:/home/jonas/warwick/3dProfilometer/xpcc/src/xpcc/driver/ui/display/graphic_display.hpp **** 		 * \param radius	Radius of the circle
 297:/home/jonas/warwick/3dProfilometer/xpcc/src/xpcc/driver/ui/display/graphic_display.hpp **** 		 */
 298:/home/jonas/warwick/3dProfilometer/xpcc/src/xpcc/driver/ui/display/graphic_display.hpp **** 		void
 299:/home/jonas/warwick/3dProfilometer/xpcc/src/xpcc/driver/ui/display/graphic_display.hpp **** 		drawCircle(glcd::Point center, uint16_t radius);
 300:/home/jonas/warwick/3dProfilometer/xpcc/src/xpcc/driver/ui/display/graphic_display.hpp **** 		
 301:/home/jonas/warwick/3dProfilometer/xpcc/src/xpcc/driver/ui/display/graphic_display.hpp **** 		/**
 302:/home/jonas/warwick/3dProfilometer/xpcc/src/xpcc/driver/ui/display/graphic_display.hpp **** 		 * Draw an ellipse.
 303:/home/jonas/warwick/3dProfilometer/xpcc/src/xpcc/driver/ui/display/graphic_display.hpp **** 		 * 
 304:/home/jonas/warwick/3dProfilometer/xpcc/src/xpcc/driver/ui/display/graphic_display.hpp **** 		 * Uses a variation of the midpoint algorithm. May be improved through
 305:/home/jonas/warwick/3dProfilometer/xpcc/src/xpcc/driver/ui/display/graphic_display.hpp **** 		 * simplification of the used formula.
 306:/home/jonas/warwick/3dProfilometer/xpcc/src/xpcc/driver/ui/display/graphic_display.hpp **** 		 * 
 307:/home/jonas/warwick/3dProfilometer/xpcc/src/xpcc/driver/ui/display/graphic_display.hpp **** 		 * \param center	Center of the ellipse
 308:/home/jonas/warwick/3dProfilometer/xpcc/src/xpcc/driver/ui/display/graphic_display.hpp **** 		 * \param rx		radius in x-direction
 309:/home/jonas/warwick/3dProfilometer/xpcc/src/xpcc/driver/ui/display/graphic_display.hpp **** 		 * \param ry		radius in y-direction
 310:/home/jonas/warwick/3dProfilometer/xpcc/src/xpcc/driver/ui/display/graphic_display.hpp **** 		 */
 311:/home/jonas/warwick/3dProfilometer/xpcc/src/xpcc/driver/ui/display/graphic_display.hpp **** 		void
 312:/home/jonas/warwick/3dProfilometer/xpcc/src/xpcc/driver/ui/display/graphic_display.hpp **** 		drawEllipse(glcd::Point center, int16_t rx, int16_t ry);
 313:/home/jonas/warwick/3dProfilometer/xpcc/src/xpcc/driver/ui/display/graphic_display.hpp **** 		
 314:/home/jonas/warwick/3dProfilometer/xpcc/src/xpcc/driver/ui/display/graphic_display.hpp **** 		/**
 315:/home/jonas/warwick/3dProfilometer/xpcc/src/xpcc/driver/ui/display/graphic_display.hpp **** 		 * Draw an image.
 316:/home/jonas/warwick/3dProfilometer/xpcc/src/xpcc/driver/ui/display/graphic_display.hpp **** 		 * 
 317:/home/jonas/warwick/3dProfilometer/xpcc/src/xpcc/driver/ui/display/graphic_display.hpp **** 		 * The first byte in the image data specifies the with, the second
 318:/home/jonas/warwick/3dProfilometer/xpcc/src/xpcc/driver/ui/display/graphic_display.hpp **** 		 * byte the height. Afterwards the actual image data.
 319:/home/jonas/warwick/3dProfilometer/xpcc/src/xpcc/driver/ui/display/graphic_display.hpp **** 		 * 
 320:/home/jonas/warwick/3dProfilometer/xpcc/src/xpcc/driver/ui/display/graphic_display.hpp **** 		 * \param upperLeft		Upper left corner
 321:/home/jonas/warwick/3dProfilometer/xpcc/src/xpcc/driver/ui/display/graphic_display.hpp **** 		 * \param image			Image data
 322:/home/jonas/warwick/3dProfilometer/xpcc/src/xpcc/driver/ui/display/graphic_display.hpp **** 		 * 
 323:/home/jonas/warwick/3dProfilometer/xpcc/src/xpcc/driver/ui/display/graphic_display.hpp **** 		 * \see	drawImage()
 324:/home/jonas/warwick/3dProfilometer/xpcc/src/xpcc/driver/ui/display/graphic_display.hpp **** 		 */
 325:/home/jonas/warwick/3dProfilometer/xpcc/src/xpcc/driver/ui/display/graphic_display.hpp **** 		void
 326:/home/jonas/warwick/3dProfilometer/xpcc/src/xpcc/driver/ui/display/graphic_display.hpp **** 		drawImage(glcd::Point upperLeft, xpcc::accessor::Flash<uint8_t> image);
 327:/home/jonas/warwick/3dProfilometer/xpcc/src/xpcc/driver/ui/display/graphic_display.hpp **** 		
 328:/home/jonas/warwick/3dProfilometer/xpcc/src/xpcc/driver/ui/display/graphic_display.hpp **** 		/**
 329:/home/jonas/warwick/3dProfilometer/xpcc/src/xpcc/driver/ui/display/graphic_display.hpp **** 		 * Draw an image.
 330:/home/jonas/warwick/3dProfilometer/xpcc/src/xpcc/driver/ui/display/graphic_display.hpp **** 		 * 
 331:/home/jonas/warwick/3dProfilometer/xpcc/src/xpcc/driver/ui/display/graphic_display.hpp **** 		 * \p data is the actual image data without any size information.
 332:/home/jonas/warwick/3dProfilometer/xpcc/src/xpcc/driver/ui/display/graphic_display.hpp **** 		 */
 333:/home/jonas/warwick/3dProfilometer/xpcc/src/xpcc/driver/ui/display/graphic_display.hpp **** 		virtual void
 334:/home/jonas/warwick/3dProfilometer/xpcc/src/xpcc/driver/ui/display/graphic_display.hpp **** 		drawImageRaw(glcd::Point upperLeft,
 335:/home/jonas/warwick/3dProfilometer/xpcc/src/xpcc/driver/ui/display/graphic_display.hpp **** 				uint16_t width, uint16_t height,
 336:/home/jonas/warwick/3dProfilometer/xpcc/src/xpcc/driver/ui/display/graphic_display.hpp **** 				xpcc::accessor::Flash<uint8_t> data);
 337:/home/jonas/warwick/3dProfilometer/xpcc/src/xpcc/driver/ui/display/graphic_display.hpp **** 		
 338:/home/jonas/warwick/3dProfilometer/xpcc/src/xpcc/driver/ui/display/graphic_display.hpp **** 		/**
 339:/home/jonas/warwick/3dProfilometer/xpcc/src/xpcc/driver/ui/display/graphic_display.hpp **** 		 * Fill a rectangle.
 340:/home/jonas/warwick/3dProfilometer/xpcc/src/xpcc/driver/ui/display/graphic_display.hpp **** 		 */
 341:/home/jonas/warwick/3dProfilometer/xpcc/src/xpcc/driver/ui/display/graphic_display.hpp **** 		void
 342:/home/jonas/warwick/3dProfilometer/xpcc/src/xpcc/driver/ui/display/graphic_display.hpp **** 		fillRectangle(glcd::Point upperLeft, uint16_t width, uint16_t height);
 343:/home/jonas/warwick/3dProfilometer/xpcc/src/xpcc/driver/ui/display/graphic_display.hpp **** 		
 344:/home/jonas/warwick/3dProfilometer/xpcc/src/xpcc/driver/ui/display/graphic_display.hpp **** 		inline void
 345:/home/jonas/warwick/3dProfilometer/xpcc/src/xpcc/driver/ui/display/graphic_display.hpp **** 		fillRectangle(int16_t x, int16_t y, uint16_t width, uint16_t height)
 346:/home/jonas/warwick/3dProfilometer/xpcc/src/xpcc/driver/ui/display/graphic_display.hpp **** 		{
 347:/home/jonas/warwick/3dProfilometer/xpcc/src/xpcc/driver/ui/display/graphic_display.hpp **** 			fillRectangle(glcd::Point(x, y), width, height);
 348:/home/jonas/warwick/3dProfilometer/xpcc/src/xpcc/driver/ui/display/graphic_display.hpp **** 		}
 349:/home/jonas/warwick/3dProfilometer/xpcc/src/xpcc/driver/ui/display/graphic_display.hpp **** 		
 350:/home/jonas/warwick/3dProfilometer/xpcc/src/xpcc/driver/ui/display/graphic_display.hpp **** 		/**
 351:/home/jonas/warwick/3dProfilometer/xpcc/src/xpcc/driver/ui/display/graphic_display.hpp **** 		 * Fill a circle.
 352:/home/jonas/warwick/3dProfilometer/xpcc/src/xpcc/driver/ui/display/graphic_display.hpp **** 		 */
 353:/home/jonas/warwick/3dProfilometer/xpcc/src/xpcc/driver/ui/display/graphic_display.hpp **** 		void
 354:/home/jonas/warwick/3dProfilometer/xpcc/src/xpcc/driver/ui/display/graphic_display.hpp **** 		fillCircle(glcd::Point center, uint16_t radius);
 355:/home/jonas/warwick/3dProfilometer/xpcc/src/xpcc/driver/ui/display/graphic_display.hpp **** 		
 356:/home/jonas/warwick/3dProfilometer/xpcc/src/xpcc/driver/ui/display/graphic_display.hpp **** 	public:
 357:/home/jonas/warwick/3dProfilometer/xpcc/src/xpcc/driver/ui/display/graphic_display.hpp **** 		/**
 358:/home/jonas/warwick/3dProfilometer/xpcc/src/xpcc/driver/ui/display/graphic_display.hpp **** 		 * Set a new font.
 359:/home/jonas/warwick/3dProfilometer/xpcc/src/xpcc/driver/ui/display/graphic_display.hpp **** 		 * 
 360:/home/jonas/warwick/3dProfilometer/xpcc/src/xpcc/driver/ui/display/graphic_display.hpp **** 		 * Default font is xpcc::font::FixedWidth5x8.
 361:/home/jonas/warwick/3dProfilometer/xpcc/src/xpcc/driver/ui/display/graphic_display.hpp **** 		 * 
 362:/home/jonas/warwick/3dProfilometer/xpcc/src/xpcc/driver/ui/display/graphic_display.hpp **** 		 * \param	newFont	Active font
 363:/home/jonas/warwick/3dProfilometer/xpcc/src/xpcc/driver/ui/display/graphic_display.hpp **** 		 * \see		xpcc::font
 364:/home/jonas/warwick/3dProfilometer/xpcc/src/xpcc/driver/ui/display/graphic_display.hpp **** 		 */
 365:/home/jonas/warwick/3dProfilometer/xpcc/src/xpcc/driver/ui/display/graphic_display.hpp **** 		inline void
 366:/home/jonas/warwick/3dProfilometer/xpcc/src/xpcc/driver/ui/display/graphic_display.hpp **** 		setFont(const uint8_t *newFont)
 367:/home/jonas/warwick/3dProfilometer/xpcc/src/xpcc/driver/ui/display/graphic_display.hpp **** 		{
 368:/home/jonas/warwick/3dProfilometer/xpcc/src/xpcc/driver/ui/display/graphic_display.hpp **** 			this->font = xpcc::accessor::asFlash(newFont);
 369:/home/jonas/warwick/3dProfilometer/xpcc/src/xpcc/driver/ui/display/graphic_display.hpp **** 		}
 370:/home/jonas/warwick/3dProfilometer/xpcc/src/xpcc/driver/ui/display/graphic_display.hpp **** 		
 371:/home/jonas/warwick/3dProfilometer/xpcc/src/xpcc/driver/ui/display/graphic_display.hpp **** 		/**
 372:/home/jonas/warwick/3dProfilometer/xpcc/src/xpcc/driver/ui/display/graphic_display.hpp **** 		 * Get the height of a character.
 373:/home/jonas/warwick/3dProfilometer/xpcc/src/xpcc/driver/ui/display/graphic_display.hpp **** 		 */
 374:/home/jonas/warwick/3dProfilometer/xpcc/src/xpcc/driver/ui/display/graphic_display.hpp **** 		uint8_t
 375:/home/jonas/warwick/3dProfilometer/xpcc/src/xpcc/driver/ui/display/graphic_display.hpp **** 		getFontHeight() const;
 376:/home/jonas/warwick/3dProfilometer/xpcc/src/xpcc/driver/ui/display/graphic_display.hpp **** 		
 377:/home/jonas/warwick/3dProfilometer/xpcc/src/xpcc/driver/ui/display/graphic_display.hpp **** 		/**
 378:/home/jonas/warwick/3dProfilometer/xpcc/src/xpcc/driver/ui/display/graphic_display.hpp **** 		 * Set the cursor for text drawing.
 379:/home/jonas/warwick/3dProfilometer/xpcc/src/xpcc/driver/ui/display/graphic_display.hpp **** 		 * 
 380:/home/jonas/warwick/3dProfilometer/xpcc/src/xpcc/driver/ui/display/graphic_display.hpp **** 		 * \param	position	Cursor position
 381:/home/jonas/warwick/3dProfilometer/xpcc/src/xpcc/driver/ui/display/graphic_display.hpp **** 		 */
 382:/home/jonas/warwick/3dProfilometer/xpcc/src/xpcc/driver/ui/display/graphic_display.hpp **** 		inline void
 383:/home/jonas/warwick/3dProfilometer/xpcc/src/xpcc/driver/ui/display/graphic_display.hpp **** 		setCursor(glcd::Point position)
 384:/home/jonas/warwick/3dProfilometer/xpcc/src/xpcc/driver/ui/display/graphic_display.hpp **** 		{
 385:/home/jonas/warwick/3dProfilometer/xpcc/src/xpcc/driver/ui/display/graphic_display.hpp **** 			this->cursor = position;
 386:/home/jonas/warwick/3dProfilometer/xpcc/src/xpcc/driver/ui/display/graphic_display.hpp **** 		}
 387:/home/jonas/warwick/3dProfilometer/xpcc/src/xpcc/driver/ui/display/graphic_display.hpp **** 		
 388:/home/jonas/warwick/3dProfilometer/xpcc/src/xpcc/driver/ui/display/graphic_display.hpp **** 		/**
 389:/home/jonas/warwick/3dProfilometer/xpcc/src/xpcc/driver/ui/display/graphic_display.hpp **** 		 * Set the cursor for text drawing.
 390:/home/jonas/warwick/3dProfilometer/xpcc/src/xpcc/driver/ui/display/graphic_display.hpp **** 		 * 
 391:/home/jonas/warwick/3dProfilometer/xpcc/src/xpcc/driver/ui/display/graphic_display.hpp **** 		 * \param	x	Cursor x-position
 392:/home/jonas/warwick/3dProfilometer/xpcc/src/xpcc/driver/ui/display/graphic_display.hpp **** 		 * \param	y	Cursor y-position
 393:/home/jonas/warwick/3dProfilometer/xpcc/src/xpcc/driver/ui/display/graphic_display.hpp **** 		 */
 394:/home/jonas/warwick/3dProfilometer/xpcc/src/xpcc/driver/ui/display/graphic_display.hpp **** 		inline void
 395:/home/jonas/warwick/3dProfilometer/xpcc/src/xpcc/driver/ui/display/graphic_display.hpp **** 		setCursor(int16_t x, int16_t y)
 396:/home/jonas/warwick/3dProfilometer/xpcc/src/xpcc/driver/ui/display/graphic_display.hpp **** 		{
 397:/home/jonas/warwick/3dProfilometer/xpcc/src/xpcc/driver/ui/display/graphic_display.hpp **** 			this->cursor = glcd::Point(x, y);
 398:/home/jonas/warwick/3dProfilometer/xpcc/src/xpcc/driver/ui/display/graphic_display.hpp **** 		}
 399:/home/jonas/warwick/3dProfilometer/xpcc/src/xpcc/driver/ui/display/graphic_display.hpp **** 		
 400:/home/jonas/warwick/3dProfilometer/xpcc/src/xpcc/driver/ui/display/graphic_display.hpp **** 		inline void
 401:/home/jonas/warwick/3dProfilometer/xpcc/src/xpcc/driver/ui/display/graphic_display.hpp **** 		setCursorX(int16_t x)
 402:/home/jonas/warwick/3dProfilometer/xpcc/src/xpcc/driver/ui/display/graphic_display.hpp **** 		{
 403:/home/jonas/warwick/3dProfilometer/xpcc/src/xpcc/driver/ui/display/graphic_display.hpp **** 			this->cursor.x = x;
 404:/home/jonas/warwick/3dProfilometer/xpcc/src/xpcc/driver/ui/display/graphic_display.hpp **** 		}
 405:/home/jonas/warwick/3dProfilometer/xpcc/src/xpcc/driver/ui/display/graphic_display.hpp **** 		
 406:/home/jonas/warwick/3dProfilometer/xpcc/src/xpcc/driver/ui/display/graphic_display.hpp **** 		inline void
 407:/home/jonas/warwick/3dProfilometer/xpcc/src/xpcc/driver/ui/display/graphic_display.hpp **** 		setCursorY(int16_t y)
 408:/home/jonas/warwick/3dProfilometer/xpcc/src/xpcc/driver/ui/display/graphic_display.hpp **** 		{
 409:/home/jonas/warwick/3dProfilometer/xpcc/src/xpcc/driver/ui/display/graphic_display.hpp **** 			this->cursor.y = y;
 410:/home/jonas/warwick/3dProfilometer/xpcc/src/xpcc/driver/ui/display/graphic_display.hpp **** 		}
 411:/home/jonas/warwick/3dProfilometer/xpcc/src/xpcc/driver/ui/display/graphic_display.hpp **** 		
 412:/home/jonas/warwick/3dProfilometer/xpcc/src/xpcc/driver/ui/display/graphic_display.hpp **** 		inline glcd::Point
 413:/home/jonas/warwick/3dProfilometer/xpcc/src/xpcc/driver/ui/display/graphic_display.hpp **** 		getCursor() const
 414:/home/jonas/warwick/3dProfilometer/xpcc/src/xpcc/driver/ui/display/graphic_display.hpp **** 		{
 415:/home/jonas/warwick/3dProfilometer/xpcc/src/xpcc/driver/ui/display/graphic_display.hpp **** 			return this->cursor;
 416:/home/jonas/warwick/3dProfilometer/xpcc/src/xpcc/driver/ui/display/graphic_display.hpp **** 		}
 417:/home/jonas/warwick/3dProfilometer/xpcc/src/xpcc/driver/ui/display/graphic_display.hpp **** 		
 418:/home/jonas/warwick/3dProfilometer/xpcc/src/xpcc/driver/ui/display/graphic_display.hpp **** 		/**
 419:/home/jonas/warwick/3dProfilometer/xpcc/src/xpcc/driver/ui/display/graphic_display.hpp **** 		 * Write a single character.
 420:/home/jonas/warwick/3dProfilometer/xpcc/src/xpcc/driver/ui/display/graphic_display.hpp **** 		 */
 421:/home/jonas/warwick/3dProfilometer/xpcc/src/xpcc/driver/ui/display/graphic_display.hpp **** 		void
 422:/home/jonas/warwick/3dProfilometer/xpcc/src/xpcc/driver/ui/display/graphic_display.hpp **** 		write(char c);
 423:/home/jonas/warwick/3dProfilometer/xpcc/src/xpcc/driver/ui/display/graphic_display.hpp **** 		
 424:/home/jonas/warwick/3dProfilometer/xpcc/src/xpcc/driver/ui/display/graphic_display.hpp **** 	protected:
 425:/home/jonas/warwick/3dProfilometer/xpcc/src/xpcc/driver/ui/display/graphic_display.hpp **** 		/// helper method for drawCircle() and drawEllipse()
 426:/home/jonas/warwick/3dProfilometer/xpcc/src/xpcc/driver/ui/display/graphic_display.hpp **** 		void
 427:/home/jonas/warwick/3dProfilometer/xpcc/src/xpcc/driver/ui/display/graphic_display.hpp **** 		drawCircle4(glcd::Point center, int16_t x, int16_t y);
 428:/home/jonas/warwick/3dProfilometer/xpcc/src/xpcc/driver/ui/display/graphic_display.hpp **** 		
 429:/home/jonas/warwick/3dProfilometer/xpcc/src/xpcc/driver/ui/display/graphic_display.hpp **** 		virtual void
 430:/home/jonas/warwick/3dProfilometer/xpcc/src/xpcc/driver/ui/display/graphic_display.hpp **** 		drawHorizontalLine(glcd::Point start, uint16_t length);
 431:/home/jonas/warwick/3dProfilometer/xpcc/src/xpcc/driver/ui/display/graphic_display.hpp **** 		
 432:/home/jonas/warwick/3dProfilometer/xpcc/src/xpcc/driver/ui/display/graphic_display.hpp **** 		virtual void
 433:/home/jonas/warwick/3dProfilometer/xpcc/src/xpcc/driver/ui/display/graphic_display.hpp **** 		drawVerticalLine(glcd::Point start, uint16_t length);
 434:/home/jonas/warwick/3dProfilometer/xpcc/src/xpcc/driver/ui/display/graphic_display.hpp **** 		
 435:/home/jonas/warwick/3dProfilometer/xpcc/src/xpcc/driver/ui/display/graphic_display.hpp **** 		virtual void
 436:/home/jonas/warwick/3dProfilometer/xpcc/src/xpcc/driver/ui/display/graphic_display.hpp **** 		setPixel(int16_t x, int16_t y) = 0;
 437:/home/jonas/warwick/3dProfilometer/xpcc/src/xpcc/driver/ui/display/graphic_display.hpp **** 		
 438:/home/jonas/warwick/3dProfilometer/xpcc/src/xpcc/driver/ui/display/graphic_display.hpp **** 		virtual void
 439:/home/jonas/warwick/3dProfilometer/xpcc/src/xpcc/driver/ui/display/graphic_display.hpp **** 		clearPixel(int16_t x, int16_t y) = 0;
 440:/home/jonas/warwick/3dProfilometer/xpcc/src/xpcc/driver/ui/display/graphic_display.hpp **** 		
 441:/home/jonas/warwick/3dProfilometer/xpcc/src/xpcc/driver/ui/display/graphic_display.hpp **** 		virtual bool
 442:/home/jonas/warwick/3dProfilometer/xpcc/src/xpcc/driver/ui/display/graphic_display.hpp **** 		getPixel(int16_t x, int16_t y) = 0;
 443:/home/jonas/warwick/3dProfilometer/xpcc/src/xpcc/driver/ui/display/graphic_display.hpp **** 		
 444:/home/jonas/warwick/3dProfilometer/xpcc/src/xpcc/driver/ui/display/graphic_display.hpp **** 	protected:
 445:/home/jonas/warwick/3dProfilometer/xpcc/src/xpcc/driver/ui/display/graphic_display.hpp **** 		// Interface class for the IOStream
 446:/home/jonas/warwick/3dProfilometer/xpcc/src/xpcc/driver/ui/display/graphic_display.hpp **** 		class Writer : public IODevice
 447:/home/jonas/warwick/3dProfilometer/xpcc/src/xpcc/driver/ui/display/graphic_display.hpp **** 		{
 448:/home/jonas/warwick/3dProfilometer/xpcc/src/xpcc/driver/ui/display/graphic_display.hpp **** 		public:
 449:/home/jonas/warwick/3dProfilometer/xpcc/src/xpcc/driver/ui/display/graphic_display.hpp **** 			Writer(GraphicDisplay *parent) :
 450:/home/jonas/warwick/3dProfilometer/xpcc/src/xpcc/driver/ui/display/graphic_display.hpp **** 				parent(parent)
 515              		.loc 1 450 0
 516 0014 0E4A     		ldr	r2, .L46+12
 517 0016 2461     		str	r4, [r4, #16]
 518              	.LBE263:
 519              	.LBE262:
  44:/home/jonas/warwick/3dProfilometer/xpcc/src/xpcc/driver/ui/display/graphic_display.cpp **** 	font(xpcc::accessor::asFlash(xpcc::font::FixedWidth5x8))
 520              		.loc 3 44 0
 521 0018 93E80300 		ldmia	r3, {r0, r1}
 522              	.LBB265:
 523              	.LBB264:
 524              		.loc 1 450 0
 525 001c E260     		str	r2, [r4, #12]
 526              	.LBE264:
 527              	.LBE265:
  44:/home/jonas/warwick/3dProfilometer/xpcc/src/xpcc/driver/ui/display/graphic_display.cpp **** 	font(xpcc::accessor::asFlash(xpcc::font::FixedWidth5x8))
 528              		.loc 3 44 0
 529 001e 04F11402 		add	r2, r4, #20
 530 0022 82E80300 		stmia	r2, {r0, r1}
 531              	.LBB266:
 532 0026 4FF6FF72 		movw	r2, #65535
 533 002a A283     		strh	r2, [r4, #28]	@ movhi
 534              	.LBE266:
 535              	.LBB267:
 536 002c 094A     		ldr	r2, .L46+16
 537              	.LBE267:
 538 002e 2560     		str	r5, [r4, #0]
 539              	.LVL39:
 540 0030 0023     		movs	r3, #0
 541 0032 8DE80300 		stmia	sp, {r0, r1}
 542              	.LBB268:
 543 0036 E383     		strh	r3, [r4, #30]	@ movhi
 544              	.LVL40:
 545              	.LBE268:
 546              	.LBB269:
 547 0038 2262     		str	r2, [r4, #32]
 548              	.LVL41:
 549              	.LBE269:
 550              	.LBB270:
 551              	.LBB271:
 552              		.file 4 "/home/jonas/warwick/3dProfilometer/xpcc/src/xpcc/math/geometry/vector2_impl.hpp"
   1:/home/jonas/warwick/3dProfilometer/xpcc/src/xpcc/math/geometry/vector2_impl.hpp **** // coding: utf-8
   2:/home/jonas/warwick/3dProfilometer/xpcc/src/xpcc/math/geometry/vector2_impl.hpp **** // ----------------------------------------------------------------------------
   3:/home/jonas/warwick/3dProfilometer/xpcc/src/xpcc/math/geometry/vector2_impl.hpp **** /* Copyright (c) 2011, Roboterclub Aachen e.V.
   4:/home/jonas/warwick/3dProfilometer/xpcc/src/xpcc/math/geometry/vector2_impl.hpp ****  * All rights reserved.
   5:/home/jonas/warwick/3dProfilometer/xpcc/src/xpcc/math/geometry/vector2_impl.hpp ****  *
   6:/home/jonas/warwick/3dProfilometer/xpcc/src/xpcc/math/geometry/vector2_impl.hpp ****  * Redistribution and use in source and binary forms, with or without
   7:/home/jonas/warwick/3dProfilometer/xpcc/src/xpcc/math/geometry/vector2_impl.hpp ****  * modification, are permitted provided that the following conditions are met:
   8:/home/jonas/warwick/3dProfilometer/xpcc/src/xpcc/math/geometry/vector2_impl.hpp ****  *
   9:/home/jonas/warwick/3dProfilometer/xpcc/src/xpcc/math/geometry/vector2_impl.hpp ****  *     * Redistributions of source code must retain the above copyright
  10:/home/jonas/warwick/3dProfilometer/xpcc/src/xpcc/math/geometry/vector2_impl.hpp ****  *       notice, this list of conditions and the following disclaimer.
  11:/home/jonas/warwick/3dProfilometer/xpcc/src/xpcc/math/geometry/vector2_impl.hpp ****  *     * Redistributions in binary form must reproduce the above copyright
  12:/home/jonas/warwick/3dProfilometer/xpcc/src/xpcc/math/geometry/vector2_impl.hpp ****  *       notice, this list of conditions and the following disclaimer in the
  13:/home/jonas/warwick/3dProfilometer/xpcc/src/xpcc/math/geometry/vector2_impl.hpp ****  *       documentation and/or other materials provided with the distribution.
  14:/home/jonas/warwick/3dProfilometer/xpcc/src/xpcc/math/geometry/vector2_impl.hpp ****  *     * Neither the name of the Roboterclub Aachen e.V. nor the
  15:/home/jonas/warwick/3dProfilometer/xpcc/src/xpcc/math/geometry/vector2_impl.hpp ****  *       names of its contributors may be used to endorse or promote products
  16:/home/jonas/warwick/3dProfilometer/xpcc/src/xpcc/math/geometry/vector2_impl.hpp ****  *       derived from this software without specific prior written permission.
  17:/home/jonas/warwick/3dProfilometer/xpcc/src/xpcc/math/geometry/vector2_impl.hpp ****  *
  18:/home/jonas/warwick/3dProfilometer/xpcc/src/xpcc/math/geometry/vector2_impl.hpp ****  * THIS SOFTWARE IS PROVIDED BY ROBOTERCLUB AACHEN E.V. ''AS IS'' AND ANY
  19:/home/jonas/warwick/3dProfilometer/xpcc/src/xpcc/math/geometry/vector2_impl.hpp ****  * EXPRESS OR IMPLIED WARRANTIES, INCLUDING, BUT NOT LIMITED TO, THE IMPLIED
  20:/home/jonas/warwick/3dProfilometer/xpcc/src/xpcc/math/geometry/vector2_impl.hpp ****  * WARRANTIES OF MERCHANTABILITY AND FITNESS FOR A PARTICULAR PURPOSE ARE
  21:/home/jonas/warwick/3dProfilometer/xpcc/src/xpcc/math/geometry/vector2_impl.hpp ****  * DISCLAIMED. IN NO EVENT SHALL ROBOTERCLUB AACHEN E.V. BE LIABLE FOR ANY
  22:/home/jonas/warwick/3dProfilometer/xpcc/src/xpcc/math/geometry/vector2_impl.hpp ****  * DIRECT, INDIRECT, INCIDENTAL, SPECIAL, EXEMPLARY, OR CONSEQUENTIAL DAMAGES
  23:/home/jonas/warwick/3dProfilometer/xpcc/src/xpcc/math/geometry/vector2_impl.hpp ****  * (INCLUDING, BUT NOT LIMITED TO, PROCUREMENT OF SUBSTITUTE GOODS OR SERVICES;
  24:/home/jonas/warwick/3dProfilometer/xpcc/src/xpcc/math/geometry/vector2_impl.hpp ****  * LOSS OF USE, DATA, OR PROFITS; OR BUSINESS INTERRUPTION) HOWEVER CAUSED AND
  25:/home/jonas/warwick/3dProfilometer/xpcc/src/xpcc/math/geometry/vector2_impl.hpp ****  * ON ANY THEORY OF LIABILITY, WHETHER IN CONTRACT, STRICT LIABILITY, OR TORT
  26:/home/jonas/warwick/3dProfilometer/xpcc/src/xpcc/math/geometry/vector2_impl.hpp ****  * (INCLUDING NEGLIGENCE OR OTHERWISE) ARISING IN ANY WAY OUT OF THE USE OF
  27:/home/jonas/warwick/3dProfilometer/xpcc/src/xpcc/math/geometry/vector2_impl.hpp ****  * THIS SOFTWARE, EVEN IF ADVISED OF THE POSSIBILITY OF SUCH DAMAGE.
  28:/home/jonas/warwick/3dProfilometer/xpcc/src/xpcc/math/geometry/vector2_impl.hpp ****  */
  29:/home/jonas/warwick/3dProfilometer/xpcc/src/xpcc/math/geometry/vector2_impl.hpp **** // ----------------------------------------------------------------------------
  30:/home/jonas/warwick/3dProfilometer/xpcc/src/xpcc/math/geometry/vector2_impl.hpp **** 
  31:/home/jonas/warwick/3dProfilometer/xpcc/src/xpcc/math/geometry/vector2_impl.hpp **** #ifndef XPCC__VECTOR2_HPP
  32:/home/jonas/warwick/3dProfilometer/xpcc/src/xpcc/math/geometry/vector2_impl.hpp **** 	#error	"Don't include this file directly, use 'vector2.hpp' instead!"
  33:/home/jonas/warwick/3dProfilometer/xpcc/src/xpcc/math/geometry/vector2_impl.hpp **** #endif
  34:/home/jonas/warwick/3dProfilometer/xpcc/src/xpcc/math/geometry/vector2_impl.hpp **** 
  35:/home/jonas/warwick/3dProfilometer/xpcc/src/xpcc/math/geometry/vector2_impl.hpp **** #include <cmath>
  36:/home/jonas/warwick/3dProfilometer/xpcc/src/xpcc/math/geometry/vector2_impl.hpp **** 
  37:/home/jonas/warwick/3dProfilometer/xpcc/src/xpcc/math/geometry/vector2_impl.hpp **** // ----------------------------------------------------------------------------
  38:/home/jonas/warwick/3dProfilometer/xpcc/src/xpcc/math/geometry/vector2_impl.hpp **** template<typename T>
  39:/home/jonas/warwick/3dProfilometer/xpcc/src/xpcc/math/geometry/vector2_impl.hpp **** xpcc::Vector<T, 2>::Vector() :
  40:/home/jonas/warwick/3dProfilometer/xpcc/src/xpcc/math/geometry/vector2_impl.hpp **** 	x(),
  41:/home/jonas/warwick/3dProfilometer/xpcc/src/xpcc/math/geometry/vector2_impl.hpp **** 	y()
 553              		.loc 4 41 0
 554 003a A384     		strh	r3, [r4, #36]	@ movhi
 555 003c E384     		strh	r3, [r4, #38]	@ movhi
 556              	.LBE271:
 557              	.LBE270:
 558              	.LBE272:
  46:/home/jonas/warwick/3dProfilometer/xpcc/src/xpcc/driver/ui/display/graphic_display.cpp **** }
 559              		.loc 3 46 0
 560 003e 2046     		mov	r0, r4
 561 0040 03B0     		add	sp, sp, #12
 562 0042 30BD     		pop	{r4, r5, pc}
 563              	.L47:
 564              		.align	2
 565              	.L46:
 566 0044 00000000 		.word	_ZN4xpcc8IOStreamC2ERNS_8IODeviceE
 567 0048 08000000 		.word	.LANCHOR0+8
 568 004c 00000000 		.word	.LANCHOR1
 569 0050 08000000 		.word	_ZTVN4xpcc14GraphicDisplay6WriterE+8
 570 0054 00000000 		.word	_ZN4xpcc4font13FixedWidth5x8E
 571              		.cfi_endproc
 572              	.LFE1207:
 574              		.global	_ZN4xpcc14GraphicDisplayC1Ev
 575              		.thumb_set _ZN4xpcc14GraphicDisplayC1Ev,_ZN4xpcc14GraphicDisplayC2Ev
 576              		.section	.text._ZN4xpcc14GraphicDisplay8setColorERKNS_4glcd5ColorE,"ax",%progbits
 577              		.align	2
 578              		.global	_ZN4xpcc14GraphicDisplay8setColorERKNS_4glcd5ColorE
 579              		.thumb
 580              		.thumb_func
 582              	_ZN4xpcc14GraphicDisplay8setColorERKNS_4glcd5ColorE:
 583              	.LFB1209:
  51:/home/jonas/warwick/3dProfilometer/xpcc/src/xpcc/driver/ui/display/graphic_display.cpp **** {
 584              		.loc 3 51 0
 585              		.cfi_startproc
 586              		@ args = 0, pretend = 0, frame = 16
 587              		@ frame_needed = 0, uses_anonymous_args = 0
 588              		@ link register save eliminated.
 589              	.LVL42:
 590 0000 10B4     		push	{r4}
 591              	.LCFI7:
 592              		.cfi_def_cfa_offset 4
 593              		.cfi_offset 4, -4
  52:/home/jonas/warwick/3dProfilometer/xpcc/src/xpcc/driver/ui/display/graphic_display.cpp **** 	if (newColor == glcd::Color::black()) {
 594              		.loc 3 52 0
 595 0002 0B88     		ldrh	r3, [r1, #0]
  51:/home/jonas/warwick/3dProfilometer/xpcc/src/xpcc/driver/ui/display/graphic_display.cpp **** {
 596              		.loc 3 51 0
 597 0004 85B0     		sub	sp, sp, #20
 598              	.LCFI8:
 599              		.cfi_def_cfa_offset 24
  51:/home/jonas/warwick/3dProfilometer/xpcc/src/xpcc/driver/ui/display/graphic_display.cpp **** {
 600              		.loc 3 51 0
 601 0006 0C46     		mov	r4, r1
 602              	.LVL43:
 603 0008 0246     		mov	r2, r0
  52:/home/jonas/warwick/3dProfilometer/xpcc/src/xpcc/driver/ui/display/graphic_display.cpp **** 	if (newColor == glcd::Color::black()) {
 604              		.loc 3 52 0
 605 000a 73B1     		cbz	r3, .L51
  56:/home/jonas/warwick/3dProfilometer/xpcc/src/xpcc/driver/ui/display/graphic_display.cpp **** 		draw = &xpcc::GraphicDisplay::setPixel;
 606              		.loc 3 56 0
 607 000c 0C4B     		ldr	r3, .L52
 608 000e 93E80300 		ldmia	r3, {r0, r1}
 609              	.LVL44:
 610 0012 02AB     		add	r3, sp, #8
 611 0014 83E80300 		stmia	r3, {r0, r1}
 612 0018 02F11403 		add	r3, r2, #20
 613 001c 83E80300 		stmia	r3, {r0, r1}
 614              	.L50:
  58:/home/jonas/warwick/3dProfilometer/xpcc/src/xpcc/driver/ui/display/graphic_display.cpp **** 	this->foregroundColor = newColor;
 615              		.loc 3 58 0
 616 0020 2388     		ldrh	r3, [r4, #0]
 617 0022 9383     		strh	r3, [r2, #28]	@ movhi
  59:/home/jonas/warwick/3dProfilometer/xpcc/src/xpcc/driver/ui/display/graphic_display.cpp **** }
 618              		.loc 3 59 0
 619 0024 05B0     		add	sp, sp, #20
 620 0026 10BC     		pop	{r4}
 621 0028 7047     		bx	lr
 622              	.LVL45:
 623              	.L51:
  53:/home/jonas/warwick/3dProfilometer/xpcc/src/xpcc/driver/ui/display/graphic_display.cpp **** 		draw = &xpcc::GraphicDisplay::clearPixel;
 624              		.loc 3 53 0
 625 002a 064B     		ldr	r3, .L52+4
 626 002c 93E80300 		ldmia	r3, {r0, r1}
 627              	.LVL46:
 628 0030 02F11403 		add	r3, r2, #20
 629 0034 8DE80300 		stmia	sp, {r0, r1}
 630 0038 83E80300 		stmia	r3, {r0, r1}
 631 003c F0E7     		b	.L50
 632              	.L53:
 633 003e 00BF     		.align	2
 634              	.L52:
 635 0040 00000000 		.word	.LANCHOR1
 636 0044 08000000 		.word	.LANCHOR1+8
 637              		.cfi_endproc
 638              	.LFE1209:
 640              		.section	.text._ZN4xpcc14GraphicDisplay18setBackgroundColorERKNS_4glcd5ColorE,"ax",%progbits
 641              		.align	2
 642              		.global	_ZN4xpcc14GraphicDisplay18setBackgroundColorERKNS_4glcd5ColorE
 643              		.thumb
 644              		.thumb_func
 646              	_ZN4xpcc14GraphicDisplay18setBackgroundColorERKNS_4glcd5ColorE:
 647              	.LFB1210:
  63:/home/jonas/warwick/3dProfilometer/xpcc/src/xpcc/driver/ui/display/graphic_display.cpp **** {
 648              		.loc 3 63 0
 649              		.cfi_startproc
 650              		@ args = 0, pretend = 0, frame = 0
 651              		@ frame_needed = 0, uses_anonymous_args = 0
 652              		@ link register save eliminated.
 653              	.LVL47:
  64:/home/jonas/warwick/3dProfilometer/xpcc/src/xpcc/driver/ui/display/graphic_display.cpp **** 	this->backgroundColor = newColor;
 654              		.loc 3 64 0
 655 0000 0B88     		ldrh	r3, [r1, #0]
 656 0002 C383     		strh	r3, [r0, #30]	@ movhi
 657 0004 7047     		bx	lr
 658              		.cfi_endproc
 659              	.LFE1210:
 661 0006 00BF     		.section	.text._ZN4xpcc14GraphicDisplay8drawLineEssss,"ax",%progbits
 662              		.align	2
 663              		.global	_ZN4xpcc14GraphicDisplay8drawLineEssss
 664              		.thumb
 665              		.thumb_func
 667              	_ZN4xpcc14GraphicDisplay8drawLineEssss:
 668              	.LFB1211:
  70:/home/jonas/warwick/3dProfilometer/xpcc/src/xpcc/driver/ui/display/graphic_display.cpp **** {
 669              		.loc 3 70 0
 670              		.cfi_startproc
 671              		@ args = 4, pretend = 0, frame = 16
 672              		@ frame_needed = 0, uses_anonymous_args = 0
 673              	.LVL48:
 674 0000 2DE9F04F 		push	{r4, r5, r6, r7, r8, r9, sl, fp, lr}
 675              	.LCFI9:
 676              		.cfi_def_cfa_offset 36
 677              		.cfi_offset 4, -36
 678              		.cfi_offset 5, -32
 679              		.cfi_offset 6, -28
 680              		.cfi_offset 7, -24
 681              		.cfi_offset 8, -20
 682              		.cfi_offset 9, -16
 683              		.cfi_offset 10, -12
 684              		.cfi_offset 11, -8
 685              		.cfi_offset 14, -4
 686 0004 85B0     		sub	sp, sp, #20
 687              	.LCFI10:
 688              		.cfi_def_cfa_offset 56
 689              	.LBB273:
  71:/home/jonas/warwick/3dProfilometer/xpcc/src/xpcc/driver/ui/display/graphic_display.cpp **** 	if (x1 == x2)
 690              		.loc 3 71 0
 691 0006 9942     		cmp	r1, r3
 692              	.LBE273:
  70:/home/jonas/warwick/3dProfilometer/xpcc/src/xpcc/driver/ui/display/graphic_display.cpp **** {
 693              		.loc 3 70 0
 694 0008 0546     		mov	r5, r0
 695 000a BDF93800 		ldrsh	r0, [sp, #56]
 696              	.LVL49:
 697              	.LBB287:
  71:/home/jonas/warwick/3dProfilometer/xpcc/src/xpcc/driver/ui/display/graphic_display.cpp **** 	if (x1 == x2)
 698              		.loc 3 71 0
 699 000e 00F08A80 		beq	.L80
 700              	.LBB274:
  79:/home/jonas/warwick/3dProfilometer/xpcc/src/xpcc/driver/ui/display/graphic_display.cpp **** 	else if (y1 == y2)
 701              		.loc 3 79 0
 702 0012 8242     		cmp	r2, r0
 703 0014 00F09A80 		beq	.L81
 704              	.LBB275:
  90:/home/jonas/warwick/3dProfilometer/xpcc/src/xpcc/driver/ui/display/graphic_display.cpp **** 		bool steep = abs(y2 - y1) > abs(x2 - x1);
 705              		.loc 3 90 0
 706 0018 C2EB0008 		rsb	r8, r2, r0
 707 001c 5C1A     		subs	r4, r3, r1
 708 001e B8F1000F 		cmp	r8, #0
 709 0022 B8BF     		it	lt
 710 0024 C8F10008 		rsblt	r8, r8, #0
 711 0028 002C     		cmp	r4, #0
 712 002a B8BF     		it	lt
 713 002c 6442     		rsblt	r4, r4, #0
 714 002e A045     		cmp	r8, r4
 715 0030 D4BF     		ite	le
 716 0032 4FF00008 		movle	r8, #0
 717 0036 4FF00108 		movgt	r8, #1
 718              	.LVL50:
 719 003a 0446     		mov	r4, r0
 720              	.LVL51:
 721 003c 1746     		mov	r7, r2
 722 003e 1E46     		mov	r6, r3
 723 0040 8946     		mov	r9, r1
  91:/home/jonas/warwick/3dProfilometer/xpcc/src/xpcc/driver/ui/display/graphic_display.cpp **** 		if (steep) {
 724              		.loc 3 91 0
 725 0042 B8F1000F 		cmp	r8, #0
 726 0046 4AD1     		bne	.L76
  95:/home/jonas/warwick/3dProfilometer/xpcc/src/xpcc/driver/ui/display/graphic_display.cpp **** 		if (x1 > x2) {
 727              		.loc 3 95 0
 728 0048 8B42     		cmp	r3, r1
  91:/home/jonas/warwick/3dProfilometer/xpcc/src/xpcc/driver/ui/display/graphic_display.cpp **** 		if (steep) {
 729              		.loc 3 91 0
 730 004a 0646     		mov	r6, r0
 731 004c 1C46     		mov	r4, r3
 732 004e 9146     		mov	r9, r2
 733 0050 0F46     		mov	r7, r1
  95:/home/jonas/warwick/3dProfilometer/xpcc/src/xpcc/driver/ui/display/graphic_display.cpp **** 		if (x1 > x2) {
 734              		.loc 3 95 0
 735 0052 4ADB     		blt	.L77
 736              	.LVL52:
 737              	.L84:
 738 0054 A246     		mov	sl, r4
 739 0056 CC46     		mov	ip, r9
 740 0058 3C46     		mov	r4, r7
 741 005a B146     		mov	r9, r6
 742 005c 5746     		mov	r7, sl
 743 005e 6646     		mov	r6, ip
 744              	.L62:
 745              	.LVL53:
 100:/home/jonas/warwick/3dProfilometer/xpcc/src/xpcc/driver/ui/display/graphic_display.cpp **** 		int16_t deltaX = x2 - x1;
 746              		.loc 3 100 0
 747 0060 C1EB030A 		rsb	sl, r1, r3
 748 0064 1FFA8AFA 		uxth	sl, sl
 102:/home/jonas/warwick/3dProfilometer/xpcc/src/xpcc/driver/ui/display/graphic_display.cpp **** 		int16_t error = deltaX / 2;
 749              		.loc 3 102 0
 750 0068 0FFA8AF3 		sxth	r3, sl
 751              	.LVL54:
 101:/home/jonas/warwick/3dProfilometer/xpcc/src/xpcc/driver/ui/display/graphic_display.cpp **** 		int16_t deltaY = abs(y2 - y1);
 752              		.loc 3 101 0
 753 006c C6EB0909 		rsb	r9, r6, r9
 107:/home/jonas/warwick/3dProfilometer/xpcc/src/xpcc/driver/ui/display/graphic_display.cpp **** 		if (y1 < y2) {
 754              		.loc 3 107 0
 755 0070 4FF6FF7B 		movw	fp, #65535
 102:/home/jonas/warwick/3dProfilometer/xpcc/src/xpcc/driver/ui/display/graphic_display.cpp **** 		int16_t error = deltaX / 2;
 756              		.loc 3 102 0
 757 0074 03EBD373 		add	r3, r3, r3, lsr #31
 101:/home/jonas/warwick/3dProfilometer/xpcc/src/xpcc/driver/ui/display/graphic_display.cpp **** 		int16_t deltaY = abs(y2 - y1);
 758              		.loc 3 101 0
 759 0078 B9F1000F 		cmp	r9, #0
 760 007c B8BF     		it	lt
 761 007e C9F10009 		rsblt	r9, r9, #0
 107:/home/jonas/warwick/3dProfilometer/xpcc/src/xpcc/driver/ui/display/graphic_display.cpp **** 		if (y1 < y2) {
 762              		.loc 3 107 0
 763 0082 9042     		cmp	r0, r2
 764 0084 C8BF     		it	gt
 765 0086 4FF0010B 		movgt	fp, #1
 766              	.LBB276:
 114:/home/jonas/warwick/3dProfilometer/xpcc/src/xpcc/driver/ui/display/graphic_display.cpp **** 		for (int_fast16_t x = x1; x < x2; ++x)
 767              		.loc 3 114 0
 768 008a BC42     		cmp	r4, r7
 769              	.LBE276:
 100:/home/jonas/warwick/3dProfilometer/xpcc/src/xpcc/driver/ui/display/graphic_display.cpp **** 		int16_t deltaX = x2 - x1;
 770              		.loc 3 100 0
 771 008c CDF804A0 		str	sl, [sp, #4]
 772              	.LVL55:
 102:/home/jonas/warwick/3dProfilometer/xpcc/src/xpcc/driver/ui/display/graphic_display.cpp **** 		int16_t error = deltaX / 2;
 773              		.loc 3 102 0
 774 0090 C3F34F0A 		ubfx	sl, r3, #1, #16
 775              	.LVL56:
 776              	.LBB277:
 114:/home/jonas/warwick/3dProfilometer/xpcc/src/xpcc/driver/ui/display/graphic_display.cpp **** 		for (int_fast16_t x = x1; x < x2; ++x)
 777              		.loc 3 114 0
 778 0094 39DA     		bge	.L55
 779 0096 1FFA89F9 		uxth	r9, r9
 780              	.LVL57:
 781 009a 1646     		mov	r6, r2
 782 009c 12E0     		b	.L72
 783              	.LVL58:
 784              	.L83:
 117:/home/jonas/warwick/3dProfilometer/xpcc/src/xpcc/driver/ui/display/graphic_display.cpp **** 				(this->*draw)(y, x);
 785              		.loc 3 117 0
 786 009e C207     		lsls	r2, r0, #31
 787 00a0 3CD4     		bmi	.L66
 117:/home/jonas/warwick/3dProfilometer/xpcc/src/xpcc/driver/ui/display/graphic_display.cpp **** 				(this->*draw)(y, x);
 788              		.loc 3 117 0 is_stmt 0 discriminator 1
 789 00a2 6B69     		ldr	r3, [r5, #20]
 790 00a4 4010     		asrs	r0, r0, #1
 791              	.L67:
 117:/home/jonas/warwick/3dProfilometer/xpcc/src/xpcc/driver/ui/display/graphic_display.cpp **** 				(this->*draw)(y, x);
 792              		.loc 3 117 0 discriminator 3
 793 00a6 2818     		adds	r0, r5, r0
 794 00a8 31B2     		sxth	r1, r6
 795 00aa 22B2     		sxth	r2, r4
 796 00ac 9847     		blx	r3
 797              	.LVL59:
 798              	.L68:
 122:/home/jonas/warwick/3dProfilometer/xpcc/src/xpcc/driver/ui/display/graphic_display.cpp **** 			error = error - deltaY;
 799              		.loc 3 122 0 is_stmt 1
 800 00ae C9EB0A03 		rsb	r3, r9, sl
 801 00b2 9AB2     		uxth	r2, r3
 802 00b4 1FFA82FA 		uxth	sl, r2
 803              	.LVL60:
 123:/home/jonas/warwick/3dProfilometer/xpcc/src/xpcc/driver/ui/display/graphic_display.cpp **** 			if (error < 0) {
 804              		.loc 3 123 0
 805 00b8 1AF4004F 		tst	sl, #32768
 806 00bc 1CD1     		bne	.L82
 807              	.LVL61:
 114:/home/jonas/warwick/3dProfilometer/xpcc/src/xpcc/driver/ui/display/graphic_display.cpp **** 		for (int_fast16_t x = x1; x < x2; ++x)
 808              		.loc 3 114 0
 809 00be 0134     		adds	r4, r4, #1
 810              	.LVL62:
 811 00c0 BC42     		cmp	r4, r7
 812 00c2 22DA     		bge	.L55
 813              	.LVL63:
 814              	.L72:
 117:/home/jonas/warwick/3dProfilometer/xpcc/src/xpcc/driver/ui/display/graphic_display.cpp **** 				(this->*draw)(y, x);
 815              		.loc 3 117 0
 816 00c4 A869     		ldr	r0, [r5, #24]
 116:/home/jonas/warwick/3dProfilometer/xpcc/src/xpcc/driver/ui/display/graphic_display.cpp **** 			if (steep) {
 817              		.loc 3 116 0
 818 00c6 B8F1000F 		cmp	r8, #0
 819 00ca E8D1     		bne	.L83
 120:/home/jonas/warwick/3dProfilometer/xpcc/src/xpcc/driver/ui/display/graphic_display.cpp **** 				(this->*draw)(x, y);
 820              		.loc 3 120 0
 821 00cc C307     		lsls	r3, r0, #31
 822 00ce 1FD4     		bmi	.L69
 120:/home/jonas/warwick/3dProfilometer/xpcc/src/xpcc/driver/ui/display/graphic_display.cpp **** 				(this->*draw)(x, y);
 823              		.loc 3 120 0 is_stmt 0 discriminator 1
 824 00d0 6B69     		ldr	r3, [r5, #20]
 825 00d2 05EB6000 		add	r0, r5, r0, asr #1
 826              	.L70:
 120:/home/jonas/warwick/3dProfilometer/xpcc/src/xpcc/driver/ui/display/graphic_display.cpp **** 				(this->*draw)(x, y);
 827              		.loc 3 120 0 discriminator 3
 828 00d6 21B2     		sxth	r1, r4
 829 00d8 32B2     		sxth	r2, r6
 830 00da 9847     		blx	r3
 831              	.LVL64:
 832 00dc E7E7     		b	.L68
 833              	.LVL65:
 834              	.L76:
 835              	.LBE277:
  91:/home/jonas/warwick/3dProfilometer/xpcc/src/xpcc/driver/ui/display/graphic_display.cpp **** 		if (steep) {
 836              		.loc 3 91 0 is_stmt 1
 837 00de 0346     		mov	r3, r0
 838              	.LVL66:
 839 00e0 1146     		mov	r1, r2
 840              	.LVL67:
  95:/home/jonas/warwick/3dProfilometer/xpcc/src/xpcc/driver/ui/display/graphic_display.cpp **** 		if (x1 > x2) {
 841              		.loc 3 95 0
 842 00e2 8B42     		cmp	r3, r1
  91:/home/jonas/warwick/3dProfilometer/xpcc/src/xpcc/driver/ui/display/graphic_display.cpp **** 		if (steep) {
 843              		.loc 3 91 0
 844 00e4 3046     		mov	r0, r6
 845              	.LVL68:
 846 00e6 4A46     		mov	r2, r9
 847              	.LVL69:
  95:/home/jonas/warwick/3dProfilometer/xpcc/src/xpcc/driver/ui/display/graphic_display.cpp **** 		if (x1 > x2) {
 848              		.loc 3 95 0
 849 00e8 B4DA     		bge	.L84
 850              	.LVL70:
 851              	.L77:
 852 00ea 9246     		mov	sl, r2
 853 00ec 8C46     		mov	ip, r1
 854              		.file 5 "/home/jonas/warwick/3dProfilometer/xpcc/src/xpcc/math/utils/bit_operation.hpp"
   1:/home/jonas/warwick/3dProfilometer/xpcc/src/xpcc/math/utils/bit_operation.hpp **** // coding: utf-8
   2:/home/jonas/warwick/3dProfilometer/xpcc/src/xpcc/math/utils/bit_operation.hpp **** // ----------------------------------------------------------------------------
   3:/home/jonas/warwick/3dProfilometer/xpcc/src/xpcc/math/utils/bit_operation.hpp **** /* Copyright (c) 2009, Roboterclub Aachen e.V.
   4:/home/jonas/warwick/3dProfilometer/xpcc/src/xpcc/math/utils/bit_operation.hpp ****  * All rights reserved.
   5:/home/jonas/warwick/3dProfilometer/xpcc/src/xpcc/math/utils/bit_operation.hpp ****  *
   6:/home/jonas/warwick/3dProfilometer/xpcc/src/xpcc/math/utils/bit_operation.hpp ****  * Redistribution and use in source and binary forms, with or without
   7:/home/jonas/warwick/3dProfilometer/xpcc/src/xpcc/math/utils/bit_operation.hpp ****  * modification, are permitted provided that the following conditions are met:
   8:/home/jonas/warwick/3dProfilometer/xpcc/src/xpcc/math/utils/bit_operation.hpp ****  *
   9:/home/jonas/warwick/3dProfilometer/xpcc/src/xpcc/math/utils/bit_operation.hpp ****  *     * Redistributions of source code must retain the above copyright
  10:/home/jonas/warwick/3dProfilometer/xpcc/src/xpcc/math/utils/bit_operation.hpp ****  *       notice, this list of conditions and the following disclaimer.
  11:/home/jonas/warwick/3dProfilometer/xpcc/src/xpcc/math/utils/bit_operation.hpp ****  *     * Redistributions in binary form must reproduce the above copyright
  12:/home/jonas/warwick/3dProfilometer/xpcc/src/xpcc/math/utils/bit_operation.hpp ****  *       notice, this list of conditions and the following disclaimer in the
  13:/home/jonas/warwick/3dProfilometer/xpcc/src/xpcc/math/utils/bit_operation.hpp ****  *       documentation and/or other materials provided with the distribution.
  14:/home/jonas/warwick/3dProfilometer/xpcc/src/xpcc/math/utils/bit_operation.hpp ****  *     * Neither the name of the Roboterclub Aachen e.V. nor the
  15:/home/jonas/warwick/3dProfilometer/xpcc/src/xpcc/math/utils/bit_operation.hpp ****  *       names of its contributors may be used to endorse or promote products
  16:/home/jonas/warwick/3dProfilometer/xpcc/src/xpcc/math/utils/bit_operation.hpp ****  *       derived from this software without specific prior written permission.
  17:/home/jonas/warwick/3dProfilometer/xpcc/src/xpcc/math/utils/bit_operation.hpp ****  *
  18:/home/jonas/warwick/3dProfilometer/xpcc/src/xpcc/math/utils/bit_operation.hpp ****  * THIS SOFTWARE IS PROVIDED BY ROBOTERCLUB AACHEN E.V. ''AS IS'' AND ANY
  19:/home/jonas/warwick/3dProfilometer/xpcc/src/xpcc/math/utils/bit_operation.hpp ****  * EXPRESS OR IMPLIED WARRANTIES, INCLUDING, BUT NOT LIMITED TO, THE IMPLIED
  20:/home/jonas/warwick/3dProfilometer/xpcc/src/xpcc/math/utils/bit_operation.hpp ****  * WARRANTIES OF MERCHANTABILITY AND FITNESS FOR A PARTICULAR PURPOSE ARE
  21:/home/jonas/warwick/3dProfilometer/xpcc/src/xpcc/math/utils/bit_operation.hpp ****  * DISCLAIMED. IN NO EVENT SHALL ROBOTERCLUB AACHEN E.V. BE LIABLE FOR ANY
  22:/home/jonas/warwick/3dProfilometer/xpcc/src/xpcc/math/utils/bit_operation.hpp ****  * DIRECT, INDIRECT, INCIDENTAL, SPECIAL, EXEMPLARY, OR CONSEQUENTIAL DAMAGES
  23:/home/jonas/warwick/3dProfilometer/xpcc/src/xpcc/math/utils/bit_operation.hpp ****  * (INCLUDING, BUT NOT LIMITED TO, PROCUREMENT OF SUBSTITUTE GOODS OR SERVICES;
  24:/home/jonas/warwick/3dProfilometer/xpcc/src/xpcc/math/utils/bit_operation.hpp ****  * LOSS OF USE, DATA, OR PROFITS; OR BUSINESS INTERRUPTION) HOWEVER CAUSED AND
  25:/home/jonas/warwick/3dProfilometer/xpcc/src/xpcc/math/utils/bit_operation.hpp ****  * ON ANY THEORY OF LIABILITY, WHETHER IN CONTRACT, STRICT LIABILITY, OR TORT
  26:/home/jonas/warwick/3dProfilometer/xpcc/src/xpcc/math/utils/bit_operation.hpp ****  * (INCLUDING NEGLIGENCE OR OTHERWISE) ARISING IN ANY WAY OUT OF THE USE OF
  27:/home/jonas/warwick/3dProfilometer/xpcc/src/xpcc/math/utils/bit_operation.hpp ****  * THIS SOFTWARE, EVEN IF ADVISED OF THE POSSIBILITY OF SUCH DAMAGE.
  28:/home/jonas/warwick/3dProfilometer/xpcc/src/xpcc/math/utils/bit_operation.hpp ****  */
  29:/home/jonas/warwick/3dProfilometer/xpcc/src/xpcc/math/utils/bit_operation.hpp **** // ----------------------------------------------------------------------------
  30:/home/jonas/warwick/3dProfilometer/xpcc/src/xpcc/math/utils/bit_operation.hpp **** 
  31:/home/jonas/warwick/3dProfilometer/xpcc/src/xpcc/math/utils/bit_operation.hpp **** #ifndef	XPCC__BIT_OPERATION_HPP
  32:/home/jonas/warwick/3dProfilometer/xpcc/src/xpcc/math/utils/bit_operation.hpp **** #define	XPCC__BIT_OPERATION_HPP
  33:/home/jonas/warwick/3dProfilometer/xpcc/src/xpcc/math/utils/bit_operation.hpp **** 
  34:/home/jonas/warwick/3dProfilometer/xpcc/src/xpcc/math/utils/bit_operation.hpp **** #include <cstddef>
  35:/home/jonas/warwick/3dProfilometer/xpcc/src/xpcc/math/utils/bit_operation.hpp **** #include <cmath>
  36:/home/jonas/warwick/3dProfilometer/xpcc/src/xpcc/math/utils/bit_operation.hpp **** #include <stdint.h>
  37:/home/jonas/warwick/3dProfilometer/xpcc/src/xpcc/math/utils/bit_operation.hpp **** 
  38:/home/jonas/warwick/3dProfilometer/xpcc/src/xpcc/math/utils/bit_operation.hpp **** #include <xpcc/architecture/utils.hpp>
  39:/home/jonas/warwick/3dProfilometer/xpcc/src/xpcc/math/utils/bit_operation.hpp **** 
  40:/home/jonas/warwick/3dProfilometer/xpcc/src/xpcc/math/utils/bit_operation.hpp **** namespace xpcc
  41:/home/jonas/warwick/3dProfilometer/xpcc/src/xpcc/math/utils/bit_operation.hpp **** {
  42:/home/jonas/warwick/3dProfilometer/xpcc/src/xpcc/math/utils/bit_operation.hpp **** 	/**
  43:/home/jonas/warwick/3dProfilometer/xpcc/src/xpcc/math/utils/bit_operation.hpp **** 	 * \brief	Exchange the two nibbles of a byte
  44:/home/jonas/warwick/3dProfilometer/xpcc/src/xpcc/math/utils/bit_operation.hpp **** 	 * 
  45:/home/jonas/warwick/3dProfilometer/xpcc/src/xpcc/math/utils/bit_operation.hpp **** 	 * \code
  46:/home/jonas/warwick/3dProfilometer/xpcc/src/xpcc/math/utils/bit_operation.hpp **** 	 * 0xab => 0xba
  47:/home/jonas/warwick/3dProfilometer/xpcc/src/xpcc/math/utils/bit_operation.hpp **** 	 * \endcode
  48:/home/jonas/warwick/3dProfilometer/xpcc/src/xpcc/math/utils/bit_operation.hpp **** 	 * 
  49:/home/jonas/warwick/3dProfilometer/xpcc/src/xpcc/math/utils/bit_operation.hpp **** 	 * \ingroup	math
  50:/home/jonas/warwick/3dProfilometer/xpcc/src/xpcc/math/utils/bit_operation.hpp **** 	 */
  51:/home/jonas/warwick/3dProfilometer/xpcc/src/xpcc/math/utils/bit_operation.hpp **** 	ALWAYS_INLINE uint8_t
  52:/home/jonas/warwick/3dProfilometer/xpcc/src/xpcc/math/utils/bit_operation.hpp **** 	swap(uint8_t n)
  53:/home/jonas/warwick/3dProfilometer/xpcc/src/xpcc/math/utils/bit_operation.hpp **** 	{
  54:/home/jonas/warwick/3dProfilometer/xpcc/src/xpcc/math/utils/bit_operation.hpp **** #ifdef __AVR__
  55:/home/jonas/warwick/3dProfilometer/xpcc/src/xpcc/math/utils/bit_operation.hpp **** 		if (__builtin_constant_p(n)) {
  56:/home/jonas/warwick/3dProfilometer/xpcc/src/xpcc/math/utils/bit_operation.hpp **** 			n = (n << 4) | (n >> 4);
  57:/home/jonas/warwick/3dProfilometer/xpcc/src/xpcc/math/utils/bit_operation.hpp **** 		}
  58:/home/jonas/warwick/3dProfilometer/xpcc/src/xpcc/math/utils/bit_operation.hpp **** 		else {
  59:/home/jonas/warwick/3dProfilometer/xpcc/src/xpcc/math/utils/bit_operation.hpp **** 			asm volatile ("swap %0" : "=r" (n) : "0" (n));
  60:/home/jonas/warwick/3dProfilometer/xpcc/src/xpcc/math/utils/bit_operation.hpp **** 		}
  61:/home/jonas/warwick/3dProfilometer/xpcc/src/xpcc/math/utils/bit_operation.hpp **** 		return n;
  62:/home/jonas/warwick/3dProfilometer/xpcc/src/xpcc/math/utils/bit_operation.hpp **** #else
  63:/home/jonas/warwick/3dProfilometer/xpcc/src/xpcc/math/utils/bit_operation.hpp **** 		n = (n << 4) | (n >> 4);
  64:/home/jonas/warwick/3dProfilometer/xpcc/src/xpcc/math/utils/bit_operation.hpp **** 		return n;
  65:/home/jonas/warwick/3dProfilometer/xpcc/src/xpcc/math/utils/bit_operation.hpp **** #endif
  66:/home/jonas/warwick/3dProfilometer/xpcc/src/xpcc/math/utils/bit_operation.hpp **** 	}
  67:/home/jonas/warwick/3dProfilometer/xpcc/src/xpcc/math/utils/bit_operation.hpp **** 	
  68:/home/jonas/warwick/3dProfilometer/xpcc/src/xpcc/math/utils/bit_operation.hpp **** 	/**
  69:/home/jonas/warwick/3dProfilometer/xpcc/src/xpcc/math/utils/bit_operation.hpp **** 	 * \brief	Exchange two byte
  70:/home/jonas/warwick/3dProfilometer/xpcc/src/xpcc/math/utils/bit_operation.hpp **** 	 * 
  71:/home/jonas/warwick/3dProfilometer/xpcc/src/xpcc/math/utils/bit_operation.hpp **** 	 * \ingroup	math
  72:/home/jonas/warwick/3dProfilometer/xpcc/src/xpcc/math/utils/bit_operation.hpp **** 	 */
  73:/home/jonas/warwick/3dProfilometer/xpcc/src/xpcc/math/utils/bit_operation.hpp **** 	ALWAYS_INLINE void
  74:/home/jonas/warwick/3dProfilometer/xpcc/src/xpcc/math/utils/bit_operation.hpp **** 	swap(uint8_t& a, uint8_t& b)
  75:/home/jonas/warwick/3dProfilometer/xpcc/src/xpcc/math/utils/bit_operation.hpp **** 	{
  76:/home/jonas/warwick/3dProfilometer/xpcc/src/xpcc/math/utils/bit_operation.hpp **** 		uint8_t temp = a;
  77:/home/jonas/warwick/3dProfilometer/xpcc/src/xpcc/math/utils/bit_operation.hpp **** 		a = b;
  78:/home/jonas/warwick/3dProfilometer/xpcc/src/xpcc/math/utils/bit_operation.hpp **** 		b = temp;
  79:/home/jonas/warwick/3dProfilometer/xpcc/src/xpcc/math/utils/bit_operation.hpp **** 	}
  80:/home/jonas/warwick/3dProfilometer/xpcc/src/xpcc/math/utils/bit_operation.hpp **** 	
  81:/home/jonas/warwick/3dProfilometer/xpcc/src/xpcc/math/utils/bit_operation.hpp **** 	/**
  82:/home/jonas/warwick/3dProfilometer/xpcc/src/xpcc/math/utils/bit_operation.hpp **** 	 * \brief	Exchange the two bytes of a 16-bit integer
  83:/home/jonas/warwick/3dProfilometer/xpcc/src/xpcc/math/utils/bit_operation.hpp **** 	 * 
  84:/home/jonas/warwick/3dProfilometer/xpcc/src/xpcc/math/utils/bit_operation.hpp **** 	 * \code
  85:/home/jonas/warwick/3dProfilometer/xpcc/src/xpcc/math/utils/bit_operation.hpp **** 	 * 0xabcd => 0xcdab
  86:/home/jonas/warwick/3dProfilometer/xpcc/src/xpcc/math/utils/bit_operation.hpp **** 	 * \endcode
  87:/home/jonas/warwick/3dProfilometer/xpcc/src/xpcc/math/utils/bit_operation.hpp **** 	 * 
  88:/home/jonas/warwick/3dProfilometer/xpcc/src/xpcc/math/utils/bit_operation.hpp **** 	 * \ingroup	math
  89:/home/jonas/warwick/3dProfilometer/xpcc/src/xpcc/math/utils/bit_operation.hpp **** 	 */
  90:/home/jonas/warwick/3dProfilometer/xpcc/src/xpcc/math/utils/bit_operation.hpp **** 	ALWAYS_INLINE uint16_t
  91:/home/jonas/warwick/3dProfilometer/xpcc/src/xpcc/math/utils/bit_operation.hpp **** 	swap(uint16_t n)
  92:/home/jonas/warwick/3dProfilometer/xpcc/src/xpcc/math/utils/bit_operation.hpp **** 	{
  93:/home/jonas/warwick/3dProfilometer/xpcc/src/xpcc/math/utils/bit_operation.hpp **** #ifdef __AVR__
  94:/home/jonas/warwick/3dProfilometer/xpcc/src/xpcc/math/utils/bit_operation.hpp **** 		if (__builtin_constant_p(n)) {
  95:/home/jonas/warwick/3dProfilometer/xpcc/src/xpcc/math/utils/bit_operation.hpp **** 			n = (n << 8) | (n >> 8);
  96:/home/jonas/warwick/3dProfilometer/xpcc/src/xpcc/math/utils/bit_operation.hpp **** 		}
  97:/home/jonas/warwick/3dProfilometer/xpcc/src/xpcc/math/utils/bit_operation.hpp **** 		else {
  98:/home/jonas/warwick/3dProfilometer/xpcc/src/xpcc/math/utils/bit_operation.hpp **** 			asm volatile (
  99:/home/jonas/warwick/3dProfilometer/xpcc/src/xpcc/math/utils/bit_operation.hpp **** 				"eor %A0, %B0"	"\n\t"
 100:/home/jonas/warwick/3dProfilometer/xpcc/src/xpcc/math/utils/bit_operation.hpp **** 				"eor %B0, %A0"	"\n\t"
 101:/home/jonas/warwick/3dProfilometer/xpcc/src/xpcc/math/utils/bit_operation.hpp **** 				"eor %A0, %B0"	"\n\t"
 102:/home/jonas/warwick/3dProfilometer/xpcc/src/xpcc/math/utils/bit_operation.hpp **** 				: "=r" (n)
 103:/home/jonas/warwick/3dProfilometer/xpcc/src/xpcc/math/utils/bit_operation.hpp **** 				: "0" (n)
 104:/home/jonas/warwick/3dProfilometer/xpcc/src/xpcc/math/utils/bit_operation.hpp **** 			);
 105:/home/jonas/warwick/3dProfilometer/xpcc/src/xpcc/math/utils/bit_operation.hpp **** 		}
 106:/home/jonas/warwick/3dProfilometer/xpcc/src/xpcc/math/utils/bit_operation.hpp **** 		return n;
 107:/home/jonas/warwick/3dProfilometer/xpcc/src/xpcc/math/utils/bit_operation.hpp **** #else
 108:/home/jonas/warwick/3dProfilometer/xpcc/src/xpcc/math/utils/bit_operation.hpp **** 		n = (n << 8) | (n >> 8);
 109:/home/jonas/warwick/3dProfilometer/xpcc/src/xpcc/math/utils/bit_operation.hpp **** 		return n;
 110:/home/jonas/warwick/3dProfilometer/xpcc/src/xpcc/math/utils/bit_operation.hpp **** #endif
 111:/home/jonas/warwick/3dProfilometer/xpcc/src/xpcc/math/utils/bit_operation.hpp **** 	}
 112:/home/jonas/warwick/3dProfilometer/xpcc/src/xpcc/math/utils/bit_operation.hpp **** 	
 113:/home/jonas/warwick/3dProfilometer/xpcc/src/xpcc/math/utils/bit_operation.hpp **** 	ALWAYS_INLINE void
 114:/home/jonas/warwick/3dProfilometer/xpcc/src/xpcc/math/utils/bit_operation.hpp **** 	swap(int16_t& a, int16_t& b)
 115:/home/jonas/warwick/3dProfilometer/xpcc/src/xpcc/math/utils/bit_operation.hpp **** 	{
 116:/home/jonas/warwick/3dProfilometer/xpcc/src/xpcc/math/utils/bit_operation.hpp **** 		int16_t temp = a;
 117:/home/jonas/warwick/3dProfilometer/xpcc/src/xpcc/math/utils/bit_operation.hpp **** 		a = b;
 855              		.loc 5 117 0
 856 00ee 0246     		mov	r2, r0
  95:/home/jonas/warwick/3dProfilometer/xpcc/src/xpcc/driver/ui/display/graphic_display.cpp **** 		if (x1 > x2) {
 857              		.loc 3 95 0
 858 00f0 1946     		mov	r1, r3
 118:/home/jonas/warwick/3dProfilometer/xpcc/src/xpcc/math/utils/bit_operation.hpp **** 		b = temp;
 859              		.loc 5 118 0
 860 00f2 5046     		mov	r0, sl
  95:/home/jonas/warwick/3dProfilometer/xpcc/src/xpcc/driver/ui/display/graphic_display.cpp **** 		if (x1 > x2) {
 861              		.loc 3 95 0
 862 00f4 6346     		mov	r3, ip
 863 00f6 B3E7     		b	.L62
 864              	.LVL71:
 865              	.L82:
 866              	.LBB278:
 125:/home/jonas/warwick/3dProfilometer/xpcc/src/xpcc/driver/ui/display/graphic_display.cpp **** 				error += deltaX;
 867              		.loc 3 125 0
 868 00f8 0199     		ldr	r1, [sp, #4]
 114:/home/jonas/warwick/3dProfilometer/xpcc/src/xpcc/driver/ui/display/graphic_display.cpp **** 		for (int_fast16_t x = x1; x < x2; ++x)
 869              		.loc 3 114 0
 870 00fa 0134     		adds	r4, r4, #1
 871              	.LVL72:
 124:/home/jonas/warwick/3dProfilometer/xpcc/src/xpcc/driver/ui/display/graphic_display.cpp **** 				y += yStep;
 872              		.loc 3 124 0
 873 00fc 5E44     		add	r6, fp, r6
 125:/home/jonas/warwick/3dProfilometer/xpcc/src/xpcc/driver/ui/display/graphic_display.cpp **** 				error += deltaX;
 874              		.loc 3 125 0
 875 00fe 5318     		adds	r3, r2, r1
 114:/home/jonas/warwick/3dProfilometer/xpcc/src/xpcc/driver/ui/display/graphic_display.cpp **** 		for (int_fast16_t x = x1; x < x2; ++x)
 876              		.loc 3 114 0
 877 0100 BC42     		cmp	r4, r7
 124:/home/jonas/warwick/3dProfilometer/xpcc/src/xpcc/driver/ui/display/graphic_display.cpp **** 				y += yStep;
 878              		.loc 3 124 0
 879 0102 B6B2     		uxth	r6, r6
 880              	.LVL73:
 125:/home/jonas/warwick/3dProfilometer/xpcc/src/xpcc/driver/ui/display/graphic_display.cpp **** 				error += deltaX;
 881              		.loc 3 125 0
 882 0104 1FFA83FA 		uxth	sl, r3
 883              	.LVL74:
 114:/home/jonas/warwick/3dProfilometer/xpcc/src/xpcc/driver/ui/display/graphic_display.cpp **** 		for (int_fast16_t x = x1; x < x2; ++x)
 884              		.loc 3 114 0
 885 0108 DCDB     		blt	.L72
 886              	.LVL75:
 887              	.L55:
 888              	.LBE278:
 889              	.LBE275:
 890              	.LBE274:
 891              	.LBE287:
 129:/home/jonas/warwick/3dProfilometer/xpcc/src/xpcc/driver/ui/display/graphic_display.cpp **** }
 892              		.loc 3 129 0
 893 010a 05B0     		add	sp, sp, #20
 894 010c BDE8F08F 		pop	{r4, r5, r6, r7, r8, r9, sl, fp, pc}
 895              	.LVL76:
 896              	.L69:
 897              	.LBB288:
 898              	.LBB283:
 899              	.LBB280:
 900              	.LBB279:
 120:/home/jonas/warwick/3dProfilometer/xpcc/src/xpcc/driver/ui/display/graphic_display.cpp **** 				(this->*draw)(x, y);
 901              		.loc 3 120 0 discriminator 2
 902 0110 4010     		asrs	r0, r0, #1
 903 0112 6A69     		ldr	r2, [r5, #20]
 904 0114 2958     		ldr	r1, [r5, r0]
 905 0116 2818     		adds	r0, r5, r0
 906 0118 8B58     		ldr	r3, [r1, r2]
 907 011a DCE7     		b	.L70
 908              	.L66:
 117:/home/jonas/warwick/3dProfilometer/xpcc/src/xpcc/driver/ui/display/graphic_display.cpp **** 				(this->*draw)(y, x);
 909              		.loc 3 117 0 discriminator 2
 910 011c 4010     		asrs	r0, r0, #1
 911 011e 6A69     		ldr	r2, [r5, #20]
 912 0120 2958     		ldr	r1, [r5, r0]
 913 0122 8B58     		ldr	r3, [r1, r2]
 914 0124 BFE7     		b	.L67
 915              	.LVL77:
 916              	.L80:
 917              	.LBE279:
 918              	.LBE280:
 919              	.LBE283:
  74:/home/jonas/warwick/3dProfilometer/xpcc/src/xpcc/driver/ui/display/graphic_display.cpp **** 		if (y1 > y2) {
 920              		.loc 3 74 0
 921 0126 8242     		cmp	r2, r0
 922 0128 02DD     		ble	.L57
 923 012a 1346     		mov	r3, r2
 924              	.LVL78:
 925 012c 0246     		mov	r2, r0
 926              	.LVL79:
 927 012e 1846     		mov	r0, r3
 928              	.L57:
 929              	.LVL80:
  77:/home/jonas/warwick/3dProfilometer/xpcc/src/xpcc/driver/ui/display/graphic_display.cpp **** 		this->drawVerticalLine(glcd::Point(x1, y1), y2 - y1);
 930              		.loc 3 77 0
 931 0130 2B68     		ldr	r3, [r5, #0]
 932 0132 C2EB000B 		rsb	fp, r2, r0
 933 0136 1B6A     		ldr	r3, [r3, #32]
 934              	.LVL81:
 935              	.LBB284:
 936              	.LBB285:
  42:/home/jonas/warwick/3dProfilometer/xpcc/src/xpcc/math/geometry/vector2_impl.hpp **** {
  43:/home/jonas/warwick/3dProfilometer/xpcc/src/xpcc/math/geometry/vector2_impl.hpp **** }
  44:/home/jonas/warwick/3dProfilometer/xpcc/src/xpcc/math/geometry/vector2_impl.hpp **** 
  45:/home/jonas/warwick/3dProfilometer/xpcc/src/xpcc/math/geometry/vector2_impl.hpp **** // ----------------------------------------------------------------------------
  46:/home/jonas/warwick/3dProfilometer/xpcc/src/xpcc/math/geometry/vector2_impl.hpp **** template<typename T>
  47:/home/jonas/warwick/3dProfilometer/xpcc/src/xpcc/math/geometry/vector2_impl.hpp **** xpcc::Vector<T, 2>::Vector(const T& inX, const T& inY) :
  48:/home/jonas/warwick/3dProfilometer/xpcc/src/xpcc/math/geometry/vector2_impl.hpp **** 	x(inX),
  49:/home/jonas/warwick/3dProfilometer/xpcc/src/xpcc/math/geometry/vector2_impl.hpp **** 	y(inY)
 937              		.loc 4 49 0
 938 0138 ADF80C10 		strh	r1, [sp, #12]	@ movhi
 939 013c ADF80E20 		strh	r2, [sp, #14]	@ movhi
 940              	.LBE285:
 941              	.LBE284:
  77:/home/jonas/warwick/3dProfilometer/xpcc/src/xpcc/driver/ui/display/graphic_display.cpp **** 		this->drawVerticalLine(glcd::Point(x1, y1), y2 - y1);
 942              		.loc 3 77 0
 943 0140 2846     		mov	r0, r5
 944              	.LVL82:
 945 0142 03A9     		add	r1, sp, #12
 946              	.LVL83:
 947 0144 1FFA8BF2 		uxth	r2, fp
 948              	.LVL84:
 949 0148 9847     		blx	r3
 950              	.LVL85:
 951 014a DEE7     		b	.L55
 952              	.LVL86:
 953              	.L81:
 954              	.LBB286:
  82:/home/jonas/warwick/3dProfilometer/xpcc/src/xpcc/driver/ui/display/graphic_display.cpp **** 		if (x1 > x2) {
 955              		.loc 3 82 0
 956 014c 9942     		cmp	r1, r3
 957 014e 02DD     		ble	.L60
 958 0150 0846     		mov	r0, r1
 959 0152 1946     		mov	r1, r3
 960              	.LVL87:
 961 0154 0346     		mov	r3, r0
 962              	.LVL88:
 963              	.L60:
  85:/home/jonas/warwick/3dProfilometer/xpcc/src/xpcc/driver/ui/display/graphic_display.cpp **** 		this->drawHorizontalLine(glcd::Point(x1, y1), x2 - x1);
 964              		.loc 3 85 0
 965 0156 2868     		ldr	r0, [r5, #0]
 966 0158 5B1A     		subs	r3, r3, r1
 967              	.LVL89:
 968 015a C469     		ldr	r4, [r0, #28]
 969              	.LVL90:
 970              	.LBB281:
 971              	.LBB282:
 972              		.loc 4 49 0
 973 015c ADF80C10 		strh	r1, [sp, #12]	@ movhi
 974 0160 ADF80E20 		strh	r2, [sp, #14]	@ movhi
 975              	.LBE282:
 976              	.LBE281:
  85:/home/jonas/warwick/3dProfilometer/xpcc/src/xpcc/driver/ui/display/graphic_display.cpp **** 		this->drawHorizontalLine(glcd::Point(x1, y1), x2 - x1);
 977              		.loc 3 85 0
 978 0164 2846     		mov	r0, r5
 979 0166 03A9     		add	r1, sp, #12
 980              	.LVL91:
 981 0168 9AB2     		uxth	r2, r3
 982              	.LVL92:
 983 016a A047     		blx	r4
 984              	.LVL93:
 985 016c CDE7     		b	.L55
 986              	.LBE286:
 987              	.LBE288:
 988              		.cfi_endproc
 989              	.LFE1211:
 991 016e 00BF     		.section	.text._ZN4xpcc14GraphicDisplay13drawRectangleENS_6VectorIsLh2EEEtt,"ax",%progbits
 992              		.align	2
 993              		.global	_ZN4xpcc14GraphicDisplay13drawRectangleENS_6VectorIsLh2EEEtt
 994              		.thumb
 995              		.thumb_func
 997              	_ZN4xpcc14GraphicDisplay13drawRectangleENS_6VectorIsLh2EEEtt:
 998              	.LFB1214:
 150:/home/jonas/warwick/3dProfilometer/xpcc/src/xpcc/driver/ui/display/graphic_display.cpp **** {
 999              		.loc 3 150 0
 1000              		.cfi_startproc
 1001              		@ args = 0, pretend = 0, frame = 8
 1002              		@ frame_needed = 0, uses_anonymous_args = 0
 1003              	.LVL94:
 1004 0000 2DE9F043 		push	{r4, r5, r6, r7, r8, r9, lr}
 1005              	.LCFI11:
 1006              		.cfi_def_cfa_offset 28
 1007              		.cfi_offset 4, -28
 1008              		.cfi_offset 5, -24
 1009              		.cfi_offset 6, -20
 1010              		.cfi_offset 7, -16
 1011              		.cfi_offset 8, -12
 1012              		.cfi_offset 9, -8
 1013              		.cfi_offset 14, -4
 1014              	.LBB298:
 151:/home/jonas/warwick/3dProfilometer/xpcc/src/xpcc/driver/ui/display/graphic_display.cpp **** 	uint16_t x2 = upperLeft.getX() + width  - 1;
 1015              		.loc 3 151 0
 1016 0004 B1F800E0 		ldrh	lr, [r1, #0]
 152:/home/jonas/warwick/3dProfilometer/xpcc/src/xpcc/driver/ui/display/graphic_display.cpp **** 	uint16_t y2 = upperLeft.getY() + height - 1;
 1017              		.loc 3 152 0
 1018 0008 B1F80280 		ldrh	r8, [r1, #2]
 1019              	.LBE298:
 150:/home/jonas/warwick/3dProfilometer/xpcc/src/xpcc/driver/ui/display/graphic_display.cpp **** {
 1020              		.loc 3 150 0
 1021 000c 83B0     		sub	sp, sp, #12
 1022              	.LCFI12:
 1023              		.cfi_def_cfa_offset 40
 150:/home/jonas/warwick/3dProfilometer/xpcc/src/xpcc/driver/ui/display/graphic_display.cpp **** {
 1024              		.loc 3 150 0
 1025 000e 0D46     		mov	r5, r1
 1026              	.LVL95:
 1027              	.LBB321:
 154:/home/jonas/warwick/3dProfilometer/xpcc/src/xpcc/driver/ui/display/graphic_display.cpp **** 	this->drawHorizontalLine(upperLeft,  width);
 1028              		.loc 3 154 0
 1029 0010 0168     		ldr	r1, [r0, #0]
 1030              	.LVL96:
 1031              	.LBE321:
 150:/home/jonas/warwick/3dProfilometer/xpcc/src/xpcc/driver/ui/display/graphic_display.cpp **** {
 1032              		.loc 3 150 0
 1033 0012 0446     		mov	r4, r0
 1034 0014 1E46     		mov	r6, r3
 1035              	.LBB322:
 151:/home/jonas/warwick/3dProfilometer/xpcc/src/xpcc/driver/ui/display/graphic_display.cpp **** 	uint16_t x2 = upperLeft.getX() + width  - 1;
 1036              		.loc 3 151 0
 1037 0016 02F1FF39 		add	r9, r2, #-1
 154:/home/jonas/warwick/3dProfilometer/xpcc/src/xpcc/driver/ui/display/graphic_display.cpp **** 	this->drawHorizontalLine(upperLeft,  width);
 1038              		.loc 3 154 0
 1039 001a CB69     		ldr	r3, [r1, #28]
 1040              	.LVL97:
 1041              	.LBB299:
 1042              	.LBB300:
  50:/home/jonas/warwick/3dProfilometer/xpcc/src/xpcc/math/geometry/vector2_impl.hpp **** {
  51:/home/jonas/warwick/3dProfilometer/xpcc/src/xpcc/math/geometry/vector2_impl.hpp **** }
  52:/home/jonas/warwick/3dProfilometer/xpcc/src/xpcc/math/geometry/vector2_impl.hpp **** 
  53:/home/jonas/warwick/3dProfilometer/xpcc/src/xpcc/math/geometry/vector2_impl.hpp **** // ----------------------------------------------------------------------------
  54:/home/jonas/warwick/3dProfilometer/xpcc/src/xpcc/math/geometry/vector2_impl.hpp **** template<typename T>
  55:/home/jonas/warwick/3dProfilometer/xpcc/src/xpcc/math/geometry/vector2_impl.hpp **** xpcc::Vector<T, 2>::Vector(
  56:/home/jonas/warwick/3dProfilometer/xpcc/src/xpcc/math/geometry/vector2_impl.hpp **** 		const xpcc::Vector<T, 1> &inX,
  57:/home/jonas/warwick/3dProfilometer/xpcc/src/xpcc/math/geometry/vector2_impl.hpp **** 		const xpcc::Vector<T, 1> &inY) :
  58:/home/jonas/warwick/3dProfilometer/xpcc/src/xpcc/math/geometry/vector2_impl.hpp **** 	x(inX.x),
  59:/home/jonas/warwick/3dProfilometer/xpcc/src/xpcc/math/geometry/vector2_impl.hpp **** 	y(inY.x)
  60:/home/jonas/warwick/3dProfilometer/xpcc/src/xpcc/math/geometry/vector2_impl.hpp **** {
  61:/home/jonas/warwick/3dProfilometer/xpcc/src/xpcc/math/geometry/vector2_impl.hpp **** }
  62:/home/jonas/warwick/3dProfilometer/xpcc/src/xpcc/math/geometry/vector2_impl.hpp **** 
  63:/home/jonas/warwick/3dProfilometer/xpcc/src/xpcc/math/geometry/vector2_impl.hpp **** // ----------------------------------------------------------------------------
  64:/home/jonas/warwick/3dProfilometer/xpcc/src/xpcc/math/geometry/vector2_impl.hpp **** template<typename T>
  65:/home/jonas/warwick/3dProfilometer/xpcc/src/xpcc/math/geometry/vector2_impl.hpp **** xpcc::Vector<T, 2>::Vector(const T &inX, const xpcc::Vector<T, 1> &inY) :
  66:/home/jonas/warwick/3dProfilometer/xpcc/src/xpcc/math/geometry/vector2_impl.hpp **** 	x(inX),
  67:/home/jonas/warwick/3dProfilometer/xpcc/src/xpcc/math/geometry/vector2_impl.hpp **** 	y(inY.x)
  68:/home/jonas/warwick/3dProfilometer/xpcc/src/xpcc/math/geometry/vector2_impl.hpp **** {
  69:/home/jonas/warwick/3dProfilometer/xpcc/src/xpcc/math/geometry/vector2_impl.hpp **** }
  70:/home/jonas/warwick/3dProfilometer/xpcc/src/xpcc/math/geometry/vector2_impl.hpp **** 
  71:/home/jonas/warwick/3dProfilometer/xpcc/src/xpcc/math/geometry/vector2_impl.hpp **** // ----------------------------------------------------------------------------
  72:/home/jonas/warwick/3dProfilometer/xpcc/src/xpcc/math/geometry/vector2_impl.hpp **** template<typename T>
  73:/home/jonas/warwick/3dProfilometer/xpcc/src/xpcc/math/geometry/vector2_impl.hpp **** xpcc::Vector<T, 2>::Vector(const xpcc::Vector<T, 1> &inX, const T &inY) :
  74:/home/jonas/warwick/3dProfilometer/xpcc/src/xpcc/math/geometry/vector2_impl.hpp **** 	x(inX.x),
  75:/home/jonas/warwick/3dProfilometer/xpcc/src/xpcc/math/geometry/vector2_impl.hpp **** 	y(inY)
  76:/home/jonas/warwick/3dProfilometer/xpcc/src/xpcc/math/geometry/vector2_impl.hpp **** {
  77:/home/jonas/warwick/3dProfilometer/xpcc/src/xpcc/math/geometry/vector2_impl.hpp **** }
  78:/home/jonas/warwick/3dProfilometer/xpcc/src/xpcc/math/geometry/vector2_impl.hpp **** 
  79:/home/jonas/warwick/3dProfilometer/xpcc/src/xpcc/math/geometry/vector2_impl.hpp **** // ----------------------------------------------------------------------------
  80:/home/jonas/warwick/3dProfilometer/xpcc/src/xpcc/math/geometry/vector2_impl.hpp **** template<typename T>
  81:/home/jonas/warwick/3dProfilometer/xpcc/src/xpcc/math/geometry/vector2_impl.hpp **** xpcc::Vector<T, 2>::Vector(T inVal) :
  82:/home/jonas/warwick/3dProfilometer/xpcc/src/xpcc/math/geometry/vector2_impl.hpp **** 	x(inVal),
  83:/home/jonas/warwick/3dProfilometer/xpcc/src/xpcc/math/geometry/vector2_impl.hpp **** 	y(inVal)
  84:/home/jonas/warwick/3dProfilometer/xpcc/src/xpcc/math/geometry/vector2_impl.hpp **** {
  85:/home/jonas/warwick/3dProfilometer/xpcc/src/xpcc/math/geometry/vector2_impl.hpp **** }
  86:/home/jonas/warwick/3dProfilometer/xpcc/src/xpcc/math/geometry/vector2_impl.hpp **** 
  87:/home/jonas/warwick/3dProfilometer/xpcc/src/xpcc/math/geometry/vector2_impl.hpp **** // ----------------------------------------------------------------------------
  88:/home/jonas/warwick/3dProfilometer/xpcc/src/xpcc/math/geometry/vector2_impl.hpp **** template<typename T>
  89:/home/jonas/warwick/3dProfilometer/xpcc/src/xpcc/math/geometry/vector2_impl.hpp **** xpcc::Vector<T, 2>::Vector(const xpcc::Matrix<T, 2, 1> &rhs) :
  90:/home/jonas/warwick/3dProfilometer/xpcc/src/xpcc/math/geometry/vector2_impl.hpp **** 	x(reinterpret_cast<const T*>(&rhs)[0]),
  91:/home/jonas/warwick/3dProfilometer/xpcc/src/xpcc/math/geometry/vector2_impl.hpp **** 	y(reinterpret_cast<const T*>(&rhs)[1])
  92:/home/jonas/warwick/3dProfilometer/xpcc/src/xpcc/math/geometry/vector2_impl.hpp **** {
  93:/home/jonas/warwick/3dProfilometer/xpcc/src/xpcc/math/geometry/vector2_impl.hpp **** }
  94:/home/jonas/warwick/3dProfilometer/xpcc/src/xpcc/math/geometry/vector2_impl.hpp **** 
  95:/home/jonas/warwick/3dProfilometer/xpcc/src/xpcc/math/geometry/vector2_impl.hpp **** // ----------------------------------------------------------------------------
  96:/home/jonas/warwick/3dProfilometer/xpcc/src/xpcc/math/geometry/vector2_impl.hpp **** template<typename T>
  97:/home/jonas/warwick/3dProfilometer/xpcc/src/xpcc/math/geometry/vector2_impl.hpp **** xpcc::Vector<T, 2>::Vector(const Vector &rhs) :
  98:/home/jonas/warwick/3dProfilometer/xpcc/src/xpcc/math/geometry/vector2_impl.hpp **** 	x(rhs.x),
  99:/home/jonas/warwick/3dProfilometer/xpcc/src/xpcc/math/geometry/vector2_impl.hpp **** 	y(rhs.y)
 1043              		.loc 4 99 0
 1044 001c ADF804E0 		strh	lr, [sp, #4]	@ movhi
 1045              	.LBE300:
 1046              	.LBE299:
 154:/home/jonas/warwick/3dProfilometer/xpcc/src/xpcc/driver/ui/display/graphic_display.cpp **** 	this->drawHorizontalLine(upperLeft,  width);
 1047              		.loc 3 154 0
 1048 0020 01A9     		add	r1, sp, #4
 1049              	.LBB302:
 1050              	.LBB301:
 1051              		.loc 4 99 0
 1052 0022 ADF80680 		strh	r8, [sp, #6]	@ movhi
 1053              	.LBE301:
 1054              	.LBE302:
 151:/home/jonas/warwick/3dProfilometer/xpcc/src/xpcc/driver/ui/display/graphic_display.cpp **** 	uint16_t x2 = upperLeft.getX() + width  - 1;
 1055              		.loc 3 151 0
 1056 0026 F144     		add	r9, r9, lr
 1057              	.LVL98:
 1058              	.LBE322:
 150:/home/jonas/warwick/3dProfilometer/xpcc/src/xpcc/driver/ui/display/graphic_display.cpp **** {
 1059              		.loc 3 150 0
 1060 0028 1746     		mov	r7, r2
 1061              	.LBB323:
 152:/home/jonas/warwick/3dProfilometer/xpcc/src/xpcc/driver/ui/display/graphic_display.cpp **** 	uint16_t y2 = upperLeft.getY() + height - 1;
 1062              		.loc 3 152 0
 1063 002a B044     		add	r8, r6, r8
 1064              	.LVL99:
 154:/home/jonas/warwick/3dProfilometer/xpcc/src/xpcc/driver/ui/display/graphic_display.cpp **** 	this->drawHorizontalLine(upperLeft,  width);
 1065              		.loc 3 154 0
 1066 002c 9847     		blx	r3
 1067              	.LVL100:
 1068              	.LBB303:
 1069              	.LBB304:
  49:/home/jonas/warwick/3dProfilometer/xpcc/src/xpcc/math/geometry/vector2_impl.hpp **** 	y(inY)
 1070              		.loc 4 49 0
 1071 002e 2A88     		ldrh	r2, [r5, #0]
 1072              	.LBE304:
 1073              	.LBE303:
 155:/home/jonas/warwick/3dProfilometer/xpcc/src/xpcc/driver/ui/display/graphic_display.cpp **** 	this->drawHorizontalLine(glcd::Point(upperLeft.getX(), y2), width);
 1074              		.loc 3 155 0
 1075 0030 2368     		ldr	r3, [r4, #0]
 152:/home/jonas/warwick/3dProfilometer/xpcc/src/xpcc/driver/ui/display/graphic_display.cpp **** 	uint16_t y2 = upperLeft.getY() + height - 1;
 1076              		.loc 3 152 0
 1077 0032 08F1FF38 		add	r8, r8, #-1
 155:/home/jonas/warwick/3dProfilometer/xpcc/src/xpcc/driver/ui/display/graphic_display.cpp **** 	this->drawHorizontalLine(glcd::Point(upperLeft.getX(), y2), width);
 1078              		.loc 3 155 0
 1079 0036 DB69     		ldr	r3, [r3, #28]
 1080              	.LVL101:
 1081              	.LBB307:
 1082              	.LBB305:
  49:/home/jonas/warwick/3dProfilometer/xpcc/src/xpcc/math/geometry/vector2_impl.hpp **** 	y(inY)
 1083              		.loc 4 49 0
 1084 0038 ADF80420 		strh	r2, [sp, #4]	@ movhi
 1085              	.LBE305:
 1086              	.LBE307:
 155:/home/jonas/warwick/3dProfilometer/xpcc/src/xpcc/driver/ui/display/graphic_display.cpp **** 	this->drawHorizontalLine(glcd::Point(upperLeft.getX(), y2), width);
 1087              		.loc 3 155 0
 1088 003c 2046     		mov	r0, r4
 1089 003e 01A9     		add	r1, sp, #4
 1090              	.LVL102:
 1091 0040 3A46     		mov	r2, r7
 1092              	.LBB308:
 1093              	.LBB306:
  49:/home/jonas/warwick/3dProfilometer/xpcc/src/xpcc/math/geometry/vector2_impl.hpp **** 	y(inY)
 1094              		.loc 4 49 0
 1095 0042 ADF80680 		strh	r8, [sp, #6]	@ movhi
 1096              	.LBE306:
 1097              	.LBE308:
 155:/home/jonas/warwick/3dProfilometer/xpcc/src/xpcc/driver/ui/display/graphic_display.cpp **** 	this->drawHorizontalLine(glcd::Point(upperLeft.getX(), y2), width);
 1098              		.loc 3 155 0
 1099 0046 9847     		blx	r3
 1100              	.LVL103:
 1101              	.LBB309:
 1102              	.LBB310:
 1103              		.loc 4 99 0
 1104 0048 2A88     		ldrh	r2, [r5, #0]
 1105              	.LBE310:
 1106              	.LBE309:
 156:/home/jonas/warwick/3dProfilometer/xpcc/src/xpcc/driver/ui/display/graphic_display.cpp **** 	this->drawVerticalLine(upperLeft, height);
 1107              		.loc 3 156 0
 1108 004a 2368     		ldr	r3, [r4, #0]
 1109              	.LBB314:
 1110              	.LBB311:
 1111              		.loc 4 99 0
 1112 004c 6F88     		ldrh	r7, [r5, #2]
 1113              	.LBE311:
 1114              	.LBE314:
 156:/home/jonas/warwick/3dProfilometer/xpcc/src/xpcc/driver/ui/display/graphic_display.cpp **** 	this->drawVerticalLine(upperLeft, height);
 1115              		.loc 3 156 0
 1116 004e 1B6A     		ldr	r3, [r3, #32]
 1117              	.LVL104:
 1118              	.LBB315:
 1119              	.LBB312:
 1120              		.loc 4 99 0
 1121 0050 ADF80420 		strh	r2, [sp, #4]	@ movhi
 1122              	.LBE312:
 1123              	.LBE315:
 156:/home/jonas/warwick/3dProfilometer/xpcc/src/xpcc/driver/ui/display/graphic_display.cpp **** 	this->drawVerticalLine(upperLeft, height);
 1124              		.loc 3 156 0
 1125 0054 2046     		mov	r0, r4
 1126 0056 01A9     		add	r1, sp, #4
 1127              	.LVL105:
 1128 0058 3246     		mov	r2, r6
 1129              	.LBB316:
 1130              	.LBB313:
 1131              		.loc 4 99 0
 1132 005a ADF80670 		strh	r7, [sp, #6]	@ movhi
 1133              	.LBE313:
 1134              	.LBE316:
 156:/home/jonas/warwick/3dProfilometer/xpcc/src/xpcc/driver/ui/display/graphic_display.cpp **** 	this->drawVerticalLine(upperLeft, height);
 1135              		.loc 3 156 0
 1136 005e 9847     		blx	r3
 1137              	.LVL106:
 1138              	.LBB317:
 1139              	.LBB318:
  49:/home/jonas/warwick/3dProfilometer/xpcc/src/xpcc/math/geometry/vector2_impl.hpp **** 	y(inY)
 1140              		.loc 4 49 0
 1141 0060 6A88     		ldrh	r2, [r5, #2]
 1142              	.LBE318:
 1143              	.LBE317:
 157:/home/jonas/warwick/3dProfilometer/xpcc/src/xpcc/driver/ui/display/graphic_display.cpp **** 	this->drawVerticalLine(glcd::Point(x2, upperLeft.getY()), height);
 1144              		.loc 3 157 0
 1145 0062 2368     		ldr	r3, [r4, #0]
 1146 0064 2046     		mov	r0, r4
 1147 0066 1B6A     		ldr	r3, [r3, #32]
 1148              	.LVL107:
 1149              	.LBB320:
 1150              	.LBB319:
  49:/home/jonas/warwick/3dProfilometer/xpcc/src/xpcc/math/geometry/vector2_impl.hpp **** 	y(inY)
 1151              		.loc 4 49 0
 1152 0068 ADF80620 		strh	r2, [sp, #6]	@ movhi
 1153 006c ADF80490 		strh	r9, [sp, #4]	@ movhi
 1154              	.LBE319:
 1155              	.LBE320:
 157:/home/jonas/warwick/3dProfilometer/xpcc/src/xpcc/driver/ui/display/graphic_display.cpp **** 	this->drawVerticalLine(glcd::Point(x2, upperLeft.getY()), height);
 1156              		.loc 3 157 0
 1157 0070 01A9     		add	r1, sp, #4
 1158              	.LVL108:
 1159 0072 3246     		mov	r2, r6
 1160 0074 9847     		blx	r3
 1161              	.LVL109:
 1162              	.LBE323:
 158:/home/jonas/warwick/3dProfilometer/xpcc/src/xpcc/driver/ui/display/graphic_display.cpp **** }
 1163              		.loc 3 158 0
 1164 0076 03B0     		add	sp, sp, #12
 1165 0078 BDE8F083 		pop	{r4, r5, r6, r7, r8, r9, pc}
 1166              		.cfi_endproc
 1167              	.LFE1214:
 1169              		.section	.text._ZN4xpcc14GraphicDisplay20drawRoundedRectangleENS_6VectorIsLh2EEEttt,"ax",%progbits
 1170              		.align	2
 1171              		.global	_ZN4xpcc14GraphicDisplay20drawRoundedRectangleENS_6VectorIsLh2EEEttt
 1172              		.thumb
 1173              		.thumb_func
 1175              	_ZN4xpcc14GraphicDisplay20drawRoundedRectangleENS_6VectorIsLh2EEEttt:
 1176              	.LFB1215:
 163:/home/jonas/warwick/3dProfilometer/xpcc/src/xpcc/driver/ui/display/graphic_display.cpp **** {
 1177              		.loc 3 163 0
 1178              		.cfi_startproc
 1179              		@ args = 4, pretend = 0, frame = 72
 1180              		@ frame_needed = 0, uses_anonymous_args = 0
 1181              	.LVL110:
 1182 0000 2DE9F04F 		push	{r4, r5, r6, r7, r8, r9, sl, fp, lr}
 1183              	.LCFI13:
 1184              		.cfi_def_cfa_offset 36
 1185              		.cfi_offset 4, -36
 1186              		.cfi_offset 5, -32
 1187              		.cfi_offset 6, -28
 1188              		.cfi_offset 7, -24
 1189              		.cfi_offset 8, -20
 1190              		.cfi_offset 9, -16
 1191              		.cfi_offset 10, -12
 1192              		.cfi_offset 11, -8
 1193              		.cfi_offset 14, -4
 1194 0004 93B0     		sub	sp, sp, #76
 1195              	.LCFI14:
 1196              		.cfi_def_cfa_offset 112
 163:/home/jonas/warwick/3dProfilometer/xpcc/src/xpcc/driver/ui/display/graphic_display.cpp **** {
 1197              		.loc 3 163 0
 1198 0006 0446     		mov	r4, r0
 1199 0008 BDF87050 		ldrh	r5, [sp, #112]
 1200 000c 0A92     		str	r2, [sp, #40]
 1201 000e 0E46     		mov	r6, r1
 1202 0010 0993     		str	r3, [sp, #36]
 1203              	.LBB346:
 164:/home/jonas/warwick/3dProfilometer/xpcc/src/xpcc/driver/ui/display/graphic_display.cpp **** 	if (radius == 0) {
 1204              		.loc 3 164 0
 1205 0012 002D     		cmp	r5, #0
 1206 0014 00F03F81 		beq	.L112
 1207              	.LVL111:
 173:/home/jonas/warwick/3dProfilometer/xpcc/src/xpcc/driver/ui/display/graphic_display.cpp ****   	int16_t f = 3 - 2 * radius;
 1208              		.loc 3 173 0
 1209 0018 C5EBC533 		rsb	r3, r5, r5, lsl #15
 1210              	.LVL112:
 1211 001c 5B00     		lsls	r3, r3, #1
 172:/home/jonas/warwick/3dProfilometer/xpcc/src/xpcc/driver/ui/display/graphic_display.cpp **** 	int16_t y1 = radius;
 1212              		.loc 3 172 0
 1213 001e AFB2     		uxth	r7, r5
 173:/home/jonas/warwick/3dProfilometer/xpcc/src/xpcc/driver/ui/display/graphic_display.cpp ****   	int16_t f = 3 - 2 * radius;
 1214              		.loc 3 173 0
 1215 0020 9BB2     		uxth	r3, r3
 172:/home/jonas/warwick/3dProfilometer/xpcc/src/xpcc/driver/ui/display/graphic_display.cpp **** 	int16_t y1 = radius;
 1216              		.loc 3 172 0
 1217 0022 0197     		str	r7, [sp, #4]
 173:/home/jonas/warwick/3dProfilometer/xpcc/src/xpcc/driver/ui/display/graphic_display.cpp ****   	int16_t f = 3 - 2 * radius;
 1218              		.loc 3 173 0
 1219 0024 0D93     		str	r3, [sp, #52]
 175:/home/jonas/warwick/3dProfilometer/xpcc/src/xpcc/driver/ui/display/graphic_display.cpp **** 	while (x1 <= y1)
 1220              		.loc 3 175 0
 1221 0026 3FB2     		sxth	r7, r7
 173:/home/jonas/warwick/3dProfilometer/xpcc/src/xpcc/driver/ui/display/graphic_display.cpp ****   	int16_t f = 3 - 2 * radius;
 1222              		.loc 3 173 0
 1223 0028 0333     		adds	r3, r3, #3
 175:/home/jonas/warwick/3dProfilometer/xpcc/src/xpcc/driver/ui/display/graphic_display.cpp **** 	while (x1 <= y1)
 1224              		.loc 3 175 0
 1225 002a 0397     		str	r7, [sp, #12]
 173:/home/jonas/warwick/3dProfilometer/xpcc/src/xpcc/driver/ui/display/graphic_display.cpp ****   	int16_t f = 3 - 2 * radius;
 1226              		.loc 3 173 0
 1227 002c 9BB2     		uxth	r3, r3
 1228 002e 0293     		str	r3, [sp, #8]
 175:/home/jonas/warwick/3dProfilometer/xpcc/src/xpcc/driver/ui/display/graphic_display.cpp **** 	while (x1 <= y1)
 1229              		.loc 3 175 0
 1230 0030 039B     		ldr	r3, [sp, #12]
 168:/home/jonas/warwick/3dProfilometer/xpcc/src/xpcc/driver/ui/display/graphic_display.cpp **** 	const int16_t x = upperLeft.getX();
 1231              		.loc 3 168 0
 1232 0032 0F88     		ldrh	r7, [r1, #0]
 169:/home/jonas/warwick/3dProfilometer/xpcc/src/xpcc/driver/ui/display/graphic_display.cpp **** 	const int16_t y = upperLeft.getY();
 1233              		.loc 3 169 0
 1234 0034 4E88     		ldrh	r6, [r1, #2]
 168:/home/jonas/warwick/3dProfilometer/xpcc/src/xpcc/driver/ui/display/graphic_display.cpp **** 	const int16_t x = upperLeft.getX();
 1235              		.loc 3 168 0
 1236 0036 0F97     		str	r7, [sp, #60]
 1237              	.LVL113:
 175:/home/jonas/warwick/3dProfilometer/xpcc/src/xpcc/driver/ui/display/graphic_display.cpp **** 	while (x1 <= y1)
 1238              		.loc 3 175 0
 1239 0038 002B     		cmp	r3, #0
 169:/home/jonas/warwick/3dProfilometer/xpcc/src/xpcc/driver/ui/display/graphic_display.cpp **** 	const int16_t y = upperLeft.getY();
 1240              		.loc 3 169 0
 1241 003a 0E96     		str	r6, [sp, #56]
 1242              	.LVL114:
 175:/home/jonas/warwick/3dProfilometer/xpcc/src/xpcc/driver/ui/display/graphic_display.cpp **** 	while (x1 <= y1)
 1243              		.loc 3 175 0
 1244 003c C0F26881 		blt	.L111
 1245 0040 11AF     		add	r7, sp, #68
 1246 0042 0897     		str	r7, [sp, #32]
 1247 0044 0F9B     		ldr	r3, [sp, #60]
 1248 0046 0E9F     		ldr	r7, [sp, #56]
 1249              	.LVL115:
 1250              	.L89:
 1251 0048 9BB2     		uxth	r3, r3
 1252 004a BFB2     		uxth	r7, r7
 1253 004c 0B93     		str	r3, [sp, #44]
 1254 004e 0C97     		str	r7, [sp, #48]
 1255 0050 099B     		ldr	r3, [sp, #36]
 1256 0052 0A9F     		ldr	r7, [sp, #40]
 1257 0054 5A1B     		subs	r2, r3, r5
 1258 0056 7B1B     		subs	r3, r7, r5
 1259 0058 0B9F     		ldr	r7, [sp, #44]
 1260 005a 7919     		adds	r1, r7, r5
 1261 005c 0C9F     		ldr	r7, [sp, #48]
 1262 005e 7D19     		adds	r5, r7, r5
 1263 0060 17FA82F2 		uxtah	r2, r7, r2
 1264 0064 0B9F     		ldr	r7, [sp, #44]
 1265 0066 17FA83F3 		uxtah	r3, r7, r3
 1266 006a 89B2     		uxth	r1, r1
 1267 006c ADB2     		uxth	r5, r5
 1268 006e 92B2     		uxth	r2, r2
 1269 0070 9BB2     		uxth	r3, r3
 1270 0072 0491     		str	r1, [sp, #16]
 1271 0074 0595     		str	r5, [sp, #20]
 1272 0076 0692     		str	r2, [sp, #24]
 1273 0078 0793     		str	r3, [sp, #28]
 172:/home/jonas/warwick/3dProfilometer/xpcc/src/xpcc/driver/ui/display/graphic_display.cpp **** 	int16_t y1 = radius;
 1274              		.loc 3 172 0
 1275 007a 0027     		movs	r7, #0
 1276 007c 8BE0     		b	.L88
 1277              	.LVL116:
 1278              	.L114:
 177:/home/jonas/warwick/3dProfilometer/xpcc/src/xpcc/driver/ui/display/graphic_display.cpp **** 		(this->*draw)(x + radius - x1, y + radius - y1);
 1279              		.loc 3 177 0 discriminator 1
 1280 007e 6369     		ldr	r3, [r4, #20]
 1281 0080 04EB6000 		add	r0, r4, r0, asr #1
 1282              	.L92:
 177:/home/jonas/warwick/3dProfilometer/xpcc/src/xpcc/driver/ui/display/graphic_display.cpp **** 		(this->*draw)(x + radius - x1, y + radius - y1);
 1283              		.loc 3 177 0 is_stmt 0 discriminator 3
 1284 0084 0199     		ldr	r1, [sp, #4]
 1285 0086 049A     		ldr	r2, [sp, #16]
 1286 0088 8EB2     		uxth	r6, r1
 1287 008a 0599     		ldr	r1, [sp, #20]
 1288 008c BDB2     		uxth	r5, r7
 1289 008e C5EB0208 		rsb	r8, r5, r2
 1290 0092 C6EB010B 		rsb	fp, r6, r1
 1291 0096 0FFA88F8 		sxth	r8, r8
 1292 009a 0FFA8BFB 		sxth	fp, fp
 1293 009e 5A46     		mov	r2, fp
 1294 00a0 4146     		mov	r1, r8
 1295 00a2 9847     		blx	r3
 1296              	.LVL117:
 178:/home/jonas/warwick/3dProfilometer/xpcc/src/xpcc/driver/ui/display/graphic_display.cpp **** 		(this->*draw)(x + radius - x1, y + height - radius + y1);
 1297              		.loc 3 178 0 is_stmt 1 discriminator 3
 1298 00a4 A069     		ldr	r0, [r4, #24]
 1299 00a6 C207     		lsls	r2, r0, #31
 1300 00a8 00F1A780 		bmi	.L93
 178:/home/jonas/warwick/3dProfilometer/xpcc/src/xpcc/driver/ui/display/graphic_display.cpp **** 		(this->*draw)(x + radius - x1, y + height - radius + y1);
 1301              		.loc 3 178 0 is_stmt 0 discriminator 1
 1302 00ac 6369     		ldr	r3, [r4, #20]
 1303 00ae 04EB6000 		add	r0, r4, r0, asr #1
 1304              	.L94:
 178:/home/jonas/warwick/3dProfilometer/xpcc/src/xpcc/driver/ui/display/graphic_display.cpp **** 		(this->*draw)(x + radius - x1, y + height - radius + y1);
 1305              		.loc 3 178 0 discriminator 3
 1306 00b2 069A     		ldr	r2, [sp, #24]
 1307 00b4 06EB020A 		add	sl, r6, r2
 1308 00b8 0FFA8AFA 		sxth	sl, sl
 1309 00bc 4146     		mov	r1, r8
 1310 00be 5246     		mov	r2, sl
 1311 00c0 9847     		blx	r3
 1312              	.LVL118:
 179:/home/jonas/warwick/3dProfilometer/xpcc/src/xpcc/driver/ui/display/graphic_display.cpp **** 		(this->*draw)(x + radius - y1, y + radius - x1);
 1313              		.loc 3 179 0 is_stmt 1 discriminator 3
 1314 00c2 A069     		ldr	r0, [r4, #24]
 1315 00c4 C307     		lsls	r3, r0, #31
 1316 00c6 00F19180 		bmi	.L95
 179:/home/jonas/warwick/3dProfilometer/xpcc/src/xpcc/driver/ui/display/graphic_display.cpp **** 		(this->*draw)(x + radius - y1, y + radius - x1);
 1317              		.loc 3 179 0 is_stmt 0 discriminator 1
 1318 00ca D4F814C0 		ldr	ip, [r4, #20]
 1319 00ce 04EB6000 		add	r0, r4, r0, asr #1
 1320              	.L96:
 179:/home/jonas/warwick/3dProfilometer/xpcc/src/xpcc/driver/ui/display/graphic_display.cpp **** 		(this->*draw)(x + radius - y1, y + radius - x1);
 1321              		.loc 3 179 0 discriminator 3
 1322 00d2 0499     		ldr	r1, [sp, #16]
 1323 00d4 059A     		ldr	r2, [sp, #20]
 1324 00d6 8B1B     		subs	r3, r1, r6
 1325 00d8 C5EB0209 		rsb	r9, r5, r2
 1326 00dc 1BB2     		sxth	r3, r3
 1327 00de 0FFA89F9 		sxth	r9, r9
 1328 00e2 1946     		mov	r1, r3
 1329 00e4 0093     		str	r3, [sp, #0]
 1330 00e6 4A46     		mov	r2, r9
 1331 00e8 E047     		blx	ip
 1332              	.LVL119:
 180:/home/jonas/warwick/3dProfilometer/xpcc/src/xpcc/driver/ui/display/graphic_display.cpp **** 		(this->*draw)(x + radius - y1, y + height - radius + x1);
 1333              		.loc 3 180 0 is_stmt 1 discriminator 3
 1334 00ea A069     		ldr	r0, [r4, #24]
 1335 00ec 009B     		ldr	r3, [sp, #0]
 1336 00ee C107     		lsls	r1, r0, #31
 1337 00f0 75D4     		bmi	.L97
 180:/home/jonas/warwick/3dProfilometer/xpcc/src/xpcc/driver/ui/display/graphic_display.cpp **** 		(this->*draw)(x + radius - y1, y + height - radius + x1);
 1338              		.loc 3 180 0 is_stmt 0 discriminator 1
 1339 00f2 D4F814C0 		ldr	ip, [r4, #20]
 1340 00f6 04EB6000 		add	r0, r4, r0, asr #1
 1341              	.L98:
 180:/home/jonas/warwick/3dProfilometer/xpcc/src/xpcc/driver/ui/display/graphic_display.cpp **** 		(this->*draw)(x + radius - y1, y + height - radius + x1);
 1342              		.loc 3 180 0 discriminator 3
 1343 00fa 0699     		ldr	r1, [sp, #24]
 1344 00fc 05EB0108 		add	r8, r5, r1
 1345 0100 0FFA88F8 		sxth	r8, r8
 1346 0104 1946     		mov	r1, r3
 1347 0106 4246     		mov	r2, r8
 1348 0108 E047     		blx	ip
 1349              	.LVL120:
 182:/home/jonas/warwick/3dProfilometer/xpcc/src/xpcc/driver/ui/display/graphic_display.cpp **** 		(this->*draw)(x + width - radius + x1, y + radius - y1);
 1350              		.loc 3 182 0 is_stmt 1 discriminator 3
 1351 010a A069     		ldr	r0, [r4, #24]
 1352 010c C107     		lsls	r1, r0, #31
 1353 010e 5FD4     		bmi	.L99
 182:/home/jonas/warwick/3dProfilometer/xpcc/src/xpcc/driver/ui/display/graphic_display.cpp **** 		(this->*draw)(x + width - radius + x1, y + radius - y1);
 1354              		.loc 3 182 0 is_stmt 0 discriminator 1
 1355 0110 D4F814C0 		ldr	ip, [r4, #20]
 1356 0114 04EB6000 		add	r0, r4, r0, asr #1
 1357              	.L100:
 182:/home/jonas/warwick/3dProfilometer/xpcc/src/xpcc/driver/ui/display/graphic_display.cpp **** 		(this->*draw)(x + width - radius + x1, y + radius - y1);
 1358              		.loc 3 182 0 discriminator 3
 1359 0118 079A     		ldr	r2, [sp, #28]
 1360 011a AB18     		adds	r3, r5, r2
 1361 011c 1BB2     		sxth	r3, r3
 1362 011e 1946     		mov	r1, r3
 1363 0120 0093     		str	r3, [sp, #0]
 1364 0122 5A46     		mov	r2, fp
 1365 0124 E047     		blx	ip
 1366              	.LVL121:
 183:/home/jonas/warwick/3dProfilometer/xpcc/src/xpcc/driver/ui/display/graphic_display.cpp **** 		(this->*draw)(x + width - radius + x1, y + height - radius + y1);
 1367              		.loc 3 183 0 is_stmt 1 discriminator 3
 1368 0126 A069     		ldr	r0, [r4, #24]
 1369 0128 009B     		ldr	r3, [sp, #0]
 1370 012a C207     		lsls	r2, r0, #31
 1371 012c 49D4     		bmi	.L101
 183:/home/jonas/warwick/3dProfilometer/xpcc/src/xpcc/driver/ui/display/graphic_display.cpp **** 		(this->*draw)(x + width - radius + x1, y + height - radius + y1);
 1372              		.loc 3 183 0 is_stmt 0 discriminator 1
 1373 012e D4F814C0 		ldr	ip, [r4, #20]
 1374 0132 04EB6000 		add	r0, r4, r0, asr #1
 1375              	.L102:
 183:/home/jonas/warwick/3dProfilometer/xpcc/src/xpcc/driver/ui/display/graphic_display.cpp **** 		(this->*draw)(x + width - radius + x1, y + height - radius + y1);
 1376              		.loc 3 183 0 discriminator 3
 1377 0136 5246     		mov	r2, sl
 1378 0138 1946     		mov	r1, r3
 1379 013a E047     		blx	ip
 1380              	.LVL122:
 184:/home/jonas/warwick/3dProfilometer/xpcc/src/xpcc/driver/ui/display/graphic_display.cpp **** 		(this->*draw)(x + width - radius + y1, y + radius - x1);
 1381              		.loc 3 184 0 is_stmt 1 discriminator 3
 1382 013c A069     		ldr	r0, [r4, #24]
 1383 013e C207     		lsls	r2, r0, #31
 1384 0140 39D4     		bmi	.L103
 184:/home/jonas/warwick/3dProfilometer/xpcc/src/xpcc/driver/ui/display/graphic_display.cpp **** 		(this->*draw)(x + width - radius + y1, y + radius - x1);
 1385              		.loc 3 184 0 is_stmt 0 discriminator 1
 1386 0142 6369     		ldr	r3, [r4, #20]
 1387 0144 04EB6000 		add	r0, r4, r0, asr #1
 1388              	.L104:
 184:/home/jonas/warwick/3dProfilometer/xpcc/src/xpcc/driver/ui/display/graphic_display.cpp **** 		(this->*draw)(x + width - radius + y1, y + radius - x1);
 1389              		.loc 3 184 0 discriminator 3
 1390 0148 0799     		ldr	r1, [sp, #28]
 1391 014a 7618     		adds	r6, r6, r1
 1392 014c 36B2     		sxth	r6, r6
 1393 014e 3146     		mov	r1, r6
 1394 0150 4A46     		mov	r2, r9
 1395 0152 9847     		blx	r3
 1396              	.LVL123:
 185:/home/jonas/warwick/3dProfilometer/xpcc/src/xpcc/driver/ui/display/graphic_display.cpp **** 		(this->*draw)(x + width - radius + y1, y + height - radius + x1);
 1397              		.loc 3 185 0 is_stmt 1 discriminator 3
 1398 0154 A069     		ldr	r0, [r4, #24]
 1399 0156 C307     		lsls	r3, r0, #31
 1400 0158 27D4     		bmi	.L105
 185:/home/jonas/warwick/3dProfilometer/xpcc/src/xpcc/driver/ui/display/graphic_display.cpp **** 		(this->*draw)(x + width - radius + y1, y + height - radius + x1);
 1401              		.loc 3 185 0 is_stmt 0 discriminator 1
 1402 015a 6369     		ldr	r3, [r4, #20]
 1403 015c 04EB6000 		add	r0, r4, r0, asr #1
 1404              	.L106:
 185:/home/jonas/warwick/3dProfilometer/xpcc/src/xpcc/driver/ui/display/graphic_display.cpp **** 		(this->*draw)(x + width - radius + y1, y + height - radius + x1);
 1405              		.loc 3 185 0 discriminator 3
 1406 0160 3146     		mov	r1, r6
 1407 0162 4246     		mov	r2, r8
 1408 0164 9847     		blx	r3
 1409              	.LVL124:
 187:/home/jonas/warwick/3dProfilometer/xpcc/src/xpcc/driver/ui/display/graphic_display.cpp **** 		if (f < 0) {
 1410              		.loc 3 187 0 is_stmt 1 discriminator 3
 1411 0166 029B     		ldr	r3, [sp, #8]
 1412 0168 1904     		lsls	r1, r3, #16
 1413 016a 4CD4     		bmi	.L113
 192:/home/jonas/warwick/3dProfilometer/xpcc/src/xpcc/driver/ui/display/graphic_display.cpp **** 			y1--;
 1414              		.loc 3 192 0
 1415 016c 0198     		ldr	r0, [sp, #4]
 191:/home/jonas/warwick/3dProfilometer/xpcc/src/xpcc/driver/ui/display/graphic_display.cpp **** 			f += (4 * (x1 - y1) + 10);
 1416              		.loc 3 191 0
 1417 016e 03F10A02 		add	r2, r3, #10
 1418 0172 039B     		ldr	r3, [sp, #12]
 1419 0174 3DB2     		sxth	r5, r7
 1420 0176 ED1A     		subs	r5, r5, r3
 192:/home/jonas/warwick/3dProfilometer/xpcc/src/xpcc/driver/ui/display/graphic_display.cpp **** 			y1--;
 1421              		.loc 3 192 0
 1422 0178 431E     		subs	r3, r0, #1
 1423 017a 9BB2     		uxth	r3, r3
 194:/home/jonas/warwick/3dProfilometer/xpcc/src/xpcc/driver/ui/display/graphic_display.cpp **** 		x1++;
 1424              		.loc 3 194 0
 1425 017c 0137     		adds	r7, r7, #1
 192:/home/jonas/warwick/3dProfilometer/xpcc/src/xpcc/driver/ui/display/graphic_display.cpp **** 			y1--;
 1426              		.loc 3 192 0
 1427 017e 0193     		str	r3, [sp, #4]
 194:/home/jonas/warwick/3dProfilometer/xpcc/src/xpcc/driver/ui/display/graphic_display.cpp **** 		x1++;
 1428              		.loc 3 194 0
 1429 0180 BFB2     		uxth	r7, r7
 1430 0182 1BB2     		sxth	r3, r3
 1431 0184 1846     		mov	r0, r3
 191:/home/jonas/warwick/3dProfilometer/xpcc/src/xpcc/driver/ui/display/graphic_display.cpp **** 			f += (4 * (x1 - y1) + 10);
 1432              		.loc 3 191 0
 1433 0186 02EB8505 		add	r5, r2, r5, lsl #2
 1434 018a 0393     		str	r3, [sp, #12]
 175:/home/jonas/warwick/3dProfilometer/xpcc/src/xpcc/driver/ui/display/graphic_display.cpp **** 	while (x1 <= y1)
 1435              		.loc 3 175 0
 1436 018c 3BB2     		sxth	r3, r7
 191:/home/jonas/warwick/3dProfilometer/xpcc/src/xpcc/driver/ui/display/graphic_display.cpp **** 			f += (4 * (x1 - y1) + 10);
 1437              		.loc 3 191 0
 1438 018e ADB2     		uxth	r5, r5
 175:/home/jonas/warwick/3dProfilometer/xpcc/src/xpcc/driver/ui/display/graphic_display.cpp **** 	while (x1 <= y1)
 1439              		.loc 3 175 0
 1440 0190 9842     		cmp	r0, r3
 191:/home/jonas/warwick/3dProfilometer/xpcc/src/xpcc/driver/ui/display/graphic_display.cpp **** 			f += (4 * (x1 - y1) + 10);
 1441              		.loc 3 191 0
 1442 0192 0295     		str	r5, [sp, #8]
 1443              	.LVL125:
 175:/home/jonas/warwick/3dProfilometer/xpcc/src/xpcc/driver/ui/display/graphic_display.cpp **** 	while (x1 <= y1)
 1444              		.loc 3 175 0
 1445 0194 42DB     		blt	.L90
 1446              	.LVL126:
 1447              	.L88:
 177:/home/jonas/warwick/3dProfilometer/xpcc/src/xpcc/driver/ui/display/graphic_display.cpp **** 		(this->*draw)(x + radius - x1, y + radius - y1);
 1448              		.loc 3 177 0
 1449 0196 A069     		ldr	r0, [r4, #24]
 1450 0198 C107     		lsls	r1, r0, #31
 1451 019a 7FF570AF 		bpl	.L114
 177:/home/jonas/warwick/3dProfilometer/xpcc/src/xpcc/driver/ui/display/graphic_display.cpp **** 		(this->*draw)(x + radius - x1, y + radius - y1);
 1452              		.loc 3 177 0 is_stmt 0 discriminator 2
 1453 019e 4010     		asrs	r0, r0, #1
 1454 01a0 6369     		ldr	r3, [r4, #20]
 1455 01a2 2258     		ldr	r2, [r4, r0]
 1456 01a4 2018     		adds	r0, r4, r0
 1457 01a6 D358     		ldr	r3, [r2, r3]
 1458 01a8 6CE7     		b	.L92
 1459              	.L105:
 185:/home/jonas/warwick/3dProfilometer/xpcc/src/xpcc/driver/ui/display/graphic_display.cpp **** 		(this->*draw)(x + width - radius + y1, y + height - radius + x1);
 1460              		.loc 3 185 0 is_stmt 1 discriminator 2
 1461 01aa 4010     		asrs	r0, r0, #1
 1462 01ac 6369     		ldr	r3, [r4, #20]
 1463 01ae 2258     		ldr	r2, [r4, r0]
 1464 01b0 2018     		adds	r0, r4, r0
 1465 01b2 D358     		ldr	r3, [r2, r3]
 1466 01b4 D4E7     		b	.L106
 1467              	.L103:
 184:/home/jonas/warwick/3dProfilometer/xpcc/src/xpcc/driver/ui/display/graphic_display.cpp **** 		(this->*draw)(x + width - radius + y1, y + radius - x1);
 1468              		.loc 3 184 0 discriminator 2
 1469 01b6 4010     		asrs	r0, r0, #1
 1470 01b8 6369     		ldr	r3, [r4, #20]
 1471 01ba 2258     		ldr	r2, [r4, r0]
 1472 01bc 2018     		adds	r0, r4, r0
 1473 01be D358     		ldr	r3, [r2, r3]
 1474 01c0 C2E7     		b	.L104
 1475              	.L101:
 183:/home/jonas/warwick/3dProfilometer/xpcc/src/xpcc/driver/ui/display/graphic_display.cpp **** 		(this->*draw)(x + width - radius + x1, y + height - radius + y1);
 1476              		.loc 3 183 0 discriminator 2
 1477 01c2 4010     		asrs	r0, r0, #1
 1478 01c4 6269     		ldr	r2, [r4, #20]
 1479 01c6 2158     		ldr	r1, [r4, r0]
 1480 01c8 2018     		adds	r0, r4, r0
 1481 01ca 51F802C0 		ldr	ip, [r1, r2]
 1482 01ce B2E7     		b	.L102
 1483              	.L99:
 182:/home/jonas/warwick/3dProfilometer/xpcc/src/xpcc/driver/ui/display/graphic_display.cpp **** 		(this->*draw)(x + width - radius + x1, y + radius - y1);
 1484              		.loc 3 182 0 discriminator 2
 1485 01d0 4010     		asrs	r0, r0, #1
 1486 01d2 6369     		ldr	r3, [r4, #20]
 1487 01d4 2258     		ldr	r2, [r4, r0]
 1488 01d6 2018     		adds	r0, r4, r0
 1489 01d8 52F803C0 		ldr	ip, [r2, r3]
 1490 01dc 9CE7     		b	.L100
 1491              	.L97:
 180:/home/jonas/warwick/3dProfilometer/xpcc/src/xpcc/driver/ui/display/graphic_display.cpp **** 		(this->*draw)(x + radius - y1, y + height - radius + x1);
 1492              		.loc 3 180 0 discriminator 2
 1493 01de 4010     		asrs	r0, r0, #1
 1494 01e0 6269     		ldr	r2, [r4, #20]
 1495 01e2 2158     		ldr	r1, [r4, r0]
 1496 01e4 2018     		adds	r0, r4, r0
 1497 01e6 51F802C0 		ldr	ip, [r1, r2]
 1498 01ea 86E7     		b	.L98
 1499              	.L95:
 179:/home/jonas/warwick/3dProfilometer/xpcc/src/xpcc/driver/ui/display/graphic_display.cpp **** 		(this->*draw)(x + radius - y1, y + radius - x1);
 1500              		.loc 3 179 0 discriminator 2
 1501 01ec 4010     		asrs	r0, r0, #1
 1502 01ee 6369     		ldr	r3, [r4, #20]
 1503 01f0 2258     		ldr	r2, [r4, r0]
 1504 01f2 2018     		adds	r0, r4, r0
 1505 01f4 52F803C0 		ldr	ip, [r2, r3]
 1506 01f8 6BE7     		b	.L96
 1507              	.L93:
 178:/home/jonas/warwick/3dProfilometer/xpcc/src/xpcc/driver/ui/display/graphic_display.cpp **** 		(this->*draw)(x + radius - x1, y + height - radius + y1);
 1508              		.loc 3 178 0 discriminator 2
 1509 01fa 4010     		asrs	r0, r0, #1
 1510 01fc 6369     		ldr	r3, [r4, #20]
 1511 01fe 2258     		ldr	r2, [r4, r0]
 1512 0200 2018     		adds	r0, r4, r0
 1513 0202 D358     		ldr	r3, [r2, r3]
 1514 0204 55E7     		b	.L94
 1515              	.L113:
 194:/home/jonas/warwick/3dProfilometer/xpcc/src/xpcc/driver/ui/display/graphic_display.cpp **** 		x1++;
 1516              		.loc 3 194 0
 1517 0206 0137     		adds	r7, r7, #1
 188:/home/jonas/warwick/3dProfilometer/xpcc/src/xpcc/driver/ui/display/graphic_display.cpp **** 			f += (4 * x1 + 6);
 1518              		.loc 3 188 0
 1519 0208 0633     		adds	r3, r3, #6
 1520 020a 0398     		ldr	r0, [sp, #12]
 194:/home/jonas/warwick/3dProfilometer/xpcc/src/xpcc/driver/ui/display/graphic_display.cpp **** 		x1++;
 1521              		.loc 3 194 0
 1522 020c BFB2     		uxth	r7, r7
 188:/home/jonas/warwick/3dProfilometer/xpcc/src/xpcc/driver/ui/display/graphic_display.cpp **** 			f += (4 * x1 + 6);
 1523              		.loc 3 188 0
 1524 020e 03EB8505 		add	r5, r3, r5, lsl #2
 175:/home/jonas/warwick/3dProfilometer/xpcc/src/xpcc/driver/ui/display/graphic_display.cpp **** 	while (x1 <= y1)
 1525              		.loc 3 175 0
 1526 0212 3BB2     		sxth	r3, r7
 188:/home/jonas/warwick/3dProfilometer/xpcc/src/xpcc/driver/ui/display/graphic_display.cpp **** 			f += (4 * x1 + 6);
 1527              		.loc 3 188 0
 1528 0214 ADB2     		uxth	r5, r5
 175:/home/jonas/warwick/3dProfilometer/xpcc/src/xpcc/driver/ui/display/graphic_display.cpp **** 	while (x1 <= y1)
 1529              		.loc 3 175 0
 1530 0216 9842     		cmp	r0, r3
 188:/home/jonas/warwick/3dProfilometer/xpcc/src/xpcc/driver/ui/display/graphic_display.cpp **** 			f += (4 * x1 + 6);
 1531              		.loc 3 188 0
 1532 0218 0295     		str	r5, [sp, #8]
 1533              	.LVL127:
 175:/home/jonas/warwick/3dProfilometer/xpcc/src/xpcc/driver/ui/display/graphic_display.cpp **** 	while (x1 <= y1)
 1534              		.loc 3 175 0
 1535 021a BCDA     		bge	.L88
 1536              	.LVL128:
 1537              	.L90:
 197:/home/jonas/warwick/3dProfilometer/xpcc/src/xpcc/driver/ui/display/graphic_display.cpp **** 	this->drawHorizontalLine(glcd::Point(x + radius, y), width - (2 * radius));
 1538              		.loc 3 197 0
 1539 021c 0D9F     		ldr	r7, [sp, #52]
 1540 021e 0A98     		ldr	r0, [sp, #40]
 1541 0220 049E     		ldr	r6, [sp, #16]
 1542              	.LVL129:
 1543 0222 2368     		ldr	r3, [r4, #0]
 1544 0224 0899     		ldr	r1, [sp, #32]
 1545 0226 DB69     		ldr	r3, [r3, #28]
 1546              	.LBB347:
 1547              	.LBB348:
  49:/home/jonas/warwick/3dProfilometer/xpcc/src/xpcc/math/geometry/vector2_impl.hpp **** 	y(inY)
 1548              		.loc 4 49 0
 1549 0228 ADF84460 		strh	r6, [sp, #68]	@ movhi
 1550              	.LBE348:
 1551              	.LBE347:
 197:/home/jonas/warwick/3dProfilometer/xpcc/src/xpcc/driver/ui/display/graphic_display.cpp **** 	this->drawHorizontalLine(glcd::Point(x + radius, y), width - (2 * radius));
 1552              		.loc 3 197 0
 1553 022c 3D18     		adds	r5, r7, r0
 1554              	.LBB351:
 1555              	.LBB349:
  49:/home/jonas/warwick/3dProfilometer/xpcc/src/xpcc/math/geometry/vector2_impl.hpp **** 	y(inY)
 1556              		.loc 4 49 0
 1557 022e 0E9F     		ldr	r7, [sp, #56]
 1558              	.LBE349:
 1559              	.LBE351:
 197:/home/jonas/warwick/3dProfilometer/xpcc/src/xpcc/driver/ui/display/graphic_display.cpp **** 	this->drawHorizontalLine(glcd::Point(x + radius, y), width - (2 * radius));
 1560              		.loc 3 197 0
 1561 0230 ADB2     		uxth	r5, r5
 1562 0232 2046     		mov	r0, r4
 1563 0234 2A46     		mov	r2, r5
 1564              	.LBB352:
 1565              	.LBB350:
  49:/home/jonas/warwick/3dProfilometer/xpcc/src/xpcc/math/geometry/vector2_impl.hpp **** 	y(inY)
 1566              		.loc 4 49 0
 1567 0236 ADF84670 		strh	r7, [sp, #70]	@ movhi
 1568              	.LBE350:
 1569              	.LBE352:
 197:/home/jonas/warwick/3dProfilometer/xpcc/src/xpcc/driver/ui/display/graphic_display.cpp **** 	this->drawHorizontalLine(glcd::Point(x + radius, y), width - (2 * radius));
 1570              		.loc 3 197 0
 1571 023a 9847     		blx	r3
 1572              	.LVL130:
 198:/home/jonas/warwick/3dProfilometer/xpcc/src/xpcc/driver/ui/display/graphic_display.cpp **** 	this->drawHorizontalLine(glcd::Point(x + radius, y + height), width - (2 * radius));
 1573              		.loc 3 198 0
 1574 023c 0998     		ldr	r0, [sp, #36]
 1575 023e 0C99     		ldr	r1, [sp, #48]
 1576 0240 2368     		ldr	r3, [r4, #0]
 1577 0242 4718     		adds	r7, r0, r1
 1578 0244 DB69     		ldr	r3, [r3, #28]
 1579              	.LVL131:
 1580 0246 0899     		ldr	r1, [sp, #32]
 1581              	.LBB353:
 1582              	.LBB354:
  49:/home/jonas/warwick/3dProfilometer/xpcc/src/xpcc/math/geometry/vector2_impl.hpp **** 	y(inY)
 1583              		.loc 4 49 0
 1584 0248 ADF84460 		strh	r6, [sp, #68]	@ movhi
 1585              	.LBE354:
 1586              	.LBE353:
 198:/home/jonas/warwick/3dProfilometer/xpcc/src/xpcc/driver/ui/display/graphic_display.cpp **** 	this->drawHorizontalLine(glcd::Point(x + radius, y + height), width - (2 * radius));
 1587              		.loc 3 198 0
 1588 024c 2046     		mov	r0, r4
 1589 024e 2A46     		mov	r2, r5
 1590              	.LBB356:
 1591              	.LBB355:
  49:/home/jonas/warwick/3dProfilometer/xpcc/src/xpcc/math/geometry/vector2_impl.hpp **** 	y(inY)
 1592              		.loc 4 49 0
 1593 0250 ADF84670 		strh	r7, [sp, #70]	@ movhi
 1594              	.LBE355:
 1595              	.LBE356:
 198:/home/jonas/warwick/3dProfilometer/xpcc/src/xpcc/driver/ui/display/graphic_display.cpp **** 	this->drawHorizontalLine(glcd::Point(x + radius, y + height), width - (2 * radius));
 1596              		.loc 3 198 0
 1597 0254 9847     		blx	r3
 1598              	.LVL132:
 199:/home/jonas/warwick/3dProfilometer/xpcc/src/xpcc/driver/ui/display/graphic_display.cpp **** 	this->drawVerticalLine(glcd::Point(x, y + radius), height - (2 * radius));
 1599              		.loc 3 199 0
 1600 0256 0D9F     		ldr	r7, [sp, #52]
 1601 0258 0998     		ldr	r0, [sp, #36]
 1602 025a 059E     		ldr	r6, [sp, #20]
 1603              	.LVL133:
 1604 025c 2368     		ldr	r3, [r4, #0]
 1605 025e 0899     		ldr	r1, [sp, #32]
 1606 0260 1B6A     		ldr	r3, [r3, #32]
 1607              	.LBB357:
 1608              	.LBB358:
  49:/home/jonas/warwick/3dProfilometer/xpcc/src/xpcc/math/geometry/vector2_impl.hpp **** 	y(inY)
 1609              		.loc 4 49 0
 1610 0262 ADF84660 		strh	r6, [sp, #70]	@ movhi
 1611              	.LBE358:
 1612              	.LBE357:
 199:/home/jonas/warwick/3dProfilometer/xpcc/src/xpcc/driver/ui/display/graphic_display.cpp **** 	this->drawVerticalLine(glcd::Point(x, y + radius), height - (2 * radius));
 1613              		.loc 3 199 0
 1614 0266 3D18     		adds	r5, r7, r0
 1615              	.LBB361:
 1616              	.LBB359:
  49:/home/jonas/warwick/3dProfilometer/xpcc/src/xpcc/math/geometry/vector2_impl.hpp **** 	y(inY)
 1617              		.loc 4 49 0
 1618 0268 0F9F     		ldr	r7, [sp, #60]
 1619              	.LBE359:
 1620              	.LBE361:
 199:/home/jonas/warwick/3dProfilometer/xpcc/src/xpcc/driver/ui/display/graphic_display.cpp **** 	this->drawVerticalLine(glcd::Point(x, y + radius), height - (2 * radius));
 1621              		.loc 3 199 0
 1622 026a ADB2     		uxth	r5, r5
 1623              	.LBB362:
 1624              	.LBB360:
  49:/home/jonas/warwick/3dProfilometer/xpcc/src/xpcc/math/geometry/vector2_impl.hpp **** 	y(inY)
 1625              		.loc 4 49 0
 1626 026c ADF84470 		strh	r7, [sp, #68]	@ movhi
 1627              	.LBE360:
 1628              	.LBE362:
 199:/home/jonas/warwick/3dProfilometer/xpcc/src/xpcc/driver/ui/display/graphic_display.cpp **** 	this->drawVerticalLine(glcd::Point(x, y + radius), height - (2 * radius));
 1629              		.loc 3 199 0
 1630 0270 2046     		mov	r0, r4
 1631 0272 2A46     		mov	r2, r5
 1632 0274 9847     		blx	r3
 1633              	.LVL134:
 200:/home/jonas/warwick/3dProfilometer/xpcc/src/xpcc/driver/ui/display/graphic_display.cpp **** 	this->drawVerticalLine(glcd::Point(x + width, y + radius), height - (2 * radius));
 1634              		.loc 3 200 0
 1635 0276 0B98     		ldr	r0, [sp, #44]
 1636 0278 0A9F     		ldr	r7, [sp, #40]
 1637 027a 2368     		ldr	r3, [r4, #0]
 1638 027c 0899     		ldr	r1, [sp, #32]
 1639 027e 1B6A     		ldr	r3, [r3, #32]
 1640              	.LVL135:
 1641              	.LBB363:
 1642              	.LBB364:
  49:/home/jonas/warwick/3dProfilometer/xpcc/src/xpcc/math/geometry/vector2_impl.hpp **** 	y(inY)
 1643              		.loc 4 49 0
 1644 0280 ADF84660 		strh	r6, [sp, #70]	@ movhi
 1645              	.LBE364:
 1646              	.LBE363:
 200:/home/jonas/warwick/3dProfilometer/xpcc/src/xpcc/driver/ui/display/graphic_display.cpp **** 	this->drawVerticalLine(glcd::Point(x + width, y + radius), height - (2 * radius));
 1647              		.loc 3 200 0
 1648 0284 3A18     		adds	r2, r7, r0
 1649              	.LBB366:
 1650              	.LBB365:
  49:/home/jonas/warwick/3dProfilometer/xpcc/src/xpcc/math/geometry/vector2_impl.hpp **** 	y(inY)
 1651              		.loc 4 49 0
 1652 0286 ADF84420 		strh	r2, [sp, #68]	@ movhi
 1653              	.LBE365:
 1654              	.LBE366:
 200:/home/jonas/warwick/3dProfilometer/xpcc/src/xpcc/driver/ui/display/graphic_display.cpp **** 	this->drawVerticalLine(glcd::Point(x + width, y + radius), height - (2 * radius));
 1655              		.loc 3 200 0
 1656 028a 2046     		mov	r0, r4
 1657 028c 2A46     		mov	r2, r5
 1658 028e 9847     		blx	r3
 1659              	.LVL136:
 1660              	.LBE346:
 201:/home/jonas/warwick/3dProfilometer/xpcc/src/xpcc/driver/ui/display/graphic_display.cpp **** }
 1661              		.loc 3 201 0
 1662 0290 13B0     		add	sp, sp, #76
 1663 0292 BDE8F08F 		pop	{r4, r5, r6, r7, r8, r9, sl, fp, pc}
 1664              	.LVL137:
 1665              	.L112:
 1666              	.LBB387:
 1667              	.LBB367:
 1668              	.LBB368:
 1669              		.loc 4 99 0
 1670 0296 4F88     		ldrh	r7, [r1, #2]
 1671              	.LVL138:
 1672 0298 B1F80080 		ldrh	r8, [r1, #0]
 1673              	.LBE368:
 1674              	.LBE367:
 1675              	.LBB369:
 1676              	.LBB370:
 154:/home/jonas/warwick/3dProfilometer/xpcc/src/xpcc/driver/ui/display/graphic_display.cpp **** 	this->drawHorizontalLine(upperLeft,  width);
 1677              		.loc 3 154 0
 1678 029c 0368     		ldr	r3, [r0, #0]
 1679              	.LVL139:
 1680 029e 11A9     		add	r1, sp, #68
 1681              	.LVL140:
 1682 02a0 0891     		str	r1, [sp, #32]
 152:/home/jonas/warwick/3dProfilometer/xpcc/src/xpcc/driver/ui/display/graphic_display.cpp **** 	uint16_t y2 = upperLeft.getY() + height - 1;
 1683              		.loc 3 152 0
 1684 02a2 0999     		ldr	r1, [sp, #36]
 154:/home/jonas/warwick/3dProfilometer/xpcc/src/xpcc/driver/ui/display/graphic_display.cpp **** 	this->drawHorizontalLine(upperLeft,  width);
 1685              		.loc 3 154 0
 1686 02a4 DB69     		ldr	r3, [r3, #28]
 1687              	.LBB371:
 1688              	.LBB372:
 1689              		.loc 4 99 0
 1690 02a6 ADF84670 		strh	r7, [sp, #70]	@ movhi
 1691              	.LBE372:
 1692              	.LBE371:
 152:/home/jonas/warwick/3dProfilometer/xpcc/src/xpcc/driver/ui/display/graphic_display.cpp **** 	uint16_t y2 = upperLeft.getY() + height - 1;
 1693              		.loc 3 152 0
 1694 02aa 07F1FF3A 		add	sl, r7, #-1
 1695 02ae 8A44     		add	sl, r1, sl
 151:/home/jonas/warwick/3dProfilometer/xpcc/src/xpcc/driver/ui/display/graphic_display.cpp **** 	uint16_t x2 = upperLeft.getX() + width  - 1;
 1696              		.loc 3 151 0
 1697 02b0 08F1FF39 		add	r9, r8, #-1
 154:/home/jonas/warwick/3dProfilometer/xpcc/src/xpcc/driver/ui/display/graphic_display.cpp **** 	this->drawHorizontalLine(upperLeft,  width);
 1698              		.loc 3 154 0
 1699 02b4 0899     		ldr	r1, [sp, #32]
 1700              	.LBB374:
 1701              	.LBB373:
 1702              		.loc 4 99 0
 1703 02b6 ADF84480 		strh	r8, [sp, #68]	@ movhi
 1704              	.LBE373:
 1705              	.LBE374:
 151:/home/jonas/warwick/3dProfilometer/xpcc/src/xpcc/driver/ui/display/graphic_display.cpp **** 	uint16_t x2 = upperLeft.getX() + width  - 1;
 1706              		.loc 3 151 0
 1707 02ba 9144     		add	r9, r2, r9
 1708              	.LVL141:
 154:/home/jonas/warwick/3dProfilometer/xpcc/src/xpcc/driver/ui/display/graphic_display.cpp **** 	this->drawHorizontalLine(upperLeft,  width);
 1709              		.loc 3 154 0
 1710 02bc 9847     		blx	r3
 1711              	.LVL142:
 155:/home/jonas/warwick/3dProfilometer/xpcc/src/xpcc/driver/ui/display/graphic_display.cpp **** 	this->drawHorizontalLine(glcd::Point(upperLeft.getX(), y2), width);
 1712              		.loc 3 155 0
 1713 02be 2368     		ldr	r3, [r4, #0]
 1714 02c0 0899     		ldr	r1, [sp, #32]
 1715 02c2 DB69     		ldr	r3, [r3, #28]
 1716              	.LVL143:
 1717 02c4 0A9A     		ldr	r2, [sp, #40]
 1718              	.LBB375:
 1719              	.LBB376:
  49:/home/jonas/warwick/3dProfilometer/xpcc/src/xpcc/math/geometry/vector2_impl.hpp **** 	y(inY)
 1720              		.loc 4 49 0
 1721 02c6 ADF84480 		strh	r8, [sp, #68]	@ movhi
 1722              	.LBE376:
 1723              	.LBE375:
 155:/home/jonas/warwick/3dProfilometer/xpcc/src/xpcc/driver/ui/display/graphic_display.cpp **** 	this->drawHorizontalLine(glcd::Point(upperLeft.getX(), y2), width);
 1724              		.loc 3 155 0
 1725 02ca 2046     		mov	r0, r4
 1726              	.LBB378:
 1727              	.LBB377:
  49:/home/jonas/warwick/3dProfilometer/xpcc/src/xpcc/math/geometry/vector2_impl.hpp **** 	y(inY)
 1728              		.loc 4 49 0
 1729 02cc ADF846A0 		strh	sl, [sp, #70]	@ movhi
 1730              	.LBE377:
 1731              	.LBE378:
 155:/home/jonas/warwick/3dProfilometer/xpcc/src/xpcc/driver/ui/display/graphic_display.cpp **** 	this->drawHorizontalLine(glcd::Point(upperLeft.getX(), y2), width);
 1732              		.loc 3 155 0
 1733 02d0 9847     		blx	r3
 1734              	.LVL144:
 156:/home/jonas/warwick/3dProfilometer/xpcc/src/xpcc/driver/ui/display/graphic_display.cpp **** 	this->drawVerticalLine(upperLeft, height);
 1735              		.loc 3 156 0
 1736 02d2 2368     		ldr	r3, [r4, #0]
 1737 02d4 0899     		ldr	r1, [sp, #32]
 1738 02d6 1B6A     		ldr	r3, [r3, #32]
 1739              	.LVL145:
 1740 02d8 099A     		ldr	r2, [sp, #36]
 1741              	.LBB379:
 1742              	.LBB380:
 1743              		.loc 4 99 0
 1744 02da ADF84670 		strh	r7, [sp, #70]	@ movhi
 1745              	.LBE380:
 1746              	.LBE379:
 156:/home/jonas/warwick/3dProfilometer/xpcc/src/xpcc/driver/ui/display/graphic_display.cpp **** 	this->drawVerticalLine(upperLeft, height);
 1747              		.loc 3 156 0
 1748 02de 2046     		mov	r0, r4
 1749              	.LBB382:
 1750              	.LBB381:
 1751              		.loc 4 99 0
 1752 02e0 ADF84480 		strh	r8, [sp, #68]	@ movhi
 1753              	.LBE381:
 1754              	.LBE382:
 156:/home/jonas/warwick/3dProfilometer/xpcc/src/xpcc/driver/ui/display/graphic_display.cpp **** 	this->drawVerticalLine(upperLeft, height);
 1755              		.loc 3 156 0
 1756 02e4 9847     		blx	r3
 1757              	.LVL146:
 157:/home/jonas/warwick/3dProfilometer/xpcc/src/xpcc/driver/ui/display/graphic_display.cpp **** 	this->drawVerticalLine(glcd::Point(x2, upperLeft.getY()), height);
 1758              		.loc 3 157 0
 1759 02e6 2368     		ldr	r3, [r4, #0]
 1760 02e8 0899     		ldr	r1, [sp, #32]
 1761 02ea 1B6A     		ldr	r3, [r3, #32]
 1762              	.LVL147:
 1763 02ec 099A     		ldr	r2, [sp, #36]
 1764              	.LBB383:
 1765              	.LBB384:
  49:/home/jonas/warwick/3dProfilometer/xpcc/src/xpcc/math/geometry/vector2_impl.hpp **** 	y(inY)
 1766              		.loc 4 49 0
 1767 02ee ADF84670 		strh	r7, [sp, #70]	@ movhi
 1768              	.LBE384:
 1769              	.LBE383:
 157:/home/jonas/warwick/3dProfilometer/xpcc/src/xpcc/driver/ui/display/graphic_display.cpp **** 	this->drawVerticalLine(glcd::Point(x2, upperLeft.getY()), height);
 1770              		.loc 3 157 0
 1771 02f2 2046     		mov	r0, r4
 1772              	.LBB386:
 1773              	.LBB385:
  49:/home/jonas/warwick/3dProfilometer/xpcc/src/xpcc/math/geometry/vector2_impl.hpp **** 	y(inY)
 1774              		.loc 4 49 0
 1775 02f4 ADF84490 		strh	r9, [sp, #68]	@ movhi
 1776              	.LBE385:
 1777              	.LBE386:
 157:/home/jonas/warwick/3dProfilometer/xpcc/src/xpcc/driver/ui/display/graphic_display.cpp **** 	this->drawVerticalLine(glcd::Point(x2, upperLeft.getY()), height);
 1778              		.loc 3 157 0
 1779 02f8 9847     		blx	r3
 1780              	.LVL148:
 1781              	.LBE370:
 1782              	.LBE369:
 168:/home/jonas/warwick/3dProfilometer/xpcc/src/xpcc/driver/ui/display/graphic_display.cpp **** 	const int16_t x = upperLeft.getX();
 1783              		.loc 3 168 0
 1784 02fa 3388     		ldrh	r3, [r6, #0]
 169:/home/jonas/warwick/3dProfilometer/xpcc/src/xpcc/driver/ui/display/graphic_display.cpp **** 	const int16_t y = upperLeft.getY();
 1785              		.loc 3 169 0
 1786 02fc 7688     		ldrh	r6, [r6, #2]
 1787              	.LVL149:
 168:/home/jonas/warwick/3dProfilometer/xpcc/src/xpcc/driver/ui/display/graphic_display.cpp **** 	const int16_t x = upperLeft.getX();
 1788              		.loc 3 168 0
 1789 02fe 0F93     		str	r3, [sp, #60]
 1790              	.LVL150:
 173:/home/jonas/warwick/3dProfilometer/xpcc/src/xpcc/driver/ui/display/graphic_display.cpp ****   	int16_t f = 3 - 2 * radius;
 1791              		.loc 3 173 0
 1792 0300 0327     		movs	r7, #3
 1793 0302 0297     		str	r7, [sp, #8]
 169:/home/jonas/warwick/3dProfilometer/xpcc/src/xpcc/driver/ui/display/graphic_display.cpp **** 	const int16_t y = upperLeft.getY();
 1794              		.loc 3 169 0
 1795 0304 0E96     		str	r6, [sp, #56]
 1796              	.LVL151:
 173:/home/jonas/warwick/3dProfilometer/xpcc/src/xpcc/driver/ui/display/graphic_display.cpp ****   	int16_t f = 3 - 2 * radius;
 1797              		.loc 3 173 0
 1798 0306 0D95     		str	r5, [sp, #52]
 172:/home/jonas/warwick/3dProfilometer/xpcc/src/xpcc/driver/ui/display/graphic_display.cpp **** 	int16_t y1 = radius;
 1799              		.loc 3 172 0
 1800 0308 0195     		str	r5, [sp, #4]
 1801 030a 0395     		str	r5, [sp, #12]
 1802 030c 3746     		mov	r7, r6
 1803 030e 9BE6     		b	.L89
 1804              	.LVL152:
 1805              	.L111:
 1806 0310 BBB2     		uxth	r3, r7
 1807 0312 0E9F     		ldr	r7, [sp, #56]
 1808 0314 0B93     		str	r3, [sp, #44]
 1809 0316 BFB2     		uxth	r7, r7
 1810 0318 EB18     		adds	r3, r5, r3
 1811 031a 9BB2     		uxth	r3, r3
 1812 031c ED19     		adds	r5, r5, r7
 1813 031e 0493     		str	r3, [sp, #16]
 1814 0320 ADB2     		uxth	r5, r5
 1815 0322 11AB     		add	r3, sp, #68
 1816 0324 0C97     		str	r7, [sp, #48]
 1817 0326 0595     		str	r5, [sp, #20]
 1818 0328 0893     		str	r3, [sp, #32]
 1819 032a 77E7     		b	.L90
 1820              	.LBE387:
 1821              		.cfi_endproc
 1822              	.LFE1215:
 1824              		.section	.text._ZN4xpcc14GraphicDisplay10drawCircleENS_6VectorIsLh2EEEt,"ax",%progbits
 1825              		.align	2
 1826              		.global	_ZN4xpcc14GraphicDisplay10drawCircleENS_6VectorIsLh2EEEt
 1827              		.thumb
 1828              		.thumb_func
 1830              	_ZN4xpcc14GraphicDisplay10drawCircleENS_6VectorIsLh2EEEt:
 1831              	.LFB1216:
 205:/home/jonas/warwick/3dProfilometer/xpcc/src/xpcc/driver/ui/display/graphic_display.cpp **** {
 1832              		.loc 3 205 0
 1833              		.cfi_startproc
 1834              		@ args = 0, pretend = 0, frame = 24
 1835              		@ frame_needed = 0, uses_anonymous_args = 0
 1836              	.LVL153:
 1837 0000 2DE9F04F 		push	{r4, r5, r6, r7, r8, r9, sl, fp, lr}
 1838              	.LCFI15:
 1839              		.cfi_def_cfa_offset 36
 1840              		.cfi_offset 4, -36
 1841              		.cfi_offset 5, -32
 1842              		.cfi_offset 6, -28
 1843              		.cfi_offset 7, -24
 1844              		.cfi_offset 8, -20
 1845              		.cfi_offset 9, -16
 1846              		.cfi_offset 10, -12
 1847              		.cfi_offset 11, -8
 1848              		.cfi_offset 14, -4
 1849 0004 87B0     		sub	sp, sp, #28
 1850              	.LCFI16:
 1851              		.cfi_def_cfa_offset 64
 205:/home/jonas/warwick/3dProfilometer/xpcc/src/xpcc/driver/ui/display/graphic_display.cpp **** {
 1852              		.loc 3 205 0
 1853 0006 0446     		mov	r4, r0
 1854              	.LBB404:
 206:/home/jonas/warwick/3dProfilometer/xpcc/src/xpcc/driver/ui/display/graphic_display.cpp **** 	if (radius == 0) {
 1855              		.loc 3 206 0
 1856 0008 0492     		str	r2, [sp, #16]
 1857              	.LBE404:
 205:/home/jonas/warwick/3dProfilometer/xpcc/src/xpcc/driver/ui/display/graphic_display.cpp **** {
 1858              		.loc 3 205 0
 1859 000a 8846     		mov	r8, r1
 1860              	.LBB437:
 206:/home/jonas/warwick/3dProfilometer/xpcc/src/xpcc/driver/ui/display/graphic_display.cpp **** 	if (radius == 0) {
 1861              		.loc 3 206 0
 1862 000c 002A     		cmp	r2, #0
 1863 000e 00F03481 		beq	.L115
 211:/home/jonas/warwick/3dProfilometer/xpcc/src/xpcc/driver/ui/display/graphic_display.cpp **** 	int16_t x = radius;
 1864              		.loc 3 211 0
 1865 0012 93B2     		uxth	r3, r2
 1866 0014 0293     		str	r3, [sp, #8]
 214:/home/jonas/warwick/3dProfilometer/xpcc/src/xpcc/driver/ui/display/graphic_display.cpp **** 	while (x > y)
 1867              		.loc 3 214 0
 1868 0016 0299     		ldr	r1, [sp, #8]
 1869              	.LVL154:
 210:/home/jonas/warwick/3dProfilometer/xpcc/src/xpcc/driver/ui/display/graphic_display.cpp **** 	int16_t error = -radius;
 1870              		.loc 3 210 0
 1871 0018 5342     		negs	r3, r2
 214:/home/jonas/warwick/3dProfilometer/xpcc/src/xpcc/driver/ui/display/graphic_display.cpp **** 	while (x > y)
 1872              		.loc 3 214 0
 1873 001a 09B2     		sxth	r1, r1
 210:/home/jonas/warwick/3dProfilometer/xpcc/src/xpcc/driver/ui/display/graphic_display.cpp **** 	int16_t error = -radius;
 1874              		.loc 3 210 0
 1875 001c 9BB2     		uxth	r3, r3
 214:/home/jonas/warwick/3dProfilometer/xpcc/src/xpcc/driver/ui/display/graphic_display.cpp **** 	while (x > y)
 1876              		.loc 3 214 0
 1877 001e 0029     		cmp	r1, #0
 1878 0020 0591     		str	r1, [sp, #20]
 210:/home/jonas/warwick/3dProfilometer/xpcc/src/xpcc/driver/ui/display/graphic_display.cpp **** 	int16_t error = -radius;
 1879              		.loc 3 210 0
 1880 0022 0393     		str	r3, [sp, #12]
 1881              	.LVL155:
 214:/home/jonas/warwick/3dProfilometer/xpcc/src/xpcc/driver/ui/display/graphic_display.cpp **** 	while (x > y)
 1882              		.loc 3 214 0
 1883 0024 40F3E280 		ble	.L165
 1884 0028 029B     		ldr	r3, [sp, #8]
 1885 002a 0027     		movs	r7, #0
 1886 002c 9DB2     		uxth	r5, r3
 1887 002e 3E46     		mov	r6, r7
 1888 0030 A4E0     		b	.L117
 1889              	.LVL156:
 1890              	.L166:
 1891              	.LBB405:
 1892              	.LBB406:
 239:/home/jonas/warwick/3dProfilometer/xpcc/src/xpcc/driver/ui/display/graphic_display.cpp **** 	(this->*draw)(cx + x, cy + y);
 1893              		.loc 3 239 0
 1894 0032 6369     		ldr	r3, [r4, #20]
 1895 0034 04EB6000 		add	r0, r4, r0, asr #1
 1896              	.L120:
 1897 0038 1FFA8CFC 		uxth	ip, ip
 1898 003c 1FFA89F9 		uxth	r9, r9
 1899 0040 05EB0C0A 		add	sl, r5, ip
 1900 0044 06EB090B 		add	fp, r6, r9
 1901 0048 0FFA8AFA 		sxth	sl, sl
 1902 004c 0FFA8BFB 		sxth	fp, fp
 1903 0050 CDF804C0 		str	ip, [sp, #4]
 1904 0054 5146     		mov	r1, sl
 1905 0056 5A46     		mov	r2, fp
 1906 0058 9847     		blx	r3
 1907              	.LVL157:
 240:/home/jonas/warwick/3dProfilometer/xpcc/src/xpcc/driver/ui/display/graphic_display.cpp **** 	(this->*draw)(cx - x, cy - y);
 1908              		.loc 3 240 0
 1909 005a A069     		ldr	r0, [r4, #24]
 239:/home/jonas/warwick/3dProfilometer/xpcc/src/xpcc/driver/ui/display/graphic_display.cpp **** 	(this->*draw)(cx + x, cy + y);
 1910              		.loc 3 239 0
 1911 005c 0495     		str	r5, [sp, #16]
 240:/home/jonas/warwick/3dProfilometer/xpcc/src/xpcc/driver/ui/display/graphic_display.cpp **** 	(this->*draw)(cx - x, cy - y);
 1912              		.loc 3 240 0
 1913 005e 10F0010F 		tst	r0, #1
 1914 0062 DDF804C0 		ldr	ip, [sp, #4]
 1915 0066 40F0A380 		bne	.L121
 1916 006a 6369     		ldr	r3, [r4, #20]
 1917 006c 04EB6000 		add	r0, r4, r0, asr #1
 1918              	.L122:
 1919 0070 C5EB0C0C 		rsb	ip, r5, ip
 1920 0074 C6EB0909 		rsb	r9, r6, r9
 1921 0078 0FFA8CFC 		sxth	ip, ip
 1922 007c 0FFA89F9 		sxth	r9, r9
 1923 0080 6146     		mov	r1, ip
 1924 0082 CDF804C0 		str	ip, [sp, #4]
 1925 0086 4A46     		mov	r2, r9
 1926 0088 9847     		blx	r3
 1927              	.LVL158:
 242:/home/jonas/warwick/3dProfilometer/xpcc/src/xpcc/driver/ui/display/graphic_display.cpp **** 		(this->*draw)(cx - x, cy + y);
 1928              		.loc 3 242 0
 1929 008a A069     		ldr	r0, [r4, #24]
 1930 008c DDF804C0 		ldr	ip, [sp, #4]
 1931 0090 C107     		lsls	r1, r0, #31
 1932 0092 00F19F80 		bmi	.L123
 1933 0096 6369     		ldr	r3, [r4, #20]
 1934 0098 04EB6000 		add	r0, r4, r0, asr #1
 1935              	.L124:
 1936 009c 6146     		mov	r1, ip
 1937 009e 5A46     		mov	r2, fp
 1938 00a0 9847     		blx	r3
 1939              	.LVL159:
 244:/home/jonas/warwick/3dProfilometer/xpcc/src/xpcc/driver/ui/display/graphic_display.cpp **** 	if (y != 0) {
 1940              		.loc 3 244 0
 1941 00a2 4FB1     		cbz	r7, .L125
 245:/home/jonas/warwick/3dProfilometer/xpcc/src/xpcc/driver/ui/display/graphic_display.cpp **** 		(this->*draw)(cx + x, cy - y);
 1942              		.loc 3 245 0
 1943 00a4 A069     		ldr	r0, [r4, #24]
 1944 00a6 C107     		lsls	r1, r0, #31
 1945 00a8 00F18E80 		bmi	.L126
 1946 00ac 6369     		ldr	r3, [r4, #20]
 1947 00ae 04EB6000 		add	r0, r4, r0, asr #1
 1948              	.L127:
 1949 00b2 5146     		mov	r1, sl
 1950 00b4 4A46     		mov	r2, r9
 1951 00b6 9847     		blx	r3
 1952              	.LVL160:
 1953              	.L125:
 1954              	.LBE406:
 1955              	.LBE405:
 1956              	.LBB411:
 1957              	.LBB412:
 239:/home/jonas/warwick/3dProfilometer/xpcc/src/xpcc/driver/ui/display/graphic_display.cpp **** 	(this->*draw)(cx + x, cy + y);
 1958              		.loc 3 239 0
 1959 00b8 A069     		ldr	r0, [r4, #24]
 1960              	.LBE412:
 1961              	.LBE411:
 1962              	.LBB417:
 1963              	.LBB418:
 1964              		.loc 4 99 0
 1965 00ba B8F800C0 		ldrh	ip, [r8, #0]
 1966 00be B8F80290 		ldrh	r9, [r8, #2]
 1967              	.LVL161:
 1968              	.LBE418:
 1969              	.LBE417:
 1970              	.LBB419:
 1971              	.LBB413:
 239:/home/jonas/warwick/3dProfilometer/xpcc/src/xpcc/driver/ui/display/graphic_display.cpp **** 	(this->*draw)(cx + x, cy + y);
 1972              		.loc 3 239 0
 1973 00c2 C207     		lsls	r2, r0, #31
 1974 00c4 6ED4     		bmi	.L128
 1975 00c6 6369     		ldr	r3, [r4, #20]
 1976 00c8 04EB6000 		add	r0, r4, r0, asr #1
 1977              	.L129:
 1978 00cc 1FFA8CFC 		uxth	ip, ip
 1979 00d0 1FFA89F9 		uxth	r9, r9
 1980 00d4 06EB0C0A 		add	sl, r6, ip
 1981 00d8 05EB090B 		add	fp, r5, r9
 1982 00dc 0FFA8AFA 		sxth	sl, sl
 1983 00e0 0FFA8BFB 		sxth	fp, fp
 1984 00e4 CDF804C0 		str	ip, [sp, #4]
 1985 00e8 5146     		mov	r1, sl
 1986 00ea 5A46     		mov	r2, fp
 1987 00ec 9847     		blx	r3
 1988              	.LVL162:
 240:/home/jonas/warwick/3dProfilometer/xpcc/src/xpcc/driver/ui/display/graphic_display.cpp **** 	(this->*draw)(cx - x, cy - y);
 1989              		.loc 3 240 0
 1990 00ee A069     		ldr	r0, [r4, #24]
 1991 00f0 DDF804C0 		ldr	ip, [sp, #4]
 1992 00f4 C207     		lsls	r2, r0, #31
 1993 00f6 4FD4     		bmi	.L130
 1994 00f8 6369     		ldr	r3, [r4, #20]
 1995 00fa 04EB6000 		add	r0, r4, r0, asr #1
 1996              	.L131:
 1997 00fe C6EB0C0C 		rsb	ip, r6, ip
 1998 0102 C5EB0909 		rsb	r9, r5, r9
 1999 0106 0FFA8CFC 		sxth	ip, ip
 2000 010a 0FFA89F9 		sxth	r9, r9
 2001 010e 6146     		mov	r1, ip
 2002 0110 CDF804C0 		str	ip, [sp, #4]
 2003 0114 4A46     		mov	r2, r9
 2004 0116 9847     		blx	r3
 2005              	.LVL163:
 241:/home/jonas/warwick/3dProfilometer/xpcc/src/xpcc/driver/ui/display/graphic_display.cpp **** 	if (x != 0) {
 2006              		.loc 3 241 0
 2007 0118 DDF804C0 		ldr	ip, [sp, #4]
 2008 011c 47B1     		cbz	r7, .L132
 242:/home/jonas/warwick/3dProfilometer/xpcc/src/xpcc/driver/ui/display/graphic_display.cpp **** 		(this->*draw)(cx - x, cy + y);
 2009              		.loc 3 242 0
 2010 011e A069     		ldr	r0, [r4, #24]
 2011 0120 C307     		lsls	r3, r0, #31
 2012 0122 5DD4     		bmi	.L133
 2013 0124 6369     		ldr	r3, [r4, #20]
 2014 0126 04EB6000 		add	r0, r4, r0, asr #1
 2015              	.L134:
 2016 012a 6146     		mov	r1, ip
 2017 012c 5A46     		mov	r2, fp
 2018 012e 9847     		blx	r3
 2019              	.LVL164:
 2020              	.L132:
 245:/home/jonas/warwick/3dProfilometer/xpcc/src/xpcc/driver/ui/display/graphic_display.cpp **** 		(this->*draw)(cx + x, cy - y);
 2021              		.loc 3 245 0
 2022 0130 A069     		ldr	r0, [r4, #24]
 2023 0132 C107     		lsls	r1, r0, #31
 2024 0134 42D4     		bmi	.L135
 2025 0136 6369     		ldr	r3, [r4, #20]
 2026 0138 04EB6000 		add	r0, r4, r0, asr #1
 2027              	.L136:
 2028 013c 4A46     		mov	r2, r9
 2029 013e 5146     		mov	r1, sl
 2030 0140 9847     		blx	r3
 2031              	.LVL165:
 2032              	.LBE413:
 2033              	.LBE419:
 220:/home/jonas/warwick/3dProfilometer/xpcc/src/xpcc/driver/ui/display/graphic_display.cpp **** 		++y;
 2034              		.loc 3 220 0
 2035 0142 0137     		adds	r7, r7, #1
 2036              	.LVL166:
 219:/home/jonas/warwick/3dProfilometer/xpcc/src/xpcc/driver/ui/display/graphic_display.cpp **** 		error += y;
 2037              		.loc 3 219 0
 2038 0144 0399     		ldr	r1, [sp, #12]
 220:/home/jonas/warwick/3dProfilometer/xpcc/src/xpcc/driver/ui/display/graphic_display.cpp **** 		++y;
 2039              		.loc 3 220 0
 2040 0146 BFB2     		uxth	r7, r7
 2041              	.LVL167:
 219:/home/jonas/warwick/3dProfilometer/xpcc/src/xpcc/driver/ui/display/graphic_display.cpp **** 		error += y;
 2042              		.loc 3 219 0
 2043 0148 7318     		adds	r3, r6, r1
 2044              	.LVL168:
 221:/home/jonas/warwick/3dProfilometer/xpcc/src/xpcc/driver/ui/display/graphic_display.cpp **** 		error += y;
 2045              		.loc 3 221 0
 2046 014a BEB2     		uxth	r6, r7
 2047 014c 16FA83F3 		uxtah	r3, r6, r3
 2048              	.LVL169:
 2049 0150 9BB2     		uxth	r3, r3
 2050 0152 9AB2     		uxth	r2, r3
 2051 0154 0392     		str	r2, [sp, #12]
 2052              	.LVL170:
 223:/home/jonas/warwick/3dProfilometer/xpcc/src/xpcc/driver/ui/display/graphic_display.cpp **** 		if (error >= 0)
 2053              		.loc 3 223 0
 2054 0156 1204     		lsls	r2, r2, #16
 221:/home/jonas/warwick/3dProfilometer/xpcc/src/xpcc/driver/ui/display/graphic_display.cpp **** 		error += y;
 2055              		.loc 3 221 0
 2056 0158 B146     		mov	r9, r6
 223:/home/jonas/warwick/3dProfilometer/xpcc/src/xpcc/driver/ui/display/graphic_display.cpp **** 		if (error >= 0)
 2057              		.loc 3 223 0
 2058 015a 0BD4     		bmi	.L137
 225:/home/jonas/warwick/3dProfilometer/xpcc/src/xpcc/driver/ui/display/graphic_display.cpp **** 			--x;
 2059              		.loc 3 225 0
 2060 015c 0299     		ldr	r1, [sp, #8]
 2061 015e 4A1E     		subs	r2, r1, #1
 2062 0160 92B2     		uxth	r2, r2
 226:/home/jonas/warwick/3dProfilometer/xpcc/src/xpcc/driver/ui/display/graphic_display.cpp **** 			error -= x;
 2063              		.loc 3 226 0
 2064 0162 95B2     		uxth	r5, r2
 227:/home/jonas/warwick/3dProfilometer/xpcc/src/xpcc/driver/ui/display/graphic_display.cpp **** 			error -= x;
 2065              		.loc 3 227 0
 2066 0164 A3EB4503 		sub	r3, r3, r5, lsl #1
 2067 0168 9BB2     		uxth	r3, r3
 2068 016a 0393     		str	r3, [sp, #12]
 2069 016c 13B2     		sxth	r3, r2
 225:/home/jonas/warwick/3dProfilometer/xpcc/src/xpcc/driver/ui/display/graphic_display.cpp **** 			--x;
 2070              		.loc 3 225 0
 2071 016e 0292     		str	r2, [sp, #8]
 2072              	.LVL171:
 226:/home/jonas/warwick/3dProfilometer/xpcc/src/xpcc/driver/ui/display/graphic_display.cpp **** 			error -= x;
 2073              		.loc 3 226 0
 2074 0170 0495     		str	r5, [sp, #16]
 2075 0172 0593     		str	r3, [sp, #20]
 2076              	.L137:
 214:/home/jonas/warwick/3dProfilometer/xpcc/src/xpcc/driver/ui/display/graphic_display.cpp **** 	while (x > y)
 2077              		.loc 3 214 0 discriminator 1
 2078 0174 0599     		ldr	r1, [sp, #20]
 2079 0176 3BB2     		sxth	r3, r7
 2080 0178 8B42     		cmp	r3, r1
 2081 017a 3ADA     		bge	.L118
 2082              	.LVL172:
 2083              	.L117:
 2084              	.LBB420:
 2085              	.LBB407:
 239:/home/jonas/warwick/3dProfilometer/xpcc/src/xpcc/driver/ui/display/graphic_display.cpp **** 	(this->*draw)(cx + x, cy + y);
 2086              		.loc 3 239 0
 2087 017c A069     		ldr	r0, [r4, #24]
 2088              	.LBE407:
 2089              	.LBE420:
 2090              	.LBB421:
 2091              	.LBB422:
 2092              		.loc 4 99 0
 2093 017e B8F800C0 		ldrh	ip, [r8, #0]
 2094 0182 B8F80290 		ldrh	r9, [r8, #2]
 2095              	.LVL173:
 2096              	.LBE422:
 2097              	.LBE421:
 2098              	.LBB423:
 2099              	.LBB408:
 239:/home/jonas/warwick/3dProfilometer/xpcc/src/xpcc/driver/ui/display/graphic_display.cpp **** 	(this->*draw)(cx + x, cy + y);
 2100              		.loc 3 239 0
 2101 0186 C307     		lsls	r3, r0, #31
 2102 0188 7FF553AF 		bpl	.L166
 2103 018c 4010     		asrs	r0, r0, #1
 2104 018e 6369     		ldr	r3, [r4, #20]
 2105 0190 2258     		ldr	r2, [r4, r0]
 2106 0192 2018     		adds	r0, r4, r0
 2107 0194 D358     		ldr	r3, [r2, r3]
 2108 0196 4FE7     		b	.L120
 2109              	.LVL174:
 2110              	.L130:
 2111              	.LBE408:
 2112              	.LBE423:
 2113              	.LBB424:
 2114              	.LBB414:
 240:/home/jonas/warwick/3dProfilometer/xpcc/src/xpcc/driver/ui/display/graphic_display.cpp **** 	(this->*draw)(cx - x, cy - y);
 2115              		.loc 3 240 0
 2116 0198 4010     		asrs	r0, r0, #1
 2117 019a 6369     		ldr	r3, [r4, #20]
 2118 019c 2258     		ldr	r2, [r4, r0]
 2119 019e 2018     		adds	r0, r4, r0
 2120 01a0 D358     		ldr	r3, [r2, r3]
 2121 01a2 ACE7     		b	.L131
 2122              	.LVL175:
 2123              	.L128:
 239:/home/jonas/warwick/3dProfilometer/xpcc/src/xpcc/driver/ui/display/graphic_display.cpp **** 	(this->*draw)(cx + x, cy + y);
 2124              		.loc 3 239 0
 2125 01a4 4010     		asrs	r0, r0, #1
 2126 01a6 6369     		ldr	r3, [r4, #20]
 2127 01a8 2258     		ldr	r2, [r4, r0]
 2128 01aa 2018     		adds	r0, r4, r0
 2129 01ac D358     		ldr	r3, [r2, r3]
 2130 01ae 8DE7     		b	.L129
 2131              	.LVL176:
 2132              	.L121:
 2133              	.LBE414:
 2134              	.LBE424:
 2135              	.LBB425:
 2136              	.LBB409:
 240:/home/jonas/warwick/3dProfilometer/xpcc/src/xpcc/driver/ui/display/graphic_display.cpp **** 	(this->*draw)(cx - x, cy - y);
 2137              		.loc 3 240 0
 2138 01b0 4010     		asrs	r0, r0, #1
 2139 01b2 6369     		ldr	r3, [r4, #20]
 2140 01b4 2258     		ldr	r2, [r4, r0]
 2141 01b6 2018     		adds	r0, r4, r0
 2142 01b8 D358     		ldr	r3, [r2, r3]
 2143 01ba 59E7     		b	.L122
 2144              	.LVL177:
 2145              	.L135:
 2146              	.LBE409:
 2147              	.LBE425:
 2148              	.LBB426:
 2149              	.LBB415:
 245:/home/jonas/warwick/3dProfilometer/xpcc/src/xpcc/driver/ui/display/graphic_display.cpp **** 		(this->*draw)(cx + x, cy - y);
 2150              		.loc 3 245 0
 2151 01bc 4010     		asrs	r0, r0, #1
 2152 01be 6369     		ldr	r3, [r4, #20]
 2153 01c0 2258     		ldr	r2, [r4, r0]
 2154 01c2 2018     		adds	r0, r4, r0
 2155 01c4 D358     		ldr	r3, [r2, r3]
 2156 01c6 B9E7     		b	.L136
 2157              	.LVL178:
 2158              	.L126:
 2159              	.LBE415:
 2160              	.LBE426:
 2161              	.LBB427:
 2162              	.LBB410:
 2163 01c8 4010     		asrs	r0, r0, #1
 2164 01ca 6369     		ldr	r3, [r4, #20]
 2165 01cc 2258     		ldr	r2, [r4, r0]
 2166 01ce 2018     		adds	r0, r4, r0
 2167 01d0 D358     		ldr	r3, [r2, r3]
 2168 01d2 6EE7     		b	.L127
 2169              	.L123:
 242:/home/jonas/warwick/3dProfilometer/xpcc/src/xpcc/driver/ui/display/graphic_display.cpp **** 		(this->*draw)(cx - x, cy + y);
 2170              		.loc 3 242 0
 2171 01d4 4010     		asrs	r0, r0, #1
 2172 01d6 6369     		ldr	r3, [r4, #20]
 2173 01d8 2258     		ldr	r2, [r4, r0]
 2174 01da 2018     		adds	r0, r4, r0
 2175 01dc D358     		ldr	r3, [r2, r3]
 2176 01de 5DE7     		b	.L124
 2177              	.LVL179:
 2178              	.L133:
 2179              	.LBE410:
 2180              	.LBE427:
 2181              	.LBB428:
 2182              	.LBB416:
 2183 01e0 4010     		asrs	r0, r0, #1
 2184 01e2 6369     		ldr	r3, [r4, #20]
 2185 01e4 2258     		ldr	r2, [r4, r0]
 2186 01e6 2018     		adds	r0, r4, r0
 2187 01e8 D358     		ldr	r3, [r2, r3]
 2188 01ea 9EE7     		b	.L134
 2189              	.LVL180:
 2190              	.L165:
 2191              	.LBE416:
 2192              	.LBE428:
 214:/home/jonas/warwick/3dProfilometer/xpcc/src/xpcc/driver/ui/display/graphic_display.cpp **** 	while (x > y)
 2193              		.loc 3 214 0
 2194 01ec 4FF00009 		mov	r9, #0
 212:/home/jonas/warwick/3dProfilometer/xpcc/src/xpcc/driver/ui/display/graphic_display.cpp **** 	int16_t y = 0;
 2195              		.loc 3 212 0
 2196 01f0 4F46     		mov	r7, r9
 2197              	.LVL181:
 2198              	.L118:
 2199              	.LBB429:
 2200              	.LBB430:
 239:/home/jonas/warwick/3dProfilometer/xpcc/src/xpcc/driver/ui/display/graphic_display.cpp **** 	(this->*draw)(cx + x, cy + y);
 2201              		.loc 3 239 0
 2202 01f2 A069     		ldr	r0, [r4, #24]
 2203              	.LBE430:
 2204              	.LBE429:
 2205              	.LBB433:
 2206              	.LBB434:
 2207              		.loc 4 99 0
 2208 01f4 B8F800A0 		ldrh	sl, [r8, #0]
 2209 01f8 B8F80250 		ldrh	r5, [r8, #2]
 2210              	.LVL182:
 2211              	.LBE434:
 2212              	.LBE433:
 2213              	.LBB435:
 2214              	.LBB431:
 239:/home/jonas/warwick/3dProfilometer/xpcc/src/xpcc/driver/ui/display/graphic_display.cpp **** 	(this->*draw)(cx + x, cy + y);
 2215              		.loc 3 239 0
 2216 01fc C607     		lsls	r6, r0, #31
 2217 01fe 3FD5     		bpl	.L167
 2218 0200 4010     		asrs	r0, r0, #1
 2219 0202 6369     		ldr	r3, [r4, #20]
 2220 0204 2258     		ldr	r2, [r4, r0]
 2221 0206 D358     		ldr	r3, [r2, r3]
 2222 0208 2018     		adds	r0, r4, r0
 2223              	.L139:
 2224 020a 049A     		ldr	r2, [sp, #16]
 2225 020c 1FFA8AFA 		uxth	sl, sl
 2226 0210 ADB2     		uxth	r5, r5
 2227 0212 0AEB0206 		add	r6, sl, r2
 2228 0216 05EB0908 		add	r8, r5, r9
 2229              	.LVL183:
 2230 021a 36B2     		sxth	r6, r6
 2231 021c 0FFA88F8 		sxth	r8, r8
 2232 0220 3146     		mov	r1, r6
 2233 0222 4246     		mov	r2, r8
 2234 0224 9847     		blx	r3
 2235              	.LVL184:
 240:/home/jonas/warwick/3dProfilometer/xpcc/src/xpcc/driver/ui/display/graphic_display.cpp **** 	(this->*draw)(cx - x, cy - y);
 2236              		.loc 3 240 0
 2237 0226 A069     		ldr	r0, [r4, #24]
 2238 0228 C107     		lsls	r1, r0, #31
 2239 022a 2DD4     		bmi	.L140
 2240 022c 6369     		ldr	r3, [r4, #20]
 2241 022e 04EB6000 		add	r0, r4, r0, asr #1
 2242              	.L141:
 2243 0232 0499     		ldr	r1, [sp, #16]
 2244 0234 C9EB0505 		rsb	r5, r9, r5
 2245 0238 C1EB0A0A 		rsb	sl, r1, sl
 2246 023c 0FFA8AFA 		sxth	sl, sl
 2247 0240 2DB2     		sxth	r5, r5
 2248 0242 5146     		mov	r1, sl
 2249 0244 2A46     		mov	r2, r5
 2250 0246 9847     		blx	r3
 2251              	.LVL185:
 241:/home/jonas/warwick/3dProfilometer/xpcc/src/xpcc/driver/ui/display/graphic_display.cpp **** 	if (x != 0) {
 2252              		.loc 3 241 0
 2253 0248 029B     		ldr	r3, [sp, #8]
 2254 024a 53B1     		cbz	r3, .L142
 242:/home/jonas/warwick/3dProfilometer/xpcc/src/xpcc/driver/ui/display/graphic_display.cpp **** 		(this->*draw)(cx - x, cy + y);
 2255              		.loc 3 242 0
 2256 024c A069     		ldr	r0, [r4, #24]
 2257 024e C207     		lsls	r2, r0, #31
 2258 0250 24D5     		bpl	.L168
 2259 0252 4010     		asrs	r0, r0, #1
 2260 0254 6369     		ldr	r3, [r4, #20]
 2261 0256 2258     		ldr	r2, [r4, r0]
 2262 0258 D358     		ldr	r3, [r2, r3]
 2263 025a 2018     		adds	r0, r4, r0
 2264              	.L144:
 2265 025c 5146     		mov	r1, sl
 2266 025e 4246     		mov	r2, r8
 2267 0260 9847     		blx	r3
 2268              	.LVL186:
 2269              	.L142:
 244:/home/jonas/warwick/3dProfilometer/xpcc/src/xpcc/driver/ui/display/graphic_display.cpp **** 	if (y != 0) {
 2270              		.loc 3 244 0
 2271 0262 57B1     		cbz	r7, .L115
 245:/home/jonas/warwick/3dProfilometer/xpcc/src/xpcc/driver/ui/display/graphic_display.cpp **** 		(this->*draw)(cx + x, cy - y);
 2272              		.loc 3 245 0
 2273 0264 A069     		ldr	r0, [r4, #24]
 2274 0266 C307     		lsls	r3, r0, #31
 2275 0268 14D5     		bpl	.L169
 2276 026a 4010     		asrs	r0, r0, #1
 2277 026c 6369     		ldr	r3, [r4, #20]
 2278 026e 2258     		ldr	r2, [r4, r0]
 2279 0270 D358     		ldr	r3, [r2, r3]
 2280 0272 2018     		adds	r0, r4, r0
 2281              	.L147:
 2282 0274 3146     		mov	r1, r6
 2283 0276 2A46     		mov	r2, r5
 2284 0278 9847     		blx	r3
 2285              	.LVL187:
 2286              	.L115:
 2287              	.LBE431:
 2288              	.LBE435:
 2289              	.LBE437:
 231:/home/jonas/warwick/3dProfilometer/xpcc/src/xpcc/driver/ui/display/graphic_display.cpp **** }
 2290              		.loc 3 231 0
 2291 027a 07B0     		add	sp, sp, #28
 2292 027c BDE8F08F 		pop	{r4, r5, r6, r7, r8, r9, sl, fp, pc}
 2293              	.LVL188:
 2294              	.L167:
 2295              	.LBB438:
 2296              	.LBB436:
 2297              	.LBB432:
 239:/home/jonas/warwick/3dProfilometer/xpcc/src/xpcc/driver/ui/display/graphic_display.cpp **** 	(this->*draw)(cx + x, cy + y);
 2298              		.loc 3 239 0
