   1              		.syntax unified
   2              		.cpu cortex-m4
   3              		.eabi_attribute 27, 3
   4              		.fpu fpv4-sp-d16
   5              		.eabi_attribute 20, 1
   6              		.eabi_attribute 21, 1
   7              		.eabi_attribute 23, 3
   8              		.eabi_attribute 24, 1
   9              		.eabi_attribute 25, 1
  10              		.eabi_attribute 26, 1
  11              		.eabi_attribute 30, 2
  12              		.eabi_attribute 34, 1
  13              		.eabi_attribute 18, 4
  14              		.thumb
  15              		.file	"virtual_graphic_display.cpp"
  16              		.text
  17              	.Ltext0:
  18              		.cfi_sections	.debug_frame
  19              		.section	.text._ZNK4xpcc21VirtualGraphicDisplay8getWidthEv,"axG",%progbits,_ZNK4xpcc21VirtualGraph
  20              		.align	2
  21              		.weak	_ZNK4xpcc21VirtualGraphicDisplay8getWidthEv
  22              		.thumb
  23              		.thumb_func
  25              	_ZNK4xpcc21VirtualGraphicDisplay8getWidthEv:
  26              	.LFB1202:
  27              		.file 1 "/home/jonas/warwick/3dProfilometer/xpcc/src/xpcc/driver/ui/display/virtual_graphic_displa
   1:/home/jonas/warwick/3dProfilometer/xpcc/src/xpcc/driver/ui/display/virtual_graphic_display.hpp **** // coding: utf-8
   2:/home/jonas/warwick/3dProfilometer/xpcc/src/xpcc/driver/ui/display/virtual_graphic_display.hpp **** // ----------------------------------------------------------------------------
   3:/home/jonas/warwick/3dProfilometer/xpcc/src/xpcc/driver/ui/display/virtual_graphic_display.hpp **** /* Copyright (c) 2013, Roboterclub Aachen e.V.
   4:/home/jonas/warwick/3dProfilometer/xpcc/src/xpcc/driver/ui/display/virtual_graphic_display.hpp ****  * All rights reserved.
   5:/home/jonas/warwick/3dProfilometer/xpcc/src/xpcc/driver/ui/display/virtual_graphic_display.hpp ****  *
   6:/home/jonas/warwick/3dProfilometer/xpcc/src/xpcc/driver/ui/display/virtual_graphic_display.hpp ****  * Redistribution and use in source and binary forms, with or without
   7:/home/jonas/warwick/3dProfilometer/xpcc/src/xpcc/driver/ui/display/virtual_graphic_display.hpp ****  * modification, are permitted provided that the following conditions are met:
   8:/home/jonas/warwick/3dProfilometer/xpcc/src/xpcc/driver/ui/display/virtual_graphic_display.hpp ****  *
   9:/home/jonas/warwick/3dProfilometer/xpcc/src/xpcc/driver/ui/display/virtual_graphic_display.hpp ****  *     * Redistributions of source code must retain the above copyright
  10:/home/jonas/warwick/3dProfilometer/xpcc/src/xpcc/driver/ui/display/virtual_graphic_display.hpp ****  *       notice, this list of conditions and the following disclaimer.
  11:/home/jonas/warwick/3dProfilometer/xpcc/src/xpcc/driver/ui/display/virtual_graphic_display.hpp ****  *     * Redistributions in binary form must reproduce the above copyright
  12:/home/jonas/warwick/3dProfilometer/xpcc/src/xpcc/driver/ui/display/virtual_graphic_display.hpp ****  *       notice, this list of conditions and the following disclaimer in the
  13:/home/jonas/warwick/3dProfilometer/xpcc/src/xpcc/driver/ui/display/virtual_graphic_display.hpp ****  *       documentation and/or other materials provided with the distribution.
  14:/home/jonas/warwick/3dProfilometer/xpcc/src/xpcc/driver/ui/display/virtual_graphic_display.hpp ****  *     * Neither the name of the Roboterclub Aachen e.V. nor the
  15:/home/jonas/warwick/3dProfilometer/xpcc/src/xpcc/driver/ui/display/virtual_graphic_display.hpp ****  *       names of its contributors may be used to endorse or promote products
  16:/home/jonas/warwick/3dProfilometer/xpcc/src/xpcc/driver/ui/display/virtual_graphic_display.hpp ****  *       derived from this software without specific prior written permission.
  17:/home/jonas/warwick/3dProfilometer/xpcc/src/xpcc/driver/ui/display/virtual_graphic_display.hpp ****  *
  18:/home/jonas/warwick/3dProfilometer/xpcc/src/xpcc/driver/ui/display/virtual_graphic_display.hpp ****  * THIS SOFTWARE IS PROVIDED BY ROBOTERCLUB AACHEN E.V. ''AS IS'' AND ANY
  19:/home/jonas/warwick/3dProfilometer/xpcc/src/xpcc/driver/ui/display/virtual_graphic_display.hpp ****  * EXPRESS OR IMPLIED WARRANTIES, INCLUDING, BUT NOT LIMITED TO, THE IMPLIED
  20:/home/jonas/warwick/3dProfilometer/xpcc/src/xpcc/driver/ui/display/virtual_graphic_display.hpp ****  * WARRANTIES OF MERCHANTABILITY AND FITNESS FOR A PARTICULAR PURPOSE ARE
  21:/home/jonas/warwick/3dProfilometer/xpcc/src/xpcc/driver/ui/display/virtual_graphic_display.hpp ****  * DISCLAIMED. IN NO EVENT SHALL ROBOTERCLUB AACHEN E.V. BE LIABLE FOR ANY
  22:/home/jonas/warwick/3dProfilometer/xpcc/src/xpcc/driver/ui/display/virtual_graphic_display.hpp ****  * DIRECT, INDIRECT, INCIDENTAL, SPECIAL, EXEMPLARY, OR CONSEQUENTIAL DAMAGES
  23:/home/jonas/warwick/3dProfilometer/xpcc/src/xpcc/driver/ui/display/virtual_graphic_display.hpp ****  * (INCLUDING, BUT NOT LIMITED TO, PROCUREMENT OF SUBSTITUTE GOODS OR SERVICES;
  24:/home/jonas/warwick/3dProfilometer/xpcc/src/xpcc/driver/ui/display/virtual_graphic_display.hpp ****  * LOSS OF USE, DATA, OR PROFITS; OR BUSINESS INTERRUPTION) HOWEVER CAUSED AND
  25:/home/jonas/warwick/3dProfilometer/xpcc/src/xpcc/driver/ui/display/virtual_graphic_display.hpp ****  * ON ANY THEORY OF LIABILITY, WHETHER IN CONTRACT, STRICT LIABILITY, OR TORT
  26:/home/jonas/warwick/3dProfilometer/xpcc/src/xpcc/driver/ui/display/virtual_graphic_display.hpp ****  * (INCLUDING NEGLIGENCE OR OTHERWISE) ARISING IN ANY WAY OUT OF THE USE OF
  27:/home/jonas/warwick/3dProfilometer/xpcc/src/xpcc/driver/ui/display/virtual_graphic_display.hpp ****  * THIS SOFTWARE, EVEN IF ADVISED OF THE POSSIBILITY OF SUCH DAMAGE.
  28:/home/jonas/warwick/3dProfilometer/xpcc/src/xpcc/driver/ui/display/virtual_graphic_display.hpp ****  */
  29:/home/jonas/warwick/3dProfilometer/xpcc/src/xpcc/driver/ui/display/virtual_graphic_display.hpp **** // ----------------------------------------------------------------------------
  30:/home/jonas/warwick/3dProfilometer/xpcc/src/xpcc/driver/ui/display/virtual_graphic_display.hpp **** 
  31:/home/jonas/warwick/3dProfilometer/xpcc/src/xpcc/driver/ui/display/virtual_graphic_display.hpp **** #ifndef XPCC__VIRTUAL_GRAPHIC_DISPLAY
  32:/home/jonas/warwick/3dProfilometer/xpcc/src/xpcc/driver/ui/display/virtual_graphic_display.hpp **** #define XPCC__VIRTUAL_GRAPHIC_DISPLAY
  33:/home/jonas/warwick/3dProfilometer/xpcc/src/xpcc/driver/ui/display/virtual_graphic_display.hpp **** 
  34:/home/jonas/warwick/3dProfilometer/xpcc/src/xpcc/driver/ui/display/virtual_graphic_display.hpp **** #include <xpcc/driver/ui/display/graphic_display.hpp>
  35:/home/jonas/warwick/3dProfilometer/xpcc/src/xpcc/driver/ui/display/virtual_graphic_display.hpp **** 
  36:/home/jonas/warwick/3dProfilometer/xpcc/src/xpcc/driver/ui/display/virtual_graphic_display.hpp **** namespace xpcc
  37:/home/jonas/warwick/3dProfilometer/xpcc/src/xpcc/driver/ui/display/virtual_graphic_display.hpp **** {
  38:/home/jonas/warwick/3dProfilometer/xpcc/src/xpcc/driver/ui/display/virtual_graphic_display.hpp **** 	class VirtualGraphicDisplay:
  39:/home/jonas/warwick/3dProfilometer/xpcc/src/xpcc/driver/ui/display/virtual_graphic_display.hpp **** 			public xpcc::GraphicDisplay
  40:/home/jonas/warwick/3dProfilometer/xpcc/src/xpcc/driver/ui/display/virtual_graphic_display.hpp **** 	{
  41:/home/jonas/warwick/3dProfilometer/xpcc/src/xpcc/driver/ui/display/virtual_graphic_display.hpp **** 	public:
  42:/home/jonas/warwick/3dProfilometer/xpcc/src/xpcc/driver/ui/display/virtual_graphic_display.hpp **** 		VirtualGraphicDisplay(xpcc::GraphicDisplay* display,
  43:/home/jonas/warwick/3dProfilometer/xpcc/src/xpcc/driver/ui/display/virtual_graphic_display.hpp **** 				xpcc::glcd::Point leftUpper, xpcc::glcd::Point rightLower);
  44:/home/jonas/warwick/3dProfilometer/xpcc/src/xpcc/driver/ui/display/virtual_graphic_display.hpp **** 
  45:/home/jonas/warwick/3dProfilometer/xpcc/src/xpcc/driver/ui/display/virtual_graphic_display.hpp **** 		void
  46:/home/jonas/warwick/3dProfilometer/xpcc/src/xpcc/driver/ui/display/virtual_graphic_display.hpp **** 		setDisplay(xpcc::GraphicDisplay* display);
  47:/home/jonas/warwick/3dProfilometer/xpcc/src/xpcc/driver/ui/display/virtual_graphic_display.hpp **** 
  48:/home/jonas/warwick/3dProfilometer/xpcc/src/xpcc/driver/ui/display/virtual_graphic_display.hpp **** 		virtual inline uint16_t
  49:/home/jonas/warwick/3dProfilometer/xpcc/src/xpcc/driver/ui/display/virtual_graphic_display.hpp **** 		getWidth() const
  28              		.loc 1 49 0
  29              		.cfi_startproc
  30              		@ args = 0, pretend = 0, frame = 0
  31              		@ frame_needed = 0, uses_anonymous_args = 0
  32              		@ link register save eliminated.
  33              	.LVL0:
  50:/home/jonas/warwick/3dProfilometer/xpcc/src/xpcc/driver/ui/display/virtual_graphic_display.hpp **** 		{
  51:/home/jonas/warwick/3dProfilometer/xpcc/src/xpcc/driver/ui/display/virtual_graphic_display.hpp **** 			return this->width;
  52:/home/jonas/warwick/3dProfilometer/xpcc/src/xpcc/driver/ui/display/virtual_graphic_display.hpp **** 		}
  34              		.loc 1 52 0
  35 0000 808E     		ldrh	r0, [r0, #52]
  36              	.LVL1:
  37 0002 7047     		bx	lr
  38              		.cfi_endproc
  39              	.LFE1202:
  41              		.section	.text._ZNK4xpcc21VirtualGraphicDisplay9getHeightEv,"axG",%progbits,_ZNK4xpcc21VirtualGrap
  42              		.align	2
  43              		.weak	_ZNK4xpcc21VirtualGraphicDisplay9getHeightEv
  44              		.thumb
  45              		.thumb_func
  47              	_ZNK4xpcc21VirtualGraphicDisplay9getHeightEv:
  48              	.LFB1203:
  53:/home/jonas/warwick/3dProfilometer/xpcc/src/xpcc/driver/ui/display/virtual_graphic_display.hpp **** 
  54:/home/jonas/warwick/3dProfilometer/xpcc/src/xpcc/driver/ui/display/virtual_graphic_display.hpp **** 		virtual inline uint16_t
  55:/home/jonas/warwick/3dProfilometer/xpcc/src/xpcc/driver/ui/display/virtual_graphic_display.hpp **** 		getHeight() const
  49              		.loc 1 55 0
  50              		.cfi_startproc
  51              		@ args = 0, pretend = 0, frame = 0
  52              		@ frame_needed = 0, uses_anonymous_args = 0
  53              		@ link register save eliminated.
  54              	.LVL2:
  56:/home/jonas/warwick/3dProfilometer/xpcc/src/xpcc/driver/ui/display/virtual_graphic_display.hpp **** 		{
  57:/home/jonas/warwick/3dProfilometer/xpcc/src/xpcc/driver/ui/display/virtual_graphic_display.hpp **** 			return this->height;
  58:/home/jonas/warwick/3dProfilometer/xpcc/src/xpcc/driver/ui/display/virtual_graphic_display.hpp **** 		}
  55              		.loc 1 58 0
  56 0000 C08E     		ldrh	r0, [r0, #54]
  57              	.LVL3:
  58 0002 7047     		bx	lr
  59              		.cfi_endproc
  60              	.LFE1203:
  62              		.section	.text._ZN4xpcc21VirtualGraphicDisplay6updateEv,"ax",%progbits
  63              		.align	2
  64              		.global	_ZN4xpcc21VirtualGraphicDisplay6updateEv
  65              		.thumb
  66              		.thumb_func
  68              	_ZN4xpcc21VirtualGraphicDisplay6updateEv:
  69              	.LFB1209:
  70              		.file 2 "/home/jonas/warwick/3dProfilometer/xpcc/src/xpcc/driver/ui/display/virtual_graphic_displa
   1:/home/jonas/warwick/3dProfilometer/xpcc/src/xpcc/driver/ui/display/virtual_graphic_display.cpp **** #include "virtual_graphic_display.hpp"
   2:/home/jonas/warwick/3dProfilometer/xpcc/src/xpcc/driver/ui/display/virtual_graphic_display.cpp **** 
   3:/home/jonas/warwick/3dProfilometer/xpcc/src/xpcc/driver/ui/display/virtual_graphic_display.cpp **** xpcc::VirtualGraphicDisplay::VirtualGraphicDisplay(xpcc::GraphicDisplay* display,
   4:/home/jonas/warwick/3dProfilometer/xpcc/src/xpcc/driver/ui/display/virtual_graphic_display.cpp **** 		xpcc::glcd::Point leftUpper, xpcc::glcd::Point rightLower):
   5:/home/jonas/warwick/3dProfilometer/xpcc/src/xpcc/driver/ui/display/virtual_graphic_display.cpp **** 		display(display), leftUpper(leftUpper), rightLower(rightLower),
   6:/home/jonas/warwick/3dProfilometer/xpcc/src/xpcc/driver/ui/display/virtual_graphic_display.cpp **** 		width(static_cast<uint16_t>(this->rightLower[0] - this->leftUpper[0])),
   7:/home/jonas/warwick/3dProfilometer/xpcc/src/xpcc/driver/ui/display/virtual_graphic_display.cpp **** 		height(static_cast<uint16_t>(this->rightLower[1] - this->leftUpper[1]))
   8:/home/jonas/warwick/3dProfilometer/xpcc/src/xpcc/driver/ui/display/virtual_graphic_display.cpp **** {
   9:/home/jonas/warwick/3dProfilometer/xpcc/src/xpcc/driver/ui/display/virtual_graphic_display.cpp **** }
  10:/home/jonas/warwick/3dProfilometer/xpcc/src/xpcc/driver/ui/display/virtual_graphic_display.cpp **** 
  11:/home/jonas/warwick/3dProfilometer/xpcc/src/xpcc/driver/ui/display/virtual_graphic_display.cpp **** void
  12:/home/jonas/warwick/3dProfilometer/xpcc/src/xpcc/driver/ui/display/virtual_graphic_display.cpp **** xpcc::VirtualGraphicDisplay::setDisplay(xpcc::GraphicDisplay* display)
  13:/home/jonas/warwick/3dProfilometer/xpcc/src/xpcc/driver/ui/display/virtual_graphic_display.cpp **** {
  14:/home/jonas/warwick/3dProfilometer/xpcc/src/xpcc/driver/ui/display/virtual_graphic_display.cpp **** 	this->display = display;
  15:/home/jonas/warwick/3dProfilometer/xpcc/src/xpcc/driver/ui/display/virtual_graphic_display.cpp **** 	return;
  16:/home/jonas/warwick/3dProfilometer/xpcc/src/xpcc/driver/ui/display/virtual_graphic_display.cpp **** }
  17:/home/jonas/warwick/3dProfilometer/xpcc/src/xpcc/driver/ui/display/virtual_graphic_display.cpp **** 
  18:/home/jonas/warwick/3dProfilometer/xpcc/src/xpcc/driver/ui/display/virtual_graphic_display.cpp **** void
  19:/home/jonas/warwick/3dProfilometer/xpcc/src/xpcc/driver/ui/display/virtual_graphic_display.cpp **** xpcc::VirtualGraphicDisplay::clear()
  20:/home/jonas/warwick/3dProfilometer/xpcc/src/xpcc/driver/ui/display/virtual_graphic_display.cpp **** {
  21:/home/jonas/warwick/3dProfilometer/xpcc/src/xpcc/driver/ui/display/virtual_graphic_display.cpp **** 	//TODO switch black , white
  22:/home/jonas/warwick/3dProfilometer/xpcc/src/xpcc/driver/ui/display/virtual_graphic_display.cpp **** 	this->display->setColor(glcd::Color::black());
  23:/home/jonas/warwick/3dProfilometer/xpcc/src/xpcc/driver/ui/display/virtual_graphic_display.cpp **** 	this->display->fillRectangle(this->leftUpper, width, height);
  24:/home/jonas/warwick/3dProfilometer/xpcc/src/xpcc/driver/ui/display/virtual_graphic_display.cpp **** 	this->display->setColor(glcd::Color::white());
  25:/home/jonas/warwick/3dProfilometer/xpcc/src/xpcc/driver/ui/display/virtual_graphic_display.cpp **** }
  26:/home/jonas/warwick/3dProfilometer/xpcc/src/xpcc/driver/ui/display/virtual_graphic_display.cpp **** 
  27:/home/jonas/warwick/3dProfilometer/xpcc/src/xpcc/driver/ui/display/virtual_graphic_display.cpp **** void
  28:/home/jonas/warwick/3dProfilometer/xpcc/src/xpcc/driver/ui/display/virtual_graphic_display.cpp **** xpcc::VirtualGraphicDisplay::update()
  29:/home/jonas/warwick/3dProfilometer/xpcc/src/xpcc/driver/ui/display/virtual_graphic_display.cpp **** {
  71              		.loc 2 29 0
  72              		.cfi_startproc
  73              		@ args = 0, pretend = 0, frame = 0
  74              		@ frame_needed = 0, uses_anonymous_args = 0
  75              	.LVL4:
  30:/home/jonas/warwick/3dProfilometer/xpcc/src/xpcc/driver/ui/display/virtual_graphic_display.cpp **** 	this->display->update();
  76              		.loc 2 30 0
  77 0000 806A     		ldr	r0, [r0, #40]
  78              	.LVL5:
  29:/home/jonas/warwick/3dProfilometer/xpcc/src/xpcc/driver/ui/display/virtual_graphic_display.cpp **** {
  79              		.loc 2 29 0
  80 0002 08B5     		push	{r3, lr}
  81              	.LCFI0:
  82              		.cfi_def_cfa_offset 8
  83              		.cfi_offset 3, -8
  84              		.cfi_offset 14, -4
  85              		.loc 2 30 0
  86 0004 0368     		ldr	r3, [r0, #0]
  87 0006 5B69     		ldr	r3, [r3, #20]
  88 0008 9847     		blx	r3
  89              	.LVL6:
  90 000a 08BD     		pop	{r3, pc}
  91              		.cfi_endproc
  92              	.LFE1209:
  94              		.section	.text._ZN4xpcc21VirtualGraphicDisplay8setPixelEss,"ax",%progbits
  95              		.align	2
  96              		.global	_ZN4xpcc21VirtualGraphicDisplay8setPixelEss
  97              		.thumb
  98              		.thumb_func
 100              	_ZN4xpcc21VirtualGraphicDisplay8setPixelEss:
 101              	.LFB1210:
  31:/home/jonas/warwick/3dProfilometer/xpcc/src/xpcc/driver/ui/display/virtual_graphic_display.cpp **** 	return;
  32:/home/jonas/warwick/3dProfilometer/xpcc/src/xpcc/driver/ui/display/virtual_graphic_display.cpp **** }
  33:/home/jonas/warwick/3dProfilometer/xpcc/src/xpcc/driver/ui/display/virtual_graphic_display.cpp **** 
  34:/home/jonas/warwick/3dProfilometer/xpcc/src/xpcc/driver/ui/display/virtual_graphic_display.cpp **** void
  35:/home/jonas/warwick/3dProfilometer/xpcc/src/xpcc/driver/ui/display/virtual_graphic_display.cpp **** xpcc::VirtualGraphicDisplay::setPixel(int16_t x, int16_t y)
  36:/home/jonas/warwick/3dProfilometer/xpcc/src/xpcc/driver/ui/display/virtual_graphic_display.cpp **** {
 102              		.loc 2 36 0
 103              		.cfi_startproc
 104              		@ args = 0, pretend = 0, frame = 0
 105              		@ frame_needed = 0, uses_anonymous_args = 0
 106              	.LVL7:
 107 0000 38B5     		push	{r3, r4, r5, lr}
 108              	.LCFI1:
 109              		.cfi_def_cfa_offset 16
 110              		.cfi_offset 3, -16
 111              		.cfi_offset 4, -12
 112              		.cfi_offset 5, -8
 113              		.cfi_offset 14, -4
 114              		.loc 2 36 0
 115 0002 0346     		mov	r3, r0
  37:/home/jonas/warwick/3dProfilometer/xpcc/src/xpcc/driver/ui/display/virtual_graphic_display.cpp **** 	this->display->setPixel(x + this->leftUpper[0], y + this->leftUpper[1]);
 116              		.loc 2 37 0
 117 0004 806A     		ldr	r0, [r0, #40]
 118              	.LVL8:
 119 0006 9D8D     		ldrh	r5, [r3, #44]
 120 0008 DC8D     		ldrh	r4, [r3, #46]
 121 000a 0368     		ldr	r3, [r0, #0]
 122              	.LVL9:
 123 000c 4919     		adds	r1, r1, r5
 124              	.LVL10:
 125 000e 1219     		adds	r2, r2, r4
 126              	.LVL11:
 127 0010 5B6A     		ldr	r3, [r3, #36]
 128 0012 09B2     		sxth	r1, r1
 129 0014 12B2     		sxth	r2, r2
 130 0016 9847     		blx	r3
 131              	.LVL12:
 132 0018 38BD     		pop	{r3, r4, r5, pc}
 133              		.cfi_endproc
 134              	.LFE1210:
 136 001a 00BF     		.section	.text._ZN4xpcc21VirtualGraphicDisplay10clearPixelEss,"ax",%progbits
 137              		.align	2
 138              		.global	_ZN4xpcc21VirtualGraphicDisplay10clearPixelEss
 139              		.thumb
 140              		.thumb_func
 142              	_ZN4xpcc21VirtualGraphicDisplay10clearPixelEss:
 143              	.LFB1211:
  38:/home/jonas/warwick/3dProfilometer/xpcc/src/xpcc/driver/ui/display/virtual_graphic_display.cpp **** }
  39:/home/jonas/warwick/3dProfilometer/xpcc/src/xpcc/driver/ui/display/virtual_graphic_display.cpp **** 
  40:/home/jonas/warwick/3dProfilometer/xpcc/src/xpcc/driver/ui/display/virtual_graphic_display.cpp **** void
  41:/home/jonas/warwick/3dProfilometer/xpcc/src/xpcc/driver/ui/display/virtual_graphic_display.cpp **** xpcc::VirtualGraphicDisplay::clearPixel(int16_t x, int16_t y)
  42:/home/jonas/warwick/3dProfilometer/xpcc/src/xpcc/driver/ui/display/virtual_graphic_display.cpp **** {
 144              		.loc 2 42 0
 145              		.cfi_startproc
 146              		@ args = 0, pretend = 0, frame = 0
 147              		@ frame_needed = 0, uses_anonymous_args = 0
 148              	.LVL13:
 149 0000 38B5     		push	{r3, r4, r5, lr}
 150              	.LCFI2:
 151              		.cfi_def_cfa_offset 16
 152              		.cfi_offset 3, -16
 153              		.cfi_offset 4, -12
 154              		.cfi_offset 5, -8
 155              		.cfi_offset 14, -4
 156              		.loc 2 42 0
 157 0002 0346     		mov	r3, r0
  43:/home/jonas/warwick/3dProfilometer/xpcc/src/xpcc/driver/ui/display/virtual_graphic_display.cpp **** 	this->display->clearPixel(x + this->leftUpper[0], y + this->leftUpper[1] );
 158              		.loc 2 43 0
 159 0004 806A     		ldr	r0, [r0, #40]
 160              	.LVL14:
 161 0006 9D8D     		ldrh	r5, [r3, #44]
 162 0008 DC8D     		ldrh	r4, [r3, #46]
 163 000a 0368     		ldr	r3, [r0, #0]
 164              	.LVL15:
 165 000c 4919     		adds	r1, r1, r5
 166              	.LVL16:
 167 000e 1219     		adds	r2, r2, r4
 168              	.LVL17:
 169 0010 9B6A     		ldr	r3, [r3, #40]
 170 0012 09B2     		sxth	r1, r1
 171 0014 12B2     		sxth	r2, r2
 172 0016 9847     		blx	r3
 173              	.LVL18:
 174 0018 38BD     		pop	{r3, r4, r5, pc}
 175              		.cfi_endproc
 176              	.LFE1211:
 178 001a 00BF     		.section	.text._ZN4xpcc21VirtualGraphicDisplay8getPixelEss,"ax",%progbits
 179              		.align	2
 180              		.global	_ZN4xpcc21VirtualGraphicDisplay8getPixelEss
 181              		.thumb
 182              		.thumb_func
 184              	_ZN4xpcc21VirtualGraphicDisplay8getPixelEss:
 185              	.LFB1212:
  44:/home/jonas/warwick/3dProfilometer/xpcc/src/xpcc/driver/ui/display/virtual_graphic_display.cpp **** }
  45:/home/jonas/warwick/3dProfilometer/xpcc/src/xpcc/driver/ui/display/virtual_graphic_display.cpp **** 
  46:/home/jonas/warwick/3dProfilometer/xpcc/src/xpcc/driver/ui/display/virtual_graphic_display.cpp **** bool
  47:/home/jonas/warwick/3dProfilometer/xpcc/src/xpcc/driver/ui/display/virtual_graphic_display.cpp **** xpcc::VirtualGraphicDisplay::getPixel(int16_t x, int16_t y)
  48:/home/jonas/warwick/3dProfilometer/xpcc/src/xpcc/driver/ui/display/virtual_graphic_display.cpp **** {
 186              		.loc 2 48 0
 187              		.cfi_startproc
 188              		@ args = 0, pretend = 0, frame = 0
 189              		@ frame_needed = 0, uses_anonymous_args = 0
 190              	.LVL19:
 191 0000 38B5     		push	{r3, r4, r5, lr}
 192              	.LCFI3:
 193              		.cfi_def_cfa_offset 16
 194              		.cfi_offset 3, -16
 195              		.cfi_offset 4, -12
 196              		.cfi_offset 5, -8
 197              		.cfi_offset 14, -4
 198              		.loc 2 48 0
 199 0002 0346     		mov	r3, r0
  49:/home/jonas/warwick/3dProfilometer/xpcc/src/xpcc/driver/ui/display/virtual_graphic_display.cpp **** 	return this->display->getPixel(x + this->leftUpper[0], y + this->leftUpper[1] );
 200              		.loc 2 49 0
 201 0004 806A     		ldr	r0, [r0, #40]
 202              	.LVL20:
 203 0006 9D8D     		ldrh	r5, [r3, #44]
 204 0008 DC8D     		ldrh	r4, [r3, #46]
 205 000a 0368     		ldr	r3, [r0, #0]
 206              	.LVL21:
 207 000c 4919     		adds	r1, r1, r5
 208              	.LVL22:
 209 000e 1219     		adds	r2, r2, r4
 210              	.LVL23:
 211 0010 DB6A     		ldr	r3, [r3, #44]
 212 0012 09B2     		sxth	r1, r1
 213 0014 12B2     		sxth	r2, r2
 214 0016 9847     		blx	r3
 215              	.LVL24:
  50:/home/jonas/warwick/3dProfilometer/xpcc/src/xpcc/driver/ui/display/virtual_graphic_display.cpp **** }
 216              		.loc 2 50 0
 217 0018 38BD     		pop	{r3, r4, r5, pc}
 218              		.cfi_endproc
 219              	.LFE1212:
 221 001a 00BF     		.section	.text._ZN4xpcc21VirtualGraphicDisplayD2Ev,"axG",%progbits,_ZN4xpcc21VirtualGraphicDisplay
 222              		.align	2
 223              		.weak	_ZN4xpcc21VirtualGraphicDisplayD2Ev
 224              		.thumb
 225              		.thumb_func
 227              	_ZN4xpcc21VirtualGraphicDisplayD2Ev:
 228              	.LFB1228:
  38:/home/jonas/warwick/3dProfilometer/xpcc/src/xpcc/driver/ui/display/virtual_graphic_display.hpp **** 	class VirtualGraphicDisplay:
 229              		.loc 1 38 0
 230              		.cfi_startproc
 231              		@ args = 0, pretend = 0, frame = 0
 232              		@ frame_needed = 0, uses_anonymous_args = 0
 233              		@ link register save eliminated.
 234              	.LVL25:
 235              	.LBB91:
 236              	.LBB92:
 237              	.LBB93:
 238              		.file 3 "/home/jonas/warwick/3dProfilometer/xpcc/src/xpcc/driver/ui/display/graphic_display.hpp"
   1:/home/jonas/warwick/3dProfilometer/xpcc/src/xpcc/driver/ui/display/graphic_display.hpp **** // coding: utf-8
   2:/home/jonas/warwick/3dProfilometer/xpcc/src/xpcc/driver/ui/display/graphic_display.hpp **** // ----------------------------------------------------------------------------
   3:/home/jonas/warwick/3dProfilometer/xpcc/src/xpcc/driver/ui/display/graphic_display.hpp **** /* Copyright (c) 2009, Roboterclub Aachen e.V.
   4:/home/jonas/warwick/3dProfilometer/xpcc/src/xpcc/driver/ui/display/graphic_display.hpp ****  * All rights reserved.
   5:/home/jonas/warwick/3dProfilometer/xpcc/src/xpcc/driver/ui/display/graphic_display.hpp ****  *
   6:/home/jonas/warwick/3dProfilometer/xpcc/src/xpcc/driver/ui/display/graphic_display.hpp ****  * Redistribution and use in source and binary forms, with or without
   7:/home/jonas/warwick/3dProfilometer/xpcc/src/xpcc/driver/ui/display/graphic_display.hpp ****  * modification, are permitted provided that the following conditions are met:
   8:/home/jonas/warwick/3dProfilometer/xpcc/src/xpcc/driver/ui/display/graphic_display.hpp ****  * 
   9:/home/jonas/warwick/3dProfilometer/xpcc/src/xpcc/driver/ui/display/graphic_display.hpp ****  *     * Redistributions of source code must retain the above copyright
  10:/home/jonas/warwick/3dProfilometer/xpcc/src/xpcc/driver/ui/display/graphic_display.hpp ****  *       notice, this list of conditions and the following disclaimer.
  11:/home/jonas/warwick/3dProfilometer/xpcc/src/xpcc/driver/ui/display/graphic_display.hpp ****  *     * Redistributions in binary form must reproduce the above copyright
  12:/home/jonas/warwick/3dProfilometer/xpcc/src/xpcc/driver/ui/display/graphic_display.hpp ****  *       notice, this list of conditions and the following disclaimer in the
  13:/home/jonas/warwick/3dProfilometer/xpcc/src/xpcc/driver/ui/display/graphic_display.hpp ****  *       documentation and/or other materials provided with the distribution.
  14:/home/jonas/warwick/3dProfilometer/xpcc/src/xpcc/driver/ui/display/graphic_display.hpp ****  *     * Neither the name of the Roboterclub Aachen e.V. nor the
  15:/home/jonas/warwick/3dProfilometer/xpcc/src/xpcc/driver/ui/display/graphic_display.hpp ****  *       names of its contributors may be used to endorse or promote products
  16:/home/jonas/warwick/3dProfilometer/xpcc/src/xpcc/driver/ui/display/graphic_display.hpp ****  *       derived from this software without specific prior written permission.
  17:/home/jonas/warwick/3dProfilometer/xpcc/src/xpcc/driver/ui/display/graphic_display.hpp ****  *
  18:/home/jonas/warwick/3dProfilometer/xpcc/src/xpcc/driver/ui/display/graphic_display.hpp ****  * THIS SOFTWARE IS PROVIDED BY ROBOTERCLUB AACHEN E.V. ''AS IS'' AND ANY
  19:/home/jonas/warwick/3dProfilometer/xpcc/src/xpcc/driver/ui/display/graphic_display.hpp ****  * EXPRESS OR IMPLIED WARRANTIES, INCLUDING, BUT NOT LIMITED TO, THE IMPLIED
  20:/home/jonas/warwick/3dProfilometer/xpcc/src/xpcc/driver/ui/display/graphic_display.hpp ****  * WARRANTIES OF MERCHANTABILITY AND FITNESS FOR A PARTICULAR PURPOSE ARE
  21:/home/jonas/warwick/3dProfilometer/xpcc/src/xpcc/driver/ui/display/graphic_display.hpp ****  * DISCLAIMED. IN NO EVENT SHALL ROBOTERCLUB AACHEN E.V. BE LIABLE FOR ANY
  22:/home/jonas/warwick/3dProfilometer/xpcc/src/xpcc/driver/ui/display/graphic_display.hpp ****  * DIRECT, INDIRECT, INCIDENTAL, SPECIAL, EXEMPLARY, OR CONSEQUENTIAL DAMAGES
  23:/home/jonas/warwick/3dProfilometer/xpcc/src/xpcc/driver/ui/display/graphic_display.hpp ****  * (INCLUDING, BUT NOT LIMITED TO, PROCUREMENT OF SUBSTITUTE GOODS OR SERVICES;
  24:/home/jonas/warwick/3dProfilometer/xpcc/src/xpcc/driver/ui/display/graphic_display.hpp ****  * LOSS OF USE, DATA, OR PROFITS; OR BUSINESS INTERRUPTION) HOWEVER CAUSED AND
  25:/home/jonas/warwick/3dProfilometer/xpcc/src/xpcc/driver/ui/display/graphic_display.hpp ****  * ON ANY THEORY OF LIABILITY, WHETHER IN CONTRACT, STRICT LIABILITY, OR TORT
  26:/home/jonas/warwick/3dProfilometer/xpcc/src/xpcc/driver/ui/display/graphic_display.hpp ****  * (INCLUDING NEGLIGENCE OR OTHERWISE) ARISING IN ANY WAY OUT OF THE USE OF
  27:/home/jonas/warwick/3dProfilometer/xpcc/src/xpcc/driver/ui/display/graphic_display.hpp ****  * THIS SOFTWARE, EVEN IF ADVISED OF THE POSSIBILITY OF SUCH DAMAGE.
  28:/home/jonas/warwick/3dProfilometer/xpcc/src/xpcc/driver/ui/display/graphic_display.hpp ****  */
  29:/home/jonas/warwick/3dProfilometer/xpcc/src/xpcc/driver/ui/display/graphic_display.hpp **** // ----------------------------------------------------------------------------
  30:/home/jonas/warwick/3dProfilometer/xpcc/src/xpcc/driver/ui/display/graphic_display.hpp **** 
  31:/home/jonas/warwick/3dProfilometer/xpcc/src/xpcc/driver/ui/display/graphic_display.hpp **** #ifndef XPCC__GRAPHIC_DISPLAY_HPP
  32:/home/jonas/warwick/3dProfilometer/xpcc/src/xpcc/driver/ui/display/graphic_display.hpp **** #define XPCC__GRAPHIC_DISPLAY_HPP
  33:/home/jonas/warwick/3dProfilometer/xpcc/src/xpcc/driver/ui/display/graphic_display.hpp **** 
  34:/home/jonas/warwick/3dProfilometer/xpcc/src/xpcc/driver/ui/display/graphic_display.hpp **** #include <xpcc/architecture/driver/accessor.hpp>
  35:/home/jonas/warwick/3dProfilometer/xpcc/src/xpcc/driver/ui/display/graphic_display.hpp **** #include <xpcc/math/geometry.hpp>
  36:/home/jonas/warwick/3dProfilometer/xpcc/src/xpcc/driver/ui/display/graphic_display.hpp **** 
  37:/home/jonas/warwick/3dProfilometer/xpcc/src/xpcc/driver/ui/display/graphic_display.hpp **** #include <xpcc/io/iodevice.hpp>
  38:/home/jonas/warwick/3dProfilometer/xpcc/src/xpcc/driver/ui/display/graphic_display.hpp **** #include <xpcc/io/iostream.hpp>
  39:/home/jonas/warwick/3dProfilometer/xpcc/src/xpcc/driver/ui/display/graphic_display.hpp **** 
  40:/home/jonas/warwick/3dProfilometer/xpcc/src/xpcc/driver/ui/display/graphic_display.hpp **** #include "font.hpp"
  41:/home/jonas/warwick/3dProfilometer/xpcc/src/xpcc/driver/ui/display/graphic_display.hpp **** 
  42:/home/jonas/warwick/3dProfilometer/xpcc/src/xpcc/driver/ui/display/graphic_display.hpp **** namespace xpcc
  43:/home/jonas/warwick/3dProfilometer/xpcc/src/xpcc/driver/ui/display/graphic_display.hpp **** {
  44:/home/jonas/warwick/3dProfilometer/xpcc/src/xpcc/driver/ui/display/graphic_display.hpp **** 	namespace glcd
  45:/home/jonas/warwick/3dProfilometer/xpcc/src/xpcc/driver/ui/display/graphic_display.hpp **** 	{
  46:/home/jonas/warwick/3dProfilometer/xpcc/src/xpcc/driver/ui/display/graphic_display.hpp **** 		typedef Vector<int16_t, 2> Point;
  47:/home/jonas/warwick/3dProfilometer/xpcc/src/xpcc/driver/ui/display/graphic_display.hpp **** 		
  48:/home/jonas/warwick/3dProfilometer/xpcc/src/xpcc/driver/ui/display/graphic_display.hpp **** 		// RGB16 (565) Format
  49:/home/jonas/warwick/3dProfilometer/xpcc/src/xpcc/driver/ui/display/graphic_display.hpp **** 		class Color
  50:/home/jonas/warwick/3dProfilometer/xpcc/src/xpcc/driver/ui/display/graphic_display.hpp **** 		{
  51:/home/jonas/warwick/3dProfilometer/xpcc/src/xpcc/driver/ui/display/graphic_display.hpp **** 		public:
  52:/home/jonas/warwick/3dProfilometer/xpcc/src/xpcc/driver/ui/display/graphic_display.hpp **** 			static ALWAYS_INLINE Color white()   { return Color(0xffff); };
  53:/home/jonas/warwick/3dProfilometer/xpcc/src/xpcc/driver/ui/display/graphic_display.hpp **** 			static ALWAYS_INLINE Color yellow()  { return Color(0xFFE0); };
  54:/home/jonas/warwick/3dProfilometer/xpcc/src/xpcc/driver/ui/display/graphic_display.hpp **** 			static ALWAYS_INLINE Color magenta() { return Color(0xF81F); };
  55:/home/jonas/warwick/3dProfilometer/xpcc/src/xpcc/driver/ui/display/graphic_display.hpp **** 			static ALWAYS_INLINE Color red()     { return Color(0xF800); };
  56:/home/jonas/warwick/3dProfilometer/xpcc/src/xpcc/driver/ui/display/graphic_display.hpp **** 			static ALWAYS_INLINE Color orange()  { return Color(0xFD20); };
  57:/home/jonas/warwick/3dProfilometer/xpcc/src/xpcc/driver/ui/display/graphic_display.hpp **** 			static ALWAYS_INLINE Color sliver()  { return Color(0xC618); };
  58:/home/jonas/warwick/3dProfilometer/xpcc/src/xpcc/driver/ui/display/graphic_display.hpp **** 			static ALWAYS_INLINE Color gray()    { return Color(0x8410); };
  59:/home/jonas/warwick/3dProfilometer/xpcc/src/xpcc/driver/ui/display/graphic_display.hpp **** 			static ALWAYS_INLINE Color maroon()  { return Color(0x8000); };
  60:/home/jonas/warwick/3dProfilometer/xpcc/src/xpcc/driver/ui/display/graphic_display.hpp **** 			static ALWAYS_INLINE Color lime()    { return Color(0x07E0); };
  61:/home/jonas/warwick/3dProfilometer/xpcc/src/xpcc/driver/ui/display/graphic_display.hpp **** 			static ALWAYS_INLINE Color green()   { return Color(0x0400); };
  62:/home/jonas/warwick/3dProfilometer/xpcc/src/xpcc/driver/ui/display/graphic_display.hpp **** 			static ALWAYS_INLINE Color blue()    { return Color(0x001F); };
  63:/home/jonas/warwick/3dProfilometer/xpcc/src/xpcc/driver/ui/display/graphic_display.hpp **** 			static ALWAYS_INLINE Color navy()    { return Color(0x0010); };
  64:/home/jonas/warwick/3dProfilometer/xpcc/src/xpcc/driver/ui/display/graphic_display.hpp **** 			static ALWAYS_INLINE Color black()   { return Color(0x0000); };
  65:/home/jonas/warwick/3dProfilometer/xpcc/src/xpcc/driver/ui/display/graphic_display.hpp **** 			
  66:/home/jonas/warwick/3dProfilometer/xpcc/src/xpcc/driver/ui/display/graphic_display.hpp **** 			/**
  67:/home/jonas/warwick/3dProfilometer/xpcc/src/xpcc/driver/ui/display/graphic_display.hpp **** 			 * @param	red
  68:/home/jonas/warwick/3dProfilometer/xpcc/src/xpcc/driver/ui/display/graphic_display.hpp **** 			 * 		Range [0..255]
  69:/home/jonas/warwick/3dProfilometer/xpcc/src/xpcc/driver/ui/display/graphic_display.hpp **** 			 * @param	green
  70:/home/jonas/warwick/3dProfilometer/xpcc/src/xpcc/driver/ui/display/graphic_display.hpp **** 			 * 		Range [0..255]
  71:/home/jonas/warwick/3dProfilometer/xpcc/src/xpcc/driver/ui/display/graphic_display.hpp **** 			 * @param	blue
  72:/home/jonas/warwick/3dProfilometer/xpcc/src/xpcc/driver/ui/display/graphic_display.hpp **** 			 * 		Range [0..255]
  73:/home/jonas/warwick/3dProfilometer/xpcc/src/xpcc/driver/ui/display/graphic_display.hpp **** 			 */
  74:/home/jonas/warwick/3dProfilometer/xpcc/src/xpcc/driver/ui/display/graphic_display.hpp **** 			Color(uint8_t red, uint8_t green, uint8_t blue) :
  75:/home/jonas/warwick/3dProfilometer/xpcc/src/xpcc/driver/ui/display/graphic_display.hpp **** 				color(((static_cast<uint16_t>(red >> 3) << 11) |
  76:/home/jonas/warwick/3dProfilometer/xpcc/src/xpcc/driver/ui/display/graphic_display.hpp **** 						(static_cast<uint16_t>(green >> 2) << 5) |
  77:/home/jonas/warwick/3dProfilometer/xpcc/src/xpcc/driver/ui/display/graphic_display.hpp **** 						static_cast<uint16_t>(blue >> 3)))
  78:/home/jonas/warwick/3dProfilometer/xpcc/src/xpcc/driver/ui/display/graphic_display.hpp **** 			{
  79:/home/jonas/warwick/3dProfilometer/xpcc/src/xpcc/driver/ui/display/graphic_display.hpp **** 			}
  80:/home/jonas/warwick/3dProfilometer/xpcc/src/xpcc/driver/ui/display/graphic_display.hpp **** 			
  81:/home/jonas/warwick/3dProfilometer/xpcc/src/xpcc/driver/ui/display/graphic_display.hpp **** 			Color(uint16_t color) :
  82:/home/jonas/warwick/3dProfilometer/xpcc/src/xpcc/driver/ui/display/graphic_display.hpp **** 				color(color)
  83:/home/jonas/warwick/3dProfilometer/xpcc/src/xpcc/driver/ui/display/graphic_display.hpp **** 			{
  84:/home/jonas/warwick/3dProfilometer/xpcc/src/xpcc/driver/ui/display/graphic_display.hpp **** 			}
  85:/home/jonas/warwick/3dProfilometer/xpcc/src/xpcc/driver/ui/display/graphic_display.hpp **** 			
  86:/home/jonas/warwick/3dProfilometer/xpcc/src/xpcc/driver/ui/display/graphic_display.hpp **** 			inline uint16_t
  87:/home/jonas/warwick/3dProfilometer/xpcc/src/xpcc/driver/ui/display/graphic_display.hpp **** 			getValue() const
  88:/home/jonas/warwick/3dProfilometer/xpcc/src/xpcc/driver/ui/display/graphic_display.hpp **** 			{
  89:/home/jonas/warwick/3dProfilometer/xpcc/src/xpcc/driver/ui/display/graphic_display.hpp **** 				return color;
  90:/home/jonas/warwick/3dProfilometer/xpcc/src/xpcc/driver/ui/display/graphic_display.hpp **** 			}
  91:/home/jonas/warwick/3dProfilometer/xpcc/src/xpcc/driver/ui/display/graphic_display.hpp **** 			
  92:/home/jonas/warwick/3dProfilometer/xpcc/src/xpcc/driver/ui/display/graphic_display.hpp **** 			bool
  93:/home/jonas/warwick/3dProfilometer/xpcc/src/xpcc/driver/ui/display/graphic_display.hpp **** 			operator == (const Color& other) const {
  94:/home/jonas/warwick/3dProfilometer/xpcc/src/xpcc/driver/ui/display/graphic_display.hpp **** 				return (color == other.color);
  95:/home/jonas/warwick/3dProfilometer/xpcc/src/xpcc/driver/ui/display/graphic_display.hpp **** 			}
  96:/home/jonas/warwick/3dProfilometer/xpcc/src/xpcc/driver/ui/display/graphic_display.hpp **** 			
  97:/home/jonas/warwick/3dProfilometer/xpcc/src/xpcc/driver/ui/display/graphic_display.hpp **** 		private:
  98:/home/jonas/warwick/3dProfilometer/xpcc/src/xpcc/driver/ui/display/graphic_display.hpp **** 			uint16_t color;
  99:/home/jonas/warwick/3dProfilometer/xpcc/src/xpcc/driver/ui/display/graphic_display.hpp **** 		};
 100:/home/jonas/warwick/3dProfilometer/xpcc/src/xpcc/driver/ui/display/graphic_display.hpp **** 	}
 101:/home/jonas/warwick/3dProfilometer/xpcc/src/xpcc/driver/ui/display/graphic_display.hpp **** 	
 102:/home/jonas/warwick/3dProfilometer/xpcc/src/xpcc/driver/ui/display/graphic_display.hpp **** 	// TODO
 103:/home/jonas/warwick/3dProfilometer/xpcc/src/xpcc/driver/ui/display/graphic_display.hpp **** //	enum class Orientation : uint8_t
 104:/home/jonas/warwick/3dProfilometer/xpcc/src/xpcc/driver/ui/display/graphic_display.hpp **** //	{
 105:/home/jonas/warwick/3dProfilometer/xpcc/src/xpcc/driver/ui/display/graphic_display.hpp **** //		Portrait, 				//< Connector top
 106:/home/jonas/warwick/3dProfilometer/xpcc/src/xpcc/driver/ui/display/graphic_display.hpp **** //		LandscapeRight,			//< Connector right
 107:/home/jonas/warwick/3dProfilometer/xpcc/src/xpcc/driver/ui/display/graphic_display.hpp **** //		LandscapeLeft,			//< Connector left
 108:/home/jonas/warwick/3dProfilometer/xpcc/src/xpcc/driver/ui/display/graphic_display.hpp **** //		PortraitUpsideDown,		//< Connector bottom
 109:/home/jonas/warwick/3dProfilometer/xpcc/src/xpcc/driver/ui/display/graphic_display.hpp **** //	};
 110:/home/jonas/warwick/3dProfilometer/xpcc/src/xpcc/driver/ui/display/graphic_display.hpp **** 	
 111:/home/jonas/warwick/3dProfilometer/xpcc/src/xpcc/driver/ui/display/graphic_display.hpp **** 	/**
 112:/home/jonas/warwick/3dProfilometer/xpcc/src/xpcc/driver/ui/display/graphic_display.hpp **** 	 * Base class for graphical displays. 
 113:/home/jonas/warwick/3dProfilometer/xpcc/src/xpcc/driver/ui/display/graphic_display.hpp **** 	 * 
 114:/home/jonas/warwick/3dProfilometer/xpcc/src/xpcc/driver/ui/display/graphic_display.hpp **** 	 * Coordinate System:
 115:/home/jonas/warwick/3dProfilometer/xpcc/src/xpcc/driver/ui/display/graphic_display.hpp **** 	 * \code
 116:/home/jonas/warwick/3dProfilometer/xpcc/src/xpcc/driver/ui/display/graphic_display.hpp **** 	 * (0, 0)
 117:/home/jonas/warwick/3dProfilometer/xpcc/src/xpcc/driver/ui/display/graphic_display.hpp **** 	 *    +---------------------+
 118:/home/jonas/warwick/3dProfilometer/xpcc/src/xpcc/driver/ui/display/graphic_display.hpp **** 	 *    |  ----> X            |
 119:/home/jonas/warwick/3dProfilometer/xpcc/src/xpcc/driver/ui/display/graphic_display.hpp **** 	 *    | |                   |
 120:/home/jonas/warwick/3dProfilometer/xpcc/src/xpcc/driver/ui/display/graphic_display.hpp **** 	 *    | |                   |
 121:/home/jonas/warwick/3dProfilometer/xpcc/src/xpcc/driver/ui/display/graphic_display.hpp **** 	 *    | V Y                 |
 122:/home/jonas/warwick/3dProfilometer/xpcc/src/xpcc/driver/ui/display/graphic_display.hpp **** 	 *    |                     |
 123:/home/jonas/warwick/3dProfilometer/xpcc/src/xpcc/driver/ui/display/graphic_display.hpp **** 	 *    |                     |
 124:/home/jonas/warwick/3dProfilometer/xpcc/src/xpcc/driver/ui/display/graphic_display.hpp **** 	 *    |                     |
 125:/home/jonas/warwick/3dProfilometer/xpcc/src/xpcc/driver/ui/display/graphic_display.hpp **** 	 *    +---------------------+
 126:/home/jonas/warwick/3dProfilometer/xpcc/src/xpcc/driver/ui/display/graphic_display.hpp **** 	 *                e.g. (127, 63)
 127:/home/jonas/warwick/3dProfilometer/xpcc/src/xpcc/driver/ui/display/graphic_display.hpp **** 	 * \endcode
 128:/home/jonas/warwick/3dProfilometer/xpcc/src/xpcc/driver/ui/display/graphic_display.hpp **** 	 * 
 129:/home/jonas/warwick/3dProfilometer/xpcc/src/xpcc/driver/ui/display/graphic_display.hpp **** 	 * The size (width and height) of a graphics primitive always correspond
 130:/home/jonas/warwick/3dProfilometer/xpcc/src/xpcc/driver/ui/display/graphic_display.hpp **** 	 * to its mathematical model, ignoring the rendered with. As everything
 131:/home/jonas/warwick/3dProfilometer/xpcc/src/xpcc/driver/ui/display/graphic_display.hpp **** 	 * is drawn one pixel wide, the pixels will be rendered to the right and
 132:/home/jonas/warwick/3dProfilometer/xpcc/src/xpcc/driver/ui/display/graphic_display.hpp **** 	 * below the mathematically defined points.
 133:/home/jonas/warwick/3dProfilometer/xpcc/src/xpcc/driver/ui/display/graphic_display.hpp **** 	 * 
 134:/home/jonas/warwick/3dProfilometer/xpcc/src/xpcc/driver/ui/display/graphic_display.hpp **** 	 * \ingroup	lcd
 135:/home/jonas/warwick/3dProfilometer/xpcc/src/xpcc/driver/ui/display/graphic_display.hpp **** 	 */
 136:/home/jonas/warwick/3dProfilometer/xpcc/src/xpcc/driver/ui/display/graphic_display.hpp **** 	/*
 137:/home/jonas/warwick/3dProfilometer/xpcc/src/xpcc/driver/ui/display/graphic_display.hpp **** 	 * TODO
 138:/home/jonas/warwick/3dProfilometer/xpcc/src/xpcc/driver/ui/display/graphic_display.hpp **** 	 * 
 139:/home/jonas/warwick/3dProfilometer/xpcc/src/xpcc/driver/ui/display/graphic_display.hpp **** 	 * setBrush() and setPen() for filling and the border?
 140:/home/jonas/warwick/3dProfilometer/xpcc/src/xpcc/driver/ui/display/graphic_display.hpp **** 	 * possible Brush/Pen modes:
 141:/home/jonas/warwick/3dProfilometer/xpcc/src/xpcc/driver/ui/display/graphic_display.hpp **** 	 * - NONE
 142:/home/jonas/warwick/3dProfilometer/xpcc/src/xpcc/driver/ui/display/graphic_display.hpp **** 	 * - BLACK
 143:/home/jonas/warwick/3dProfilometer/xpcc/src/xpcc/driver/ui/display/graphic_display.hpp **** 	 * - WHITE
 144:/home/jonas/warwick/3dProfilometer/xpcc/src/xpcc/driver/ui/display/graphic_display.hpp **** 	 * - INVERT
 145:/home/jonas/warwick/3dProfilometer/xpcc/src/xpcc/driver/ui/display/graphic_display.hpp **** 	 * 
 146:/home/jonas/warwick/3dProfilometer/xpcc/src/xpcc/driver/ui/display/graphic_display.hpp **** 	 * Text mode:
 147:/home/jonas/warwick/3dProfilometer/xpcc/src/xpcc/driver/ui/display/graphic_display.hpp **** 	 * - left adjusted (default)
 148:/home/jonas/warwick/3dProfilometer/xpcc/src/xpcc/driver/ui/display/graphic_display.hpp **** 	 * - right adjusted
 149:/home/jonas/warwick/3dProfilometer/xpcc/src/xpcc/driver/ui/display/graphic_display.hpp **** 	 * - centered
 150:/home/jonas/warwick/3dProfilometer/xpcc/src/xpcc/driver/ui/display/graphic_display.hpp **** 	 * 
 151:/home/jonas/warwick/3dProfilometer/xpcc/src/xpcc/driver/ui/display/graphic_display.hpp **** 	 * All modes relative to the current viewport. This would make
 152:/home/jonas/warwick/3dProfilometer/xpcc/src/xpcc/driver/ui/display/graphic_display.hpp **** 	 * drawing a menu system easier.
 153:/home/jonas/warwick/3dProfilometer/xpcc/src/xpcc/driver/ui/display/graphic_display.hpp **** 	 */
 154:/home/jonas/warwick/3dProfilometer/xpcc/src/xpcc/driver/ui/display/graphic_display.hpp **** 	class GraphicDisplay : public IOStream
 155:/home/jonas/warwick/3dProfilometer/xpcc/src/xpcc/driver/ui/display/graphic_display.hpp **** 	{
 156:/home/jonas/warwick/3dProfilometer/xpcc/src/xpcc/driver/ui/display/graphic_display.hpp **** 	public:
 157:/home/jonas/warwick/3dProfilometer/xpcc/src/xpcc/driver/ui/display/graphic_display.hpp **** 		friend class VirtualGraphicDisplay;
 158:/home/jonas/warwick/3dProfilometer/xpcc/src/xpcc/driver/ui/display/graphic_display.hpp **** 
 159:/home/jonas/warwick/3dProfilometer/xpcc/src/xpcc/driver/ui/display/graphic_display.hpp **** 		GraphicDisplay();
 160:/home/jonas/warwick/3dProfilometer/xpcc/src/xpcc/driver/ui/display/graphic_display.hpp **** 		
 161:/home/jonas/warwick/3dProfilometer/xpcc/src/xpcc/driver/ui/display/graphic_display.hpp **** 		virtual
 162:/home/jonas/warwick/3dProfilometer/xpcc/src/xpcc/driver/ui/display/graphic_display.hpp **** 		~GraphicDisplay()
 163:/home/jonas/warwick/3dProfilometer/xpcc/src/xpcc/driver/ui/display/graphic_display.hpp **** 		{
 239              		.loc 3 163 0
 240 0000 024A     		ldr	r2, .L8
 241 0002 0260     		str	r2, [r0, #0]
 242              	.LVL26:
 243              	.LBB94:
 244              	.LBB95:
 245              	.LBB96:
 246              	.LBB97:
 247              		.file 4 "/home/jonas/warwick/3dProfilometer/xpcc/src/xpcc/io/iodevice.hpp"
   1:/home/jonas/warwick/3dProfilometer/xpcc/src/xpcc/io/iodevice.hpp **** // coding: utf-8
   2:/home/jonas/warwick/3dProfilometer/xpcc/src/xpcc/io/iodevice.hpp **** // ----------------------------------------------------------------------------
   3:/home/jonas/warwick/3dProfilometer/xpcc/src/xpcc/io/iodevice.hpp **** /* Copyright (c) 2009, Roboterclub Aachen e.V.
   4:/home/jonas/warwick/3dProfilometer/xpcc/src/xpcc/io/iodevice.hpp ****  * All rights reserved.
   5:/home/jonas/warwick/3dProfilometer/xpcc/src/xpcc/io/iodevice.hpp ****  *
   6:/home/jonas/warwick/3dProfilometer/xpcc/src/xpcc/io/iodevice.hpp ****  * Redistribution and use in source and binary forms, with or without
   7:/home/jonas/warwick/3dProfilometer/xpcc/src/xpcc/io/iodevice.hpp ****  * modification, are permitted provided that the following conditions are met:
   8:/home/jonas/warwick/3dProfilometer/xpcc/src/xpcc/io/iodevice.hpp ****  * 
   9:/home/jonas/warwick/3dProfilometer/xpcc/src/xpcc/io/iodevice.hpp ****  *     * Redistributions of source code must retain the above copyright
  10:/home/jonas/warwick/3dProfilometer/xpcc/src/xpcc/io/iodevice.hpp ****  *       notice, this list of conditions and the following disclaimer.
  11:/home/jonas/warwick/3dProfilometer/xpcc/src/xpcc/io/iodevice.hpp ****  *     * Redistributions in binary form must reproduce the above copyright
  12:/home/jonas/warwick/3dProfilometer/xpcc/src/xpcc/io/iodevice.hpp ****  *       notice, this list of conditions and the following disclaimer in the
  13:/home/jonas/warwick/3dProfilometer/xpcc/src/xpcc/io/iodevice.hpp ****  *       documentation and/or other materials provided with the distribution.
  14:/home/jonas/warwick/3dProfilometer/xpcc/src/xpcc/io/iodevice.hpp ****  *     * Neither the name of the Roboterclub Aachen e.V. nor the
  15:/home/jonas/warwick/3dProfilometer/xpcc/src/xpcc/io/iodevice.hpp ****  *       names of its contributors may be used to endorse or promote products
  16:/home/jonas/warwick/3dProfilometer/xpcc/src/xpcc/io/iodevice.hpp ****  *       derived from this software without specific prior written permission.
  17:/home/jonas/warwick/3dProfilometer/xpcc/src/xpcc/io/iodevice.hpp ****  *
  18:/home/jonas/warwick/3dProfilometer/xpcc/src/xpcc/io/iodevice.hpp ****  * THIS SOFTWARE IS PROVIDED BY ROBOTERCLUB AACHEN E.V. ''AS IS'' AND ANY
  19:/home/jonas/warwick/3dProfilometer/xpcc/src/xpcc/io/iodevice.hpp ****  * EXPRESS OR IMPLIED WARRANTIES, INCLUDING, BUT NOT LIMITED TO, THE IMPLIED
  20:/home/jonas/warwick/3dProfilometer/xpcc/src/xpcc/io/iodevice.hpp ****  * WARRANTIES OF MERCHANTABILITY AND FITNESS FOR A PARTICULAR PURPOSE ARE
  21:/home/jonas/warwick/3dProfilometer/xpcc/src/xpcc/io/iodevice.hpp ****  * DISCLAIMED. IN NO EVENT SHALL ROBOTERCLUB AACHEN E.V. BE LIABLE FOR ANY
  22:/home/jonas/warwick/3dProfilometer/xpcc/src/xpcc/io/iodevice.hpp ****  * DIRECT, INDIRECT, INCIDENTAL, SPECIAL, EXEMPLARY, OR CONSEQUENTIAL DAMAGES
  23:/home/jonas/warwick/3dProfilometer/xpcc/src/xpcc/io/iodevice.hpp ****  * (INCLUDING, BUT NOT LIMITED TO, PROCUREMENT OF SUBSTITUTE GOODS OR SERVICES;
  24:/home/jonas/warwick/3dProfilometer/xpcc/src/xpcc/io/iodevice.hpp ****  * LOSS OF USE, DATA, OR PROFITS; OR BUSINESS INTERRUPTION) HOWEVER CAUSED AND
  25:/home/jonas/warwick/3dProfilometer/xpcc/src/xpcc/io/iodevice.hpp ****  * ON ANY THEORY OF LIABILITY, WHETHER IN CONTRACT, STRICT LIABILITY, OR TORT
  26:/home/jonas/warwick/3dProfilometer/xpcc/src/xpcc/io/iodevice.hpp ****  * (INCLUDING NEGLIGENCE OR OTHERWISE) ARISING IN ANY WAY OUT OF THE USE OF
  27:/home/jonas/warwick/3dProfilometer/xpcc/src/xpcc/io/iodevice.hpp ****  * THIS SOFTWARE, EVEN IF ADVISED OF THE POSSIBILITY OF SUCH DAMAGE.
  28:/home/jonas/warwick/3dProfilometer/xpcc/src/xpcc/io/iodevice.hpp ****  */
  29:/home/jonas/warwick/3dProfilometer/xpcc/src/xpcc/io/iodevice.hpp **** // ----------------------------------------------------------------------------
  30:/home/jonas/warwick/3dProfilometer/xpcc/src/xpcc/io/iodevice.hpp **** 
  31:/home/jonas/warwick/3dProfilometer/xpcc/src/xpcc/io/iodevice.hpp **** #ifndef XPCC__IODEVICE_HPP
  32:/home/jonas/warwick/3dProfilometer/xpcc/src/xpcc/io/iodevice.hpp **** #define XPCC__IODEVICE_HPP
  33:/home/jonas/warwick/3dProfilometer/xpcc/src/xpcc/io/iodevice.hpp **** 
  34:/home/jonas/warwick/3dProfilometer/xpcc/src/xpcc/io/iodevice.hpp **** namespace xpcc
  35:/home/jonas/warwick/3dProfilometer/xpcc/src/xpcc/io/iodevice.hpp **** {
  36:/home/jonas/warwick/3dProfilometer/xpcc/src/xpcc/io/iodevice.hpp **** 	/**
  37:/home/jonas/warwick/3dProfilometer/xpcc/src/xpcc/io/iodevice.hpp **** 	 * \brief 	Abstract calls of io-devices
  38:/home/jonas/warwick/3dProfilometer/xpcc/src/xpcc/io/iodevice.hpp **** 	 *
  39:/home/jonas/warwick/3dProfilometer/xpcc/src/xpcc/io/iodevice.hpp **** 	 * \ingroup io
  40:/home/jonas/warwick/3dProfilometer/xpcc/src/xpcc/io/iodevice.hpp **** 	 * \author	Martin Rosekeit <martin.rosekeit@rwth-aachen.de>
  41:/home/jonas/warwick/3dProfilometer/xpcc/src/xpcc/io/iodevice.hpp **** 	 */
  42:/home/jonas/warwick/3dProfilometer/xpcc/src/xpcc/io/iodevice.hpp **** 	class IODevice
  43:/home/jonas/warwick/3dProfilometer/xpcc/src/xpcc/io/iodevice.hpp **** 	{
  44:/home/jonas/warwick/3dProfilometer/xpcc/src/xpcc/io/iodevice.hpp **** 	public :
  45:/home/jonas/warwick/3dProfilometer/xpcc/src/xpcc/io/iodevice.hpp **** 		IODevice()
  46:/home/jonas/warwick/3dProfilometer/xpcc/src/xpcc/io/iodevice.hpp **** 		{
  47:/home/jonas/warwick/3dProfilometer/xpcc/src/xpcc/io/iodevice.hpp **** 		}
  48:/home/jonas/warwick/3dProfilometer/xpcc/src/xpcc/io/iodevice.hpp **** 		
  49:/home/jonas/warwick/3dProfilometer/xpcc/src/xpcc/io/iodevice.hpp **** 		virtual
  50:/home/jonas/warwick/3dProfilometer/xpcc/src/xpcc/io/iodevice.hpp **** 		~IODevice()
  51:/home/jonas/warwick/3dProfilometer/xpcc/src/xpcc/io/iodevice.hpp **** 		{
 248              		.loc 4 51 0
 249 0004 024A     		ldr	r2, .L8+4
 250 0006 C260     		str	r2, [r0, #12]
 251              	.LBE97:
 252              	.LBE96:
 253              	.LBE95:
 254              	.LBE94:
 255              	.LBE93:
 256              	.LBE92:
 257              	.LBE91:
  38:/home/jonas/warwick/3dProfilometer/xpcc/src/xpcc/driver/ui/display/virtual_graphic_display.hpp **** 	class VirtualGraphicDisplay:
 258              		.loc 1 38 0
 259 0008 7047     		bx	lr
 260              	.L9:
 261 000a 00BF     		.align	2
 262              	.L8:
 263 000c 08000000 		.word	_ZTVN4xpcc14GraphicDisplayE+8
 264 0010 08000000 		.word	_ZTVN4xpcc8IODeviceE+8
 265              		.cfi_endproc
 266              	.LFE1228:
 268              		.weak	_ZN4xpcc21VirtualGraphicDisplayD1Ev
 269              		.thumb_set _ZN4xpcc21VirtualGraphicDisplayD1Ev,_ZN4xpcc21VirtualGraphicDisplayD2Ev
 270              		.section	.text._ZN4xpcc21VirtualGraphicDisplayD0Ev,"axG",%progbits,_ZN4xpcc21VirtualGraphicDisplay
 271              		.align	2
 272              		.weak	_ZN4xpcc21VirtualGraphicDisplayD0Ev
 273              		.thumb
 274              		.thumb_func
 276              	_ZN4xpcc21VirtualGraphicDisplayD0Ev:
 277              	.LFB1230:
  38:/home/jonas/warwick/3dProfilometer/xpcc/src/xpcc/driver/ui/display/virtual_graphic_display.hpp **** 	class VirtualGraphicDisplay:
 278              		.loc 1 38 0
 279              		.cfi_startproc
 280              		@ args = 0, pretend = 0, frame = 0
 281              		@ frame_needed = 0, uses_anonymous_args = 0
 282              	.LVL27:
 283              	.LBB98:
 284              	.LBB99:
 285              	.LBB100:
 286              	.LBB101:
 287              		.loc 3 163 0
 288 0000 044B     		ldr	r3, .L11
 289              	.LBE101:
 290              	.LBE100:
 291              	.LBE99:
 292              	.LBE98:
  38:/home/jonas/warwick/3dProfilometer/xpcc/src/xpcc/driver/ui/display/virtual_graphic_display.hpp **** 	class VirtualGraphicDisplay:
 293              		.loc 1 38 0
 294 0002 10B5     		push	{r4, lr}
 295              	.LCFI4:
 296              		.cfi_def_cfa_offset 8
 297              		.cfi_offset 4, -8
 298              		.cfi_offset 14, -4
 299              	.LBB116:
 300              	.LBB114:
 301              	.LBB112:
 302              	.LBB110:
 303              		.loc 3 163 0
 304 0004 0360     		str	r3, [r0, #0]
 305              	.LBB102:
 306              	.LBB103:
 307              	.LBB104:
 308              	.LBB105:
 309              		.loc 4 51 0
 310 0006 044B     		ldr	r3, .L11+4
 311              	.LBE105:
 312              	.LBE104:
 313              	.LBE103:
 314              	.LBE102:
 315              	.LBE110:
 316              	.LBE112:
 317              	.LBE114:
 318              	.LBE116:
  38:/home/jonas/warwick/3dProfilometer/xpcc/src/xpcc/driver/ui/display/virtual_graphic_display.hpp **** 	class VirtualGraphicDisplay:
 319              		.loc 1 38 0
 320 0008 0446     		mov	r4, r0
 321              	.LVL28:
 322              	.LBB117:
 323              	.LBB115:
 324              	.LBB113:
 325              	.LBB111:
 326              	.LBB109:
 327              	.LBB108:
 328              	.LBB107:
 329              	.LBB106:
 330              		.loc 4 51 0
 331 000a C360     		str	r3, [r0, #12]
 332              	.LBE106:
 333              	.LBE107:
 334              	.LBE108:
 335              	.LBE109:
 336              	.LBE111:
 337              	.LBE113:
 338              	.LBE115:
 339              	.LBE117:
  38:/home/jonas/warwick/3dProfilometer/xpcc/src/xpcc/driver/ui/display/virtual_graphic_display.hpp **** 	class VirtualGraphicDisplay:
 340              		.loc 1 38 0
 341 000c 034B     		ldr	r3, .L11+8
 342 000e 9847     		blx	r3
 343              	.LVL29:
 344 0010 2046     		mov	r0, r4
 345 0012 10BD     		pop	{r4, pc}
 346              	.L12:
 347              		.align	2
 348              	.L11:
 349 0014 08000000 		.word	_ZTVN4xpcc14GraphicDisplayE+8
 350 0018 08000000 		.word	_ZTVN4xpcc8IODeviceE+8
 351 001c 00000000 		.word	_ZdlPv
 352              		.cfi_endproc
 353              	.LFE1230:
 355              		.section	.text._ZN4xpcc21VirtualGraphicDisplay5clearEv,"ax",%progbits
 356              		.align	2
 357              		.global	_ZN4xpcc21VirtualGraphicDisplay5clearEv
 358              		.thumb
 359              		.thumb_func
 361              	_ZN4xpcc21VirtualGraphicDisplay5clearEv:
 362              	.LFB1208:
  20:/home/jonas/warwick/3dProfilometer/xpcc/src/xpcc/driver/ui/display/virtual_graphic_display.cpp **** {
 363              		.loc 2 20 0
 364              		.cfi_startproc
 365              		@ args = 0, pretend = 0, frame = 8
 366              		@ frame_needed = 0, uses_anonymous_args = 0
 367              	.LVL30:
 368 0000 F0B5     		push	{r4, r5, r6, r7, lr}
 369              	.LCFI5:
 370              		.cfi_def_cfa_offset 20
 371              		.cfi_offset 4, -20
 372              		.cfi_offset 5, -16
 373              		.cfi_offset 6, -12
 374              		.cfi_offset 7, -8
 375              		.cfi_offset 14, -4
 376 0002 83B0     		sub	sp, sp, #12
 377              	.LCFI6:
 378              		.cfi_def_cfa_offset 32
  20:/home/jonas/warwick/3dProfilometer/xpcc/src/xpcc/driver/ui/display/virtual_graphic_display.cpp **** {
 379              		.loc 2 20 0
 380 0004 0446     		mov	r4, r0
  22:/home/jonas/warwick/3dProfilometer/xpcc/src/xpcc/driver/ui/display/virtual_graphic_display.cpp **** 	this->display->setColor(glcd::Color::black());
 381              		.loc 2 22 0
 382 0006 02AD     		add	r5, sp, #8
 383 0008 0023     		movs	r3, #0
 384 000a 6946     		mov	r1, sp
 385 000c 806A     		ldr	r0, [r0, #40]
 386              	.LVL31:
 387 000e 0C4E     		ldr	r6, .L14
 388 0010 25F8083D 		strh	r3, [r5, #-8]!	@ movhi
 389 0014 B047     		blx	r6
 390              	.LVL32:
 391              	.LBB118:
 392              	.LBB119:
 393              		.file 5 "/home/jonas/warwick/3dProfilometer/xpcc/src/xpcc/math/geometry/vector2_impl.hpp"
   1:/home/jonas/warwick/3dProfilometer/xpcc/src/xpcc/math/geometry/vector2_impl.hpp **** // coding: utf-8
   2:/home/jonas/warwick/3dProfilometer/xpcc/src/xpcc/math/geometry/vector2_impl.hpp **** // ----------------------------------------------------------------------------
   3:/home/jonas/warwick/3dProfilometer/xpcc/src/xpcc/math/geometry/vector2_impl.hpp **** /* Copyright (c) 2011, Roboterclub Aachen e.V.
   4:/home/jonas/warwick/3dProfilometer/xpcc/src/xpcc/math/geometry/vector2_impl.hpp ****  * All rights reserved.
   5:/home/jonas/warwick/3dProfilometer/xpcc/src/xpcc/math/geometry/vector2_impl.hpp ****  *
   6:/home/jonas/warwick/3dProfilometer/xpcc/src/xpcc/math/geometry/vector2_impl.hpp ****  * Redistribution and use in source and binary forms, with or without
   7:/home/jonas/warwick/3dProfilometer/xpcc/src/xpcc/math/geometry/vector2_impl.hpp ****  * modification, are permitted provided that the following conditions are met:
   8:/home/jonas/warwick/3dProfilometer/xpcc/src/xpcc/math/geometry/vector2_impl.hpp ****  *
   9:/home/jonas/warwick/3dProfilometer/xpcc/src/xpcc/math/geometry/vector2_impl.hpp ****  *     * Redistributions of source code must retain the above copyright
  10:/home/jonas/warwick/3dProfilometer/xpcc/src/xpcc/math/geometry/vector2_impl.hpp ****  *       notice, this list of conditions and the following disclaimer.
  11:/home/jonas/warwick/3dProfilometer/xpcc/src/xpcc/math/geometry/vector2_impl.hpp ****  *     * Redistributions in binary form must reproduce the above copyright
  12:/home/jonas/warwick/3dProfilometer/xpcc/src/xpcc/math/geometry/vector2_impl.hpp ****  *       notice, this list of conditions and the following disclaimer in the
  13:/home/jonas/warwick/3dProfilometer/xpcc/src/xpcc/math/geometry/vector2_impl.hpp ****  *       documentation and/or other materials provided with the distribution.
  14:/home/jonas/warwick/3dProfilometer/xpcc/src/xpcc/math/geometry/vector2_impl.hpp ****  *     * Neither the name of the Roboterclub Aachen e.V. nor the
  15:/home/jonas/warwick/3dProfilometer/xpcc/src/xpcc/math/geometry/vector2_impl.hpp ****  *       names of its contributors may be used to endorse or promote products
  16:/home/jonas/warwick/3dProfilometer/xpcc/src/xpcc/math/geometry/vector2_impl.hpp ****  *       derived from this software without specific prior written permission.
  17:/home/jonas/warwick/3dProfilometer/xpcc/src/xpcc/math/geometry/vector2_impl.hpp ****  *
  18:/home/jonas/warwick/3dProfilometer/xpcc/src/xpcc/math/geometry/vector2_impl.hpp ****  * THIS SOFTWARE IS PROVIDED BY ROBOTERCLUB AACHEN E.V. ''AS IS'' AND ANY
  19:/home/jonas/warwick/3dProfilometer/xpcc/src/xpcc/math/geometry/vector2_impl.hpp ****  * EXPRESS OR IMPLIED WARRANTIES, INCLUDING, BUT NOT LIMITED TO, THE IMPLIED
  20:/home/jonas/warwick/3dProfilometer/xpcc/src/xpcc/math/geometry/vector2_impl.hpp ****  * WARRANTIES OF MERCHANTABILITY AND FITNESS FOR A PARTICULAR PURPOSE ARE
  21:/home/jonas/warwick/3dProfilometer/xpcc/src/xpcc/math/geometry/vector2_impl.hpp ****  * DISCLAIMED. IN NO EVENT SHALL ROBOTERCLUB AACHEN E.V. BE LIABLE FOR ANY
  22:/home/jonas/warwick/3dProfilometer/xpcc/src/xpcc/math/geometry/vector2_impl.hpp ****  * DIRECT, INDIRECT, INCIDENTAL, SPECIAL, EXEMPLARY, OR CONSEQUENTIAL DAMAGES
  23:/home/jonas/warwick/3dProfilometer/xpcc/src/xpcc/math/geometry/vector2_impl.hpp ****  * (INCLUDING, BUT NOT LIMITED TO, PROCUREMENT OF SUBSTITUTE GOODS OR SERVICES;
  24:/home/jonas/warwick/3dProfilometer/xpcc/src/xpcc/math/geometry/vector2_impl.hpp ****  * LOSS OF USE, DATA, OR PROFITS; OR BUSINESS INTERRUPTION) HOWEVER CAUSED AND
  25:/home/jonas/warwick/3dProfilometer/xpcc/src/xpcc/math/geometry/vector2_impl.hpp ****  * ON ANY THEORY OF LIABILITY, WHETHER IN CONTRACT, STRICT LIABILITY, OR TORT
  26:/home/jonas/warwick/3dProfilometer/xpcc/src/xpcc/math/geometry/vector2_impl.hpp ****  * (INCLUDING NEGLIGENCE OR OTHERWISE) ARISING IN ANY WAY OUT OF THE USE OF
  27:/home/jonas/warwick/3dProfilometer/xpcc/src/xpcc/math/geometry/vector2_impl.hpp ****  * THIS SOFTWARE, EVEN IF ADVISED OF THE POSSIBILITY OF SUCH DAMAGE.
  28:/home/jonas/warwick/3dProfilometer/xpcc/src/xpcc/math/geometry/vector2_impl.hpp ****  */
  29:/home/jonas/warwick/3dProfilometer/xpcc/src/xpcc/math/geometry/vector2_impl.hpp **** // ----------------------------------------------------------------------------
  30:/home/jonas/warwick/3dProfilometer/xpcc/src/xpcc/math/geometry/vector2_impl.hpp **** 
  31:/home/jonas/warwick/3dProfilometer/xpcc/src/xpcc/math/geometry/vector2_impl.hpp **** #ifndef XPCC__VECTOR2_HPP
  32:/home/jonas/warwick/3dProfilometer/xpcc/src/xpcc/math/geometry/vector2_impl.hpp **** 	#error	"Don't include this file directly, use 'vector2.hpp' instead!"
  33:/home/jonas/warwick/3dProfilometer/xpcc/src/xpcc/math/geometry/vector2_impl.hpp **** #endif
  34:/home/jonas/warwick/3dProfilometer/xpcc/src/xpcc/math/geometry/vector2_impl.hpp **** 
  35:/home/jonas/warwick/3dProfilometer/xpcc/src/xpcc/math/geometry/vector2_impl.hpp **** #include <cmath>
  36:/home/jonas/warwick/3dProfilometer/xpcc/src/xpcc/math/geometry/vector2_impl.hpp **** 
  37:/home/jonas/warwick/3dProfilometer/xpcc/src/xpcc/math/geometry/vector2_impl.hpp **** // ----------------------------------------------------------------------------
  38:/home/jonas/warwick/3dProfilometer/xpcc/src/xpcc/math/geometry/vector2_impl.hpp **** template<typename T>
  39:/home/jonas/warwick/3dProfilometer/xpcc/src/xpcc/math/geometry/vector2_impl.hpp **** xpcc::Vector<T, 2>::Vector() :
  40:/home/jonas/warwick/3dProfilometer/xpcc/src/xpcc/math/geometry/vector2_impl.hpp **** 	x(),
  41:/home/jonas/warwick/3dProfilometer/xpcc/src/xpcc/math/geometry/vector2_impl.hpp **** 	y()
  42:/home/jonas/warwick/3dProfilometer/xpcc/src/xpcc/math/geometry/vector2_impl.hpp **** {
  43:/home/jonas/warwick/3dProfilometer/xpcc/src/xpcc/math/geometry/vector2_impl.hpp **** }
  44:/home/jonas/warwick/3dProfilometer/xpcc/src/xpcc/math/geometry/vector2_impl.hpp **** 
  45:/home/jonas/warwick/3dProfilometer/xpcc/src/xpcc/math/geometry/vector2_impl.hpp **** // ----------------------------------------------------------------------------
  46:/home/jonas/warwick/3dProfilometer/xpcc/src/xpcc/math/geometry/vector2_impl.hpp **** template<typename T>
  47:/home/jonas/warwick/3dProfilometer/xpcc/src/xpcc/math/geometry/vector2_impl.hpp **** xpcc::Vector<T, 2>::Vector(const T& inX, const T& inY) :
  48:/home/jonas/warwick/3dProfilometer/xpcc/src/xpcc/math/geometry/vector2_impl.hpp **** 	x(inX),
  49:/home/jonas/warwick/3dProfilometer/xpcc/src/xpcc/math/geometry/vector2_impl.hpp **** 	y(inY)
  50:/home/jonas/warwick/3dProfilometer/xpcc/src/xpcc/math/geometry/vector2_impl.hpp **** {
  51:/home/jonas/warwick/3dProfilometer/xpcc/src/xpcc/math/geometry/vector2_impl.hpp **** }
  52:/home/jonas/warwick/3dProfilometer/xpcc/src/xpcc/math/geometry/vector2_impl.hpp **** 
  53:/home/jonas/warwick/3dProfilometer/xpcc/src/xpcc/math/geometry/vector2_impl.hpp **** // ----------------------------------------------------------------------------
  54:/home/jonas/warwick/3dProfilometer/xpcc/src/xpcc/math/geometry/vector2_impl.hpp **** template<typename T>
  55:/home/jonas/warwick/3dProfilometer/xpcc/src/xpcc/math/geometry/vector2_impl.hpp **** xpcc::Vector<T, 2>::Vector(
  56:/home/jonas/warwick/3dProfilometer/xpcc/src/xpcc/math/geometry/vector2_impl.hpp **** 		const xpcc::Vector<T, 1> &inX,
  57:/home/jonas/warwick/3dProfilometer/xpcc/src/xpcc/math/geometry/vector2_impl.hpp **** 		const xpcc::Vector<T, 1> &inY) :
  58:/home/jonas/warwick/3dProfilometer/xpcc/src/xpcc/math/geometry/vector2_impl.hpp **** 	x(inX.x),
  59:/home/jonas/warwick/3dProfilometer/xpcc/src/xpcc/math/geometry/vector2_impl.hpp **** 	y(inY.x)
  60:/home/jonas/warwick/3dProfilometer/xpcc/src/xpcc/math/geometry/vector2_impl.hpp **** {
  61:/home/jonas/warwick/3dProfilometer/xpcc/src/xpcc/math/geometry/vector2_impl.hpp **** }
  62:/home/jonas/warwick/3dProfilometer/xpcc/src/xpcc/math/geometry/vector2_impl.hpp **** 
  63:/home/jonas/warwick/3dProfilometer/xpcc/src/xpcc/math/geometry/vector2_impl.hpp **** // ----------------------------------------------------------------------------
  64:/home/jonas/warwick/3dProfilometer/xpcc/src/xpcc/math/geometry/vector2_impl.hpp **** template<typename T>
  65:/home/jonas/warwick/3dProfilometer/xpcc/src/xpcc/math/geometry/vector2_impl.hpp **** xpcc::Vector<T, 2>::Vector(const T &inX, const xpcc::Vector<T, 1> &inY) :
  66:/home/jonas/warwick/3dProfilometer/xpcc/src/xpcc/math/geometry/vector2_impl.hpp **** 	x(inX),
  67:/home/jonas/warwick/3dProfilometer/xpcc/src/xpcc/math/geometry/vector2_impl.hpp **** 	y(inY.x)
  68:/home/jonas/warwick/3dProfilometer/xpcc/src/xpcc/math/geometry/vector2_impl.hpp **** {
  69:/home/jonas/warwick/3dProfilometer/xpcc/src/xpcc/math/geometry/vector2_impl.hpp **** }
  70:/home/jonas/warwick/3dProfilometer/xpcc/src/xpcc/math/geometry/vector2_impl.hpp **** 
  71:/home/jonas/warwick/3dProfilometer/xpcc/src/xpcc/math/geometry/vector2_impl.hpp **** // ----------------------------------------------------------------------------
  72:/home/jonas/warwick/3dProfilometer/xpcc/src/xpcc/math/geometry/vector2_impl.hpp **** template<typename T>
  73:/home/jonas/warwick/3dProfilometer/xpcc/src/xpcc/math/geometry/vector2_impl.hpp **** xpcc::Vector<T, 2>::Vector(const xpcc::Vector<T, 1> &inX, const T &inY) :
  74:/home/jonas/warwick/3dProfilometer/xpcc/src/xpcc/math/geometry/vector2_impl.hpp **** 	x(inX.x),
  75:/home/jonas/warwick/3dProfilometer/xpcc/src/xpcc/math/geometry/vector2_impl.hpp **** 	y(inY)
  76:/home/jonas/warwick/3dProfilometer/xpcc/src/xpcc/math/geometry/vector2_impl.hpp **** {
  77:/home/jonas/warwick/3dProfilometer/xpcc/src/xpcc/math/geometry/vector2_impl.hpp **** }
  78:/home/jonas/warwick/3dProfilometer/xpcc/src/xpcc/math/geometry/vector2_impl.hpp **** 
  79:/home/jonas/warwick/3dProfilometer/xpcc/src/xpcc/math/geometry/vector2_impl.hpp **** // ----------------------------------------------------------------------------
  80:/home/jonas/warwick/3dProfilometer/xpcc/src/xpcc/math/geometry/vector2_impl.hpp **** template<typename T>
  81:/home/jonas/warwick/3dProfilometer/xpcc/src/xpcc/math/geometry/vector2_impl.hpp **** xpcc::Vector<T, 2>::Vector(T inVal) :
  82:/home/jonas/warwick/3dProfilometer/xpcc/src/xpcc/math/geometry/vector2_impl.hpp **** 	x(inVal),
  83:/home/jonas/warwick/3dProfilometer/xpcc/src/xpcc/math/geometry/vector2_impl.hpp **** 	y(inVal)
  84:/home/jonas/warwick/3dProfilometer/xpcc/src/xpcc/math/geometry/vector2_impl.hpp **** {
  85:/home/jonas/warwick/3dProfilometer/xpcc/src/xpcc/math/geometry/vector2_impl.hpp **** }
  86:/home/jonas/warwick/3dProfilometer/xpcc/src/xpcc/math/geometry/vector2_impl.hpp **** 
  87:/home/jonas/warwick/3dProfilometer/xpcc/src/xpcc/math/geometry/vector2_impl.hpp **** // ----------------------------------------------------------------------------
  88:/home/jonas/warwick/3dProfilometer/xpcc/src/xpcc/math/geometry/vector2_impl.hpp **** template<typename T>
  89:/home/jonas/warwick/3dProfilometer/xpcc/src/xpcc/math/geometry/vector2_impl.hpp **** xpcc::Vector<T, 2>::Vector(const xpcc::Matrix<T, 2, 1> &rhs) :
  90:/home/jonas/warwick/3dProfilometer/xpcc/src/xpcc/math/geometry/vector2_impl.hpp **** 	x(reinterpret_cast<const T*>(&rhs)[0]),
  91:/home/jonas/warwick/3dProfilometer/xpcc/src/xpcc/math/geometry/vector2_impl.hpp **** 	y(reinterpret_cast<const T*>(&rhs)[1])
  92:/home/jonas/warwick/3dProfilometer/xpcc/src/xpcc/math/geometry/vector2_impl.hpp **** {
  93:/home/jonas/warwick/3dProfilometer/xpcc/src/xpcc/math/geometry/vector2_impl.hpp **** }
  94:/home/jonas/warwick/3dProfilometer/xpcc/src/xpcc/math/geometry/vector2_impl.hpp **** 
  95:/home/jonas/warwick/3dProfilometer/xpcc/src/xpcc/math/geometry/vector2_impl.hpp **** // ----------------------------------------------------------------------------
  96:/home/jonas/warwick/3dProfilometer/xpcc/src/xpcc/math/geometry/vector2_impl.hpp **** template<typename T>
  97:/home/jonas/warwick/3dProfilometer/xpcc/src/xpcc/math/geometry/vector2_impl.hpp **** xpcc::Vector<T, 2>::Vector(const Vector &rhs) :
  98:/home/jonas/warwick/3dProfilometer/xpcc/src/xpcc/math/geometry/vector2_impl.hpp **** 	x(rhs.x),
  99:/home/jonas/warwick/3dProfilometer/xpcc/src/xpcc/math/geometry/vector2_impl.hpp **** 	y(rhs.y)
 394              		.loc 5 99 0
 395 0016 A18D     		ldrh	r1, [r4, #44]
 396 0018 E78D     		ldrh	r7, [r4, #46]
 397              	.LBE119:
 398              	.LBE118:
  23:/home/jonas/warwick/3dProfilometer/xpcc/src/xpcc/driver/ui/display/virtual_graphic_display.cpp **** 	this->display->fillRectangle(this->leftUpper, width, height);
 399              		.loc 2 23 0
 400 001a A06A     		ldr	r0, [r4, #40]
 401              	.LVL33:
 402 001c E38E     		ldrh	r3, [r4, #54]
 403              	.LBB121:
 404              	.LBB120:
 405              		.loc 5 99 0
 406 001e ADF80410 		strh	r1, [sp, #4]	@ movhi
 407 0022 ADF80670 		strh	r7, [sp, #6]	@ movhi
 408              	.LBE120:
 409              	.LBE121:
  23:/home/jonas/warwick/3dProfilometer/xpcc/src/xpcc/driver/ui/display/virtual_graphic_display.cpp **** 	this->display->fillRectangle(this->leftUpper, width, height);
 410              		.loc 2 23 0
 411 0026 01A9     		add	r1, sp, #4
 412              	.LVL34:
 413 0028 A28E     		ldrh	r2, [r4, #52]
 414 002a 064F     		ldr	r7, .L14+4
 415 002c B847     		blx	r7
 416              	.LVL35:
  24:/home/jonas/warwick/3dProfilometer/xpcc/src/xpcc/driver/ui/display/virtual_graphic_display.cpp **** 	this->display->setColor(glcd::Color::white());
 417              		.loc 2 24 0
 418 002e 4FF6FF73 		movw	r3, #65535
 419 0032 A06A     		ldr	r0, [r4, #40]
 420              	.LVL36:
 421 0034 ADF80030 		strh	r3, [sp, #0]	@ movhi
 422 0038 6946     		mov	r1, sp
 423 003a B047     		blx	r6
 424              	.LVL37:
  25:/home/jonas/warwick/3dProfilometer/xpcc/src/xpcc/driver/ui/display/virtual_graphic_display.cpp **** }
 425              		.loc 2 25 0
 426 003c 03B0     		add	sp, sp, #12
 427 003e F0BD     		pop	{r4, r5, r6, r7, pc}
 428              	.L15:
 429              		.align	2
 430              	.L14:
 431 0040 00000000 		.word	_ZN4xpcc14GraphicDisplay8setColorERKNS_4glcd5ColorE
 432 0044 00000000 		.word	_ZN4xpcc14GraphicDisplay13fillRectangleENS_6VectorIsLh2EEEtt
 433              		.cfi_endproc
 434              	.LFE1208:
 436              		.section	.text._ZN4xpcc21VirtualGraphicDisplayC2EPNS_14GraphicDisplayENS_6VectorIsLh2EEES4_,"ax",%
 437              		.align	2
 438              		.global	_ZN4xpcc21VirtualGraphicDisplayC2EPNS_14GraphicDisplayENS_6VectorIsLh2EEES4_
 439              		.thumb
 440              		.thumb_func
 442              	_ZN4xpcc21VirtualGraphicDisplayC2EPNS_14GraphicDisplayENS_6VectorIsLh2EEES4_:
 443              	.LFB1205:
   3:/home/jonas/warwick/3dProfilometer/xpcc/src/xpcc/driver/ui/display/virtual_graphic_display.cpp **** xpcc::VirtualGraphicDisplay::VirtualGraphicDisplay(xpcc::GraphicDisplay* display,
 444              		.loc 2 3 0
 445              		.cfi_startproc
 446              		@ args = 0, pretend = 0, frame = 0
 447              		@ frame_needed = 0, uses_anonymous_args = 0
 448              	.LVL38:
 449 0000 2DE9F041 		push	{r4, r5, r6, r7, r8, lr}
 450              	.LCFI7:
 451              		.cfi_def_cfa_offset 24
 452              		.cfi_offset 4, -24
 453              		.cfi_offset 5, -20
 454              		.cfi_offset 6, -16
 455              		.cfi_offset 7, -12
 456              		.cfi_offset 8, -8
 457              		.cfi_offset 14, -4
   3:/home/jonas/warwick/3dProfilometer/xpcc/src/xpcc/driver/ui/display/virtual_graphic_display.cpp **** xpcc::VirtualGraphicDisplay::VirtualGraphicDisplay(xpcc::GraphicDisplay* display,
 458              		.loc 2 3 0
 459 0004 1546     		mov	r5, r2
 460 0006 1E46     		mov	r6, r3
 461              	.LBB122:
   7:/home/jonas/warwick/3dProfilometer/xpcc/src/xpcc/driver/ui/display/virtual_graphic_display.cpp **** 		height(static_cast<uint16_t>(this->rightLower[1] - this->leftUpper[1]))
 462              		.loc 2 7 0
 463 0008 0B4B     		ldr	r3, .L17
 464              	.LVL39:
 465              	.LBE122:
   3:/home/jonas/warwick/3dProfilometer/xpcc/src/xpcc/driver/ui/display/virtual_graphic_display.cpp **** xpcc::VirtualGraphicDisplay::VirtualGraphicDisplay(xpcc::GraphicDisplay* display,
 466              		.loc 2 3 0
 467 000a 0446     		mov	r4, r0
 468 000c 8846     		mov	r8, r1
 469              	.LBB129:
   7:/home/jonas/warwick/3dProfilometer/xpcc/src/xpcc/driver/ui/display/virtual_graphic_display.cpp **** 		height(static_cast<uint16_t>(this->rightLower[1] - this->leftUpper[1]))
 470              		.loc 2 7 0
 471 000e 9847     		blx	r3
 472              	.LVL40:
 473              	.LBB123:
 474              	.LBB124:
 475              		.loc 5 99 0
 476 0010 2F88     		ldrh	r7, [r5, #0]
 477 0012 6888     		ldrh	r0, [r5, #2]
 478 0014 A785     		strh	r7, [r4, #44]	@ movhi
 479 0016 E085     		strh	r0, [r4, #46]	@ movhi
 480              	.LBE124:
 481              	.LBE123:
 482              	.LBB125:
 483              	.LBB126:
 484 0018 3288     		ldrh	r2, [r6, #0]
 485 001a 7388     		ldrh	r3, [r6, #2]
 486              	.LBE126:
 487              	.LBE125:
   7:/home/jonas/warwick/3dProfilometer/xpcc/src/xpcc/driver/ui/display/virtual_graphic_display.cpp **** 		height(static_cast<uint16_t>(this->rightLower[1] - this->leftUpper[1]))
 488              		.loc 2 7 0
 489 001c 0749     		ldr	r1, .L17+4
 490 001e C4F82880 		str	r8, [r4, #40]
 491              	.LVL41:
 492 0022 181A     		subs	r0, r3, r0
 493 0024 D71B     		subs	r7, r2, r7
 494 0026 E086     		strh	r0, [r4, #54]	@ movhi
 495 0028 2160     		str	r1, [r4, #0]
 496              	.LBB128:
 497              	.LBB127:
 498              		.loc 5 99 0
 499 002a 2286     		strh	r2, [r4, #48]	@ movhi
 500 002c 6386     		strh	r3, [r4, #50]	@ movhi
 501              	.LVL42:
 502              	.LBE127:
 503              	.LBE128:
   7:/home/jonas/warwick/3dProfilometer/xpcc/src/xpcc/driver/ui/display/virtual_graphic_display.cpp **** 		height(static_cast<uint16_t>(this->rightLower[1] - this->leftUpper[1]))
 504              		.loc 2 7 0
 505 002e A786     		strh	r7, [r4, #52]	@ movhi
 506              	.LVL43:
 507              	.LBE129:
   9:/home/jonas/warwick/3dProfilometer/xpcc/src/xpcc/driver/ui/display/virtual_graphic_display.cpp **** }
 508              		.loc 2 9 0
 509 0030 2046     		mov	r0, r4
 510 0032 BDE8F081 		pop	{r4, r5, r6, r7, r8, pc}
 511              	.L18:
 512 0036 00BF     		.align	2
 513              	.L17:
 514 0038 00000000 		.word	_ZN4xpcc14GraphicDisplayC2Ev
 515 003c 08000000 		.word	.LANCHOR0+8
 516              		.cfi_endproc
 517              	.LFE1205:
 519              		.global	_ZN4xpcc21VirtualGraphicDisplayC1EPNS_14GraphicDisplayENS_6VectorIsLh2EEES4_
 520              		.thumb_set _ZN4xpcc21VirtualGraphicDisplayC1EPNS_14GraphicDisplayENS_6VectorIsLh2EEES4_,_ZN4xpcc21
 521              		.section	.text._ZN4xpcc21VirtualGraphicDisplay10setDisplayEPNS_14GraphicDisplayE,"ax",%progbits
 522              		.align	2
 523              		.global	_ZN4xpcc21VirtualGraphicDisplay10setDisplayEPNS_14GraphicDisplayE
 524              		.thumb
 525              		.thumb_func
 527              	_ZN4xpcc21VirtualGraphicDisplay10setDisplayEPNS_14GraphicDisplayE:
 528              	.LFB1207:
  13:/home/jonas/warwick/3dProfilometer/xpcc/src/xpcc/driver/ui/display/virtual_graphic_display.cpp **** {
 529              		.loc 2 13 0
 530              		.cfi_startproc
 531              		@ args = 0, pretend = 0, frame = 0
 532              		@ frame_needed = 0, uses_anonymous_args = 0
 533              		@ link register save eliminated.
 534              	.LVL44:
  14:/home/jonas/warwick/3dProfilometer/xpcc/src/xpcc/driver/ui/display/virtual_graphic_display.cpp **** 	this->display = display;
 535              		.loc 2 14 0
 536 0000 8162     		str	r1, [r0, #40]
 537 0002 7047     		bx	lr
 538              		.cfi_endproc
 539              	.LFE1207:
 541              		.global	_ZTVN4xpcc21VirtualGraphicDisplayE
 542              		.section	.rodata._ZTVN4xpcc21VirtualGraphicDisplayE,"a",%progbits
 543              		.align	3
 544              		.set	.LANCHOR0,. + 0
 547              	_ZTVN4xpcc21VirtualGraphicDisplayE:
 548 0000 00000000 		.word	0
 549 0004 00000000 		.word	0
 550 0008 00000000 		.word	_ZN4xpcc21VirtualGraphicDisplayD1Ev
 551 000c 00000000 		.word	_ZN4xpcc21VirtualGraphicDisplayD0Ev
 552 0010 00000000 		.word	_ZNK4xpcc21VirtualGraphicDisplay8getWidthEv
 553 0014 00000000 		.word	_ZNK4xpcc21VirtualGraphicDisplay9getHeightEv
 554 0018 00000000 		.word	_ZN4xpcc21VirtualGraphicDisplay5clearEv
 555 001c 00000000 		.word	_ZN4xpcc21VirtualGraphicDisplay6updateEv
 556 0020 00000000 		.word	_ZN4xpcc14GraphicDisplay12drawImageRawENS_6VectorIsLh2EEEttNS_8accessor5FlashIhEE
 557 0024 00000000 		.word	_ZN4xpcc14GraphicDisplay18drawHorizontalLineENS_6VectorIsLh2EEEt
 558 0028 00000000 		.word	_ZN4xpcc14GraphicDisplay16drawVerticalLineENS_6VectorIsLh2EEEt
 559 002c 00000000 		.word	_ZN4xpcc21VirtualGraphicDisplay8setPixelEss
 560 0030 00000000 		.word	_ZN4xpcc21VirtualGraphicDisplay10clearPixelEss
 561 0034 00000000 		.word	_ZN4xpcc21VirtualGraphicDisplay8getPixelEss
 562              		.text
 563              	.Letext0:
 564              		.file 6 "/opt/arm-2012.09/bin/../lib/gcc/arm-none-eabi/4.7.2/include/stddef.h"
 565              		.file 7 "/opt/arm-2012.09/bin/../lib/gcc/arm-none-eabi/4.7.2/../../../../arm-none-eabi/include/std
 566              		.file 8 "/home/jonas/warwick/3dProfilometer/xpcc/src/xpcc/math/geometry/geometric_traits.hpp"
 567              		.file 9 "/home/jonas/warwick/3dProfilometer/xpcc/src/xpcc/math/geometry/vector2.hpp"
 568              		.file 10 "/home/jonas/warwick/3dProfilometer/xpcc/src/xpcc/math/geometry/vector1.hpp"
 569              		.file 11 "/home/jonas/warwick/3dProfilometer/xpcc/src/xpcc/math/geometry/vector1_impl.hpp"
 570              		.file 12 "/home/jonas/warwick/3dProfilometer/xpcc/src/xpcc/math/matrix.hpp"
 571              		.file 13 "/home/jonas/warwick/3dProfilometer/xpcc/src/xpcc/math/matrix_impl.hpp"
 572              		.file 14 "/home/jonas/warwick/3dProfilometer/xpcc/src/xpcc/architecture/driver/accessor/ram.hpp"
 573              		.file 15 "/opt/arm-2012.09/bin/../lib/gcc/arm-none-eabi/4.7.2/../../../../arm-none-eabi/include/c+
 574              		.file 16 "/opt/arm-2012.09/bin/../lib/gcc/arm-none-eabi/4.7.2/../../../../arm-none-eabi/include/c+
 575              		.file 17 "/opt/arm-2012.09/bin/../lib/gcc/arm-none-eabi/4.7.2/../../../../arm-none-eabi/include/c+
 576              		.file 18 "/opt/arm-2012.09/bin/../lib/gcc/arm-none-eabi/4.7.2/../../../../arm-none-eabi/include/c+
 577              		.file 19 "/opt/arm-2012.09/bin/../lib/gcc/arm-none-eabi/4.7.2/../../../../arm-none-eabi/include/st
 578              		.file 20 "/opt/arm-2012.09/bin/../lib/gcc/arm-none-eabi/4.7.2/../../../../arm-none-eabi/include/c+
 579              		.file 21 "/opt/arm-2012.09/bin/../lib/gcc/arm-none-eabi/4.7.2/../../../../arm-none-eabi/include/st
 580              		.file 22 "/home/jonas/warwick/3dProfilometer/xpcc/src/xpcc/utils/template_metaprogramming.hpp"
 581              		.file 23 "<built-in>"