   1              		.syntax unified
   2              		.cpu cortex-m4
   3              		.eabi_attribute 27, 3
   4              		.fpu fpv4-sp-d16
   5              		.eabi_attribute 20, 1
   6              		.eabi_attribute 21, 1
   7              		.eabi_attribute 23, 3
   8              		.eabi_attribute 24, 1
   9              		.eabi_attribute 25, 1
  10              		.eabi_attribute 26, 1
  11              		.eabi_attribute 30, 2
  12              		.eabi_attribute 34, 1
  13              		.eabi_attribute 18, 4
  14              		.thumb
  15              		.file	"laserInterface.cpp"
  16              		.text
  17              	.Ltext0:
  18              		.cfi_sections	.debug_frame
  19              		.section	.text._ZN4xpcc15IODeviceWrapperINS_5stm3214BufferedUsart3EE5flushEv,"axG",%progbits,_ZN4x
  20              		.align	2
  21              		.weak	_ZN4xpcc15IODeviceWrapperINS_5stm3214BufferedUsart3EE5flushEv
  22              		.thumb
  23              		.thumb_func
  25              	_ZN4xpcc15IODeviceWrapperINS_5stm3214BufferedUsart3EE5flushEv:
  26              	.LFB900:
  27              		.file 1 "/home/jonas/warwick/3dProfilometer/xpcc/src/xpcc/io/iodevice_wrapper.hpp"
   1:/home/jonas/warwick/3dProfilometer/xpcc/src/xpcc/io/iodevice_wrapper.hpp **** // coding: utf-8
   2:/home/jonas/warwick/3dProfilometer/xpcc/src/xpcc/io/iodevice_wrapper.hpp **** // ----------------------------------------------------------------------------
   3:/home/jonas/warwick/3dProfilometer/xpcc/src/xpcc/io/iodevice_wrapper.hpp **** /* Copyright (c) 2009, Roboterclub Aachen e.V.
   4:/home/jonas/warwick/3dProfilometer/xpcc/src/xpcc/io/iodevice_wrapper.hpp ****  * All rights reserved.
   5:/home/jonas/warwick/3dProfilometer/xpcc/src/xpcc/io/iodevice_wrapper.hpp ****  *
   6:/home/jonas/warwick/3dProfilometer/xpcc/src/xpcc/io/iodevice_wrapper.hpp ****  * Redistribution and use in source and binary forms, with or without
   7:/home/jonas/warwick/3dProfilometer/xpcc/src/xpcc/io/iodevice_wrapper.hpp ****  * modification, are permitted provided that the following conditions are met:
   8:/home/jonas/warwick/3dProfilometer/xpcc/src/xpcc/io/iodevice_wrapper.hpp ****  * 
   9:/home/jonas/warwick/3dProfilometer/xpcc/src/xpcc/io/iodevice_wrapper.hpp ****  *     * Redistributions of source code must retain the above copyright
  10:/home/jonas/warwick/3dProfilometer/xpcc/src/xpcc/io/iodevice_wrapper.hpp ****  *       notice, this list of conditions and the following disclaimer.
  11:/home/jonas/warwick/3dProfilometer/xpcc/src/xpcc/io/iodevice_wrapper.hpp ****  *     * Redistributions in binary form must reproduce the above copyright
  12:/home/jonas/warwick/3dProfilometer/xpcc/src/xpcc/io/iodevice_wrapper.hpp ****  *       notice, this list of conditions and the following disclaimer in the
  13:/home/jonas/warwick/3dProfilometer/xpcc/src/xpcc/io/iodevice_wrapper.hpp ****  *       documentation and/or other materials provided with the distribution.
  14:/home/jonas/warwick/3dProfilometer/xpcc/src/xpcc/io/iodevice_wrapper.hpp ****  *     * Neither the name of the Roboterclub Aachen e.V. nor the
  15:/home/jonas/warwick/3dProfilometer/xpcc/src/xpcc/io/iodevice_wrapper.hpp ****  *       names of its contributors may be used to endorse or promote products
  16:/home/jonas/warwick/3dProfilometer/xpcc/src/xpcc/io/iodevice_wrapper.hpp ****  *       derived from this software without specific prior written permission.
  17:/home/jonas/warwick/3dProfilometer/xpcc/src/xpcc/io/iodevice_wrapper.hpp ****  *
  18:/home/jonas/warwick/3dProfilometer/xpcc/src/xpcc/io/iodevice_wrapper.hpp ****  * THIS SOFTWARE IS PROVIDED BY ROBOTERCLUB AACHEN E.V. ''AS IS'' AND ANY
  19:/home/jonas/warwick/3dProfilometer/xpcc/src/xpcc/io/iodevice_wrapper.hpp ****  * EXPRESS OR IMPLIED WARRANTIES, INCLUDING, BUT NOT LIMITED TO, THE IMPLIED
  20:/home/jonas/warwick/3dProfilometer/xpcc/src/xpcc/io/iodevice_wrapper.hpp ****  * WARRANTIES OF MERCHANTABILITY AND FITNESS FOR A PARTICULAR PURPOSE ARE
  21:/home/jonas/warwick/3dProfilometer/xpcc/src/xpcc/io/iodevice_wrapper.hpp ****  * DISCLAIMED. IN NO EVENT SHALL ROBOTERCLUB AACHEN E.V. BE LIABLE FOR ANY
  22:/home/jonas/warwick/3dProfilometer/xpcc/src/xpcc/io/iodevice_wrapper.hpp ****  * DIRECT, INDIRECT, INCIDENTAL, SPECIAL, EXEMPLARY, OR CONSEQUENTIAL DAMAGES
  23:/home/jonas/warwick/3dProfilometer/xpcc/src/xpcc/io/iodevice_wrapper.hpp ****  * (INCLUDING, BUT NOT LIMITED TO, PROCUREMENT OF SUBSTITUTE GOODS OR SERVICES;
  24:/home/jonas/warwick/3dProfilometer/xpcc/src/xpcc/io/iodevice_wrapper.hpp ****  * LOSS OF USE, DATA, OR PROFITS; OR BUSINESS INTERRUPTION) HOWEVER CAUSED AND
  25:/home/jonas/warwick/3dProfilometer/xpcc/src/xpcc/io/iodevice_wrapper.hpp ****  * ON ANY THEORY OF LIABILITY, WHETHER IN CONTRACT, STRICT LIABILITY, OR TORT
  26:/home/jonas/warwick/3dProfilometer/xpcc/src/xpcc/io/iodevice_wrapper.hpp ****  * (INCLUDING NEGLIGENCE OR OTHERWISE) ARISING IN ANY WAY OUT OF THE USE OF
  27:/home/jonas/warwick/3dProfilometer/xpcc/src/xpcc/io/iodevice_wrapper.hpp ****  * THIS SOFTWARE, EVEN IF ADVISED OF THE POSSIBILITY OF SUCH DAMAGE.
  28:/home/jonas/warwick/3dProfilometer/xpcc/src/xpcc/io/iodevice_wrapper.hpp ****  */
  29:/home/jonas/warwick/3dProfilometer/xpcc/src/xpcc/io/iodevice_wrapper.hpp **** // ----------------------------------------------------------------------------
  30:/home/jonas/warwick/3dProfilometer/xpcc/src/xpcc/io/iodevice_wrapper.hpp **** 
  31:/home/jonas/warwick/3dProfilometer/xpcc/src/xpcc/io/iodevice_wrapper.hpp **** #ifndef XPCC__IODEVICE_WRAPPER_HPP
  32:/home/jonas/warwick/3dProfilometer/xpcc/src/xpcc/io/iodevice_wrapper.hpp **** #define XPCC__IODEVICE_WRAPPER_HPP
  33:/home/jonas/warwick/3dProfilometer/xpcc/src/xpcc/io/iodevice_wrapper.hpp **** 
  34:/home/jonas/warwick/3dProfilometer/xpcc/src/xpcc/io/iodevice_wrapper.hpp **** #include <stdint.h>
  35:/home/jonas/warwick/3dProfilometer/xpcc/src/xpcc/io/iodevice_wrapper.hpp **** 
  36:/home/jonas/warwick/3dProfilometer/xpcc/src/xpcc/io/iodevice_wrapper.hpp **** #include "iodevice.hpp"
  37:/home/jonas/warwick/3dProfilometer/xpcc/src/xpcc/io/iodevice_wrapper.hpp **** 
  38:/home/jonas/warwick/3dProfilometer/xpcc/src/xpcc/io/iodevice_wrapper.hpp **** namespace xpcc
  39:/home/jonas/warwick/3dProfilometer/xpcc/src/xpcc/io/iodevice_wrapper.hpp **** {
  40:/home/jonas/warwick/3dProfilometer/xpcc/src/xpcc/io/iodevice_wrapper.hpp **** 	/**
  41:/home/jonas/warwick/3dProfilometer/xpcc/src/xpcc/io/iodevice_wrapper.hpp **** 	 * \brief		Wrapper to use any peripheral device that supports static
  42:/home/jonas/warwick/3dProfilometer/xpcc/src/xpcc/io/iodevice_wrapper.hpp **** 	 * 				put() and get() as an IODevice
  43:/home/jonas/warwick/3dProfilometer/xpcc/src/xpcc/io/iodevice_wrapper.hpp **** 	 * 
  44:/home/jonas/warwick/3dProfilometer/xpcc/src/xpcc/io/iodevice_wrapper.hpp **** 	 * \tparam		T	Peripheral which should be wrapped
  45:/home/jonas/warwick/3dProfilometer/xpcc/src/xpcc/io/iodevice_wrapper.hpp **** 	 * 
  46:/home/jonas/warwick/3dProfilometer/xpcc/src/xpcc/io/iodevice_wrapper.hpp **** 	 * Example:
  47:/home/jonas/warwick/3dProfilometer/xpcc/src/xpcc/io/iodevice_wrapper.hpp **** 	 * \code
  48:/home/jonas/warwick/3dProfilometer/xpcc/src/xpcc/io/iodevice_wrapper.hpp **** 	 * // configure a UART
  49:/home/jonas/warwick/3dProfilometer/xpcc/src/xpcc/io/iodevice_wrapper.hpp **** 	 * xpcc::BufferedUart0 uart(9600);
  50:/home/jonas/warwick/3dProfilometer/xpcc/src/xpcc/io/iodevice_wrapper.hpp **** 	 * 
  51:/home/jonas/warwick/3dProfilometer/xpcc/src/xpcc/io/iodevice_wrapper.hpp **** 	 * // wrap it into an IODevice
  52:/home/jonas/warwick/3dProfilometer/xpcc/src/xpcc/io/iodevice_wrapper.hpp **** 	 * xpcc::IODeviceWrapper<xpcc::BufferedUart0> device(uart);
  53:/home/jonas/warwick/3dProfilometer/xpcc/src/xpcc/io/iodevice_wrapper.hpp **** 	 * 
  54:/home/jonas/warwick/3dProfilometer/xpcc/src/xpcc/io/iodevice_wrapper.hpp **** 	 * // use this device to print a message
  55:/home/jonas/warwick/3dProfilometer/xpcc/src/xpcc/io/iodevice_wrapper.hpp **** 	 * device.write("Hello");
  56:/home/jonas/warwick/3dProfilometer/xpcc/src/xpcc/io/iodevice_wrapper.hpp **** 	 * 
  57:/home/jonas/warwick/3dProfilometer/xpcc/src/xpcc/io/iodevice_wrapper.hpp **** 	 * // or create a IOStream and use the stream to print something
  58:/home/jonas/warwick/3dProfilometer/xpcc/src/xpcc/io/iodevice_wrapper.hpp **** 	 * xpcc::IOStream stream(device);
  59:/home/jonas/warwick/3dProfilometer/xpcc/src/xpcc/io/iodevice_wrapper.hpp **** 	 * stream << " World!";
  60:/home/jonas/warwick/3dProfilometer/xpcc/src/xpcc/io/iodevice_wrapper.hpp **** 	 * \endcode
  61:/home/jonas/warwick/3dProfilometer/xpcc/src/xpcc/io/iodevice_wrapper.hpp **** 	 * 
  62:/home/jonas/warwick/3dProfilometer/xpcc/src/xpcc/io/iodevice_wrapper.hpp **** 	 * \ingroup		io
  63:/home/jonas/warwick/3dProfilometer/xpcc/src/xpcc/io/iodevice_wrapper.hpp **** 	 */
  64:/home/jonas/warwick/3dProfilometer/xpcc/src/xpcc/io/iodevice_wrapper.hpp **** 	template<typename T>
  65:/home/jonas/warwick/3dProfilometer/xpcc/src/xpcc/io/iodevice_wrapper.hpp **** 	class IODeviceWrapper : public IODevice
  66:/home/jonas/warwick/3dProfilometer/xpcc/src/xpcc/io/iodevice_wrapper.hpp **** 	{
  67:/home/jonas/warwick/3dProfilometer/xpcc/src/xpcc/io/iodevice_wrapper.hpp **** 	public:
  68:/home/jonas/warwick/3dProfilometer/xpcc/src/xpcc/io/iodevice_wrapper.hpp **** 		/**
  69:/home/jonas/warwick/3dProfilometer/xpcc/src/xpcc/io/iodevice_wrapper.hpp **** 		 * \brief	Constructor
  70:/home/jonas/warwick/3dProfilometer/xpcc/src/xpcc/io/iodevice_wrapper.hpp **** 		 *
  71:/home/jonas/warwick/3dProfilometer/xpcc/src/xpcc/io/iodevice_wrapper.hpp **** 		 * \param	device	configured object
  72:/home/jonas/warwick/3dProfilometer/xpcc/src/xpcc/io/iodevice_wrapper.hpp **** 		 */
  73:/home/jonas/warwick/3dProfilometer/xpcc/src/xpcc/io/iodevice_wrapper.hpp **** 		IODeviceWrapper(const T& device)
  74:/home/jonas/warwick/3dProfilometer/xpcc/src/xpcc/io/iodevice_wrapper.hpp **** 		{
  75:/home/jonas/warwick/3dProfilometer/xpcc/src/xpcc/io/iodevice_wrapper.hpp **** 			// get rid of the warning about an unused parameter
  76:/home/jonas/warwick/3dProfilometer/xpcc/src/xpcc/io/iodevice_wrapper.hpp **** 			(void) device;
  77:/home/jonas/warwick/3dProfilometer/xpcc/src/xpcc/io/iodevice_wrapper.hpp **** 		}
  78:/home/jonas/warwick/3dProfilometer/xpcc/src/xpcc/io/iodevice_wrapper.hpp **** 		IODeviceWrapper()
  79:/home/jonas/warwick/3dProfilometer/xpcc/src/xpcc/io/iodevice_wrapper.hpp **** 		{
  80:/home/jonas/warwick/3dProfilometer/xpcc/src/xpcc/io/iodevice_wrapper.hpp **** 		}
  81:/home/jonas/warwick/3dProfilometer/xpcc/src/xpcc/io/iodevice_wrapper.hpp **** 		
  82:/home/jonas/warwick/3dProfilometer/xpcc/src/xpcc/io/iodevice_wrapper.hpp **** 		virtual void
  83:/home/jonas/warwick/3dProfilometer/xpcc/src/xpcc/io/iodevice_wrapper.hpp **** 		write(char c)
  84:/home/jonas/warwick/3dProfilometer/xpcc/src/xpcc/io/iodevice_wrapper.hpp **** 		{
  85:/home/jonas/warwick/3dProfilometer/xpcc/src/xpcc/io/iodevice_wrapper.hpp **** 			T::write(c);
  86:/home/jonas/warwick/3dProfilometer/xpcc/src/xpcc/io/iodevice_wrapper.hpp **** 		}
  87:/home/jonas/warwick/3dProfilometer/xpcc/src/xpcc/io/iodevice_wrapper.hpp **** 		
  88:/home/jonas/warwick/3dProfilometer/xpcc/src/xpcc/io/iodevice_wrapper.hpp **** 		virtual void
  89:/home/jonas/warwick/3dProfilometer/xpcc/src/xpcc/io/iodevice_wrapper.hpp **** 		write(const char *s)
  90:/home/jonas/warwick/3dProfilometer/xpcc/src/xpcc/io/iodevice_wrapper.hpp **** 		{
  91:/home/jonas/warwick/3dProfilometer/xpcc/src/xpcc/io/iodevice_wrapper.hpp **** 			char c;
  92:/home/jonas/warwick/3dProfilometer/xpcc/src/xpcc/io/iodevice_wrapper.hpp **** 			while ((c = *s++)) {
  93:/home/jonas/warwick/3dProfilometer/xpcc/src/xpcc/io/iodevice_wrapper.hpp **** 				T::write(static_cast<uint8_t>(c));
  94:/home/jonas/warwick/3dProfilometer/xpcc/src/xpcc/io/iodevice_wrapper.hpp **** 			}
  95:/home/jonas/warwick/3dProfilometer/xpcc/src/xpcc/io/iodevice_wrapper.hpp **** 		}
  96:/home/jonas/warwick/3dProfilometer/xpcc/src/xpcc/io/iodevice_wrapper.hpp **** 		
  97:/home/jonas/warwick/3dProfilometer/xpcc/src/xpcc/io/iodevice_wrapper.hpp **** 		virtual void
  98:/home/jonas/warwick/3dProfilometer/xpcc/src/xpcc/io/iodevice_wrapper.hpp **** 		flush()
  28              		.loc 1 98 0
  29              		.cfi_startproc
  30              		@ args = 0, pretend = 0, frame = 0
  31              		@ frame_needed = 0, uses_anonymous_args = 0
  32              		@ link register save eliminated.
  33              	.LVL0:
  34 0000 7047     		bx	lr
  35              		.cfi_endproc
  36              	.LFE900:
  38 0002 00BF     		.section	.text._ZN4xpcc15IODeviceWrapperINS_5stm3214BufferedUsart3EE4readERc,"axG",%progbits,_ZN4x
  39              		.align	2
  40              		.weak	_ZN4xpcc15IODeviceWrapperINS_5stm3214BufferedUsart3EE4readERc
  41              		.thumb
  42              		.thumb_func
  44              	_ZN4xpcc15IODeviceWrapperINS_5stm3214BufferedUsart3EE4readERc:
  45              	.LFB901:
  99:/home/jonas/warwick/3dProfilometer/xpcc/src/xpcc/io/iodevice_wrapper.hpp **** 		{
 100:/home/jonas/warwick/3dProfilometer/xpcc/src/xpcc/io/iodevice_wrapper.hpp **** 		}
 101:/home/jonas/warwick/3dProfilometer/xpcc/src/xpcc/io/iodevice_wrapper.hpp **** 		
 102:/home/jonas/warwick/3dProfilometer/xpcc/src/xpcc/io/iodevice_wrapper.hpp **** 		virtual bool
 103:/home/jonas/warwick/3dProfilometer/xpcc/src/xpcc/io/iodevice_wrapper.hpp **** 		read(char& c)
  46              		.loc 1 103 0
  47              		.cfi_startproc
  48              		@ args = 0, pretend = 0, frame = 8
  49              		@ frame_needed = 0, uses_anonymous_args = 0
  50              	.LVL1:
  51              		.loc 1 103 0
  52 0000 10B5     		push	{r4, lr}
  53              	.LCFI0:
  54              		.cfi_def_cfa_offset 8
  55              		.cfi_offset 4, -8
  56              		.cfi_offset 14, -4
  57 0002 82B0     		sub	sp, sp, #8
  58              	.LCFI1:
  59              		.cfi_def_cfa_offset 16
  60              	.LBB13:
 104:/home/jonas/warwick/3dProfilometer/xpcc/src/xpcc/io/iodevice_wrapper.hpp **** 		{
 105:/home/jonas/warwick/3dProfilometer/xpcc/src/xpcc/io/iodevice_wrapper.hpp **** 			// FIXME
 106:/home/jonas/warwick/3dProfilometer/xpcc/src/xpcc/io/iodevice_wrapper.hpp **** 			uint8_t t;
 107:/home/jonas/warwick/3dProfilometer/xpcc/src/xpcc/io/iodevice_wrapper.hpp **** 			if (T::read(t)) {
  61              		.loc 1 107 0
  62 0004 0DF10700 		add	r0, sp, #7
  63              	.LVL2:
  64 0008 044B     		ldr	r3, .L6
  65              	.LBE13:
 103:/home/jonas/warwick/3dProfilometer/xpcc/src/xpcc/io/iodevice_wrapper.hpp **** 		read(char& c)
  66              		.loc 1 103 0
  67 000a 0C46     		mov	r4, r1
  68              	.LBB14:
  69              		.loc 1 107 0
  70 000c 9847     		blx	r3
  71              	.LVL3:
  72 000e 18B1     		cbz	r0, .L3
  73              	.LVL4:
 108:/home/jonas/warwick/3dProfilometer/xpcc/src/xpcc/io/iodevice_wrapper.hpp **** 				c = t;
  74              		.loc 1 108 0
  75 0010 9DF80730 		ldrb	r3, [sp, #7]	@ zero_extendqisi2
  76              	.LVL5:
 109:/home/jonas/warwick/3dProfilometer/xpcc/src/xpcc/io/iodevice_wrapper.hpp **** 				return true;
  77              		.loc 1 109 0
  78 0014 0120     		movs	r0, #1
  79              	.LVL6:
 108:/home/jonas/warwick/3dProfilometer/xpcc/src/xpcc/io/iodevice_wrapper.hpp **** 				c = t;
  80              		.loc 1 108 0
  81 0016 2370     		strb	r3, [r4, #0]
  82              	.L3:
  83              	.LBE14:
 110:/home/jonas/warwick/3dProfilometer/xpcc/src/xpcc/io/iodevice_wrapper.hpp **** 			}
 111:/home/jonas/warwick/3dProfilometer/xpcc/src/xpcc/io/iodevice_wrapper.hpp **** 			else {
 112:/home/jonas/warwick/3dProfilometer/xpcc/src/xpcc/io/iodevice_wrapper.hpp **** 				return false;
 113:/home/jonas/warwick/3dProfilometer/xpcc/src/xpcc/io/iodevice_wrapper.hpp **** 			}
 114:/home/jonas/warwick/3dProfilometer/xpcc/src/xpcc/io/iodevice_wrapper.hpp **** 		}
  84              		.loc 1 114 0
  85 0018 02B0     		add	sp, sp, #8
  86 001a 10BD     		pop	{r4, pc}
  87              	.L7:
  88              		.align	2
  89              	.L6:
  90 001c 00000000 		.word	_ZN4xpcc5stm3214BufferedUsart34readERh
  91              		.cfi_endproc
  92              	.LFE901:
  94              		.section	.text._ZN4xpcc15IODeviceWrapperINS_5stm3214BufferedUsart3EE5writeEPKc,"axG",%progbits,_ZN
  95              		.align	2
  96              		.weak	_ZN4xpcc15IODeviceWrapperINS_5stm3214BufferedUsart3EE5writeEPKc
  97              		.thumb
  98              		.thumb_func
 100              	_ZN4xpcc15IODeviceWrapperINS_5stm3214BufferedUsart3EE5writeEPKc:
 101              	.LFB899:
  89:/home/jonas/warwick/3dProfilometer/xpcc/src/xpcc/io/iodevice_wrapper.hpp **** 		write(const char *s)
 102              		.loc 1 89 0
 103              		.cfi_startproc
 104              		@ args = 0, pretend = 0, frame = 0
 105              		@ frame_needed = 0, uses_anonymous_args = 0
 106              	.LVL7:
 107 0000 38B5     		push	{r3, r4, r5, lr}
 108              	.LCFI2:
 109              		.cfi_def_cfa_offset 16
 110              		.cfi_offset 3, -16
 111              		.cfi_offset 4, -12
 112              		.cfi_offset 5, -8
 113              		.cfi_offset 14, -4
 114              	.LBB15:
  92:/home/jonas/warwick/3dProfilometer/xpcc/src/xpcc/io/iodevice_wrapper.hpp **** 			while ((c = *s++)) {
 115              		.loc 1 92 0
 116 0002 0C46     		mov	r4, r1
 117 0004 14F8010B 		ldrb	r0, [r4], #1	@ zero_extendqisi2
 118              	.LVL8:
 119 0008 28B1     		cbz	r0, .L8
 120 000a 034D     		ldr	r5, .L14
 121              	.LVL9:
 122              	.L10:
  93:/home/jonas/warwick/3dProfilometer/xpcc/src/xpcc/io/iodevice_wrapper.hpp **** 				T::write(static_cast<uint8_t>(c));
 123              		.loc 1 93 0
 124 000c A847     		blx	r5
 125              	.LVL10:
  92:/home/jonas/warwick/3dProfilometer/xpcc/src/xpcc/io/iodevice_wrapper.hpp **** 			while ((c = *s++)) {
 126              		.loc 1 92 0
 127 000e 14F8010B 		ldrb	r0, [r4], #1	@ zero_extendqisi2
 128              	.LVL11:
 129 0012 0028     		cmp	r0, #0
 130 0014 FAD1     		bne	.L10
 131              	.LVL12:
 132              	.L8:
 133 0016 38BD     		pop	{r3, r4, r5, pc}
 134              	.L15:
 135              		.align	2
 136              	.L14:
 137 0018 00000000 		.word	_ZN4xpcc5stm3214BufferedUsart35writeEh
 138              	.LBE15:
 139              		.cfi_endproc
 140              	.LFE899:
 142              		.section	.text._ZN4xpcc15IODeviceWrapperINS_5stm3214BufferedUsart3EE5writeEc,"axG",%progbits,_ZN4x
 143              		.align	2
 144              		.weak	_ZN4xpcc15IODeviceWrapperINS_5stm3214BufferedUsart3EE5writeEc
 145              		.thumb
 146              		.thumb_func
 148              	_ZN4xpcc15IODeviceWrapperINS_5stm3214BufferedUsart3EE5writeEc:
 149              	.LFB898:
  83:/home/jonas/warwick/3dProfilometer/xpcc/src/xpcc/io/iodevice_wrapper.hpp **** 		write(char c)
 150              		.loc 1 83 0
 151              		.cfi_startproc
 152              		@ args = 0, pretend = 0, frame = 0
 153              		@ frame_needed = 0, uses_anonymous_args = 0
 154              	.LVL13:
 155 0000 08B5     		push	{r3, lr}
 156              	.LCFI3:
 157              		.cfi_def_cfa_offset 8
 158              		.cfi_offset 3, -8
 159              		.cfi_offset 14, -4
  85:/home/jonas/warwick/3dProfilometer/xpcc/src/xpcc/io/iodevice_wrapper.hpp **** 			T::write(c);
 160              		.loc 1 85 0
 161 0002 0846     		mov	r0, r1
 162              	.LVL14:
 163 0004 014B     		ldr	r3, .L17
 164 0006 9847     		blx	r3
 165              	.LVL15:
 166 0008 08BD     		pop	{r3, pc}
 167              	.L18:
 168 000a 00BF     		.align	2
 169              	.L17:
 170 000c 00000000 		.word	_ZN4xpcc5stm3214BufferedUsart35writeEh
 171              		.cfi_endproc
 172              	.LFE898:
 174              		.section	.text._ZN4xpcc8IOStreamlsERKc.isra.0,"ax",%progbits
 175              		.align	2
 176              		.thumb
 177              		.thumb_func
 179              	_ZN4xpcc8IOStreamlsERKc.isra.0:
 180              	.LFB903:
 181              		.file 2 "/home/jonas/warwick/3dProfilometer/xpcc/src/xpcc/io/iostream.hpp"
   1:/home/jonas/warwick/3dProfilometer/xpcc/src/xpcc/io/iostream.hpp **** // coding: utf-8
   2:/home/jonas/warwick/3dProfilometer/xpcc/src/xpcc/io/iostream.hpp **** // ----------------------------------------------------------------------------
   3:/home/jonas/warwick/3dProfilometer/xpcc/src/xpcc/io/iostream.hpp **** /* Copyright (c) 2009, Roboterclub Aachen e.V.
   4:/home/jonas/warwick/3dProfilometer/xpcc/src/xpcc/io/iostream.hpp ****  * All rights reserved.
   5:/home/jonas/warwick/3dProfilometer/xpcc/src/xpcc/io/iostream.hpp ****  *
   6:/home/jonas/warwick/3dProfilometer/xpcc/src/xpcc/io/iostream.hpp ****  * Redistribution and use in source and binary forms, with or without
   7:/home/jonas/warwick/3dProfilometer/xpcc/src/xpcc/io/iostream.hpp ****  * modification, are permitted provided that the following conditions are met:
   8:/home/jonas/warwick/3dProfilometer/xpcc/src/xpcc/io/iostream.hpp ****  * 
   9:/home/jonas/warwick/3dProfilometer/xpcc/src/xpcc/io/iostream.hpp ****  *     * Redistributions of source code must retain the above copyright
  10:/home/jonas/warwick/3dProfilometer/xpcc/src/xpcc/io/iostream.hpp ****  *       notice, this list of conditions and the following disclaimer.
  11:/home/jonas/warwick/3dProfilometer/xpcc/src/xpcc/io/iostream.hpp ****  *     * Redistributions in binary form must reproduce the above copyright
  12:/home/jonas/warwick/3dProfilometer/xpcc/src/xpcc/io/iostream.hpp ****  *       notice, this list of conditions and the following disclaimer in the
  13:/home/jonas/warwick/3dProfilometer/xpcc/src/xpcc/io/iostream.hpp ****  *       documentation and/or other materials provided with the distribution.
  14:/home/jonas/warwick/3dProfilometer/xpcc/src/xpcc/io/iostream.hpp ****  *     * Neither the name of the Roboterclub Aachen e.V. nor the
  15:/home/jonas/warwick/3dProfilometer/xpcc/src/xpcc/io/iostream.hpp ****  *       names of its contributors may be used to endorse or promote products
  16:/home/jonas/warwick/3dProfilometer/xpcc/src/xpcc/io/iostream.hpp ****  *       derived from this software without specific prior written permission.
  17:/home/jonas/warwick/3dProfilometer/xpcc/src/xpcc/io/iostream.hpp ****  *
  18:/home/jonas/warwick/3dProfilometer/xpcc/src/xpcc/io/iostream.hpp ****  * THIS SOFTWARE IS PROVIDED BY ROBOTERCLUB AACHEN E.V. ''AS IS'' AND ANY
  19:/home/jonas/warwick/3dProfilometer/xpcc/src/xpcc/io/iostream.hpp ****  * EXPRESS OR IMPLIED WARRANTIES, INCLUDING, BUT NOT LIMITED TO, THE IMPLIED
  20:/home/jonas/warwick/3dProfilometer/xpcc/src/xpcc/io/iostream.hpp ****  * WARRANTIES OF MERCHANTABILITY AND FITNESS FOR A PARTICULAR PURPOSE ARE
  21:/home/jonas/warwick/3dProfilometer/xpcc/src/xpcc/io/iostream.hpp ****  * DISCLAIMED. IN NO EVENT SHALL ROBOTERCLUB AACHEN E.V. BE LIABLE FOR ANY
  22:/home/jonas/warwick/3dProfilometer/xpcc/src/xpcc/io/iostream.hpp ****  * DIRECT, INDIRECT, INCIDENTAL, SPECIAL, EXEMPLARY, OR CONSEQUENTIAL DAMAGES
  23:/home/jonas/warwick/3dProfilometer/xpcc/src/xpcc/io/iostream.hpp ****  * (INCLUDING, BUT NOT LIMITED TO, PROCUREMENT OF SUBSTITUTE GOODS OR SERVICES;
  24:/home/jonas/warwick/3dProfilometer/xpcc/src/xpcc/io/iostream.hpp ****  * LOSS OF USE, DATA, OR PROFITS; OR BUSINESS INTERRUPTION) HOWEVER CAUSED AND
  25:/home/jonas/warwick/3dProfilometer/xpcc/src/xpcc/io/iostream.hpp ****  * ON ANY THEORY OF LIABILITY, WHETHER IN CONTRACT, STRICT LIABILITY, OR TORT
  26:/home/jonas/warwick/3dProfilometer/xpcc/src/xpcc/io/iostream.hpp ****  * (INCLUDING NEGLIGENCE OR OTHERWISE) ARISING IN ANY WAY OUT OF THE USE OF
  27:/home/jonas/warwick/3dProfilometer/xpcc/src/xpcc/io/iostream.hpp ****  * THIS SOFTWARE, EVEN IF ADVISED OF THE POSSIBILITY OF SUCH DAMAGE.
  28:/home/jonas/warwick/3dProfilometer/xpcc/src/xpcc/io/iostream.hpp ****  */
  29:/home/jonas/warwick/3dProfilometer/xpcc/src/xpcc/io/iostream.hpp **** // ----------------------------------------------------------------------------
  30:/home/jonas/warwick/3dProfilometer/xpcc/src/xpcc/io/iostream.hpp **** 
  31:/home/jonas/warwick/3dProfilometer/xpcc/src/xpcc/io/iostream.hpp **** #ifndef XPCC__IOSTREAM_HPP
  32:/home/jonas/warwick/3dProfilometer/xpcc/src/xpcc/io/iostream.hpp **** #define XPCC__IOSTREAM_HPP
  33:/home/jonas/warwick/3dProfilometer/xpcc/src/xpcc/io/iostream.hpp **** 
  34:/home/jonas/warwick/3dProfilometer/xpcc/src/xpcc/io/iostream.hpp **** #include <xpcc/architecture/utils.hpp>
  35:/home/jonas/warwick/3dProfilometer/xpcc/src/xpcc/io/iostream.hpp **** 
  36:/home/jonas/warwick/3dProfilometer/xpcc/src/xpcc/io/iostream.hpp **** #include "iodevice.hpp"
  37:/home/jonas/warwick/3dProfilometer/xpcc/src/xpcc/io/iostream.hpp **** #include "iodevice_wrapper.hpp"
  38:/home/jonas/warwick/3dProfilometer/xpcc/src/xpcc/io/iostream.hpp **** 
  39:/home/jonas/warwick/3dProfilometer/xpcc/src/xpcc/io/iostream.hpp **** namespace xpcc
  40:/home/jonas/warwick/3dProfilometer/xpcc/src/xpcc/io/iostream.hpp **** {
  41:/home/jonas/warwick/3dProfilometer/xpcc/src/xpcc/io/iostream.hpp **** 	/**
  42:/home/jonas/warwick/3dProfilometer/xpcc/src/xpcc/io/iostream.hpp **** 	 * \brief 	This Formats all primary types into a string stream for
  43:/home/jonas/warwick/3dProfilometer/xpcc/src/xpcc/io/iostream.hpp **** 	 * 			output or it reads values from a input and converts them to
  44:/home/jonas/warwick/3dProfilometer/xpcc/src/xpcc/io/iostream.hpp **** 	 * 			a given type;
  45:/home/jonas/warwick/3dProfilometer/xpcc/src/xpcc/io/iostream.hpp **** 	 *
  46:/home/jonas/warwick/3dProfilometer/xpcc/src/xpcc/io/iostream.hpp **** 	 * \ingroup io
  47:/home/jonas/warwick/3dProfilometer/xpcc/src/xpcc/io/iostream.hpp **** 	 * \author	Martin Rosekeit <martin.rosekeit@rwth-aachen.de>
  48:/home/jonas/warwick/3dProfilometer/xpcc/src/xpcc/io/iostream.hpp **** 	 */
  49:/home/jonas/warwick/3dProfilometer/xpcc/src/xpcc/io/iostream.hpp **** 	class IOStream
  50:/home/jonas/warwick/3dProfilometer/xpcc/src/xpcc/io/iostream.hpp **** 	{
  51:/home/jonas/warwick/3dProfilometer/xpcc/src/xpcc/io/iostream.hpp **** 	public :
  52:/home/jonas/warwick/3dProfilometer/xpcc/src/xpcc/io/iostream.hpp **** 		/**
  53:/home/jonas/warwick/3dProfilometer/xpcc/src/xpcc/io/iostream.hpp **** 		 * \brief	Constructor
  54:/home/jonas/warwick/3dProfilometer/xpcc/src/xpcc/io/iostream.hpp **** 		 * 
  55:/home/jonas/warwick/3dProfilometer/xpcc/src/xpcc/io/iostream.hpp **** 		 * \param	device	device to write the stream to
  56:/home/jonas/warwick/3dProfilometer/xpcc/src/xpcc/io/iostream.hpp **** 		 * 
  57:/home/jonas/warwick/3dProfilometer/xpcc/src/xpcc/io/iostream.hpp **** 		 * \code
  58:/home/jonas/warwick/3dProfilometer/xpcc/src/xpcc/io/iostream.hpp **** 		 *	MyIODevice device;
  59:/home/jonas/warwick/3dProfilometer/xpcc/src/xpcc/io/iostream.hpp **** 		 *	IOStream stream( device );
  60:/home/jonas/warwick/3dProfilometer/xpcc/src/xpcc/io/iostream.hpp **** 		 * \endcode
  61:/home/jonas/warwick/3dProfilometer/xpcc/src/xpcc/io/iostream.hpp **** 		 */
  62:/home/jonas/warwick/3dProfilometer/xpcc/src/xpcc/io/iostream.hpp **** 		IOStream(IODevice& device);
  63:/home/jonas/warwick/3dProfilometer/xpcc/src/xpcc/io/iostream.hpp **** 
  64:/home/jonas/warwick/3dProfilometer/xpcc/src/xpcc/io/iostream.hpp **** 		inline IOStream&
  65:/home/jonas/warwick/3dProfilometer/xpcc/src/xpcc/io/iostream.hpp **** 		write(char c)
  66:/home/jonas/warwick/3dProfilometer/xpcc/src/xpcc/io/iostream.hpp **** 		{
  67:/home/jonas/warwick/3dProfilometer/xpcc/src/xpcc/io/iostream.hpp **** 			this->device->write(c);
  68:/home/jonas/warwick/3dProfilometer/xpcc/src/xpcc/io/iostream.hpp **** 			return *this;
  69:/home/jonas/warwick/3dProfilometer/xpcc/src/xpcc/io/iostream.hpp **** 		}
  70:/home/jonas/warwick/3dProfilometer/xpcc/src/xpcc/io/iostream.hpp **** 		
  71:/home/jonas/warwick/3dProfilometer/xpcc/src/xpcc/io/iostream.hpp **** 		inline IOStream&
  72:/home/jonas/warwick/3dProfilometer/xpcc/src/xpcc/io/iostream.hpp **** 		flush()
  73:/home/jonas/warwick/3dProfilometer/xpcc/src/xpcc/io/iostream.hpp **** 		{
  74:/home/jonas/warwick/3dProfilometer/xpcc/src/xpcc/io/iostream.hpp **** 			this->device->flush();
  75:/home/jonas/warwick/3dProfilometer/xpcc/src/xpcc/io/iostream.hpp **** 			this->mode = Mode::Ascii;
  76:/home/jonas/warwick/3dProfilometer/xpcc/src/xpcc/io/iostream.hpp **** 			return *this;
  77:/home/jonas/warwick/3dProfilometer/xpcc/src/xpcc/io/iostream.hpp **** 		}
  78:/home/jonas/warwick/3dProfilometer/xpcc/src/xpcc/io/iostream.hpp **** 		
  79:/home/jonas/warwick/3dProfilometer/xpcc/src/xpcc/io/iostream.hpp **** 		/// set the output mode to Mode::Binary style for \c char and \c char*
  80:/home/jonas/warwick/3dProfilometer/xpcc/src/xpcc/io/iostream.hpp **** 		ALWAYS_INLINE IOStream&
  81:/home/jonas/warwick/3dProfilometer/xpcc/src/xpcc/io/iostream.hpp **** 		bin()
  82:/home/jonas/warwick/3dProfilometer/xpcc/src/xpcc/io/iostream.hpp **** 		{
  83:/home/jonas/warwick/3dProfilometer/xpcc/src/xpcc/io/iostream.hpp **** 			this->mode = Mode::Binary;
  84:/home/jonas/warwick/3dProfilometer/xpcc/src/xpcc/io/iostream.hpp **** 			return *this;
  85:/home/jonas/warwick/3dProfilometer/xpcc/src/xpcc/io/iostream.hpp **** 		}
  86:/home/jonas/warwick/3dProfilometer/xpcc/src/xpcc/io/iostream.hpp **** 
  87:/home/jonas/warwick/3dProfilometer/xpcc/src/xpcc/io/iostream.hpp **** 		/// set the output mode to Mode::Hexadecimal style for \c char and \c char*
  88:/home/jonas/warwick/3dProfilometer/xpcc/src/xpcc/io/iostream.hpp **** 		ALWAYS_INLINE IOStream&
  89:/home/jonas/warwick/3dProfilometer/xpcc/src/xpcc/io/iostream.hpp **** 		hex()
  90:/home/jonas/warwick/3dProfilometer/xpcc/src/xpcc/io/iostream.hpp **** 		{
  91:/home/jonas/warwick/3dProfilometer/xpcc/src/xpcc/io/iostream.hpp **** 			this->mode = Mode::Hexadecimal;
  92:/home/jonas/warwick/3dProfilometer/xpcc/src/xpcc/io/iostream.hpp **** 			return *this;
  93:/home/jonas/warwick/3dProfilometer/xpcc/src/xpcc/io/iostream.hpp **** 		}
  94:/home/jonas/warwick/3dProfilometer/xpcc/src/xpcc/io/iostream.hpp **** 
  95:/home/jonas/warwick/3dProfilometer/xpcc/src/xpcc/io/iostream.hpp **** 		/// set the output mode to Mode::Ascii style for \c char and \c char*
  96:/home/jonas/warwick/3dProfilometer/xpcc/src/xpcc/io/iostream.hpp **** 		ALWAYS_INLINE IOStream&
  97:/home/jonas/warwick/3dProfilometer/xpcc/src/xpcc/io/iostream.hpp **** 		ascii()
  98:/home/jonas/warwick/3dProfilometer/xpcc/src/xpcc/io/iostream.hpp **** 		{
  99:/home/jonas/warwick/3dProfilometer/xpcc/src/xpcc/io/iostream.hpp **** 			this->mode = Mode::Ascii;
 100:/home/jonas/warwick/3dProfilometer/xpcc/src/xpcc/io/iostream.hpp **** 			return *this;
 101:/home/jonas/warwick/3dProfilometer/xpcc/src/xpcc/io/iostream.hpp **** 		}
 102:/home/jonas/warwick/3dProfilometer/xpcc/src/xpcc/io/iostream.hpp **** 		
 103:/home/jonas/warwick/3dProfilometer/xpcc/src/xpcc/io/iostream.hpp **** 		
 104:/home/jonas/warwick/3dProfilometer/xpcc/src/xpcc/io/iostream.hpp **** 		IOStream&
 105:/home/jonas/warwick/3dProfilometer/xpcc/src/xpcc/io/iostream.hpp **** 		operator << (const unsigned char& v)
 106:/home/jonas/warwick/3dProfilometer/xpcc/src/xpcc/io/iostream.hpp **** 		{
 107:/home/jonas/warwick/3dProfilometer/xpcc/src/xpcc/io/iostream.hpp **** 			if (this->mode == Mode::Ascii) {
 108:/home/jonas/warwick/3dProfilometer/xpcc/src/xpcc/io/iostream.hpp **** 				this->writeInteger(static_cast<uint16_t>(v));
 109:/home/jonas/warwick/3dProfilometer/xpcc/src/xpcc/io/iostream.hpp **** 			}
 110:/home/jonas/warwick/3dProfilometer/xpcc/src/xpcc/io/iostream.hpp **** 			else if (this->mode == Mode::Binary) {
 111:/home/jonas/warwick/3dProfilometer/xpcc/src/xpcc/io/iostream.hpp **** 				this->writeBin(v);
 112:/home/jonas/warwick/3dProfilometer/xpcc/src/xpcc/io/iostream.hpp **** 			}
 113:/home/jonas/warwick/3dProfilometer/xpcc/src/xpcc/io/iostream.hpp **** 			else {
 114:/home/jonas/warwick/3dProfilometer/xpcc/src/xpcc/io/iostream.hpp **** 				this->writeHex(v);
 115:/home/jonas/warwick/3dProfilometer/xpcc/src/xpcc/io/iostream.hpp **** 			}
 116:/home/jonas/warwick/3dProfilometer/xpcc/src/xpcc/io/iostream.hpp **** 			return *this;
 117:/home/jonas/warwick/3dProfilometer/xpcc/src/xpcc/io/iostream.hpp **** 		}
 118:/home/jonas/warwick/3dProfilometer/xpcc/src/xpcc/io/iostream.hpp **** 
 119:/home/jonas/warwick/3dProfilometer/xpcc/src/xpcc/io/iostream.hpp **** 		IOStream&
 120:/home/jonas/warwick/3dProfilometer/xpcc/src/xpcc/io/iostream.hpp **** 		operator << (const char& v)
 182              		.loc 2 120 0
 183              		.cfi_startproc
 184              		@ args = 0, pretend = 0, frame = 0
 185              		@ frame_needed = 0, uses_anonymous_args = 0
 186              	.LVL16:
 121:/home/jonas/warwick/3dProfilometer/xpcc/src/xpcc/io/iostream.hpp **** 		{
 122:/home/jonas/warwick/3dProfilometer/xpcc/src/xpcc/io/iostream.hpp **** 			if (this->mode == Mode::Ascii) {
 187              		.loc 2 122 0
 188 0000 4368     		ldr	r3, [r0, #4]
 120:/home/jonas/warwick/3dProfilometer/xpcc/src/xpcc/io/iostream.hpp **** 		operator << (const char& v)
 189              		.loc 2 120 0
 190 0002 10B5     		push	{r4, lr}
 191              	.LCFI4:
 192              		.cfi_def_cfa_offset 8
 193              		.cfi_offset 4, -8
 194              		.cfi_offset 14, -4
 120:/home/jonas/warwick/3dProfilometer/xpcc/src/xpcc/io/iostream.hpp **** 		operator << (const char& v)
 195              		.loc 2 120 0
 196 0004 0446     		mov	r4, r0
 197              		.loc 2 122 0
 198 0006 33B1     		cbz	r3, .L23
 123:/home/jonas/warwick/3dProfilometer/xpcc/src/xpcc/io/iostream.hpp **** 				this->device->write(v);
 124:/home/jonas/warwick/3dProfilometer/xpcc/src/xpcc/io/iostream.hpp **** 			}
 125:/home/jonas/warwick/3dProfilometer/xpcc/src/xpcc/io/iostream.hpp **** 			else if (this->mode == Mode::Binary) {
 199              		.loc 2 125 0
 200 0008 022B     		cmp	r3, #2
 126:/home/jonas/warwick/3dProfilometer/xpcc/src/xpcc/io/iostream.hpp **** 				this->writeBin(v);
 201              		.loc 2 126 0
 202 000a 0CBF     		ite	eq
 203 000c 054B     		ldreq	r3, .L24
 127:/home/jonas/warwick/3dProfilometer/xpcc/src/xpcc/io/iostream.hpp **** 			}
 128:/home/jonas/warwick/3dProfilometer/xpcc/src/xpcc/io/iostream.hpp **** 			else {
 129:/home/jonas/warwick/3dProfilometer/xpcc/src/xpcc/io/iostream.hpp **** 				this->writeHex(v);
 204              		.loc 2 129 0
 205 000e 064B     		ldrne	r3, .L24+4
 206 0010 9847     		blx	r3
 207              	.LVL17:
 130:/home/jonas/warwick/3dProfilometer/xpcc/src/xpcc/io/iostream.hpp **** 			}
 131:/home/jonas/warwick/3dProfilometer/xpcc/src/xpcc/io/iostream.hpp **** 			return *this;
 132:/home/jonas/warwick/3dProfilometer/xpcc/src/xpcc/io/iostream.hpp **** 		}
 208              		.loc 2 132 0
 209 0012 2046     		mov	r0, r4
 210 0014 10BD     		pop	{r4, pc}
 211              	.L23:
 123:/home/jonas/warwick/3dProfilometer/xpcc/src/xpcc/io/iostream.hpp **** 				this->device->write(v);
 212              		.loc 2 123 0
 213 0016 0068     		ldr	r0, [r0, #0]
 214 0018 0368     		ldr	r3, [r0, #0]
 215 001a 9B68     		ldr	r3, [r3, #8]
 216 001c 9847     		blx	r3
 217              	.LVL18:
 218              		.loc 2 132 0
 219 001e 2046     		mov	r0, r4
 220 0020 10BD     		pop	{r4, pc}
 221              	.L25:
 222 0022 00BF     		.align	2
 223              	.L24:
 224 0024 00000000 		.word	_ZN4xpcc8IOStream8writeBinEh
 225 0028 00000000 		.word	_ZN4xpcc8IOStream8writeHexEh
 226              		.cfi_endproc
 227              	.LFE903:
 229              		.section	.text._ZN4xpccL8delay_msEm.constprop.2,"ax",%progbits
 230              		.align	2
 231              		.thumb
 232              		.thumb_func
 234              	_ZN4xpccL8delay_msEm.constprop.2:
 235              	.LFB904:
 236              		.file 3 "/home/jonas/warwick/3dProfilometer/xpcc/src/xpcc/architecture/driver/delay.hpp"
   1:/home/jonas/warwick/3dProfilometer/xpcc/src/xpcc/architecture/driver/delay.hpp **** // coding: utf-8
   2:/home/jonas/warwick/3dProfilometer/xpcc/src/xpcc/architecture/driver/delay.hpp **** // ----------------------------------------------------------------------------
   3:/home/jonas/warwick/3dProfilometer/xpcc/src/xpcc/architecture/driver/delay.hpp **** /* Copyright (c) 2009, Roboterclub Aachen e.V.
   4:/home/jonas/warwick/3dProfilometer/xpcc/src/xpcc/architecture/driver/delay.hpp ****  * All rights reserved.
   5:/home/jonas/warwick/3dProfilometer/xpcc/src/xpcc/architecture/driver/delay.hpp ****  *
   6:/home/jonas/warwick/3dProfilometer/xpcc/src/xpcc/architecture/driver/delay.hpp ****  * Redistribution and use in source and binary forms, with or without
   7:/home/jonas/warwick/3dProfilometer/xpcc/src/xpcc/architecture/driver/delay.hpp ****  * modification, are permitted provided that the following conditions are met:
   8:/home/jonas/warwick/3dProfilometer/xpcc/src/xpcc/architecture/driver/delay.hpp ****  * 
   9:/home/jonas/warwick/3dProfilometer/xpcc/src/xpcc/architecture/driver/delay.hpp ****  *     * Redistributions of source code must retain the above copyright
  10:/home/jonas/warwick/3dProfilometer/xpcc/src/xpcc/architecture/driver/delay.hpp ****  *       notice, this list of conditions and the following disclaimer.
  11:/home/jonas/warwick/3dProfilometer/xpcc/src/xpcc/architecture/driver/delay.hpp ****  *     * Redistributions in binary form must reproduce the above copyright
  12:/home/jonas/warwick/3dProfilometer/xpcc/src/xpcc/architecture/driver/delay.hpp ****  *       notice, this list of conditions and the following disclaimer in the
  13:/home/jonas/warwick/3dProfilometer/xpcc/src/xpcc/architecture/driver/delay.hpp ****  *       documentation and/or other materials provided with the distribution.
  14:/home/jonas/warwick/3dProfilometer/xpcc/src/xpcc/architecture/driver/delay.hpp ****  *     * Neither the name of the Roboterclub Aachen e.V. nor the
  15:/home/jonas/warwick/3dProfilometer/xpcc/src/xpcc/architecture/driver/delay.hpp ****  *       names of its contributors may be used to endorse or promote products
  16:/home/jonas/warwick/3dProfilometer/xpcc/src/xpcc/architecture/driver/delay.hpp ****  *       derived from this software without specific prior written permission.
  17:/home/jonas/warwick/3dProfilometer/xpcc/src/xpcc/architecture/driver/delay.hpp ****  *
  18:/home/jonas/warwick/3dProfilometer/xpcc/src/xpcc/architecture/driver/delay.hpp ****  * THIS SOFTWARE IS PROVIDED BY ROBOTERCLUB AACHEN E.V. ''AS IS'' AND ANY
  19:/home/jonas/warwick/3dProfilometer/xpcc/src/xpcc/architecture/driver/delay.hpp ****  * EXPRESS OR IMPLIED WARRANTIES, INCLUDING, BUT NOT LIMITED TO, THE IMPLIED
  20:/home/jonas/warwick/3dProfilometer/xpcc/src/xpcc/architecture/driver/delay.hpp ****  * WARRANTIES OF MERCHANTABILITY AND FITNESS FOR A PARTICULAR PURPOSE ARE
  21:/home/jonas/warwick/3dProfilometer/xpcc/src/xpcc/architecture/driver/delay.hpp ****  * DISCLAIMED. IN NO EVENT SHALL ROBOTERCLUB AACHEN E.V. BE LIABLE FOR ANY
  22:/home/jonas/warwick/3dProfilometer/xpcc/src/xpcc/architecture/driver/delay.hpp ****  * DIRECT, INDIRECT, INCIDENTAL, SPECIAL, EXEMPLARY, OR CONSEQUENTIAL DAMAGES
  23:/home/jonas/warwick/3dProfilometer/xpcc/src/xpcc/architecture/driver/delay.hpp ****  * (INCLUDING, BUT NOT LIMITED TO, PROCUREMENT OF SUBSTITUTE GOODS OR SERVICES;
  24:/home/jonas/warwick/3dProfilometer/xpcc/src/xpcc/architecture/driver/delay.hpp ****  * LOSS OF USE, DATA, OR PROFITS; OR BUSINESS INTERRUPTION) HOWEVER CAUSED AND
  25:/home/jonas/warwick/3dProfilometer/xpcc/src/xpcc/architecture/driver/delay.hpp ****  * ON ANY THEORY OF LIABILITY, WHETHER IN CONTRACT, STRICT LIABILITY, OR TORT
  26:/home/jonas/warwick/3dProfilometer/xpcc/src/xpcc/architecture/driver/delay.hpp ****  * (INCLUDING NEGLIGENCE OR OTHERWISE) ARISING IN ANY WAY OUT OF THE USE OF
  27:/home/jonas/warwick/3dProfilometer/xpcc/src/xpcc/architecture/driver/delay.hpp ****  * THIS SOFTWARE, EVEN IF ADVISED OF THE POSSIBILITY OF SUCH DAMAGE.
  28:/home/jonas/warwick/3dProfilometer/xpcc/src/xpcc/architecture/driver/delay.hpp ****  */
  29:/home/jonas/warwick/3dProfilometer/xpcc/src/xpcc/architecture/driver/delay.hpp **** // ----------------------------------------------------------------------------
  30:/home/jonas/warwick/3dProfilometer/xpcc/src/xpcc/architecture/driver/delay.hpp **** 
  31:/home/jonas/warwick/3dProfilometer/xpcc/src/xpcc/architecture/driver/delay.hpp **** #ifndef	XPCC__DELAY_HPP
  32:/home/jonas/warwick/3dProfilometer/xpcc/src/xpcc/architecture/driver/delay.hpp **** #define	XPCC__DELAY_HPP
  33:/home/jonas/warwick/3dProfilometer/xpcc/src/xpcc/architecture/driver/delay.hpp **** 
  34:/home/jonas/warwick/3dProfilometer/xpcc/src/xpcc/architecture/driver/delay.hpp **** #ifdef __DOXYGEN__
  35:/home/jonas/warwick/3dProfilometer/xpcc/src/xpcc/architecture/driver/delay.hpp **** 
  36:/home/jonas/warwick/3dProfilometer/xpcc/src/xpcc/architecture/driver/delay.hpp **** namespace xpcc
  37:/home/jonas/warwick/3dProfilometer/xpcc/src/xpcc/architecture/driver/delay.hpp **** {
  38:/home/jonas/warwick/3dProfilometer/xpcc/src/xpcc/architecture/driver/delay.hpp **** 	/**
  39:/home/jonas/warwick/3dProfilometer/xpcc/src/xpcc/architecture/driver/delay.hpp **** 	 * \brief	Delay us microseconds
  40:/home/jonas/warwick/3dProfilometer/xpcc/src/xpcc/architecture/driver/delay.hpp **** 	 * \ingroup	architecture
  41:/home/jonas/warwick/3dProfilometer/xpcc/src/xpcc/architecture/driver/delay.hpp **** 	 */
  42:/home/jonas/warwick/3dProfilometer/xpcc/src/xpcc/architecture/driver/delay.hpp **** 	void
  43:/home/jonas/warwick/3dProfilometer/xpcc/src/xpcc/architecture/driver/delay.hpp **** 	delay_us(float us);
  44:/home/jonas/warwick/3dProfilometer/xpcc/src/xpcc/architecture/driver/delay.hpp **** 	
  45:/home/jonas/warwick/3dProfilometer/xpcc/src/xpcc/architecture/driver/delay.hpp **** 	/**
  46:/home/jonas/warwick/3dProfilometer/xpcc/src/xpcc/architecture/driver/delay.hpp **** 	 * \brief	Delay ms milliseconds
  47:/home/jonas/warwick/3dProfilometer/xpcc/src/xpcc/architecture/driver/delay.hpp **** 	 * \ingroup	architecture
  48:/home/jonas/warwick/3dProfilometer/xpcc/src/xpcc/architecture/driver/delay.hpp **** 	 */
  49:/home/jonas/warwick/3dProfilometer/xpcc/src/xpcc/architecture/driver/delay.hpp **** 	void
  50:/home/jonas/warwick/3dProfilometer/xpcc/src/xpcc/architecture/driver/delay.hpp **** 	delay_ms(float ms);
  51:/home/jonas/warwick/3dProfilometer/xpcc/src/xpcc/architecture/driver/delay.hpp **** }
  52:/home/jonas/warwick/3dProfilometer/xpcc/src/xpcc/architecture/driver/delay.hpp **** 
  53:/home/jonas/warwick/3dProfilometer/xpcc/src/xpcc/architecture/driver/delay.hpp **** #else // !__DOXYGEN__
  54:/home/jonas/warwick/3dProfilometer/xpcc/src/xpcc/architecture/driver/delay.hpp **** 
  55:/home/jonas/warwick/3dProfilometer/xpcc/src/xpcc/architecture/driver/delay.hpp **** #include <xpcc/architecture/detect.hpp>
  56:/home/jonas/warwick/3dProfilometer/xpcc/src/xpcc/architecture/driver/delay.hpp **** #include <xpcc/architecture/utils.hpp>
  57:/home/jonas/warwick/3dProfilometer/xpcc/src/xpcc/architecture/driver/delay.hpp **** 
  58:/home/jonas/warwick/3dProfilometer/xpcc/src/xpcc/architecture/driver/delay.hpp **** #if defined(XPCC__CPU_AVR)
  59:/home/jonas/warwick/3dProfilometer/xpcc/src/xpcc/architecture/driver/delay.hpp **** 	
  60:/home/jonas/warwick/3dProfilometer/xpcc/src/xpcc/architecture/driver/delay.hpp **** 	#include <util/delay.h>
  61:/home/jonas/warwick/3dProfilometer/xpcc/src/xpcc/architecture/driver/delay.hpp **** 	
  62:/home/jonas/warwick/3dProfilometer/xpcc/src/xpcc/architecture/driver/delay.hpp **** 	namespace xpcc
  63:/home/jonas/warwick/3dProfilometer/xpcc/src/xpcc/architecture/driver/delay.hpp **** 	{
  64:/home/jonas/warwick/3dProfilometer/xpcc/src/xpcc/architecture/driver/delay.hpp **** 		ALWAYS_INLINE void
  65:/home/jonas/warwick/3dProfilometer/xpcc/src/xpcc/architecture/driver/delay.hpp **** 		delay_us(float us)
  66:/home/jonas/warwick/3dProfilometer/xpcc/src/xpcc/architecture/driver/delay.hpp **** 		{
  67:/home/jonas/warwick/3dProfilometer/xpcc/src/xpcc/architecture/driver/delay.hpp **** 			_delay_us(us);
  68:/home/jonas/warwick/3dProfilometer/xpcc/src/xpcc/architecture/driver/delay.hpp **** 		}
  69:/home/jonas/warwick/3dProfilometer/xpcc/src/xpcc/architecture/driver/delay.hpp **** 		
  70:/home/jonas/warwick/3dProfilometer/xpcc/src/xpcc/architecture/driver/delay.hpp **** 		ALWAYS_INLINE void
  71:/home/jonas/warwick/3dProfilometer/xpcc/src/xpcc/architecture/driver/delay.hpp **** 		delay_ms(float ms)
  72:/home/jonas/warwick/3dProfilometer/xpcc/src/xpcc/architecture/driver/delay.hpp **** 		{
  73:/home/jonas/warwick/3dProfilometer/xpcc/src/xpcc/architecture/driver/delay.hpp **** 			_delay_ms(ms);
  74:/home/jonas/warwick/3dProfilometer/xpcc/src/xpcc/architecture/driver/delay.hpp **** 		}
  75:/home/jonas/warwick/3dProfilometer/xpcc/src/xpcc/architecture/driver/delay.hpp **** 	}
  76:/home/jonas/warwick/3dProfilometer/xpcc/src/xpcc/architecture/driver/delay.hpp **** 
  77:/home/jonas/warwick/3dProfilometer/xpcc/src/xpcc/architecture/driver/delay.hpp **** #elif defined(XPCC__OS_UNIX) || defined(XPCC__OS_OSX)
  78:/home/jonas/warwick/3dProfilometer/xpcc/src/xpcc/architecture/driver/delay.hpp **** 
  79:/home/jonas/warwick/3dProfilometer/xpcc/src/xpcc/architecture/driver/delay.hpp **** 	#include <unistd.h>
  80:/home/jonas/warwick/3dProfilometer/xpcc/src/xpcc/architecture/driver/delay.hpp **** 	
  81:/home/jonas/warwick/3dProfilometer/xpcc/src/xpcc/architecture/driver/delay.hpp **** 	namespace xpcc
  82:/home/jonas/warwick/3dProfilometer/xpcc/src/xpcc/architecture/driver/delay.hpp **** 	{
  83:/home/jonas/warwick/3dProfilometer/xpcc/src/xpcc/architecture/driver/delay.hpp **** 		ALWAYS_INLINE void
  84:/home/jonas/warwick/3dProfilometer/xpcc/src/xpcc/architecture/driver/delay.hpp **** 		delay_us(int us)
  85:/home/jonas/warwick/3dProfilometer/xpcc/src/xpcc/architecture/driver/delay.hpp **** 		{
  86:/home/jonas/warwick/3dProfilometer/xpcc/src/xpcc/architecture/driver/delay.hpp **** 			usleep(us);
  87:/home/jonas/warwick/3dProfilometer/xpcc/src/xpcc/architecture/driver/delay.hpp **** 		}
  88:/home/jonas/warwick/3dProfilometer/xpcc/src/xpcc/architecture/driver/delay.hpp **** 		
  89:/home/jonas/warwick/3dProfilometer/xpcc/src/xpcc/architecture/driver/delay.hpp **** 		ALWAYS_INLINE void
  90:/home/jonas/warwick/3dProfilometer/xpcc/src/xpcc/architecture/driver/delay.hpp **** 		delay_ms(int ms)
  91:/home/jonas/warwick/3dProfilometer/xpcc/src/xpcc/architecture/driver/delay.hpp **** 		{
  92:/home/jonas/warwick/3dProfilometer/xpcc/src/xpcc/architecture/driver/delay.hpp **** 			usleep(ms*1000);
  93:/home/jonas/warwick/3dProfilometer/xpcc/src/xpcc/architecture/driver/delay.hpp **** 		}
  94:/home/jonas/warwick/3dProfilometer/xpcc/src/xpcc/architecture/driver/delay.hpp **** 	}
  95:/home/jonas/warwick/3dProfilometer/xpcc/src/xpcc/architecture/driver/delay.hpp **** 	
  96:/home/jonas/warwick/3dProfilometer/xpcc/src/xpcc/architecture/driver/delay.hpp **** #elif defined(XPCC__OS_WIN32)
  97:/home/jonas/warwick/3dProfilometer/xpcc/src/xpcc/architecture/driver/delay.hpp **** 	
  98:/home/jonas/warwick/3dProfilometer/xpcc/src/xpcc/architecture/driver/delay.hpp **** 	namespace xpcc
  99:/home/jonas/warwick/3dProfilometer/xpcc/src/xpcc/architecture/driver/delay.hpp **** 	{
 100:/home/jonas/warwick/3dProfilometer/xpcc/src/xpcc/architecture/driver/delay.hpp **** 		/*inline void
 101:/home/jonas/warwick/3dProfilometer/xpcc/src/xpcc/architecture/driver/delay.hpp **** 		delay_us(int us)
 102:/home/jonas/warwick/3dProfilometer/xpcc/src/xpcc/architecture/driver/delay.hpp **** 		{
 103:/home/jonas/warwick/3dProfilometer/xpcc/src/xpcc/architecture/driver/delay.hpp **** 			int ms = us / 1000;
 104:/home/jonas/warwick/3dProfilometer/xpcc/src/xpcc/architecture/driver/delay.hpp **** 			if (ms <= 0) {
 105:/home/jonas/warwick/3dProfilometer/xpcc/src/xpcc/architecture/driver/delay.hpp **** 				ms = 1;
 106:/home/jonas/warwick/3dProfilometer/xpcc/src/xpcc/architecture/driver/delay.hpp **** 			}
 107:/home/jonas/warwick/3dProfilometer/xpcc/src/xpcc/architecture/driver/delay.hpp **** 			Sleep(ms);
 108:/home/jonas/warwick/3dProfilometer/xpcc/src/xpcc/architecture/driver/delay.hpp **** 		}
 109:/home/jonas/warwick/3dProfilometer/xpcc/src/xpcc/architecture/driver/delay.hpp **** 		
 110:/home/jonas/warwick/3dProfilometer/xpcc/src/xpcc/architecture/driver/delay.hpp **** 		inline void
 111:/home/jonas/warwick/3dProfilometer/xpcc/src/xpcc/architecture/driver/delay.hpp **** 		delay_ms(int ms)
 112:/home/jonas/warwick/3dProfilometer/xpcc/src/xpcc/architecture/driver/delay.hpp **** 		{
 113:/home/jonas/warwick/3dProfilometer/xpcc/src/xpcc/architecture/driver/delay.hpp **** 			Sleep(ms);
 114:/home/jonas/warwick/3dProfilometer/xpcc/src/xpcc/architecture/driver/delay.hpp **** 		}*/
 115:/home/jonas/warwick/3dProfilometer/xpcc/src/xpcc/architecture/driver/delay.hpp **** 		
 116:/home/jonas/warwick/3dProfilometer/xpcc/src/xpcc/architecture/driver/delay.hpp **** 		inline void
 117:/home/jonas/warwick/3dProfilometer/xpcc/src/xpcc/architecture/driver/delay.hpp **** 		delay_us(int)
 118:/home/jonas/warwick/3dProfilometer/xpcc/src/xpcc/architecture/driver/delay.hpp **** 		{
 119:/home/jonas/warwick/3dProfilometer/xpcc/src/xpcc/architecture/driver/delay.hpp **** 			// TODO
 120:/home/jonas/warwick/3dProfilometer/xpcc/src/xpcc/architecture/driver/delay.hpp **** 		}
 121:/home/jonas/warwick/3dProfilometer/xpcc/src/xpcc/architecture/driver/delay.hpp **** 		
 122:/home/jonas/warwick/3dProfilometer/xpcc/src/xpcc/architecture/driver/delay.hpp **** 		inline void
 123:/home/jonas/warwick/3dProfilometer/xpcc/src/xpcc/architecture/driver/delay.hpp **** 		delay_ms(int)
 124:/home/jonas/warwick/3dProfilometer/xpcc/src/xpcc/architecture/driver/delay.hpp **** 		{
 125:/home/jonas/warwick/3dProfilometer/xpcc/src/xpcc/architecture/driver/delay.hpp **** 			// TODO
 126:/home/jonas/warwick/3dProfilometer/xpcc/src/xpcc/architecture/driver/delay.hpp **** 		}
 127:/home/jonas/warwick/3dProfilometer/xpcc/src/xpcc/architecture/driver/delay.hpp **** 	}
 128:/home/jonas/warwick/3dProfilometer/xpcc/src/xpcc/architecture/driver/delay.hpp **** 	
 129:/home/jonas/warwick/3dProfilometer/xpcc/src/xpcc/architecture/driver/delay.hpp **** #elif defined(XPCC__CPU_ARM)
 130:/home/jonas/warwick/3dProfilometer/xpcc/src/xpcc/architecture/driver/delay.hpp **** 	
 131:/home/jonas/warwick/3dProfilometer/xpcc/src/xpcc/architecture/driver/delay.hpp **** 	extern "C" void _delay_us(uint32_t us);
 132:/home/jonas/warwick/3dProfilometer/xpcc/src/xpcc/architecture/driver/delay.hpp **** 	extern "C" void _delay_ms(uint32_t ms);
 133:/home/jonas/warwick/3dProfilometer/xpcc/src/xpcc/architecture/driver/delay.hpp **** 	
 134:/home/jonas/warwick/3dProfilometer/xpcc/src/xpcc/architecture/driver/delay.hpp **** 	namespace xpcc
 135:/home/jonas/warwick/3dProfilometer/xpcc/src/xpcc/architecture/driver/delay.hpp **** 	{
 136:/home/jonas/warwick/3dProfilometer/xpcc/src/xpcc/architecture/driver/delay.hpp **** 		static inline void
 137:/home/jonas/warwick/3dProfilometer/xpcc/src/xpcc/architecture/driver/delay.hpp **** 		delay_us(uint32_t us)
 138:/home/jonas/warwick/3dProfilometer/xpcc/src/xpcc/architecture/driver/delay.hpp **** 		{
 139:/home/jonas/warwick/3dProfilometer/xpcc/src/xpcc/architecture/driver/delay.hpp **** 			::_delay_us(us);
 140:/home/jonas/warwick/3dProfilometer/xpcc/src/xpcc/architecture/driver/delay.hpp **** 		}
 141:/home/jonas/warwick/3dProfilometer/xpcc/src/xpcc/architecture/driver/delay.hpp **** 		
 142:/home/jonas/warwick/3dProfilometer/xpcc/src/xpcc/architecture/driver/delay.hpp **** 		static inline void
 143:/home/jonas/warwick/3dProfilometer/xpcc/src/xpcc/architecture/driver/delay.hpp **** 		delay_ms(uint32_t ms)
 237              		.loc 3 143 0
 238              		.cfi_startproc
 239              		@ args = 0, pretend = 0, frame = 0
 240              		@ frame_needed = 0, uses_anonymous_args = 0
 241              	.LVL19:
 242 0000 08B5     		push	{r3, lr}
 243              	.LCFI5:
 244              		.cfi_def_cfa_offset 8
 245              		.cfi_offset 3, -8
 246              		.cfi_offset 14, -4
 144:/home/jonas/warwick/3dProfilometer/xpcc/src/xpcc/architecture/driver/delay.hpp **** 		{
 145:/home/jonas/warwick/3dProfilometer/xpcc/src/xpcc/architecture/driver/delay.hpp **** 			::_delay_ms(ms);
 247              		.loc 3 145 0
 248 0002 4FF4FA70 		mov	r0, #500
 249 0006 014B     		ldr	r3, .L27
 250 0008 9847     		blx	r3
 251              	.LVL20:
 252 000a 08BD     		pop	{r3, pc}
 253              	.L28:
 254              		.align	2
 255              	.L27:
 256 000c 00000000 		.word	_delay_ms
 257              		.cfi_endproc
 258              	.LFE904:
 260              		.section	.text._ZN4xpcc5stm3214BufferedUsart3C2Emmb,"axG",%progbits,_ZN4xpcc5stm3214BufferedUsart3
 261              		.align	2
 262              		.weak	_ZN4xpcc5stm3214BufferedUsart3C2Emmb
 263              		.thumb
 264              		.thumb_func
 266              	_ZN4xpcc5stm3214BufferedUsart3C2Emmb:
 267              	.LFB309:
 268              		.file 4 "/home/jonas/warwick/3dProfilometer/xpcc/src/xpcc/architecture/platform/cortex_m3/stm32/ua
   1:/home/jonas/warwick/3dProfilometer/xpcc/src/xpcc/architecture/platform/cortex_m3/stm32/uart/usart_3.hpp **** // coding: utf-8
   2:/home/jonas/warwick/3dProfilometer/xpcc/src/xpcc/architecture/platform/cortex_m3/stm32/uart/usart_3.hpp **** // ----------------------------------------------------------------------------
   3:/home/jonas/warwick/3dProfilometer/xpcc/src/xpcc/architecture/platform/cortex_m3/stm32/uart/usart_3.hpp **** /* Copyright (c) 2011, Roboterclub Aachen e.V.
   4:/home/jonas/warwick/3dProfilometer/xpcc/src/xpcc/architecture/platform/cortex_m3/stm32/uart/usart_3.hpp ****  * All rights reserved.
   5:/home/jonas/warwick/3dProfilometer/xpcc/src/xpcc/architecture/platform/cortex_m3/stm32/uart/usart_3.hpp ****  *
   6:/home/jonas/warwick/3dProfilometer/xpcc/src/xpcc/architecture/platform/cortex_m3/stm32/uart/usart_3.hpp ****  * Redistribution and use in source and binary forms, with or without
   7:/home/jonas/warwick/3dProfilometer/xpcc/src/xpcc/architecture/platform/cortex_m3/stm32/uart/usart_3.hpp ****  * modification, are permitted provided that the following conditions are met:
   8:/home/jonas/warwick/3dProfilometer/xpcc/src/xpcc/architecture/platform/cortex_m3/stm32/uart/usart_3.hpp ****  * 
   9:/home/jonas/warwick/3dProfilometer/xpcc/src/xpcc/architecture/platform/cortex_m3/stm32/uart/usart_3.hpp ****  *     * Redistributions of source code must retain the above copyright
  10:/home/jonas/warwick/3dProfilometer/xpcc/src/xpcc/architecture/platform/cortex_m3/stm32/uart/usart_3.hpp ****  *       notice, this list of conditions and the following disclaimer.
  11:/home/jonas/warwick/3dProfilometer/xpcc/src/xpcc/architecture/platform/cortex_m3/stm32/uart/usart_3.hpp ****  *     * Redistributions in binary form must reproduce the above copyright
  12:/home/jonas/warwick/3dProfilometer/xpcc/src/xpcc/architecture/platform/cortex_m3/stm32/uart/usart_3.hpp ****  *       notice, this list of conditions and the following disclaimer in the
  13:/home/jonas/warwick/3dProfilometer/xpcc/src/xpcc/architecture/platform/cortex_m3/stm32/uart/usart_3.hpp ****  *       documentation and/or other materials provided with the distribution.
  14:/home/jonas/warwick/3dProfilometer/xpcc/src/xpcc/architecture/platform/cortex_m3/stm32/uart/usart_3.hpp ****  *     * Neither the name of the Roboterclub Aachen e.V. nor the
  15:/home/jonas/warwick/3dProfilometer/xpcc/src/xpcc/architecture/platform/cortex_m3/stm32/uart/usart_3.hpp ****  *       names of its contributors may be used to endorse or promote products
  16:/home/jonas/warwick/3dProfilometer/xpcc/src/xpcc/architecture/platform/cortex_m3/stm32/uart/usart_3.hpp ****  *       derived from this software without specific prior written permission.
  17:/home/jonas/warwick/3dProfilometer/xpcc/src/xpcc/architecture/platform/cortex_m3/stm32/uart/usart_3.hpp ****  *
  18:/home/jonas/warwick/3dProfilometer/xpcc/src/xpcc/architecture/platform/cortex_m3/stm32/uart/usart_3.hpp ****  * THIS SOFTWARE IS PROVIDED BY ROBOTERCLUB AACHEN E.V. ''AS IS'' AND ANY
  19:/home/jonas/warwick/3dProfilometer/xpcc/src/xpcc/architecture/platform/cortex_m3/stm32/uart/usart_3.hpp ****  * EXPRESS OR IMPLIED WARRANTIES, INCLUDING, BUT NOT LIMITED TO, THE IMPLIED
  20:/home/jonas/warwick/3dProfilometer/xpcc/src/xpcc/architecture/platform/cortex_m3/stm32/uart/usart_3.hpp ****  * WARRANTIES OF MERCHANTABILITY AND FITNESS FOR A PARTICULAR PURPOSE ARE
  21:/home/jonas/warwick/3dProfilometer/xpcc/src/xpcc/architecture/platform/cortex_m3/stm32/uart/usart_3.hpp ****  * DISCLAIMED. IN NO EVENT SHALL ROBOTERCLUB AACHEN E.V. BE LIABLE FOR ANY
  22:/home/jonas/warwick/3dProfilometer/xpcc/src/xpcc/architecture/platform/cortex_m3/stm32/uart/usart_3.hpp ****  * DIRECT, INDIRECT, INCIDENTAL, SPECIAL, EXEMPLARY, OR CONSEQUENTIAL DAMAGES
  23:/home/jonas/warwick/3dProfilometer/xpcc/src/xpcc/architecture/platform/cortex_m3/stm32/uart/usart_3.hpp ****  * (INCLUDING, BUT NOT LIMITED TO, PROCUREMENT OF SUBSTITUTE GOODS OR SERVICES;
  24:/home/jonas/warwick/3dProfilometer/xpcc/src/xpcc/architecture/platform/cortex_m3/stm32/uart/usart_3.hpp ****  * LOSS OF USE, DATA, OR PROFITS; OR BUSINESS INTERRUPTION) HOWEVER CAUSED AND
  25:/home/jonas/warwick/3dProfilometer/xpcc/src/xpcc/architecture/platform/cortex_m3/stm32/uart/usart_3.hpp ****  * ON ANY THEORY OF LIABILITY, WHETHER IN CONTRACT, STRICT LIABILITY, OR TORT
  26:/home/jonas/warwick/3dProfilometer/xpcc/src/xpcc/architecture/platform/cortex_m3/stm32/uart/usart_3.hpp ****  * (INCLUDING NEGLIGENCE OR OTHERWISE) ARISING IN ANY WAY OUT OF THE USE OF
  27:/home/jonas/warwick/3dProfilometer/xpcc/src/xpcc/architecture/platform/cortex_m3/stm32/uart/usart_3.hpp ****  * THIS SOFTWARE, EVEN IF ADVISED OF THE POSSIBILITY OF SUCH DAMAGE.
  28:/home/jonas/warwick/3dProfilometer/xpcc/src/xpcc/architecture/platform/cortex_m3/stm32/uart/usart_3.hpp ****  */
  29:/home/jonas/warwick/3dProfilometer/xpcc/src/xpcc/architecture/platform/cortex_m3/stm32/uart/usart_3.hpp **** // ----------------------------------------------------------------------------
  30:/home/jonas/warwick/3dProfilometer/xpcc/src/xpcc/architecture/platform/cortex_m3/stm32/uart/usart_3.hpp **** /*
  31:/home/jonas/warwick/3dProfilometer/xpcc/src/xpcc/architecture/platform/cortex_m3/stm32/uart/usart_3.hpp ****  * WARNING: This file is generated automatically, do not edit!
  32:/home/jonas/warwick/3dProfilometer/xpcc/src/xpcc/architecture/platform/cortex_m3/stm32/uart/usart_3.hpp ****  * Please modify the corresponding *.in file instead and rebuild this file. 
  33:/home/jonas/warwick/3dProfilometer/xpcc/src/xpcc/architecture/platform/cortex_m3/stm32/uart/usart_3.hpp ****  */
  34:/home/jonas/warwick/3dProfilometer/xpcc/src/xpcc/architecture/platform/cortex_m3/stm32/uart/usart_3.hpp **** // ----------------------------------------------------------------------------
  35:/home/jonas/warwick/3dProfilometer/xpcc/src/xpcc/architecture/platform/cortex_m3/stm32/uart/usart_3.hpp **** 
  36:/home/jonas/warwick/3dProfilometer/xpcc/src/xpcc/architecture/platform/cortex_m3/stm32/uart/usart_3.hpp **** #ifndef XPCC_STM32__USART_3_HPP
  37:/home/jonas/warwick/3dProfilometer/xpcc/src/xpcc/architecture/platform/cortex_m3/stm32/uart/usart_3.hpp **** #define XPCC_STM32__USART_3_HPP
  38:/home/jonas/warwick/3dProfilometer/xpcc/src/xpcc/architecture/platform/cortex_m3/stm32/uart/usart_3.hpp **** 
  39:/home/jonas/warwick/3dProfilometer/xpcc/src/xpcc/architecture/platform/cortex_m3/stm32/uart/usart_3.hpp **** #include <stdint.h>
  40:/home/jonas/warwick/3dProfilometer/xpcc/src/xpcc/architecture/platform/cortex_m3/stm32/uart/usart_3.hpp **** #include "uart_base.hpp"
  41:/home/jonas/warwick/3dProfilometer/xpcc/src/xpcc/architecture/platform/cortex_m3/stm32/uart/usart_3.hpp **** #include "../device.h"
  42:/home/jonas/warwick/3dProfilometer/xpcc/src/xpcc/architecture/platform/cortex_m3/stm32/uart/usart_3.hpp **** 
  43:/home/jonas/warwick/3dProfilometer/xpcc/src/xpcc/architecture/platform/cortex_m3/stm32/uart/usart_3.hpp **** namespace xpcc
  44:/home/jonas/warwick/3dProfilometer/xpcc/src/xpcc/architecture/platform/cortex_m3/stm32/uart/usart_3.hpp **** {
  45:/home/jonas/warwick/3dProfilometer/xpcc/src/xpcc/architecture/platform/cortex_m3/stm32/uart/usart_3.hpp **** 	namespace stm32
  46:/home/jonas/warwick/3dProfilometer/xpcc/src/xpcc/architecture/platform/cortex_m3/stm32/uart/usart_3.hpp **** 	{
  47:/home/jonas/warwick/3dProfilometer/xpcc/src/xpcc/architecture/platform/cortex_m3/stm32/uart/usart_3.hpp **** 		/**
  48:/home/jonas/warwick/3dProfilometer/xpcc/src/xpcc/architecture/platform/cortex_m3/stm32/uart/usart_3.hpp **** 		 * @brief		Universal synchronous/asynchronous receiver
  49:/home/jonas/warwick/3dProfilometer/xpcc/src/xpcc/architecture/platform/cortex_m3/stm32/uart/usart_3.hpp **** 		 * 				transmitter (USART3)
  50:/home/jonas/warwick/3dProfilometer/xpcc/src/xpcc/architecture/platform/cortex_m3/stm32/uart/usart_3.hpp **** 		 * 
  51:/home/jonas/warwick/3dProfilometer/xpcc/src/xpcc/architecture/platform/cortex_m3/stm32/uart/usart_3.hpp **** 		 * Simple unbuffered implementation.
  52:/home/jonas/warwick/3dProfilometer/xpcc/src/xpcc/architecture/platform/cortex_m3/stm32/uart/usart_3.hpp **** 		 * 
  53:/home/jonas/warwick/3dProfilometer/xpcc/src/xpcc/architecture/platform/cortex_m3/stm32/uart/usart_3.hpp **** 		 * @ingroup		stm32
  54:/home/jonas/warwick/3dProfilometer/xpcc/src/xpcc/architecture/platform/cortex_m3/stm32/uart/usart_3.hpp **** 		 */
  55:/home/jonas/warwick/3dProfilometer/xpcc/src/xpcc/architecture/platform/cortex_m3/stm32/uart/usart_3.hpp **** 		class Usart3 : public UartBase
  56:/home/jonas/warwick/3dProfilometer/xpcc/src/xpcc/architecture/platform/cortex_m3/stm32/uart/usart_3.hpp **** 		{
  57:/home/jonas/warwick/3dProfilometer/xpcc/src/xpcc/architecture/platform/cortex_m3/stm32/uart/usart_3.hpp **** 		public:
  58:/home/jonas/warwick/3dProfilometer/xpcc/src/xpcc/architecture/platform/cortex_m3/stm32/uart/usart_3.hpp **** 			Usart3(uint32_t baudrate)
  59:/home/jonas/warwick/3dProfilometer/xpcc/src/xpcc/architecture/platform/cortex_m3/stm32/uart/usart_3.hpp **** 			{
  60:/home/jonas/warwick/3dProfilometer/xpcc/src/xpcc/architecture/platform/cortex_m3/stm32/uart/usart_3.hpp **** 				setBaudrate(baudrate);
  61:/home/jonas/warwick/3dProfilometer/xpcc/src/xpcc/architecture/platform/cortex_m3/stm32/uart/usart_3.hpp **** 			}
  62:/home/jonas/warwick/3dProfilometer/xpcc/src/xpcc/architecture/platform/cortex_m3/stm32/uart/usart_3.hpp **** 			
  63:/home/jonas/warwick/3dProfilometer/xpcc/src/xpcc/architecture/platform/cortex_m3/stm32/uart/usart_3.hpp **** 			enum Mapping
  64:/home/jonas/warwick/3dProfilometer/xpcc/src/xpcc/architecture/platform/cortex_m3/stm32/uart/usart_3.hpp **** 			{
  65:/home/jonas/warwick/3dProfilometer/xpcc/src/xpcc/architecture/platform/cortex_m3/stm32/uart/usart_3.hpp **** #if defined(STM32F2XX) || defined(STM32F3XX) || defined(STM32F4XX)
  66:/home/jonas/warwick/3dProfilometer/xpcc/src/xpcc/architecture/platform/cortex_m3/stm32/uart/usart_3.hpp **** 				REMAP_PB10_PB11,	///< TX/PB10, RX/PB11, CK/PB12, CTS/PB13, RTS/PB14
  67:/home/jonas/warwick/3dProfilometer/xpcc/src/xpcc/architecture/platform/cortex_m3/stm32/uart/usart_3.hpp **** 				REMAP_PC10_PC11,	///< TX/PC10, RX/PC11, CK/PC12, CTS/PB13, RTS/PB14
  68:/home/jonas/warwick/3dProfilometer/xpcc/src/xpcc/architecture/platform/cortex_m3/stm32/uart/usart_3.hpp **** 				REMAP_PD8_PD9,		///< TX/PD8, RX/PD9, CK/PD10, CTS/PD11, RTS/PD12
  69:/home/jonas/warwick/3dProfilometer/xpcc/src/xpcc/architecture/platform/cortex_m3/stm32/uart/usart_3.hpp **** #else
  70:/home/jonas/warwick/3dProfilometer/xpcc/src/xpcc/architecture/platform/cortex_m3/stm32/uart/usart_3.hpp **** 				REMAP_PB10_PB11 = AFIO_MAPR_USART3_REMAP_NOREMAP,		///< TX/PB10, RX/PB11, CK/PB12, CTS/PB13, RT
  71:/home/jonas/warwick/3dProfilometer/xpcc/src/xpcc/architecture/platform/cortex_m3/stm32/uart/usart_3.hpp **** 				REMAP_PC10_PC11 = AFIO_MAPR_USART3_REMAP_PARTIALREMAP,	///< TX/PC10, RX/PC11, CK/PC12, CTS/PB13
  72:/home/jonas/warwick/3dProfilometer/xpcc/src/xpcc/architecture/platform/cortex_m3/stm32/uart/usart_3.hpp **** 				REMAP_PD8_PD9 = AFIO_MAPR_USART3_REMAP_FULLREMAP,		///< TX/PD8, RX/PD9, CK/PD10, CTS/PD11, RTS/
  73:/home/jonas/warwick/3dProfilometer/xpcc/src/xpcc/architecture/platform/cortex_m3/stm32/uart/usart_3.hpp **** #endif
  74:/home/jonas/warwick/3dProfilometer/xpcc/src/xpcc/architecture/platform/cortex_m3/stm32/uart/usart_3.hpp **** 			};
  75:/home/jonas/warwick/3dProfilometer/xpcc/src/xpcc/architecture/platform/cortex_m3/stm32/uart/usart_3.hpp **** 			
  76:/home/jonas/warwick/3dProfilometer/xpcc/src/xpcc/architecture/platform/cortex_m3/stm32/uart/usart_3.hpp **** 			/**
  77:/home/jonas/warwick/3dProfilometer/xpcc/src/xpcc/architecture/platform/cortex_m3/stm32/uart/usart_3.hpp **** 			 * Configure the IO Pins for Usart3
  78:/home/jonas/warwick/3dProfilometer/xpcc/src/xpcc/architecture/platform/cortex_m3/stm32/uart/usart_3.hpp **** 			 */
  79:/home/jonas/warwick/3dProfilometer/xpcc/src/xpcc/architecture/platform/cortex_m3/stm32/uart/usart_3.hpp **** 			static void
  80:/home/jonas/warwick/3dProfilometer/xpcc/src/xpcc/architecture/platform/cortex_m3/stm32/uart/usart_3.hpp **** 			configurePins(Mapping mapping);
  81:/home/jonas/warwick/3dProfilometer/xpcc/src/xpcc/architecture/platform/cortex_m3/stm32/uart/usart_3.hpp **** 			
  82:/home/jonas/warwick/3dProfilometer/xpcc/src/xpcc/architecture/platform/cortex_m3/stm32/uart/usart_3.hpp **** 			/**
  83:/home/jonas/warwick/3dProfilometer/xpcc/src/xpcc/architecture/platform/cortex_m3/stm32/uart/usart_3.hpp **** 			 * \brief	Set baudrate
  84:/home/jonas/warwick/3dProfilometer/xpcc/src/xpcc/architecture/platform/cortex_m3/stm32/uart/usart_3.hpp **** 			 * \param	baudrate	desired baud rate
  85:/home/jonas/warwick/3dProfilometer/xpcc/src/xpcc/architecture/platform/cortex_m3/stm32/uart/usart_3.hpp **** 			 */
  86:/home/jonas/warwick/3dProfilometer/xpcc/src/xpcc/architecture/platform/cortex_m3/stm32/uart/usart_3.hpp **** 			static void
  87:/home/jonas/warwick/3dProfilometer/xpcc/src/xpcc/architecture/platform/cortex_m3/stm32/uart/usart_3.hpp **** 			setBaudrate(uint32_t baudrate);
  88:/home/jonas/warwick/3dProfilometer/xpcc/src/xpcc/architecture/platform/cortex_m3/stm32/uart/usart_3.hpp **** 			
  89:/home/jonas/warwick/3dProfilometer/xpcc/src/xpcc/architecture/platform/cortex_m3/stm32/uart/usart_3.hpp **** 			/**
  90:/home/jonas/warwick/3dProfilometer/xpcc/src/xpcc/architecture/platform/cortex_m3/stm32/uart/usart_3.hpp **** 			 * \brief	Send a single byte
  91:/home/jonas/warwick/3dProfilometer/xpcc/src/xpcc/architecture/platform/cortex_m3/stm32/uart/usart_3.hpp **** 			 */
  92:/home/jonas/warwick/3dProfilometer/xpcc/src/xpcc/architecture/platform/cortex_m3/stm32/uart/usart_3.hpp **** 			static void
  93:/home/jonas/warwick/3dProfilometer/xpcc/src/xpcc/architecture/platform/cortex_m3/stm32/uart/usart_3.hpp **** 			write(uint8_t data);
  94:/home/jonas/warwick/3dProfilometer/xpcc/src/xpcc/architecture/platform/cortex_m3/stm32/uart/usart_3.hpp **** 			
  95:/home/jonas/warwick/3dProfilometer/xpcc/src/xpcc/architecture/platform/cortex_m3/stm32/uart/usart_3.hpp **** 			/**
  96:/home/jonas/warwick/3dProfilometer/xpcc/src/xpcc/architecture/platform/cortex_m3/stm32/uart/usart_3.hpp **** 			 * \brief	Write a block of bytes
  97:/home/jonas/warwick/3dProfilometer/xpcc/src/xpcc/architecture/platform/cortex_m3/stm32/uart/usart_3.hpp **** 			 *
  98:/home/jonas/warwick/3dProfilometer/xpcc/src/xpcc/architecture/platform/cortex_m3/stm32/uart/usart_3.hpp **** 			 * \param	*buffer	Pointer to a buffer
  99:/home/jonas/warwick/3dProfilometer/xpcc/src/xpcc/architecture/platform/cortex_m3/stm32/uart/usart_3.hpp **** 			 * \param	n	Number of bytes to be read
 100:/home/jonas/warwick/3dProfilometer/xpcc/src/xpcc/architecture/platform/cortex_m3/stm32/uart/usart_3.hpp **** 			 */
 101:/home/jonas/warwick/3dProfilometer/xpcc/src/xpcc/architecture/platform/cortex_m3/stm32/uart/usart_3.hpp **** 			static void
 102:/home/jonas/warwick/3dProfilometer/xpcc/src/xpcc/architecture/platform/cortex_m3/stm32/uart/usart_3.hpp **** 			write(const uint8_t *buffer, uint8_t n);
 103:/home/jonas/warwick/3dProfilometer/xpcc/src/xpcc/architecture/platform/cortex_m3/stm32/uart/usart_3.hpp **** 			
 104:/home/jonas/warwick/3dProfilometer/xpcc/src/xpcc/architecture/platform/cortex_m3/stm32/uart/usart_3.hpp **** 			/**
 105:/home/jonas/warwick/3dProfilometer/xpcc/src/xpcc/architecture/platform/cortex_m3/stm32/uart/usart_3.hpp **** 			 * \brief	Read a single byte
 106:/home/jonas/warwick/3dProfilometer/xpcc/src/xpcc/architecture/platform/cortex_m3/stm32/uart/usart_3.hpp **** 			 */
 107:/home/jonas/warwick/3dProfilometer/xpcc/src/xpcc/architecture/platform/cortex_m3/stm32/uart/usart_3.hpp **** 			static bool
 108:/home/jonas/warwick/3dProfilometer/xpcc/src/xpcc/architecture/platform/cortex_m3/stm32/uart/usart_3.hpp **** 			read(uint8_t& c);
 109:/home/jonas/warwick/3dProfilometer/xpcc/src/xpcc/architecture/platform/cortex_m3/stm32/uart/usart_3.hpp **** 			
 110:/home/jonas/warwick/3dProfilometer/xpcc/src/xpcc/architecture/platform/cortex_m3/stm32/uart/usart_3.hpp **** 			/**
 111:/home/jonas/warwick/3dProfilometer/xpcc/src/xpcc/architecture/platform/cortex_m3/stm32/uart/usart_3.hpp **** 			 * \brief	Read a block of bytes
 112:/home/jonas/warwick/3dProfilometer/xpcc/src/xpcc/architecture/platform/cortex_m3/stm32/uart/usart_3.hpp **** 			 * 
 113:/home/jonas/warwick/3dProfilometer/xpcc/src/xpcc/architecture/platform/cortex_m3/stm32/uart/usart_3.hpp **** 			 * \param	*buffer	Pointer to a buffer big enough to storage \a n bytes
 114:/home/jonas/warwick/3dProfilometer/xpcc/src/xpcc/architecture/platform/cortex_m3/stm32/uart/usart_3.hpp **** 			 * \param	n	Number of bytes to be read
 115:/home/jonas/warwick/3dProfilometer/xpcc/src/xpcc/architecture/platform/cortex_m3/stm32/uart/usart_3.hpp **** 			 * 
 116:/home/jonas/warwick/3dProfilometer/xpcc/src/xpcc/architecture/platform/cortex_m3/stm32/uart/usart_3.hpp **** 			 * \return	Number of bytes which could be read, maximal \a n
 117:/home/jonas/warwick/3dProfilometer/xpcc/src/xpcc/architecture/platform/cortex_m3/stm32/uart/usart_3.hpp **** 			 */
 118:/home/jonas/warwick/3dProfilometer/xpcc/src/xpcc/architecture/platform/cortex_m3/stm32/uart/usart_3.hpp **** 			static uint8_t
 119:/home/jonas/warwick/3dProfilometer/xpcc/src/xpcc/architecture/platform/cortex_m3/stm32/uart/usart_3.hpp **** 			read(uint8_t *buffer, uint8_t n);
 120:/home/jonas/warwick/3dProfilometer/xpcc/src/xpcc/architecture/platform/cortex_m3/stm32/uart/usart_3.hpp **** 		};
 121:/home/jonas/warwick/3dProfilometer/xpcc/src/xpcc/architecture/platform/cortex_m3/stm32/uart/usart_3.hpp **** 		
 122:/home/jonas/warwick/3dProfilometer/xpcc/src/xpcc/architecture/platform/cortex_m3/stm32/uart/usart_3.hpp **** 		
 123:/home/jonas/warwick/3dProfilometer/xpcc/src/xpcc/architecture/platform/cortex_m3/stm32/uart/usart_3.hpp **** 		// --------------------------------------------------------------------
 124:/home/jonas/warwick/3dProfilometer/xpcc/src/xpcc/architecture/platform/cortex_m3/stm32/uart/usart_3.hpp **** 		/**
 125:/home/jonas/warwick/3dProfilometer/xpcc/src/xpcc/architecture/platform/cortex_m3/stm32/uart/usart_3.hpp **** 		 * \brief	Buffered Usart
 126:/home/jonas/warwick/3dProfilometer/xpcc/src/xpcc/architecture/platform/cortex_m3/stm32/uart/usart_3.hpp **** 		 * 
 127:/home/jonas/warwick/3dProfilometer/xpcc/src/xpcc/architecture/platform/cortex_m3/stm32/uart/usart_3.hpp **** 		 * This implementation uses a ringbuffer. The size of the ringbuffer
 128:/home/jonas/warwick/3dProfilometer/xpcc/src/xpcc/architecture/platform/cortex_m3/stm32/uart/usart_3.hpp **** 		 * can be changed in the \c project.cfg file.
 129:/home/jonas/warwick/3dProfilometer/xpcc/src/xpcc/architecture/platform/cortex_m3/stm32/uart/usart_3.hpp **** 		 * 
 130:/home/jonas/warwick/3dProfilometer/xpcc/src/xpcc/architecture/platform/cortex_m3/stm32/uart/usart_3.hpp **** 		 * Just add add a value for USART3_TX_BUFFER_SIZE and/or 
 131:/home/jonas/warwick/3dProfilometer/xpcc/src/xpcc/architecture/platform/cortex_m3/stm32/uart/usart_3.hpp **** 		 * USART3_RX_BUFFER_SIZE in the \c defines section. The size can
 132:/home/jonas/warwick/3dProfilometer/xpcc/src/xpcc/architecture/platform/cortex_m3/stm32/uart/usart_3.hpp **** 		 * be any value between 1 and 254.
 133:/home/jonas/warwick/3dProfilometer/xpcc/src/xpcc/architecture/platform/cortex_m3/stm32/uart/usart_3.hpp **** 		 * 
 134:/home/jonas/warwick/3dProfilometer/xpcc/src/xpcc/architecture/platform/cortex_m3/stm32/uart/usart_3.hpp **** 		 * Example:
 135:/home/jonas/warwick/3dProfilometer/xpcc/src/xpcc/architecture/platform/cortex_m3/stm32/uart/usart_3.hpp **** 		 * \code
 136:/home/jonas/warwick/3dProfilometer/xpcc/src/xpcc/architecture/platform/cortex_m3/stm32/uart/usart_3.hpp **** 		 * [defines]
 137:/home/jonas/warwick/3dProfilometer/xpcc/src/xpcc/architecture/platform/cortex_m3/stm32/uart/usart_3.hpp **** 		 * USART3_TX_BUFFER_SIZE = 20
 138:/home/jonas/warwick/3dProfilometer/xpcc/src/xpcc/architecture/platform/cortex_m3/stm32/uart/usart_3.hpp **** 		 * USART3_RX_BUFFER_SIZE = 30
 139:/home/jonas/warwick/3dProfilometer/xpcc/src/xpcc/architecture/platform/cortex_m3/stm32/uart/usart_3.hpp **** 		 * \endcode
 140:/home/jonas/warwick/3dProfilometer/xpcc/src/xpcc/architecture/platform/cortex_m3/stm32/uart/usart_3.hpp **** 		 * 
 141:/home/jonas/warwick/3dProfilometer/xpcc/src/xpcc/architecture/platform/cortex_m3/stm32/uart/usart_3.hpp **** 		 * \ingroup	stm32
 142:/home/jonas/warwick/3dProfilometer/xpcc/src/xpcc/architecture/platform/cortex_m3/stm32/uart/usart_3.hpp **** 		 */
 143:/home/jonas/warwick/3dProfilometer/xpcc/src/xpcc/architecture/platform/cortex_m3/stm32/uart/usart_3.hpp **** 		class BufferedUsart3 : public UartBase
 144:/home/jonas/warwick/3dProfilometer/xpcc/src/xpcc/architecture/platform/cortex_m3/stm32/uart/usart_3.hpp **** 		{
 145:/home/jonas/warwick/3dProfilometer/xpcc/src/xpcc/architecture/platform/cortex_m3/stm32/uart/usart_3.hpp **** 		public:
 146:/home/jonas/warwick/3dProfilometer/xpcc/src/xpcc/architecture/platform/cortex_m3/stm32/uart/usart_3.hpp **** 			/**
 147:/home/jonas/warwick/3dProfilometer/xpcc/src/xpcc/architecture/platform/cortex_m3/stm32/uart/usart_3.hpp **** 			 * Set baudrate.
 148:/home/jonas/warwick/3dProfilometer/xpcc/src/xpcc/architecture/platform/cortex_m3/stm32/uart/usart_3.hpp **** 			 * 
 149:/home/jonas/warwick/3dProfilometer/xpcc/src/xpcc/architecture/platform/cortex_m3/stm32/uart/usart_3.hpp **** 			 * \param	baudrate	Desired baud rate (e.g. 115200)
 150:/home/jonas/warwick/3dProfilometer/xpcc/src/xpcc/architecture/platform/cortex_m3/stm32/uart/usart_3.hpp **** 			 * \param	interruptPriority
 151:/home/jonas/warwick/3dProfilometer/xpcc/src/xpcc/architecture/platform/cortex_m3/stm32/uart/usart_3.hpp **** 			 * 			Interrupt vector priority (0=highest to 15=lowest)
 152:/home/jonas/warwick/3dProfilometer/xpcc/src/xpcc/architecture/platform/cortex_m3/stm32/uart/usart_3.hpp **** 			 * \param	blocking
 153:/home/jonas/warwick/3dProfilometer/xpcc/src/xpcc/architecture/platform/cortex_m3/stm32/uart/usart_3.hpp **** 			 * 			The write-function waits until a free slot is available
 154:/home/jonas/warwick/3dProfilometer/xpcc/src/xpcc/architecture/platform/cortex_m3/stm32/uart/usart_3.hpp **** 			 * 			in the send buffer.
 155:/home/jonas/warwick/3dProfilometer/xpcc/src/xpcc/architecture/platform/cortex_m3/stm32/uart/usart_3.hpp **** 			 */
 156:/home/jonas/warwick/3dProfilometer/xpcc/src/xpcc/architecture/platform/cortex_m3/stm32/uart/usart_3.hpp **** 			BufferedUsart3(uint32_t baudrate,
 269              		.loc 4 156 0
 270              		.cfi_startproc
 271              		@ args = 0, pretend = 0, frame = 0
 272              		@ frame_needed = 0, uses_anonymous_args = 0
 273              	.LVL21:
 274 0000 10B5     		push	{r4, lr}
 275              	.LCFI6:
 276              		.cfi_def_cfa_offset 8
 277              		.cfi_offset 4, -8
 278              		.cfi_offset 14, -4
 279              		.loc 4 156 0
 280 0002 0446     		mov	r4, r0
 281              	.LBB16:
 157:/home/jonas/warwick/3dProfilometer/xpcc/src/xpcc/architecture/platform/cortex_m3/stm32/uart/usart_3.hpp **** 					uint32_t interruptPriority, bool blocking = true)
 158:/home/jonas/warwick/3dProfilometer/xpcc/src/xpcc/architecture/platform/cortex_m3/stm32/uart/usart_3.hpp **** 			{
 159:/home/jonas/warwick/3dProfilometer/xpcc/src/xpcc/architecture/platform/cortex_m3/stm32/uart/usart_3.hpp **** 				setBaudrate(baudrate, interruptPriority, blocking);
 282              		.loc 4 159 0
 283 0004 0846     		mov	r0, r1
 284              	.LVL22:
 285 0006 1146     		mov	r1, r2
 286              	.LVL23:
 287 0008 1A46     		mov	r2, r3
 288              	.LVL24:
 289 000a 024B     		ldr	r3, .L30
 290              	.LVL25:
 291 000c 9847     		blx	r3
 292              	.LVL26:
 293              	.LBE16:
 160:/home/jonas/warwick/3dProfilometer/xpcc/src/xpcc/architecture/platform/cortex_m3/stm32/uart/usart_3.hpp **** 			}
 294              		.loc 4 160 0
 295 000e 2046     		mov	r0, r4
 296 0010 10BD     		pop	{r4, pc}
 297              	.L31:
 298 0012 00BF     		.align	2
 299              	.L30:
 300 0014 00000000 		.word	_ZN4xpcc5stm3214BufferedUsart311setBaudrateEmmb
 301              		.cfi_endproc
 302              	.LFE309:
 304              		.weak	_ZN4xpcc5stm3214BufferedUsart3C1Emmb
 305              		.thumb_set _ZN4xpcc5stm3214BufferedUsart3C1Emmb,_ZN4xpcc5stm3214BufferedUsart3C2Emmb
 306              		.section	.text._ZN4xpcc8IODeviceC2Ev,"axG",%progbits,_ZN4xpcc8IODeviceC5Ev,comdat
 307              		.align	2
 308              		.weak	_ZN4xpcc8IODeviceC2Ev
 309              		.thumb
 310              		.thumb_func
 312              	_ZN4xpcc8IODeviceC2Ev:
 313              	.LFB706:
 314              		.file 5 "/home/jonas/warwick/3dProfilometer/xpcc/src/xpcc/io/iodevice.hpp"
   1:/home/jonas/warwick/3dProfilometer/xpcc/src/xpcc/io/iodevice.hpp **** // coding: utf-8
   2:/home/jonas/warwick/3dProfilometer/xpcc/src/xpcc/io/iodevice.hpp **** // ----------------------------------------------------------------------------
   3:/home/jonas/warwick/3dProfilometer/xpcc/src/xpcc/io/iodevice.hpp **** /* Copyright (c) 2009, Roboterclub Aachen e.V.
   4:/home/jonas/warwick/3dProfilometer/xpcc/src/xpcc/io/iodevice.hpp ****  * All rights reserved.
   5:/home/jonas/warwick/3dProfilometer/xpcc/src/xpcc/io/iodevice.hpp ****  *
   6:/home/jonas/warwick/3dProfilometer/xpcc/src/xpcc/io/iodevice.hpp ****  * Redistribution and use in source and binary forms, with or without
   7:/home/jonas/warwick/3dProfilometer/xpcc/src/xpcc/io/iodevice.hpp ****  * modification, are permitted provided that the following conditions are met:
   8:/home/jonas/warwick/3dProfilometer/xpcc/src/xpcc/io/iodevice.hpp ****  * 
   9:/home/jonas/warwick/3dProfilometer/xpcc/src/xpcc/io/iodevice.hpp ****  *     * Redistributions of source code must retain the above copyright
  10:/home/jonas/warwick/3dProfilometer/xpcc/src/xpcc/io/iodevice.hpp ****  *       notice, this list of conditions and the following disclaimer.
  11:/home/jonas/warwick/3dProfilometer/xpcc/src/xpcc/io/iodevice.hpp ****  *     * Redistributions in binary form must reproduce the above copyright
  12:/home/jonas/warwick/3dProfilometer/xpcc/src/xpcc/io/iodevice.hpp ****  *       notice, this list of conditions and the following disclaimer in the
  13:/home/jonas/warwick/3dProfilometer/xpcc/src/xpcc/io/iodevice.hpp ****  *       documentation and/or other materials provided with the distribution.
  14:/home/jonas/warwick/3dProfilometer/xpcc/src/xpcc/io/iodevice.hpp ****  *     * Neither the name of the Roboterclub Aachen e.V. nor the
  15:/home/jonas/warwick/3dProfilometer/xpcc/src/xpcc/io/iodevice.hpp ****  *       names of its contributors may be used to endorse or promote products
  16:/home/jonas/warwick/3dProfilometer/xpcc/src/xpcc/io/iodevice.hpp ****  *       derived from this software without specific prior written permission.
  17:/home/jonas/warwick/3dProfilometer/xpcc/src/xpcc/io/iodevice.hpp ****  *
  18:/home/jonas/warwick/3dProfilometer/xpcc/src/xpcc/io/iodevice.hpp ****  * THIS SOFTWARE IS PROVIDED BY ROBOTERCLUB AACHEN E.V. ''AS IS'' AND ANY
  19:/home/jonas/warwick/3dProfilometer/xpcc/src/xpcc/io/iodevice.hpp ****  * EXPRESS OR IMPLIED WARRANTIES, INCLUDING, BUT NOT LIMITED TO, THE IMPLIED
  20:/home/jonas/warwick/3dProfilometer/xpcc/src/xpcc/io/iodevice.hpp ****  * WARRANTIES OF MERCHANTABILITY AND FITNESS FOR A PARTICULAR PURPOSE ARE
  21:/home/jonas/warwick/3dProfilometer/xpcc/src/xpcc/io/iodevice.hpp ****  * DISCLAIMED. IN NO EVENT SHALL ROBOTERCLUB AACHEN E.V. BE LIABLE FOR ANY
  22:/home/jonas/warwick/3dProfilometer/xpcc/src/xpcc/io/iodevice.hpp ****  * DIRECT, INDIRECT, INCIDENTAL, SPECIAL, EXEMPLARY, OR CONSEQUENTIAL DAMAGES
  23:/home/jonas/warwick/3dProfilometer/xpcc/src/xpcc/io/iodevice.hpp ****  * (INCLUDING, BUT NOT LIMITED TO, PROCUREMENT OF SUBSTITUTE GOODS OR SERVICES;
  24:/home/jonas/warwick/3dProfilometer/xpcc/src/xpcc/io/iodevice.hpp ****  * LOSS OF USE, DATA, OR PROFITS; OR BUSINESS INTERRUPTION) HOWEVER CAUSED AND
  25:/home/jonas/warwick/3dProfilometer/xpcc/src/xpcc/io/iodevice.hpp ****  * ON ANY THEORY OF LIABILITY, WHETHER IN CONTRACT, STRICT LIABILITY, OR TORT
  26:/home/jonas/warwick/3dProfilometer/xpcc/src/xpcc/io/iodevice.hpp ****  * (INCLUDING NEGLIGENCE OR OTHERWISE) ARISING IN ANY WAY OUT OF THE USE OF
  27:/home/jonas/warwick/3dProfilometer/xpcc/src/xpcc/io/iodevice.hpp ****  * THIS SOFTWARE, EVEN IF ADVISED OF THE POSSIBILITY OF SUCH DAMAGE.
  28:/home/jonas/warwick/3dProfilometer/xpcc/src/xpcc/io/iodevice.hpp ****  */
  29:/home/jonas/warwick/3dProfilometer/xpcc/src/xpcc/io/iodevice.hpp **** // ----------------------------------------------------------------------------
  30:/home/jonas/warwick/3dProfilometer/xpcc/src/xpcc/io/iodevice.hpp **** 
  31:/home/jonas/warwick/3dProfilometer/xpcc/src/xpcc/io/iodevice.hpp **** #ifndef XPCC__IODEVICE_HPP
  32:/home/jonas/warwick/3dProfilometer/xpcc/src/xpcc/io/iodevice.hpp **** #define XPCC__IODEVICE_HPP
  33:/home/jonas/warwick/3dProfilometer/xpcc/src/xpcc/io/iodevice.hpp **** 
  34:/home/jonas/warwick/3dProfilometer/xpcc/src/xpcc/io/iodevice.hpp **** namespace xpcc
  35:/home/jonas/warwick/3dProfilometer/xpcc/src/xpcc/io/iodevice.hpp **** {
  36:/home/jonas/warwick/3dProfilometer/xpcc/src/xpcc/io/iodevice.hpp **** 	/**
  37:/home/jonas/warwick/3dProfilometer/xpcc/src/xpcc/io/iodevice.hpp **** 	 * \brief 	Abstract calls of io-devices
  38:/home/jonas/warwick/3dProfilometer/xpcc/src/xpcc/io/iodevice.hpp **** 	 *
  39:/home/jonas/warwick/3dProfilometer/xpcc/src/xpcc/io/iodevice.hpp **** 	 * \ingroup io
  40:/home/jonas/warwick/3dProfilometer/xpcc/src/xpcc/io/iodevice.hpp **** 	 * \author	Martin Rosekeit <martin.rosekeit@rwth-aachen.de>
  41:/home/jonas/warwick/3dProfilometer/xpcc/src/xpcc/io/iodevice.hpp **** 	 */
  42:/home/jonas/warwick/3dProfilometer/xpcc/src/xpcc/io/iodevice.hpp **** 	class IODevice
  43:/home/jonas/warwick/3dProfilometer/xpcc/src/xpcc/io/iodevice.hpp **** 	{
  44:/home/jonas/warwick/3dProfilometer/xpcc/src/xpcc/io/iodevice.hpp **** 	public :
  45:/home/jonas/warwick/3dProfilometer/xpcc/src/xpcc/io/iodevice.hpp **** 		IODevice()
 315              		.loc 5 45 0
 316              		.cfi_startproc
 317              		@ args = 0, pretend = 0, frame = 0
 318              		@ frame_needed = 0, uses_anonymous_args = 0
 319              		@ link register save eliminated.
 320              	.LVL27:
 321              	.LBB17:
  46:/home/jonas/warwick/3dProfilometer/xpcc/src/xpcc/io/iodevice.hpp **** 		{
 322              		.loc 5 46 0
 323 0000 014B     		ldr	r3, .L33
 324 0002 0360     		str	r3, [r0, #0]
 325              	.LBE17:
  47:/home/jonas/warwick/3dProfilometer/xpcc/src/xpcc/io/iodevice.hpp **** 		}
 326              		.loc 5 47 0
 327 0004 7047     		bx	lr
 328              	.L34:
 329 0006 00BF     		.align	2
 330              	.L33:
 331 0008 08000000 		.word	_ZTVN4xpcc8IODeviceE+8
 332              		.cfi_endproc
 333              	.LFE706:
 335              		.weak	_ZN4xpcc8IODeviceC1Ev
 336              		.thumb_set _ZN4xpcc8IODeviceC1Ev,_ZN4xpcc8IODeviceC2Ev
 337              		.section	.text._ZN4xpcc8IODeviceD2Ev,"axG",%progbits,_ZN4xpcc8IODeviceD5Ev,comdat
 338              		.align	2
 339              		.weak	_ZN4xpcc8IODeviceD2Ev
 340              		.thumb
 341              		.thumb_func
 343              	_ZN4xpcc8IODeviceD2Ev:
 344              	.LFB709:
  48:/home/jonas/warwick/3dProfilometer/xpcc/src/xpcc/io/iodevice.hpp **** 		
  49:/home/jonas/warwick/3dProfilometer/xpcc/src/xpcc/io/iodevice.hpp **** 		virtual
  50:/home/jonas/warwick/3dProfilometer/xpcc/src/xpcc/io/iodevice.hpp **** 		~IODevice()
 345              		.loc 5 50 0
 346              		.cfi_startproc
 347              		@ args = 0, pretend = 0, frame = 0
 348              		@ frame_needed = 0, uses_anonymous_args = 0
 349              		@ link register save eliminated.
 350              	.LVL28:
 351              	.LBB18:
  51:/home/jonas/warwick/3dProfilometer/xpcc/src/xpcc/io/iodevice.hpp **** 		{
 352              		.loc 5 51 0
 353 0000 014B     		ldr	r3, .L36
 354 0002 0360     		str	r3, [r0, #0]
 355              	.LBE18:
  52:/home/jonas/warwick/3dProfilometer/xpcc/src/xpcc/io/iodevice.hpp **** 		}
 356              		.loc 5 52 0
 357 0004 7047     		bx	lr
 358              	.L37:
 359 0006 00BF     		.align	2
 360              	.L36:
 361 0008 08000000 		.word	_ZTVN4xpcc8IODeviceE+8
 362              		.cfi_endproc
 363              	.LFE709:
 365              		.weak	_ZN4xpcc8IODeviceD1Ev
 366              		.thumb_set _ZN4xpcc8IODeviceD1Ev,_ZN4xpcc8IODeviceD2Ev
 367              		.section	.text._ZN4xpcc15IODeviceWrapperINS_5stm3214BufferedUsart3EED2Ev,"axG",%progbits,_ZN4xpcc1
 368              		.align	2
 369              		.weak	_ZN4xpcc15IODeviceWrapperINS_5stm3214BufferedUsart3EED2Ev
 370              		.thumb
 371              		.thumb_func
 373              	_ZN4xpcc15IODeviceWrapperINS_5stm3214BufferedUsart3EED2Ev:
 374              	.LFB894:
  65:/home/jonas/warwick/3dProfilometer/xpcc/src/xpcc/io/iodevice_wrapper.hpp **** 	class IODeviceWrapper : public IODevice
 375              		.loc 1 65 0
 376              		.cfi_startproc
 377              		@ args = 0, pretend = 0, frame = 0
 378              		@ frame_needed = 0, uses_anonymous_args = 0
 379              	.LVL29:
 380              	.LBB19:
 381 0000 034B     		ldr	r3, .L39
 382              	.LBE19:
 383 0002 10B5     		push	{r4, lr}
 384              	.LCFI7:
 385              		.cfi_def_cfa_offset 8
 386              		.cfi_offset 4, -8
 387              		.cfi_offset 14, -4
  65:/home/jonas/warwick/3dProfilometer/xpcc/src/xpcc/io/iodevice_wrapper.hpp **** 	class IODeviceWrapper : public IODevice
 388              		.loc 1 65 0
 389 0004 0446     		mov	r4, r0
 390              	.LBB20:
 391 0006 0360     		str	r3, [r0, #0]
 392 0008 024B     		ldr	r3, .L39+4
 393 000a 9847     		blx	r3
 394              	.LVL30:
 395              	.LBE20:
 396 000c 2046     		mov	r0, r4
 397 000e 10BD     		pop	{r4, pc}
 398              	.L40:
 399              		.align	2
 400              	.L39:
 401 0010 08000000 		.word	_ZTVN4xpcc15IODeviceWrapperINS_5stm3214BufferedUsart3EEE+8
 402 0014 00000000 		.word	_ZN4xpcc8IODeviceD2Ev
 403              		.cfi_endproc
 404              	.LFE894:
 406              		.weak	_ZN4xpcc15IODeviceWrapperINS_5stm3214BufferedUsart3EED1Ev
 407              		.thumb_set _ZN4xpcc15IODeviceWrapperINS_5stm3214BufferedUsart3EED1Ev,_ZN4xpcc15IODeviceWrapperINS_
 408              		.section	.text._ZN4xpcc15IODeviceWrapperINS_5stm3214BufferedUsart3EED0Ev,"axG",%progbits,_ZN4xpcc1
 409              		.align	2
 410              		.weak	_ZN4xpcc15IODeviceWrapperINS_5stm3214BufferedUsart3EED0Ev
 411              		.thumb
 412              		.thumb_func
 414              	_ZN4xpcc15IODeviceWrapperINS_5stm3214BufferedUsart3EED0Ev:
 415              	.LFB896:
  65:/home/jonas/warwick/3dProfilometer/xpcc/src/xpcc/io/iodevice_wrapper.hpp **** 	class IODeviceWrapper : public IODevice
 416              		.loc 1 65 0
 417              		.cfi_startproc
 418              		@ args = 0, pretend = 0, frame = 0
 419              		@ frame_needed = 0, uses_anonymous_args = 0
 420              	.LVL31:
 421 0000 10B5     		push	{r4, lr}
 422              	.LCFI8:
 423              		.cfi_def_cfa_offset 8
 424              		.cfi_offset 4, -8
 425              		.cfi_offset 14, -4
  65:/home/jonas/warwick/3dProfilometer/xpcc/src/xpcc/io/iodevice_wrapper.hpp **** 	class IODeviceWrapper : public IODevice
 426              		.loc 1 65 0
 427 0002 044B     		ldr	r3, .L42
 428 0004 0446     		mov	r4, r0
 429 0006 9847     		blx	r3
 430              	.LVL32:
 431 0008 2046     		mov	r0, r4
 432 000a 034B     		ldr	r3, .L42+4
 433 000c 9847     		blx	r3
 434              	.LVL33:
 435 000e 2046     		mov	r0, r4
 436 0010 10BD     		pop	{r4, pc}
 437              	.L43:
 438 0012 00BF     		.align	2
 439              	.L42:
 440 0014 00000000 		.word	_ZN4xpcc15IODeviceWrapperINS_5stm3214BufferedUsart3EED1Ev
 441 0018 00000000 		.word	_ZdlPv
 442              		.cfi_endproc
 443              	.LFE896:
 445              		.section	.text._ZN4xpcc8IODeviceD0Ev,"axG",%progbits,_ZN4xpcc8IODeviceD0Ev,comdat
 446              		.align	2
 447              		.weak	_ZN4xpcc8IODeviceD0Ev
 448              		.thumb
 449              		.thumb_func
 451              	_ZN4xpcc8IODeviceD0Ev:
 452              	.LFB711:
  50:/home/jonas/warwick/3dProfilometer/xpcc/src/xpcc/io/iodevice.hpp **** 		~IODevice()
 453              		.loc 5 50 0
 454              		.cfi_startproc
 455              		@ args = 0, pretend = 0, frame = 0
 456              		@ frame_needed = 0, uses_anonymous_args = 0
 457              	.LVL34:
 458 0000 10B5     		push	{r4, lr}
 459              	.LCFI9:
 460              		.cfi_def_cfa_offset 8
 461              		.cfi_offset 4, -8
 462              		.cfi_offset 14, -4
 463              		.loc 5 52 0
 464 0002 044B     		ldr	r3, .L45
  50:/home/jonas/warwick/3dProfilometer/xpcc/src/xpcc/io/iodevice.hpp **** 		~IODevice()
 465              		.loc 5 50 0
 466 0004 0446     		mov	r4, r0
 467              		.loc 5 52 0
 468 0006 9847     		blx	r3
 469              	.LVL35:
 470 0008 2046     		mov	r0, r4
 471 000a 034B     		ldr	r3, .L45+4
 472 000c 9847     		blx	r3
 473              	.LVL36:
 474 000e 2046     		mov	r0, r4
 475 0010 10BD     		pop	{r4, pc}
 476              	.L46:
 477 0012 00BF     		.align	2
 478              	.L45:
 479 0014 00000000 		.word	_ZN4xpcc8IODeviceD1Ev
 480 0018 00000000 		.word	_ZdlPv
 481              		.cfi_endproc
 482              	.LFE711:
 484              		.section	.text._ZN4xpcc8IOStreamlsEPKc,"axG",%progbits,_ZN4xpcc8IOStreamlsEPKc,comdat
 485              		.align	2
 486              		.weak	_ZN4xpcc8IOStreamlsEPKc
 487              		.thumb
 488              		.thumb_func
 490              	_ZN4xpcc8IOStreamlsEPKc:
 491              	.LFB735:
 133:/home/jonas/warwick/3dProfilometer/xpcc/src/xpcc/io/iostream.hpp **** 		
 134:/home/jonas/warwick/3dProfilometer/xpcc/src/xpcc/io/iostream.hpp **** 		ALWAYS_INLINE IOStream&
 135:/home/jonas/warwick/3dProfilometer/xpcc/src/xpcc/io/iostream.hpp **** 		operator << (const uint16_t& v)
 136:/home/jonas/warwick/3dProfilometer/xpcc/src/xpcc/io/iostream.hpp **** 		{
 137:/home/jonas/warwick/3dProfilometer/xpcc/src/xpcc/io/iostream.hpp **** 			if (this->mode == Mode::Ascii) {
 138:/home/jonas/warwick/3dProfilometer/xpcc/src/xpcc/io/iostream.hpp **** 				this->writeInteger(v);
 139:/home/jonas/warwick/3dProfilometer/xpcc/src/xpcc/io/iostream.hpp **** 			}
 140:/home/jonas/warwick/3dProfilometer/xpcc/src/xpcc/io/iostream.hpp **** 			else if (this->mode == Mode::Binary) {
 141:/home/jonas/warwick/3dProfilometer/xpcc/src/xpcc/io/iostream.hpp **** 				this->writeBin(static_cast<uint8_t>(v >> 8));
 142:/home/jonas/warwick/3dProfilometer/xpcc/src/xpcc/io/iostream.hpp **** 				this->writeBin(static_cast<uint8_t>(v & 0xff));
 143:/home/jonas/warwick/3dProfilometer/xpcc/src/xpcc/io/iostream.hpp **** 			}
 144:/home/jonas/warwick/3dProfilometer/xpcc/src/xpcc/io/iostream.hpp **** 			else {
 145:/home/jonas/warwick/3dProfilometer/xpcc/src/xpcc/io/iostream.hpp **** 				this->writeHex(static_cast<uint8_t>(v >> 8));
 146:/home/jonas/warwick/3dProfilometer/xpcc/src/xpcc/io/iostream.hpp **** 				this->writeHex(static_cast<uint8_t>(v & 0xff));
 147:/home/jonas/warwick/3dProfilometer/xpcc/src/xpcc/io/iostream.hpp **** 			}
 148:/home/jonas/warwick/3dProfilometer/xpcc/src/xpcc/io/iostream.hpp **** 			return *this;
 149:/home/jonas/warwick/3dProfilometer/xpcc/src/xpcc/io/iostream.hpp **** 		}
 150:/home/jonas/warwick/3dProfilometer/xpcc/src/xpcc/io/iostream.hpp **** 
 151:/home/jonas/warwick/3dProfilometer/xpcc/src/xpcc/io/iostream.hpp **** 		ALWAYS_INLINE IOStream&
 152:/home/jonas/warwick/3dProfilometer/xpcc/src/xpcc/io/iostream.hpp **** 		operator << (const int16_t& v)
 153:/home/jonas/warwick/3dProfilometer/xpcc/src/xpcc/io/iostream.hpp **** 		{
 154:/home/jonas/warwick/3dProfilometer/xpcc/src/xpcc/io/iostream.hpp **** 			if (this->mode == Mode::Ascii) {
 155:/home/jonas/warwick/3dProfilometer/xpcc/src/xpcc/io/iostream.hpp **** 				this->writeInteger(v);
 156:/home/jonas/warwick/3dProfilometer/xpcc/src/xpcc/io/iostream.hpp **** 			}
 157:/home/jonas/warwick/3dProfilometer/xpcc/src/xpcc/io/iostream.hpp **** 			else if (this->mode == Mode::Binary) {
 158:/home/jonas/warwick/3dProfilometer/xpcc/src/xpcc/io/iostream.hpp **** 				this->writeBin(static_cast<uint8_t>(v >> 8));
 159:/home/jonas/warwick/3dProfilometer/xpcc/src/xpcc/io/iostream.hpp **** 				this->writeBin(static_cast<uint8_t>(v & 0xff));
 160:/home/jonas/warwick/3dProfilometer/xpcc/src/xpcc/io/iostream.hpp **** 			}
 161:/home/jonas/warwick/3dProfilometer/xpcc/src/xpcc/io/iostream.hpp **** 			else {
 162:/home/jonas/warwick/3dProfilometer/xpcc/src/xpcc/io/iostream.hpp **** 				this->writeHex(static_cast<uint8_t>(v >> 8));
 163:/home/jonas/warwick/3dProfilometer/xpcc/src/xpcc/io/iostream.hpp **** 				this->writeHex(static_cast<uint8_t>(v & 0xff));
 164:/home/jonas/warwick/3dProfilometer/xpcc/src/xpcc/io/iostream.hpp **** 			}
 165:/home/jonas/warwick/3dProfilometer/xpcc/src/xpcc/io/iostream.hpp **** 			return *this;
 166:/home/jonas/warwick/3dProfilometer/xpcc/src/xpcc/io/iostream.hpp **** 		}
 167:/home/jonas/warwick/3dProfilometer/xpcc/src/xpcc/io/iostream.hpp **** 
 168:/home/jonas/warwick/3dProfilometer/xpcc/src/xpcc/io/iostream.hpp **** 		ALWAYS_INLINE IOStream&
 169:/home/jonas/warwick/3dProfilometer/xpcc/src/xpcc/io/iostream.hpp **** 		operator << (const uint32_t& v)
 170:/home/jonas/warwick/3dProfilometer/xpcc/src/xpcc/io/iostream.hpp **** 		{
 171:/home/jonas/warwick/3dProfilometer/xpcc/src/xpcc/io/iostream.hpp **** 			if (this->mode == Mode::Ascii) {
 172:/home/jonas/warwick/3dProfilometer/xpcc/src/xpcc/io/iostream.hpp **** 				this->writeInteger(v);
 173:/home/jonas/warwick/3dProfilometer/xpcc/src/xpcc/io/iostream.hpp **** 			}
 174:/home/jonas/warwick/3dProfilometer/xpcc/src/xpcc/io/iostream.hpp **** 			else if (this->mode == Mode::Binary) {
 175:/home/jonas/warwick/3dProfilometer/xpcc/src/xpcc/io/iostream.hpp **** 				this->writeBin(static_cast<uint8_t>(v >> 24));
 176:/home/jonas/warwick/3dProfilometer/xpcc/src/xpcc/io/iostream.hpp **** 				this->writeBin(static_cast<uint8_t>(v >> 16));
 177:/home/jonas/warwick/3dProfilometer/xpcc/src/xpcc/io/iostream.hpp **** 				this->writeBin(static_cast<uint8_t>(v >> 8));
 178:/home/jonas/warwick/3dProfilometer/xpcc/src/xpcc/io/iostream.hpp **** 				this->writeBin(static_cast<uint8_t>(v & 0xff));
 179:/home/jonas/warwick/3dProfilometer/xpcc/src/xpcc/io/iostream.hpp **** 			}
 180:/home/jonas/warwick/3dProfilometer/xpcc/src/xpcc/io/iostream.hpp **** 			else {
 181:/home/jonas/warwick/3dProfilometer/xpcc/src/xpcc/io/iostream.hpp **** 				this->writeHex(static_cast<uint8_t>(v >> 24));
 182:/home/jonas/warwick/3dProfilometer/xpcc/src/xpcc/io/iostream.hpp **** 				this->writeHex(static_cast<uint8_t>(v >> 16));
 183:/home/jonas/warwick/3dProfilometer/xpcc/src/xpcc/io/iostream.hpp **** 				this->writeHex(static_cast<uint8_t>(v >> 8));
 184:/home/jonas/warwick/3dProfilometer/xpcc/src/xpcc/io/iostream.hpp **** 				this->writeHex(static_cast<uint8_t>(v & 0xff));
 185:/home/jonas/warwick/3dProfilometer/xpcc/src/xpcc/io/iostream.hpp **** 			}
 186:/home/jonas/warwick/3dProfilometer/xpcc/src/xpcc/io/iostream.hpp **** 			return *this;
 187:/home/jonas/warwick/3dProfilometer/xpcc/src/xpcc/io/iostream.hpp **** 		}
 188:/home/jonas/warwick/3dProfilometer/xpcc/src/xpcc/io/iostream.hpp **** 
 189:/home/jonas/warwick/3dProfilometer/xpcc/src/xpcc/io/iostream.hpp **** 		ALWAYS_INLINE IOStream&
 190:/home/jonas/warwick/3dProfilometer/xpcc/src/xpcc/io/iostream.hpp **** 		operator << (const int32_t& v)
 191:/home/jonas/warwick/3dProfilometer/xpcc/src/xpcc/io/iostream.hpp **** 		{
 192:/home/jonas/warwick/3dProfilometer/xpcc/src/xpcc/io/iostream.hpp **** 			if (this->mode == Mode::Ascii) {
 193:/home/jonas/warwick/3dProfilometer/xpcc/src/xpcc/io/iostream.hpp **** 				this->writeInteger(v);
 194:/home/jonas/warwick/3dProfilometer/xpcc/src/xpcc/io/iostream.hpp **** 			}
 195:/home/jonas/warwick/3dProfilometer/xpcc/src/xpcc/io/iostream.hpp **** 			else if (this->mode == Mode::Binary) {
 196:/home/jonas/warwick/3dProfilometer/xpcc/src/xpcc/io/iostream.hpp **** 				this->writeBin(static_cast<uint8_t>(v >> 24));
 197:/home/jonas/warwick/3dProfilometer/xpcc/src/xpcc/io/iostream.hpp **** 				this->writeBin(static_cast<uint8_t>(v >> 16));
 198:/home/jonas/warwick/3dProfilometer/xpcc/src/xpcc/io/iostream.hpp **** 				this->writeBin(static_cast<uint8_t>(v >> 8));
 199:/home/jonas/warwick/3dProfilometer/xpcc/src/xpcc/io/iostream.hpp **** 				this->writeBin(static_cast<uint8_t>(v & 0xff));
 200:/home/jonas/warwick/3dProfilometer/xpcc/src/xpcc/io/iostream.hpp **** 			}
 201:/home/jonas/warwick/3dProfilometer/xpcc/src/xpcc/io/iostream.hpp **** 			else {
 202:/home/jonas/warwick/3dProfilometer/xpcc/src/xpcc/io/iostream.hpp **** 				this->writeHex(static_cast<uint8_t>(v >> 24));
 203:/home/jonas/warwick/3dProfilometer/xpcc/src/xpcc/io/iostream.hpp **** 				this->writeHex(static_cast<uint8_t>(v >> 16));
 204:/home/jonas/warwick/3dProfilometer/xpcc/src/xpcc/io/iostream.hpp **** 				this->writeHex(static_cast<uint8_t>(v >> 8));
 205:/home/jonas/warwick/3dProfilometer/xpcc/src/xpcc/io/iostream.hpp **** 				this->writeHex(static_cast<uint8_t>(v & 0xff));
 206:/home/jonas/warwick/3dProfilometer/xpcc/src/xpcc/io/iostream.hpp **** 			}
 207:/home/jonas/warwick/3dProfilometer/xpcc/src/xpcc/io/iostream.hpp **** 			return *this;
 208:/home/jonas/warwick/3dProfilometer/xpcc/src/xpcc/io/iostream.hpp **** 		}
 209:/home/jonas/warwick/3dProfilometer/xpcc/src/xpcc/io/iostream.hpp **** 		
 210:/home/jonas/warwick/3dProfilometer/xpcc/src/xpcc/io/iostream.hpp **** #if defined(XPCC__OS_OSX)
 211:/home/jonas/warwick/3dProfilometer/xpcc/src/xpcc/io/iostream.hpp **** 		// For APPLE 'int64_t' is of type 'int'. Therefore there is no
 212:/home/jonas/warwick/3dProfilometer/xpcc/src/xpcc/io/iostream.hpp **** 		// function here for the default type 'long int'. As 'long int' has the same
 213:/home/jonas/warwick/3dProfilometer/xpcc/src/xpcc/io/iostream.hpp **** 		// width as 'int64_t' we just use a typedef here.
 214:/home/jonas/warwick/3dProfilometer/xpcc/src/xpcc/io/iostream.hpp **** 		ALWAYS_INLINE IOStream&
 215:/home/jonas/warwick/3dProfilometer/xpcc/src/xpcc/io/iostream.hpp **** 		operator << (const long int& v)
 216:/home/jonas/warwick/3dProfilometer/xpcc/src/xpcc/io/iostream.hpp **** 		{
 217:/home/jonas/warwick/3dProfilometer/xpcc/src/xpcc/io/iostream.hpp **** 			this->writeInteger(static_cast<int64_t>(v));
 218:/home/jonas/warwick/3dProfilometer/xpcc/src/xpcc/io/iostream.hpp **** 			return *this;
 219:/home/jonas/warwick/3dProfilometer/xpcc/src/xpcc/io/iostream.hpp **** 		}
 220:/home/jonas/warwick/3dProfilometer/xpcc/src/xpcc/io/iostream.hpp **** 		
 221:/home/jonas/warwick/3dProfilometer/xpcc/src/xpcc/io/iostream.hpp **** 		ALWAYS_INLINE IOStream&
 222:/home/jonas/warwick/3dProfilometer/xpcc/src/xpcc/io/iostream.hpp **** 		operator << (const long unsigned int& v)
 223:/home/jonas/warwick/3dProfilometer/xpcc/src/xpcc/io/iostream.hpp **** 		{
 224:/home/jonas/warwick/3dProfilometer/xpcc/src/xpcc/io/iostream.hpp **** 			this->writeInteger(static_cast<uint64_t>(v));
 225:/home/jonas/warwick/3dProfilometer/xpcc/src/xpcc/io/iostream.hpp **** 			return *this;
 226:/home/jonas/warwick/3dProfilometer/xpcc/src/xpcc/io/iostream.hpp **** 		}
 227:/home/jonas/warwick/3dProfilometer/xpcc/src/xpcc/io/iostream.hpp **** #endif
 228:/home/jonas/warwick/3dProfilometer/xpcc/src/xpcc/io/iostream.hpp **** 		
 229:/home/jonas/warwick/3dProfilometer/xpcc/src/xpcc/io/iostream.hpp **** #if defined(XPCC__CPU_ARM) || defined(XPCC__CPU_AVR32)
 230:/home/jonas/warwick/3dProfilometer/xpcc/src/xpcc/io/iostream.hpp **** 		// For ARM 'int32_t' is of type 'long'. Therefore there is no
 231:/home/jonas/warwick/3dProfilometer/xpcc/src/xpcc/io/iostream.hpp **** 		// function here for the default type 'int'. As 'int' has the same
 232:/home/jonas/warwick/3dProfilometer/xpcc/src/xpcc/io/iostream.hpp **** 		// width as 'int32_t' we just use a typedef here.
 233:/home/jonas/warwick/3dProfilometer/xpcc/src/xpcc/io/iostream.hpp **** 		ALWAYS_INLINE IOStream&
 234:/home/jonas/warwick/3dProfilometer/xpcc/src/xpcc/io/iostream.hpp **** 		operator << (const int& v)
 235:/home/jonas/warwick/3dProfilometer/xpcc/src/xpcc/io/iostream.hpp **** 		{
 236:/home/jonas/warwick/3dProfilometer/xpcc/src/xpcc/io/iostream.hpp **** 			this->writeInteger(static_cast<int32_t>(v));
 237:/home/jonas/warwick/3dProfilometer/xpcc/src/xpcc/io/iostream.hpp **** 			return *this;
 238:/home/jonas/warwick/3dProfilometer/xpcc/src/xpcc/io/iostream.hpp **** 		}
 239:/home/jonas/warwick/3dProfilometer/xpcc/src/xpcc/io/iostream.hpp **** 		
 240:/home/jonas/warwick/3dProfilometer/xpcc/src/xpcc/io/iostream.hpp **** 		ALWAYS_INLINE IOStream&
 241:/home/jonas/warwick/3dProfilometer/xpcc/src/xpcc/io/iostream.hpp **** 		operator << (const unsigned int& v)
 242:/home/jonas/warwick/3dProfilometer/xpcc/src/xpcc/io/iostream.hpp **** 		{
 243:/home/jonas/warwick/3dProfilometer/xpcc/src/xpcc/io/iostream.hpp **** 			this->writeInteger(static_cast<uint32_t>(v));
 244:/home/jonas/warwick/3dProfilometer/xpcc/src/xpcc/io/iostream.hpp **** 			return *this;
 245:/home/jonas/warwick/3dProfilometer/xpcc/src/xpcc/io/iostream.hpp **** 		}
 246:/home/jonas/warwick/3dProfilometer/xpcc/src/xpcc/io/iostream.hpp **** #endif
 247:/home/jonas/warwick/3dProfilometer/xpcc/src/xpcc/io/iostream.hpp **** 		
 248:/home/jonas/warwick/3dProfilometer/xpcc/src/xpcc/io/iostream.hpp **** // The 64-bit types on the AVR are extremely slow and are
 249:/home/jonas/warwick/3dProfilometer/xpcc/src/xpcc/io/iostream.hpp **** // therefore excluded here
 250:/home/jonas/warwick/3dProfilometer/xpcc/src/xpcc/io/iostream.hpp **** #if !defined(XPCC__CPU_AVR)
 251:/home/jonas/warwick/3dProfilometer/xpcc/src/xpcc/io/iostream.hpp **** 		ALWAYS_INLINE IOStream&
 252:/home/jonas/warwick/3dProfilometer/xpcc/src/xpcc/io/iostream.hpp **** 		operator << (const uint64_t& v)
 253:/home/jonas/warwick/3dProfilometer/xpcc/src/xpcc/io/iostream.hpp **** 		{
 254:/home/jonas/warwick/3dProfilometer/xpcc/src/xpcc/io/iostream.hpp **** 			this->writeInteger(v);
 255:/home/jonas/warwick/3dProfilometer/xpcc/src/xpcc/io/iostream.hpp **** 			return *this;
 256:/home/jonas/warwick/3dProfilometer/xpcc/src/xpcc/io/iostream.hpp **** 		}
 257:/home/jonas/warwick/3dProfilometer/xpcc/src/xpcc/io/iostream.hpp **** 		
 258:/home/jonas/warwick/3dProfilometer/xpcc/src/xpcc/io/iostream.hpp **** 		ALWAYS_INLINE IOStream&
 259:/home/jonas/warwick/3dProfilometer/xpcc/src/xpcc/io/iostream.hpp **** 		operator << (const int64_t& v)
 260:/home/jonas/warwick/3dProfilometer/xpcc/src/xpcc/io/iostream.hpp **** 		{
 261:/home/jonas/warwick/3dProfilometer/xpcc/src/xpcc/io/iostream.hpp **** 			this->writeInteger(v);
 262:/home/jonas/warwick/3dProfilometer/xpcc/src/xpcc/io/iostream.hpp **** 			return *this;
 263:/home/jonas/warwick/3dProfilometer/xpcc/src/xpcc/io/iostream.hpp **** 		}
 264:/home/jonas/warwick/3dProfilometer/xpcc/src/xpcc/io/iostream.hpp **** #endif
 265:/home/jonas/warwick/3dProfilometer/xpcc/src/xpcc/io/iostream.hpp **** 		
 266:/home/jonas/warwick/3dProfilometer/xpcc/src/xpcc/io/iostream.hpp **** 		ALWAYS_INLINE IOStream&
 267:/home/jonas/warwick/3dProfilometer/xpcc/src/xpcc/io/iostream.hpp **** 		operator << (const float& v)
 268:/home/jonas/warwick/3dProfilometer/xpcc/src/xpcc/io/iostream.hpp **** 		{
 269:/home/jonas/warwick/3dProfilometer/xpcc/src/xpcc/io/iostream.hpp **** 			this->writeFloat(v);
 270:/home/jonas/warwick/3dProfilometer/xpcc/src/xpcc/io/iostream.hpp **** 			return *this;
 271:/home/jonas/warwick/3dProfilometer/xpcc/src/xpcc/io/iostream.hpp **** 		}
 272:/home/jonas/warwick/3dProfilometer/xpcc/src/xpcc/io/iostream.hpp **** 
 273:/home/jonas/warwick/3dProfilometer/xpcc/src/xpcc/io/iostream.hpp **** 		ALWAYS_INLINE IOStream&
 274:/home/jonas/warwick/3dProfilometer/xpcc/src/xpcc/io/iostream.hpp **** 		operator << (const double& v)
 275:/home/jonas/warwick/3dProfilometer/xpcc/src/xpcc/io/iostream.hpp **** 		{
 276:/home/jonas/warwick/3dProfilometer/xpcc/src/xpcc/io/iostream.hpp **** #if defined(XPCC__CPU_AVR)
 277:/home/jonas/warwick/3dProfilometer/xpcc/src/xpcc/io/iostream.hpp **** 			this->writeFloat(static_cast<float>(v));
 278:/home/jonas/warwick/3dProfilometer/xpcc/src/xpcc/io/iostream.hpp **** #else
 279:/home/jonas/warwick/3dProfilometer/xpcc/src/xpcc/io/iostream.hpp **** 			this->writeDouble(v);
 280:/home/jonas/warwick/3dProfilometer/xpcc/src/xpcc/io/iostream.hpp **** #endif
 281:/home/jonas/warwick/3dProfilometer/xpcc/src/xpcc/io/iostream.hpp **** 			return *this;
 282:/home/jonas/warwick/3dProfilometer/xpcc/src/xpcc/io/iostream.hpp **** 		}
 283:/home/jonas/warwick/3dProfilometer/xpcc/src/xpcc/io/iostream.hpp **** 
 284:/home/jonas/warwick/3dProfilometer/xpcc/src/xpcc/io/iostream.hpp **** 		IOStream&
 285:/home/jonas/warwick/3dProfilometer/xpcc/src/xpcc/io/iostream.hpp **** 		operator << (const char* s)
 492              		.loc 2 285 0
 493              		.cfi_startproc
 494              		@ args = 0, pretend = 0, frame = 0
 495              		@ frame_needed = 0, uses_anonymous_args = 0
 496              	.LVL37:
 286:/home/jonas/warwick/3dProfilometer/xpcc/src/xpcc/io/iostream.hpp **** 		{
 287:/home/jonas/warwick/3dProfilometer/xpcc/src/xpcc/io/iostream.hpp **** 			if( this->mode == Mode::Ascii ) {
 497              		.loc 2 287 0
 498 0000 4368     		ldr	r3, [r0, #4]
 285:/home/jonas/warwick/3dProfilometer/xpcc/src/xpcc/io/iostream.hpp **** 		operator << (const char* s)
 499              		.loc 2 285 0
 500 0002 10B5     		push	{r4, lr}
 501              	.LCFI10:
 502              		.cfi_def_cfa_offset 8
 503              		.cfi_offset 4, -8
 504              		.cfi_offset 14, -4
 285:/home/jonas/warwick/3dProfilometer/xpcc/src/xpcc/io/iostream.hpp **** 		operator << (const char* s)
 505              		.loc 2 285 0
 506 0004 0446     		mov	r4, r0
 507              		.loc 2 287 0
 508 0006 33B1     		cbz	r3, .L51
 288:/home/jonas/warwick/3dProfilometer/xpcc/src/xpcc/io/iostream.hpp **** 				this->device->write(s);
 289:/home/jonas/warwick/3dProfilometer/xpcc/src/xpcc/io/iostream.hpp **** 			}
 290:/home/jonas/warwick/3dProfilometer/xpcc/src/xpcc/io/iostream.hpp **** 			else if( this->mode == Mode::Binary ) {
 509              		.loc 2 290 0
 510 0008 022B     		cmp	r3, #2
 291:/home/jonas/warwick/3dProfilometer/xpcc/src/xpcc/io/iostream.hpp **** 				this->writeBin(s);
 511              		.loc 2 291 0
 512 000a 0CBF     		ite	eq
 513 000c 054B     		ldreq	r3, .L52
 292:/home/jonas/warwick/3dProfilometer/xpcc/src/xpcc/io/iostream.hpp **** 			}
 293:/home/jonas/warwick/3dProfilometer/xpcc/src/xpcc/io/iostream.hpp **** 			else {
 294:/home/jonas/warwick/3dProfilometer/xpcc/src/xpcc/io/iostream.hpp **** 				this->writeHex(s);
 514              		.loc 2 294 0
 515 000e 064B     		ldrne	r3, .L52+4
 516 0010 9847     		blx	r3
 517              	.LVL38:
 295:/home/jonas/warwick/3dProfilometer/xpcc/src/xpcc/io/iostream.hpp **** 			}
 296:/home/jonas/warwick/3dProfilometer/xpcc/src/xpcc/io/iostream.hpp **** 			return *this;
 297:/home/jonas/warwick/3dProfilometer/xpcc/src/xpcc/io/iostream.hpp **** 		}
 518              		.loc 2 297 0
 519 0012 2046     		mov	r0, r4
 520 0014 10BD     		pop	{r4, pc}
 521              	.LVL39:
 522              	.L51:
 288:/home/jonas/warwick/3dProfilometer/xpcc/src/xpcc/io/iostream.hpp **** 				this->device->write(s);
 523              		.loc 2 288 0
 524 0016 0068     		ldr	r0, [r0, #0]
 525 0018 0368     		ldr	r3, [r0, #0]
 526 001a DB68     		ldr	r3, [r3, #12]
 527 001c 9847     		blx	r3
 528              	.LVL40:
 529              		.loc 2 297 0
 530 001e 2046     		mov	r0, r4
 531 0020 10BD     		pop	{r4, pc}
 532              	.L53:
 533 0022 00BF     		.align	2
 534              	.L52:
 535 0024 00000000 		.word	_ZN4xpcc8IOStream8writeBinEPKc
 536 0028 00000000 		.word	_ZN4xpcc8IOStream8writeHexEPKc
 537              		.cfi_endproc
 538              	.LFE735:
 540              		.section	.text._ZN4xpcc9TimestampC2Ej,"axG",%progbits,_ZN4xpcc9TimestampC5Ej,comdat
 541              		.align	2
 542              		.weak	_ZN4xpcc9TimestampC2Ej
 543              		.thumb
 544              		.thumb_func
 546              	_ZN4xpcc9TimestampC2Ej:
 547              	.LFB814:
 548              		.file 6 "/home/jonas/warwick/3dProfilometer/xpcc/src/xpcc/workflow/timestamp.hpp"
   1:/home/jonas/warwick/3dProfilometer/xpcc/src/xpcc/workflow/timestamp.hpp **** // coding: utf-8
   2:/home/jonas/warwick/3dProfilometer/xpcc/src/xpcc/workflow/timestamp.hpp **** // ----------------------------------------------------------------------------
   3:/home/jonas/warwick/3dProfilometer/xpcc/src/xpcc/workflow/timestamp.hpp **** /* Copyright (c) 2009, Roboterclub Aachen e.V.
   4:/home/jonas/warwick/3dProfilometer/xpcc/src/xpcc/workflow/timestamp.hpp ****  * All rights reserved.
   5:/home/jonas/warwick/3dProfilometer/xpcc/src/xpcc/workflow/timestamp.hpp ****  *
   6:/home/jonas/warwick/3dProfilometer/xpcc/src/xpcc/workflow/timestamp.hpp ****  * Redistribution and use in source and binary forms, with or without
   7:/home/jonas/warwick/3dProfilometer/xpcc/src/xpcc/workflow/timestamp.hpp ****  * modification, are permitted provided that the following conditions are met:
   8:/home/jonas/warwick/3dProfilometer/xpcc/src/xpcc/workflow/timestamp.hpp ****  * 
   9:/home/jonas/warwick/3dProfilometer/xpcc/src/xpcc/workflow/timestamp.hpp ****  *     * Redistributions of source code must retain the above copyright
  10:/home/jonas/warwick/3dProfilometer/xpcc/src/xpcc/workflow/timestamp.hpp ****  *       notice, this list of conditions and the following disclaimer.
  11:/home/jonas/warwick/3dProfilometer/xpcc/src/xpcc/workflow/timestamp.hpp ****  *     * Redistributions in binary form must reproduce the above copyright
  12:/home/jonas/warwick/3dProfilometer/xpcc/src/xpcc/workflow/timestamp.hpp ****  *       notice, this list of conditions and the following disclaimer in the
  13:/home/jonas/warwick/3dProfilometer/xpcc/src/xpcc/workflow/timestamp.hpp ****  *       documentation and/or other materials provided with the distribution.
  14:/home/jonas/warwick/3dProfilometer/xpcc/src/xpcc/workflow/timestamp.hpp ****  *     * Neither the name of the Roboterclub Aachen e.V. nor the
  15:/home/jonas/warwick/3dProfilometer/xpcc/src/xpcc/workflow/timestamp.hpp ****  *       names of its contributors may be used to endorse or promote products
  16:/home/jonas/warwick/3dProfilometer/xpcc/src/xpcc/workflow/timestamp.hpp ****  *       derived from this software without specific prior written permission.
  17:/home/jonas/warwick/3dProfilometer/xpcc/src/xpcc/workflow/timestamp.hpp ****  *
  18:/home/jonas/warwick/3dProfilometer/xpcc/src/xpcc/workflow/timestamp.hpp ****  * THIS SOFTWARE IS PROVIDED BY ROBOTERCLUB AACHEN E.V. ''AS IS'' AND ANY
  19:/home/jonas/warwick/3dProfilometer/xpcc/src/xpcc/workflow/timestamp.hpp ****  * EXPRESS OR IMPLIED WARRANTIES, INCLUDING, BUT NOT LIMITED TO, THE IMPLIED
  20:/home/jonas/warwick/3dProfilometer/xpcc/src/xpcc/workflow/timestamp.hpp ****  * WARRANTIES OF MERCHANTABILITY AND FITNESS FOR A PARTICULAR PURPOSE ARE
  21:/home/jonas/warwick/3dProfilometer/xpcc/src/xpcc/workflow/timestamp.hpp ****  * DISCLAIMED. IN NO EVENT SHALL ROBOTERCLUB AACHEN E.V. BE LIABLE FOR ANY
  22:/home/jonas/warwick/3dProfilometer/xpcc/src/xpcc/workflow/timestamp.hpp ****  * DIRECT, INDIRECT, INCIDENTAL, SPECIAL, EXEMPLARY, OR CONSEQUENTIAL DAMAGES
  23:/home/jonas/warwick/3dProfilometer/xpcc/src/xpcc/workflow/timestamp.hpp ****  * (INCLUDING, BUT NOT LIMITED TO, PROCUREMENT OF SUBSTITUTE GOODS OR SERVICES;
  24:/home/jonas/warwick/3dProfilometer/xpcc/src/xpcc/workflow/timestamp.hpp ****  * LOSS OF USE, DATA, OR PROFITS; OR BUSINESS INTERRUPTION) HOWEVER CAUSED AND
  25:/home/jonas/warwick/3dProfilometer/xpcc/src/xpcc/workflow/timestamp.hpp ****  * ON ANY THEORY OF LIABILITY, WHETHER IN CONTRACT, STRICT LIABILITY, OR TORT
  26:/home/jonas/warwick/3dProfilometer/xpcc/src/xpcc/workflow/timestamp.hpp ****  * (INCLUDING NEGLIGENCE OR OTHERWISE) ARISING IN ANY WAY OUT OF THE USE OF
  27:/home/jonas/warwick/3dProfilometer/xpcc/src/xpcc/workflow/timestamp.hpp ****  * THIS SOFTWARE, EVEN IF ADVISED OF THE POSSIBILITY OF SUCH DAMAGE.
  28:/home/jonas/warwick/3dProfilometer/xpcc/src/xpcc/workflow/timestamp.hpp ****  */
  29:/home/jonas/warwick/3dProfilometer/xpcc/src/xpcc/workflow/timestamp.hpp **** // ----------------------------------------------------------------------------
  30:/home/jonas/warwick/3dProfilometer/xpcc/src/xpcc/workflow/timestamp.hpp **** 
  31:/home/jonas/warwick/3dProfilometer/xpcc/src/xpcc/workflow/timestamp.hpp **** #ifndef	XPCC__TIMESTAMP_HPP
  32:/home/jonas/warwick/3dProfilometer/xpcc/src/xpcc/workflow/timestamp.hpp **** #define	XPCC__TIMESTAMP_HPP
  33:/home/jonas/warwick/3dProfilometer/xpcc/src/xpcc/workflow/timestamp.hpp **** 
  34:/home/jonas/warwick/3dProfilometer/xpcc/src/xpcc/workflow/timestamp.hpp **** #include <stdint.h>
  35:/home/jonas/warwick/3dProfilometer/xpcc/src/xpcc/workflow/timestamp.hpp **** 
  36:/home/jonas/warwick/3dProfilometer/xpcc/src/xpcc/workflow/timestamp.hpp **** #include <xpcc/io/iostream.hpp>
  37:/home/jonas/warwick/3dProfilometer/xpcc/src/xpcc/workflow/timestamp.hpp **** #include <xpcc/utils/arithmetic_traits.hpp>
  38:/home/jonas/warwick/3dProfilometer/xpcc/src/xpcc/workflow/timestamp.hpp **** 
  39:/home/jonas/warwick/3dProfilometer/xpcc/src/xpcc/workflow/timestamp.hpp **** namespace xpcc
  40:/home/jonas/warwick/3dProfilometer/xpcc/src/xpcc/workflow/timestamp.hpp **** {
  41:/home/jonas/warwick/3dProfilometer/xpcc/src/xpcc/workflow/timestamp.hpp **** 	/**
  42:/home/jonas/warwick/3dProfilometer/xpcc/src/xpcc/workflow/timestamp.hpp **** 	 * \brief	Simple 16-bit timestamp
  43:/home/jonas/warwick/3dProfilometer/xpcc/src/xpcc/workflow/timestamp.hpp **** 	 * 
  44:/home/jonas/warwick/3dProfilometer/xpcc/src/xpcc/workflow/timestamp.hpp **** 	 * The timestamp is calculated in milliseconds.
  45:/home/jonas/warwick/3dProfilometer/xpcc/src/xpcc/workflow/timestamp.hpp **** 	 *
  46:/home/jonas/warwick/3dProfilometer/xpcc/src/xpcc/workflow/timestamp.hpp **** 	 * \author	Fabian Greif
  47:/home/jonas/warwick/3dProfilometer/xpcc/src/xpcc/workflow/timestamp.hpp **** 	 * \ingroup	workflow
  48:/home/jonas/warwick/3dProfilometer/xpcc/src/xpcc/workflow/timestamp.hpp **** 	 */ 
  49:/home/jonas/warwick/3dProfilometer/xpcc/src/xpcc/workflow/timestamp.hpp **** 	class Timestamp
  50:/home/jonas/warwick/3dProfilometer/xpcc/src/xpcc/workflow/timestamp.hpp **** 	{
  51:/home/jonas/warwick/3dProfilometer/xpcc/src/xpcc/workflow/timestamp.hpp **** 	public:
  52:/home/jonas/warwick/3dProfilometer/xpcc/src/xpcc/workflow/timestamp.hpp **** 		typedef uint_fast16_t Type;
  53:/home/jonas/warwick/3dProfilometer/xpcc/src/xpcc/workflow/timestamp.hpp **** 		
  54:/home/jonas/warwick/3dProfilometer/xpcc/src/xpcc/workflow/timestamp.hpp **** 	public:
  55:/home/jonas/warwick/3dProfilometer/xpcc/src/xpcc/workflow/timestamp.hpp **** 		///\param time in ms
  56:/home/jonas/warwick/3dProfilometer/xpcc/src/xpcc/workflow/timestamp.hpp **** 		Timestamp(const uint_fast16_t time = 0) : 
 549              		.loc 6 56 0
 550              		.cfi_startproc
 551              		@ args = 0, pretend = 0, frame = 0
 552              		@ frame_needed = 0, uses_anonymous_args = 0
 553              		@ link register save eliminated.
 554              	.LVL41:
 555              	.LBB21:
  57:/home/jonas/warwick/3dProfilometer/xpcc/src/xpcc/workflow/timestamp.hpp **** 			time(time)
 556              		.loc 6 57 0
 557 0000 0160     		str	r1, [r0, #0]
 558              	.LBE21:
  58:/home/jonas/warwick/3dProfilometer/xpcc/src/xpcc/workflow/timestamp.hpp **** 		{
  59:/home/jonas/warwick/3dProfilometer/xpcc/src/xpcc/workflow/timestamp.hpp **** 		}
 559              		.loc 6 59 0
 560 0002 7047     		bx	lr
 561              		.cfi_endproc
 562              	.LFE814:
 564              		.weak	_ZN4xpcc9TimestampC1Ej
 565              		.thumb_set _ZN4xpcc9TimestampC1Ej,_ZN4xpcc9TimestampC2Ej
 566              		.section	.text._ZNK4xpcc9TimestampplERKS0_,"axG",%progbits,_ZNK4xpcc9TimestampplERKS0_,comdat
 567              		.align	2
 568              		.weak	_ZNK4xpcc9TimestampplERKS0_
 569              		.thumb
 570              		.thumb_func
 572              	_ZNK4xpcc9TimestampplERKS0_:
 573              	.LFB817:
  60:/home/jonas/warwick/3dProfilometer/xpcc/src/xpcc/workflow/timestamp.hpp **** 		
  61:/home/jonas/warwick/3dProfilometer/xpcc/src/xpcc/workflow/timestamp.hpp **** 		inline uint_fast16_t
  62:/home/jonas/warwick/3dProfilometer/xpcc/src/xpcc/workflow/timestamp.hpp **** 		getTime() const
  63:/home/jonas/warwick/3dProfilometer/xpcc/src/xpcc/workflow/timestamp.hpp **** 		{
  64:/home/jonas/warwick/3dProfilometer/xpcc/src/xpcc/workflow/timestamp.hpp **** 			return this->time;
  65:/home/jonas/warwick/3dProfilometer/xpcc/src/xpcc/workflow/timestamp.hpp **** 		}
  66:/home/jonas/warwick/3dProfilometer/xpcc/src/xpcc/workflow/timestamp.hpp **** 
  67:/home/jonas/warwick/3dProfilometer/xpcc/src/xpcc/workflow/timestamp.hpp **** 		inline Timestamp
  68:/home/jonas/warwick/3dProfilometer/xpcc/src/xpcc/workflow/timestamp.hpp **** 		operator + (const Timestamp& other) const
 574              		.loc 6 68 0
 575              		.cfi_startproc
 576              		@ args = 0, pretend = 0, frame = 8
 577              		@ frame_needed = 0, uses_anonymous_args = 0
 578              	.LVL42:
 579 0000 00B5     		push	{lr}
 580              	.LCFI11:
 581              		.cfi_def_cfa_offset 4
 582              		.cfi_offset 14, -4
  69:/home/jonas/warwick/3dProfilometer/xpcc/src/xpcc/workflow/timestamp.hpp **** 		{
  70:/home/jonas/warwick/3dProfilometer/xpcc/src/xpcc/workflow/timestamp.hpp **** 			return Timestamp(time + other.time);
 583              		.loc 6 70 0
 584 0002 0368     		ldr	r3, [r0, #0]
 585 0004 0968     		ldr	r1, [r1, #0]
 586              	.LVL43:
  68:/home/jonas/warwick/3dProfilometer/xpcc/src/xpcc/workflow/timestamp.hpp **** 		operator + (const Timestamp& other) const
 587              		.loc 6 68 0
 588 0006 83B0     		sub	sp, sp, #12
 589              	.LCFI12:
 590              		.cfi_def_cfa_offset 16
 591              		.loc 6 70 0
 592 0008 C918     		adds	r1, r1, r3
 593 000a 01A8     		add	r0, sp, #4
 594              	.LVL44:
 595 000c 024B     		ldr	r3, .L56
 596 000e 9847     		blx	r3
 597              	.LVL45:
  71:/home/jonas/warwick/3dProfilometer/xpcc/src/xpcc/workflow/timestamp.hpp **** 		}
 598              		.loc 6 71 0
 599 0010 0198     		ldr	r0, [sp, #4]
 600 0012 03B0     		add	sp, sp, #12
 601 0014 00BD     		pop	{pc}
 602              	.L57:
 603 0016 00BF     		.align	2
 604              	.L56:
 605 0018 00000000 		.word	_ZN4xpcc9TimestampC1Ej
 606              		.cfi_endproc
 607              	.LFE817:
 609              		.section	.text._ZNK4xpcc9TimestampgeERKS0_,"axG",%progbits,_ZNK4xpcc9TimestampgeERKS0_,comdat
 610              		.align	2
 611              		.weak	_ZNK4xpcc9TimestampgeERKS0_
 612              		.thumb
 613              		.thumb_func
 615              	_ZNK4xpcc9TimestampgeERKS0_:
 616              	.LFB824:
  72:/home/jonas/warwick/3dProfilometer/xpcc/src/xpcc/workflow/timestamp.hpp **** 		
  73:/home/jonas/warwick/3dProfilometer/xpcc/src/xpcc/workflow/timestamp.hpp **** 		inline Timestamp
  74:/home/jonas/warwick/3dProfilometer/xpcc/src/xpcc/workflow/timestamp.hpp **** 		operator - (const Timestamp& other) const
  75:/home/jonas/warwick/3dProfilometer/xpcc/src/xpcc/workflow/timestamp.hpp **** 		{
  76:/home/jonas/warwick/3dProfilometer/xpcc/src/xpcc/workflow/timestamp.hpp **** 			return Timestamp(time - other.time);
  77:/home/jonas/warwick/3dProfilometer/xpcc/src/xpcc/workflow/timestamp.hpp **** 		}
  78:/home/jonas/warwick/3dProfilometer/xpcc/src/xpcc/workflow/timestamp.hpp **** 		
  79:/home/jonas/warwick/3dProfilometer/xpcc/src/xpcc/workflow/timestamp.hpp **** 		inline bool
  80:/home/jonas/warwick/3dProfilometer/xpcc/src/xpcc/workflow/timestamp.hpp **** 		operator == (const Timestamp& other) const
  81:/home/jonas/warwick/3dProfilometer/xpcc/src/xpcc/workflow/timestamp.hpp **** 		{
  82:/home/jonas/warwick/3dProfilometer/xpcc/src/xpcc/workflow/timestamp.hpp **** 			return (time == other.time);
  83:/home/jonas/warwick/3dProfilometer/xpcc/src/xpcc/workflow/timestamp.hpp **** 		}
  84:/home/jonas/warwick/3dProfilometer/xpcc/src/xpcc/workflow/timestamp.hpp **** 		
  85:/home/jonas/warwick/3dProfilometer/xpcc/src/xpcc/workflow/timestamp.hpp **** 		inline bool
  86:/home/jonas/warwick/3dProfilometer/xpcc/src/xpcc/workflow/timestamp.hpp **** 		operator != (const Timestamp& other) const
  87:/home/jonas/warwick/3dProfilometer/xpcc/src/xpcc/workflow/timestamp.hpp **** 		{
  88:/home/jonas/warwick/3dProfilometer/xpcc/src/xpcc/workflow/timestamp.hpp **** 			return (time != other.time);
  89:/home/jonas/warwick/3dProfilometer/xpcc/src/xpcc/workflow/timestamp.hpp **** 		}
  90:/home/jonas/warwick/3dProfilometer/xpcc/src/xpcc/workflow/timestamp.hpp **** 		
  91:/home/jonas/warwick/3dProfilometer/xpcc/src/xpcc/workflow/timestamp.hpp **** 		inline bool
  92:/home/jonas/warwick/3dProfilometer/xpcc/src/xpcc/workflow/timestamp.hpp **** 		operator < (const Timestamp& other) const
  93:/home/jonas/warwick/3dProfilometer/xpcc/src/xpcc/workflow/timestamp.hpp **** 		{
  94:/home/jonas/warwick/3dProfilometer/xpcc/src/xpcc/workflow/timestamp.hpp **** 			return ((int_fast16_t) (time - other.time)) < 0;
  95:/home/jonas/warwick/3dProfilometer/xpcc/src/xpcc/workflow/timestamp.hpp **** 		}
  96:/home/jonas/warwick/3dProfilometer/xpcc/src/xpcc/workflow/timestamp.hpp **** 		
  97:/home/jonas/warwick/3dProfilometer/xpcc/src/xpcc/workflow/timestamp.hpp **** 		inline bool
  98:/home/jonas/warwick/3dProfilometer/xpcc/src/xpcc/workflow/timestamp.hpp **** 		operator > (const Timestamp& other) const
  99:/home/jonas/warwick/3dProfilometer/xpcc/src/xpcc/workflow/timestamp.hpp **** 		{
 100:/home/jonas/warwick/3dProfilometer/xpcc/src/xpcc/workflow/timestamp.hpp **** 			return ((int_fast16_t) (time - other.time)) > 0;
 101:/home/jonas/warwick/3dProfilometer/xpcc/src/xpcc/workflow/timestamp.hpp **** 		}
 102:/home/jonas/warwick/3dProfilometer/xpcc/src/xpcc/workflow/timestamp.hpp **** 		
 103:/home/jonas/warwick/3dProfilometer/xpcc/src/xpcc/workflow/timestamp.hpp **** 		inline bool
 104:/home/jonas/warwick/3dProfilometer/xpcc/src/xpcc/workflow/timestamp.hpp **** 		operator <= (const Timestamp& other) const
 105:/home/jonas/warwick/3dProfilometer/xpcc/src/xpcc/workflow/timestamp.hpp **** 		{
 106:/home/jonas/warwick/3dProfilometer/xpcc/src/xpcc/workflow/timestamp.hpp **** 			return ((int_fast16_t) (time - other.time)) <= 0;
 107:/home/jonas/warwick/3dProfilometer/xpcc/src/xpcc/workflow/timestamp.hpp **** 		}
 108:/home/jonas/warwick/3dProfilometer/xpcc/src/xpcc/workflow/timestamp.hpp **** 		
 109:/home/jonas/warwick/3dProfilometer/xpcc/src/xpcc/workflow/timestamp.hpp **** 		inline bool
 110:/home/jonas/warwick/3dProfilometer/xpcc/src/xpcc/workflow/timestamp.hpp **** 		operator >= (const Timestamp& other) const
 617              		.loc 6 110 0
 618              		.cfi_startproc
 619              		@ args = 0, pretend = 0, frame = 0
 620              		@ frame_needed = 0, uses_anonymous_args = 0
 621              		@ link register save eliminated.
 622              	.LVL46:
 111:/home/jonas/warwick/3dProfilometer/xpcc/src/xpcc/workflow/timestamp.hpp **** 		{
 112:/home/jonas/warwick/3dProfilometer/xpcc/src/xpcc/workflow/timestamp.hpp **** 			return ((int_fast16_t) (time - other.time)) >= 0;
 623              		.loc 6 112 0
 624 0000 0368     		ldr	r3, [r0, #0]
 625 0002 0A68     		ldr	r2, [r1, #0]
 626 0004 981A     		subs	r0, r3, r2
 627              	.LVL47:
 113:/home/jonas/warwick/3dProfilometer/xpcc/src/xpcc/workflow/timestamp.hpp **** 		}
 628              		.loc 6 113 0
 629 0006 C043     		mvns	r0, r0
 630 0008 C00F     		lsrs	r0, r0, #31
 631 000a 7047     		bx	lr
 632              		.cfi_endproc
 633              	.LFE824:
 635              		.section	.text._ZN5Laser12DoubleBuffer9getInSizeEv,"axG",%progbits,_ZN5Laser12DoubleBuffer9getInSi
 636              		.align	2
 637              		.weak	_ZN5Laser12DoubleBuffer9getInSizeEv
 638              		.thumb
 639              		.thumb_func
 641              	_ZN5Laser12DoubleBuffer9getInSizeEv:
 642              	.LFB834:
 643              		.file 7 "laserInterface.h"
   1:laserInterface.h **** /*
   2:laserInterface.h ****  * laserInterface.h
   3:laserInterface.h ****  *
   4:laserInterface.h ****  *  Created on: Dec 30, 2013
   5:laserInterface.h ****  *      Author: jonas
   6:laserInterface.h ****  */
   7:laserInterface.h **** 
   8:laserInterface.h **** #ifndef LASERINTERFACE_H_
   9:laserInterface.h **** #define LASERINTERFACE_H_
  10:laserInterface.h **** 
  11:laserInterface.h **** #include "project.h"
  12:laserInterface.h **** 
  13:laserInterface.h **** class Laser{
  14:laserInterface.h **** public:
  15:laserInterface.h **** 
  16:laserInterface.h **** 	class DoubleBuffer{
  17:laserInterface.h **** 	public:
  18:laserInterface.h **** 		static unsigned char buf1[LASER_INPUT_BUFFER_SIZE+1];
  19:laserInterface.h **** 		static unsigned char buf2[LASER_INPUT_BUFFER_SIZE+1];
  20:laserInterface.h **** 		//swap pointers instead of copying
  21:laserInterface.h **** 		static unsigned char* bufInPtr;
  22:laserInterface.h **** 		static unsigned char* bufOutPtr;
  23:laserInterface.h **** 		static int inSize;
  24:laserInterface.h **** 		static int outSize;
  25:laserInterface.h **** 
  26:laserInterface.h **** 	public:
  27:laserInterface.h **** 
  28:laserInterface.h **** 		static inline int getInSize(){
 644              		.loc 7 28 0
 645              		.cfi_startproc
 646              		@ args = 0, pretend = 0, frame = 0
 647              		@ frame_needed = 0, uses_anonymous_args = 0
 648              		@ link register save eliminated.
  29:laserInterface.h **** 			return inSize;
 649              		.loc 7 29 0
 650 0000 014B     		ldr	r3, .L60
  30:laserInterface.h **** 		}
 651              		.loc 7 30 0
 652 0002 1868     		ldr	r0, [r3, #0]
 653 0004 7047     		bx	lr
 654              	.L61:
 655 0006 00BF     		.align	2
 656              	.L60:
 657 0008 00000000 		.word	.LANCHOR0
 658              		.cfi_endproc
 659              	.LFE834:
 661              		.section	.text._ZN5Laser12DoubleBuffer7addCharEh,"axG",%progbits,_ZN5Laser12DoubleBuffer7addCharEh
 662              		.align	2
 663              		.weak	_ZN5Laser12DoubleBuffer7addCharEh
 664              		.thumb
 665              		.thumb_func
 667              	_ZN5Laser12DoubleBuffer7addCharEh:
 668              	.LFB835:
  31:laserInterface.h **** 
  32:laserInterface.h **** 		static inline void addChar(unsigned char c){
 669              		.loc 7 32 0
 670              		.cfi_startproc
 671              		@ args = 0, pretend = 0, frame = 0
 672              		@ frame_needed = 0, uses_anonymous_args = 0
 673              		@ link register save eliminated.
 674              	.LVL48:
  33:laserInterface.h **** 			bufInPtr[inSize] = c;
 675              		.loc 7 33 0
 676 0000 044B     		ldr	r3, .L63
 677 0002 0549     		ldr	r1, .L63+4
 678 0004 1A68     		ldr	r2, [r3, #0]
 679 0006 0968     		ldr	r1, [r1, #0]
 680 0008 8854     		strb	r0, [r1, r2]
  34:laserInterface.h **** 			inSize++;
 681              		.loc 7 34 0
 682 000a 1A68     		ldr	r2, [r3, #0]
 683 000c 0132     		adds	r2, r2, #1
 684 000e 1A60     		str	r2, [r3, #0]
 685 0010 7047     		bx	lr
 686              	.L64:
 687 0012 00BF     		.align	2
 688              	.L63:
 689 0014 00000000 		.word	.LANCHOR0
 690 0018 00000000 		.word	.LANCHOR1
 691              		.cfi_endproc
 692              	.LFE835:
 694              		.section	.text._ZN5Laser12DoubleBuffer4swapEv,"axG",%progbits,_ZN5Laser12DoubleBuffer4swapEv,comda
 695              		.align	2
 696              		.weak	_ZN5Laser12DoubleBuffer4swapEv
 697              		.thumb
 698              		.thumb_func
 700              	_ZN5Laser12DoubleBuffer4swapEv:
 701              	.LFB838:
  35:laserInterface.h **** 		}
  36:laserInterface.h **** 
  37:laserInterface.h **** 		static inline unsigned char* inPtr(){
  38:laserInterface.h **** 			return bufInPtr;
  39:laserInterface.h **** 		}
  40:laserInterface.h **** 
  41:laserInterface.h **** 		static inline unsigned char* outPtr(){
  42:laserInterface.h **** 			return bufOutPtr;
  43:laserInterface.h **** 		}
  44:laserInterface.h **** 
  45:laserInterface.h **** 		/**
  46:laserInterface.h **** 		 * Returns outPtr as an integer
  47:laserInterface.h **** 		 * @return the current measurement in nm
  48:laserInterface.h **** 		 */
  49:laserInterface.h **** 		static int asInt();
  50:laserInterface.h **** 
  51:laserInterface.h **** 		/**
  52:laserInterface.h **** 		 * Also resets input buffer and adds trailing
  53:laserInterface.h **** 		 * null byte to new output buffer
  54:laserInterface.h **** 		 */
  55:laserInterface.h **** 		static inline void swap(){
 702              		.loc 7 55 0
 703              		.cfi_startproc
 704              		@ args = 0, pretend = 0, frame = 0
 705              		@ frame_needed = 0, uses_anonymous_args = 0
 706              		@ link register save eliminated.
 707              	.LBB22:
  56:laserInterface.h **** 			unsigned char* temp = bufInPtr;
  57:laserInterface.h **** 			bufInPtr = bufOutPtr;
 708              		.loc 7 57 0
 709 0000 0848     		ldr	r0, .L66
  58:laserInterface.h **** 			bufOutPtr = temp;
  59:laserInterface.h **** 			bufOutPtr[inSize] = '\0';
 710              		.loc 7 59 0
 711 0002 094B     		ldr	r3, .L66+4
  56:laserInterface.h **** 			unsigned char* temp = bufInPtr;
 712              		.loc 7 56 0
 713 0004 094A     		ldr	r2, .L66+8
 714              	.LBE22:
  55:laserInterface.h **** 		static inline void swap(){
 715              		.loc 7 55 0
 716 0006 30B4     		push	{r4, r5}
 717              	.LCFI13:
 718              		.cfi_def_cfa_offset 8
 719              		.cfi_offset 4, -8
 720              		.cfi_offset 5, -4
 721              	.LBB23:
  57:laserInterface.h **** 			bufInPtr = bufOutPtr;
 722              		.loc 7 57 0
 723 0008 0568     		ldr	r5, [r0, #0]
  56:laserInterface.h **** 			unsigned char* temp = bufInPtr;
 724              		.loc 7 56 0
 725 000a 1168     		ldr	r1, [r2, #0]
 726              	.LVL49:
 727              		.loc 7 59 0
 728 000c 1C68     		ldr	r4, [r3, #0]
  57:laserInterface.h **** 			bufInPtr = bufOutPtr;
 729              		.loc 7 57 0
 730 000e 1560     		str	r5, [r2, #0]
 731              		.loc 7 59 0
 732 0010 0022     		movs	r2, #0
  58:laserInterface.h **** 			bufOutPtr = temp;
 733              		.loc 7 58 0
 734 0012 0160     		str	r1, [r0, #0]
 735              		.loc 7 59 0
 736 0014 0A55     		strb	r2, [r1, r4]
  60:laserInterface.h **** 			outSize = inSize;
 737              		.loc 7 60 0
 738 0016 1968     		ldr	r1, [r3, #0]
 739              	.LVL50:
  61:laserInterface.h **** 			inSize = 0;
 740              		.loc 7 61 0
 741 0018 1A60     		str	r2, [r3, #0]
  60:laserInterface.h **** 			outSize = inSize;
 742              		.loc 7 60 0
 743 001a 054B     		ldr	r3, .L66+12
 744 001c 1960     		str	r1, [r3, #0]
 745              	.LBE23:
  62:laserInterface.h **** 		}
 746              		.loc 7 62 0
 747 001e 30BC     		pop	{r4, r5}
 748 0020 7047     		bx	lr
 749              	.L67:
 750 0022 00BF     		.align	2
 751              	.L66:
 752 0024 00000000 		.word	.LANCHOR2
 753 0028 00000000 		.word	.LANCHOR0
 754 002c 00000000 		.word	.LANCHOR1
 755 0030 00000000 		.word	.LANCHOR3
 756              		.cfi_endproc
 757              	.LFE838:
 759              		.section	.text._ZN5Laser12DoubleBuffer5resetEv,"axG",%progbits,_ZN5Laser12DoubleBuffer5resetEv,com
 760              		.align	2
 761              		.weak	_ZN5Laser12DoubleBuffer5resetEv
 762              		.thumb
 763              		.thumb_func
 765              	_ZN5Laser12DoubleBuffer5resetEv:
 766              	.LFB839:
  63:laserInterface.h **** 
  64:laserInterface.h **** 		static inline void reset(){
 767              		.loc 7 64 0
 768              		.cfi_startproc
 769              		@ args = 0, pretend = 0, frame = 0
 770              		@ frame_needed = 0, uses_anonymous_args = 0
 771              		@ link register save eliminated.
  65:laserInterface.h **** 			inSize = 0;
 772              		.loc 7 65 0
 773 0000 014B     		ldr	r3, .L69
 774 0002 0022     		movs	r2, #0
 775 0004 1A60     		str	r2, [r3, #0]
 776 0006 7047     		bx	lr
 777              	.L70:
 778              		.align	2
 779              	.L69:
 780 0008 00000000 		.word	.LANCHOR0
 781              		.cfi_endproc
 782              	.LFE839:
 784              		.section	.text._ZN5Laser12DoubleBuffer3getEv,"axG",%progbits,_ZN5Laser12DoubleBuffer3getEv,comdat
 785              		.align	2
 786              		.weak	_ZN5Laser12DoubleBuffer3getEv
 787              		.thumb
 788              		.thumb_func
 790              	_ZN5Laser12DoubleBuffer3getEv:
 791              	.LFB840:
  66:laserInterface.h **** 		}
  67:laserInterface.h **** 
  68:laserInterface.h **** 		static char* get(){
 792              		.loc 7 68 0
 793              		.cfi_startproc
 794              		@ args = 0, pretend = 0, frame = 0
 795              		@ frame_needed = 0, uses_anonymous_args = 0
 796              		@ link register save eliminated.
  69:laserInterface.h **** 			return (char*)bufOutPtr;
 797              		.loc 7 69 0
 798 0000 014B     		ldr	r3, .L72
  70:laserInterface.h **** 		}
 799              		.loc 7 70 0
 800 0002 1868     		ldr	r0, [r3, #0]
 801 0004 7047     		bx	lr
 802              	.L73:
 803 0006 00BF     		.align	2
 804              	.L72:
 805 0008 00000000 		.word	.LANCHOR2
 806              		.cfi_endproc
 807              	.LFE840:
 809              		.section	.text._ZN5Laser4initEv,"ax",%progbits
 810              		.align	2
 811              		.global	_ZN5Laser4initEv
 812              		.thumb
 813              		.thumb_func
 815              	_ZN5Laser4initEv:
 816              	.LFB846:
 817              		.file 8 "laserInterface.cpp"
   1:laserInterface.cpp **** /*
   2:laserInterface.cpp ****  * laserInterface.cpp
   3:laserInterface.cpp ****  *
   4:laserInterface.cpp ****  *  Created on: Dec 30, 2013
   5:laserInterface.cpp ****  *      Author: jonas
   6:laserInterface.cpp ****  *
   7:laserInterface.cpp ****  *  UART DMA source: http://www.mikrocontroller.net/topic/243265
   8:laserInterface.cpp ****  *  UART interrupt source: http://eliaselectronics.com/stm32f4-usart-example-with-interrupt/
   9:laserInterface.cpp ****  */
  10:laserInterface.cpp **** 
  11:laserInterface.cpp **** #pragma GCC push_options
  12:laserInterface.cpp **** #pragma GCC optimize ("O0")
  13:laserInterface.cpp **** 
  14:laserInterface.cpp **** #include <xpcc/architecture.hpp>
  15:laserInterface.cpp **** #include <xpcc/workflow/timeout.hpp>
  16:laserInterface.cpp **** 
  17:laserInterface.cpp **** #include "laserInterface.h"
  18:laserInterface.cpp **** #include "state.h"
  19:laserInterface.cpp **** #include "atof.h"
  20:laserInterface.cpp **** #include "Trigger.h"
  21:laserInterface.cpp **** #include "../ext/stm32f4xx_lib/CMSIS/Device/ST/STM32F4xx/Include/stm32f4xx.h"
  22:laserInterface.cpp **** #include "../ext/stm32f4xx_lib/STM32F4xx_StdPeriph_Driver/inc/stm32f4xx_rcc.h"
  23:laserInterface.cpp **** #include "../ext/stm32f4xx_lib/STM32F4xx_StdPeriph_Driver/inc/stm32f4xx_dma.h"
  24:laserInterface.cpp **** #include "../ext/stm32f4xx_lib/STM32F4xx_StdPeriph_Driver/inc/stm32f4xx_usart.h"
  25:laserInterface.cpp **** #include "../ext/stm32f4xx_lib/STM32F4xx_StdPeriph_Driver/inc/stm32f4xx_gpio.h"
  26:laserInterface.cpp **** #include "../ext/stm32f4xx_lib/STM32F4xx_StdPeriph_Driver/inc/misc.h"
  27:laserInterface.cpp **** 
  28:laserInterface.cpp **** //source for dma: http://www.mikrocontroller.net/topic/251293
  29:laserInterface.cpp **** 
  30:laserInterface.cpp **** //==================================
  31:laserInterface.cpp **** //=== Output ====
  32:laserInterface.cpp **** //==================================
  33:laserInterface.cpp **** static unsigned char normalRequest[] = "M1,1\r";//{ 'M', '0', ',', '1', '\r'};
  34:laserInterface.cpp **** static const int normalRequestLength = 5;
  35:laserInterface.cpp **** static const int normalRequestAnswerLength = 15; //TODO
  36:laserInterface.cpp **** 
  37:laserInterface.cpp **** static unsigned char* bufferOut = normalRequest;
  38:laserInterface.cpp **** static int expectedAnswerLength = normalRequestAnswerLength;
  39:laserInterface.cpp **** static int requestLength = normalRequestLength;
  40:laserInterface.cpp **** 
  41:laserInterface.cpp **** GPIO__INPUT(LASER_STATUS, E, 5);
  42:laserInterface.cpp **** 
  43:laserInterface.cpp **** static int lastError = -1;
  44:laserInterface.cpp **** 
  45:laserInterface.cpp **** //==================================
  46:laserInterface.cpp **** //=== Input ====
  47:laserInterface.cpp **** //==================================
  48:laserInterface.cpp **** 
  49:laserInterface.cpp **** //==================================
  50:laserInterface.cpp **** //=== Double buffer ====
  51:laserInterface.cpp **** //==================================
  52:laserInterface.cpp **** unsigned char Laser::DoubleBuffer::buf1[LASER_INPUT_BUFFER_SIZE+1];
  53:laserInterface.cpp **** unsigned char Laser::DoubleBuffer::buf2[LASER_INPUT_BUFFER_SIZE+1] = {'\0'};
  54:laserInterface.cpp **** unsigned char* Laser::DoubleBuffer::bufInPtr = Laser::DoubleBuffer::buf1;
  55:laserInterface.cpp **** unsigned char* Laser::DoubleBuffer::bufOutPtr = Laser::DoubleBuffer::buf2;
  56:laserInterface.cpp **** int Laser::DoubleBuffer::inSize = 0;
  57:laserInterface.cpp **** int Laser::DoubleBuffer::outSize = 0;
  58:laserInterface.cpp **** 
  59:laserInterface.cpp **** #if USE_LASER_DMA
  60:laserInterface.cpp **** xpcc::stm32::Usart3 uart3(115200);
  61:laserInterface.cpp **** xpcc::IODeviceWrapper<xpcc::stm32::Usart3> uartWrap3(uart3);
  62:laserInterface.cpp **** #else
  63:laserInterface.cpp **** xpcc::stm32::BufferedUsart3 uart3(115200, 4);
  64:laserInterface.cpp **** xpcc::IODeviceWrapper<xpcc::stm32::BufferedUsart3> uartWrap3(uart3);
  65:laserInterface.cpp **** #endif
  66:laserInterface.cpp **** xpcc::IOStream laserOutStream(uartWrap3);
  67:laserInterface.cpp **** 
  68:laserInterface.cpp **** using namespace xpcc::stm32;
  69:laserInterface.cpp **** 
  70:laserInterface.cpp **** //==================================
  71:laserInterface.cpp **** //=== Functions
  72:laserInterface.cpp **** //==================================
  73:laserInterface.cpp **** void USART3_Init(void);
  74:laserInterface.cpp **** void DMAStream3_Channel4_Init();
  75:laserInterface.cpp **** void enable_USART3_Interrupts();
  76:laserInterface.cpp **** 
  77:laserInterface.cpp **** bool Laser::init(){
 818              		.loc 8 77 0
 819              		.cfi_startproc
 820              		@ args = 0, pretend = 0, frame = 0
 821              		@ frame_needed = 0, uses_anonymous_args = 0
 822              	.LVL51:
 823 0000 08B5     		push	{r3, lr}
 824              	.LCFI14:
 825              		.cfi_def_cfa_offset 8
 826              		.cfi_offset 3, -8
 827              		.cfi_offset 14, -4
 828              	.LBB24:
 829              	.LBB25:
  41:laserInterface.cpp **** GPIO__INPUT(LASER_STATUS, E, 5);
 830              		.loc 8 41 0
 831 0002 084B     		ldr	r3, .L75
 832 0004 1A68     		ldr	r2, [r3, #0]
 833 0006 22F44062 		bic	r2, r2, #3072
 834 000a 1A60     		str	r2, [r3, #0]
 835 000c DA68     		ldr	r2, [r3, #12]
 836 000e 22F44062 		bic	r2, r2, #3072
 837 0012 42F48062 		orr	r2, r2, #1024
 838              	.LBE25:
 839              	.LBE24:
  78:laserInterface.cpp **** 	//uart2.configurePins(xpcc::stm32::USART3::Mapping::REMAP_PA2_PA3);
  79:laserInterface.cpp **** 	LASER_STATUS::setInput(xpcc::stm32::PULLUP);
  80:laserInterface.cpp **** #if USE_LASER_DMA
  81:laserInterface.cpp **** 	enable_USART3_Interrupts();
  82:laserInterface.cpp **** 	USART3_Init();
  83:laserInterface.cpp **** 	DMAStream3_Channel4_Init();
  84:laserInterface.cpp **** 	USART_DMACmd(USART3, USART_DMAReq_Tx, ENABLE);
  85:laserInterface.cpp **** #else
  86:laserInterface.cpp **** 	uart3.configurePins(xpcc::stm32::BufferedUsart3::Mapping::REMAP_PC10_PC11);
 840              		.loc 8 86 0
 841 0016 0120     		movs	r0, #1
 842              	.LBB27:
 843              	.LBB26:
  41:laserInterface.cpp **** GPIO__INPUT(LASER_STATUS, E, 5);
 844              		.loc 8 41 0
 845 0018 DA60     		str	r2, [r3, #12]
 846              	.LBE26:
 847              	.LBE27:
 848              		.loc 8 86 0
 849 001a 034B     		ldr	r3, .L75+4
 850 001c 9847     		blx	r3
 851              	.LVL52:
  87:laserInterface.cpp **** #endif
  88:laserInterface.cpp **** 	return true;
  89:laserInterface.cpp **** }
 852              		.loc 8 89 0
 853 001e 0120     		movs	r0, #1
 854 0020 08BD     		pop	{r3, pc}
 855              	.L76:
 856 0022 00BF     		.align	2
 857              	.L75:
 858 0024 00100240 		.word	1073876992
 859 0028 00000000 		.word	_ZN4xpcc5stm3214BufferedUsart313configurePinsENS1_7MappingE
 860              		.cfi_endproc
 861              	.LFE846:
 863              		.section	.text._ZN5Laser12getLastErrorEv,"ax",%progbits
 864              		.align	2
 865              		.global	_ZN5Laser12getLastErrorEv
 866              		.thumb
 867              		.thumb_func
 869              	_ZN5Laser12getLastErrorEv:
 870              	.LFB847:
  90:laserInterface.cpp **** 
  91:laserInterface.cpp **** int Laser::getLastError(){
 871              		.loc 8 91 0
 872              		.cfi_startproc
 873              		@ args = 0, pretend = 0, frame = 0
 874              		@ frame_needed = 0, uses_anonymous_args = 0
 875              		@ link register save eliminated.
  92:laserInterface.cpp **** 	return lastError;
 876              		.loc 8 92 0
 877 0000 014B     		ldr	r3, .L78
  93:laserInterface.cpp **** }
 878              		.loc 8 93 0
 879 0002 1868     		ldr	r0, [r3, #0]
 880 0004 7047     		bx	lr
 881              	.L79:
 882 0006 00BF     		.align	2
 883              	.L78:
 884 0008 00000000 		.word	.LANCHOR4
 885              		.cfi_endproc
 886              	.LFE847:
 888              		.section	.text._ZN5Laser15disableRequestsEv,"ax",%progbits
 889              		.align	2
 890              		.global	_ZN5Laser15disableRequestsEv
 891              		.thumb
 892              		.thumb_func
 894              	_ZN5Laser15disableRequestsEv:
 895              	.LFB849:
  94:laserInterface.cpp **** 
  95:laserInterface.cpp **** void Laser::enableRequests(){
  96:laserInterface.cpp **** #if USE_LASER_DMA
  97:laserInterface.cpp **** 	DMAStream3_Channel4_Init();
  98:laserInterface.cpp **** 	DMA_Cmd(DMA1_Stream3, ENABLE);
  99:laserInterface.cpp **** #else
 100:laserInterface.cpp **** 	sendMeasurementRequest();
 101:laserInterface.cpp **** #endif
 102:laserInterface.cpp **** }
 103:laserInterface.cpp **** 
 104:laserInterface.cpp **** void Laser::disableRequests(){
 896              		.loc 8 104 0
 897              		.cfi_startproc
 898              		@ args = 0, pretend = 0, frame = 0
 899              		@ frame_needed = 0, uses_anonymous_args = 0
 900 0000 08B5     		push	{r3, lr}
 901              	.LCFI15:
 902              		.cfi_def_cfa_offset 8
 903              		.cfi_offset 3, -8
 904              		.cfi_offset 14, -4
 105:laserInterface.cpp **** 	DMA_Cmd(DMA1_Stream3, DISABLE);
 905              		.loc 8 105 0
 906 0002 0248     		ldr	r0, .L81
 907 0004 024B     		ldr	r3, .L81+4
 908 0006 0021     		movs	r1, #0
 909 0008 9847     		blx	r3
 910              	.LVL53:
 911 000a 08BD     		pop	{r3, pc}
 912              	.L82:
 913              		.align	2
 914              	.L81:
 915 000c 58600240 		.word	1073897560
 916 0010 00000000 		.word	DMA_Cmd
 917              		.cfi_endproc
 918              	.LFE849:
 920              		.section	.text._ZN5Laser10sendStringEPKc,"ax",%progbits
 921              		.align	2
 922              		.global	_ZN5Laser10sendStringEPKc
 923              		.thumb
 924              		.thumb_func
 926              	_ZN5Laser10sendStringEPKc:
 927              	.LFB850:
 106:laserInterface.cpp **** }
 107:laserInterface.cpp **** 
 108:laserInterface.cpp **** void Laser::sendString(const char* cmd){
 928              		.loc 8 108 0
 929              		.cfi_startproc
 930              		@ args = 0, pretend = 0, frame = 0
 931              		@ frame_needed = 0, uses_anonymous_args = 0
 932              	.LVL54:
 933 0000 08B5     		push	{r3, lr}
 934              	.LCFI16:
 935              		.cfi_def_cfa_offset 8
 936              		.cfi_offset 3, -8
 937              		.cfi_offset 14, -4
 938              		.loc 8 108 0
 939 0002 0146     		mov	r1, r0
 109:laserInterface.cpp **** 	laserOutStream << cmd << '\r';
 940              		.loc 8 109 0
 941 0004 034B     		ldr	r3, .L84
 942 0006 0448     		ldr	r0, .L84+4
 943              	.LVL55:
 944 0008 9847     		blx	r3
 945              	.LVL56:
 946 000a 0D21     		movs	r1, #13
 947 000c 034B     		ldr	r3, .L84+8
 948 000e 9847     		blx	r3
 949              	.LVL57:
 950 0010 08BD     		pop	{r3, pc}
 951              	.L85:
 952 0012 00BF     		.align	2
 953              	.L84:
 954 0014 00000000 		.word	_ZN4xpcc8IOStreamlsEPKc
 955 0018 00000000 		.word	.LANCHOR5
 956 001c 00000000 		.word	_ZN4xpcc8IOStreamlsERKc.isra.0
 957              		.cfi_endproc
 958              	.LFE850:
 960              		.section	.text._ZN5Laser12DoubleBuffer4goodEv,"ax",%progbits
 961              		.align	2
 962              		.global	_ZN5Laser12DoubleBuffer4goodEv
 963              		.thumb
 964              		.thumb_func
 966              	_ZN5Laser12DoubleBuffer4goodEv:
 967              	.LFB853:
 110:laserInterface.cpp **** }
 111:laserInterface.cpp **** 
 112:laserInterface.cpp **** const char* Laser::exec(const char* cmd){
 113:laserInterface.cpp **** 	disableRequests();
 114:laserInterface.cpp **** 	USART_ITConfig(USART3, USART_IT_RXNE, DISABLE);
 115:laserInterface.cpp **** 	xpcc::delay_ms(500);
 116:laserInterface.cpp **** 	static char response[256];
 117:laserInterface.cpp **** 	char c = 0;
 118:laserInterface.cpp **** 	//clear receive buffer
 119:laserInterface.cpp **** 	for(int i = 0; i < 100; i++){
 120:laserInterface.cpp **** 		uart3.read((uint8_t&)c);
 121:laserInterface.cpp **** 	}
 122:laserInterface.cpp **** 	sendString(cmd);
 123:laserInterface.cpp **** 	int i = 0;
 124:laserInterface.cpp **** 	xpcc::Timeout<> timeout(1000);
 125:laserInterface.cpp **** 	while(true){
 126:laserInterface.cpp **** 		if(uart3.read((uint8_t&)c)){
 127:laserInterface.cpp **** 			response[i] = c;
 128:laserInterface.cpp **** 			i++;
 129:laserInterface.cpp **** 			if(i > 254 || c == '\r'){
 130:laserInterface.cpp **** 				response[i-1] = '\0';
 131:laserInterface.cpp **** 				break;
 132:laserInterface.cpp **** 			}
 133:laserInterface.cpp **** 		}
 134:laserInterface.cpp **** 		if(timeout.isExpired()){
 135:laserInterface.cpp **** 			break;
 136:laserInterface.cpp **** 		}
 137:laserInterface.cpp **** 	}
 138:laserInterface.cpp **** 
 139:laserInterface.cpp **** 	xpcc::delay_ms(500);
 140:laserInterface.cpp **** 	enableRequests();
 141:laserInterface.cpp **** 	enable_USART3_Interrupts();
 142:laserInterface.cpp **** 
 143:laserInterface.cpp **** 	if(c == '\r'){
 144:laserInterface.cpp **** 		return response;
 145:laserInterface.cpp **** 	}
 146:laserInterface.cpp **** 	if(i > 254){
 147:laserInterface.cpp **** 		return "Buffer overrun while executing laser command";
 148:laserInterface.cpp **** 	}
 149:laserInterface.cpp **** 	if(timeout.isExpired()){
 150:laserInterface.cpp **** 		return "Timeout expired while executing laser command";
 151:laserInterface.cpp **** 	}
 152:laserInterface.cpp **** 	cerr << " LaserInterface.cpp: " << __LINE__ << " : this point should not be reached" << endl;
 153:laserInterface.cpp **** 	return "";
 154:laserInterface.cpp **** }
 155:laserInterface.cpp **** 
 156:laserInterface.cpp **** int Laser::DoubleBuffer::asInt(){
 157:laserInterface.cpp **** 	return good() ? atoi2(Laser::DoubleBuffer::get()+3, 0) : 9000;
 158:laserInterface.cpp **** }
 159:laserInterface.cpp **** 
 160:laserInterface.cpp **** int Laser::DoubleBuffer::good(){
 968              		.loc 8 160 0
 969              		.cfi_startproc
 970              		@ args = 0, pretend = 0, frame = 0
 971              		@ frame_needed = 0, uses_anonymous_args = 0
 972              		@ link register save eliminated.
 161:laserInterface.cpp **** 	return lastError == -1 && outSize == expectedAnswerLength;
 973              		.loc 8 161 0
 974 0000 064B     		ldr	r3, .L90
 975 0002 1B68     		ldr	r3, [r3, #0]
 976 0004 0133     		adds	r3, r3, #1
 977 0006 01D0     		beq	.L89
 978 0008 0020     		movs	r0, #0
 162:laserInterface.cpp **** }
 979              		.loc 8 162 0
 980 000a 7047     		bx	lr
 981              	.L89:
 161:laserInterface.cpp **** 	return lastError == -1 && outSize == expectedAnswerLength;
 982              		.loc 8 161 0 discriminator 1
 983 000c 044B     		ldr	r3, .L90+4
 984 000e 1868     		ldr	r0, [r3, #0]
 985 0010 B0F10F03 		subs	r3, r0, #15
 986 0014 5842     		rsbs	r0, r3, #0
 987 0016 5841     		adcs	r0, r0, r3
 988 0018 7047     		bx	lr
 989              	.L91:
 990 001a 00BF     		.align	2
 991              	.L90:
 992 001c 00000000 		.word	.LANCHOR4
 993 0020 00000000 		.word	.LANCHOR3
 994              		.cfi_endproc
 995              	.LFE853:
 997              		.section	.text._ZN5Laser12DoubleBuffer5asIntEv,"ax",%progbits
 998              		.align	2
 999              		.global	_ZN5Laser12DoubleBuffer5asIntEv
 1000              		.thumb
 1001              		.thumb_func
 1003              	_ZN5Laser12DoubleBuffer5asIntEv:
 1004              	.LFB852:
 156:laserInterface.cpp **** int Laser::DoubleBuffer::asInt(){
 1005              		.loc 8 156 0
 1006              		.cfi_startproc
 1007              		@ args = 0, pretend = 0, frame = 0
 1008              		@ frame_needed = 0, uses_anonymous_args = 0
 1009 0000 08B5     		push	{r3, lr}
 1010              	.LCFI17:
 1011              		.cfi_def_cfa_offset 8
 1012              		.cfi_offset 3, -8
 1013              		.cfi_offset 14, -4
 157:laserInterface.cpp **** 	return good() ? atoi2(Laser::DoubleBuffer::get()+3, 0) : 9000;
 1014              		.loc 8 157 0
 1015 0002 064B     		ldr	r3, .L96
 1016 0004 9847     		blx	r3
 1017              	.LVL58:
 1018 0006 10B9     		cbnz	r0, .L95
 1019 0008 42F22830 		movw	r0, #9000
 158:laserInterface.cpp **** }
 1020              		.loc 8 158 0
 1021 000c 08BD     		pop	{r3, pc}
 1022              	.L95:
 157:laserInterface.cpp **** 	return good() ? atoi2(Laser::DoubleBuffer::get()+3, 0) : 9000;
 1023              		.loc 8 157 0 discriminator 1
 1024 000e 044B     		ldr	r3, .L96+4
 1025 0010 9847     		blx	r3
 1026              	.LVL59:
 1027 0012 0021     		movs	r1, #0
 1028 0014 0330     		adds	r0, r0, #3
 1029 0016 034B     		ldr	r3, .L96+8
 1030 0018 9847     		blx	r3
 1031              	.LVL60:
 1032 001a 08BD     		pop	{r3, pc}
 1033              	.L97:
 1034              		.align	2
 1035              	.L96:
 1036 001c 00000000 		.word	_ZN5Laser12DoubleBuffer4goodEv
 1037 0020 00000000 		.word	_ZN5Laser12DoubleBuffer3getEv
 1038 0024 00000000 		.word	_Z5atoi2PKcPS0_
 1039              		.cfi_endproc
 1040              	.LFE852:
 1042              		.section	.text._Z11USART3_Initv,"ax",%progbits
 1043              		.align	2
 1044              		.global	_Z11USART3_Initv
 1045              		.thumb
 1046              		.thumb_func
 1048              	_Z11USART3_Initv:
 1049              	.LFB854:
 163:laserInterface.cpp **** 
 164:laserInterface.cpp **** void USART3_Init(void){
 1050              		.loc 8 164 0
 1051              		.cfi_startproc
 1052              		@ args = 0, pretend = 0, frame = 24
 1053              		@ frame_needed = 0, uses_anonymous_args = 0
 1054 0000 F0B5     		push	{r4, r5, r6, r7, lr}
 1055              	.LCFI18:
 1056              		.cfi_def_cfa_offset 20
 1057              		.cfi_offset 4, -20
 1058              		.cfi_offset 5, -16
 1059              		.cfi_offset 6, -12
 1060              		.cfi_offset 7, -8
 1061              		.cfi_offset 14, -4
 1062              	.LBB28:
 165:laserInterface.cpp ****   GPIO_InitTypeDef GPIOC_10_11_InitStructure;
 166:laserInterface.cpp ****   USART_InitTypeDef USART3_InitStructure;
 167:laserInterface.cpp **** 
 168:laserInterface.cpp ****   //GPIO C 10/11 Init
 169:laserInterface.cpp ****   RCC_AHB1PeriphClockCmd(RCC_AHB1Periph_GPIOC, ENABLE);
 170:laserInterface.cpp **** 
 171:laserInterface.cpp ****   GPIO_PinAFConfig(GPIOC, GPIO_PinSource10, GPIO_AF_USART3);
 1063              		.loc 8 171 0
 1064 0002 1F4D     		ldr	r5, .L99
 169:laserInterface.cpp ****   RCC_AHB1PeriphClockCmd(RCC_AHB1Periph_GPIOC, ENABLE);
 1065              		.loc 8 169 0
 1066 0004 1F4B     		ldr	r3, .L99+4
 1067              		.loc 8 171 0
 1068 0006 204C     		ldr	r4, .L99+8
 172:laserInterface.cpp ****   GPIO_PinAFConfig(GPIOC, GPIO_PinSource11, GPIO_AF_USART3);
 173:laserInterface.cpp **** 
 174:laserInterface.cpp ****   GPIOC_10_11_InitStructure.GPIO_Mode = GPIO_Mode_AF;
 175:laserInterface.cpp ****   GPIOC_10_11_InitStructure.GPIO_OType = GPIO_OType_PP;
 176:laserInterface.cpp ****   GPIOC_10_11_InitStructure.GPIO_Pin = GPIO_Pin_10 | GPIO_Pin_11;
 177:laserInterface.cpp ****   GPIOC_10_11_InitStructure.GPIO_PuPd = GPIO_PuPd_UP;
 178:laserInterface.cpp ****   GPIOC_10_11_InitStructure.GPIO_Speed = GPIO_Speed_50MHz;
 179:laserInterface.cpp **** 
 180:laserInterface.cpp ****   GPIO_Init(GPIOC, &GPIOC_10_11_InitStructure);
 181:laserInterface.cpp **** 
 182:laserInterface.cpp ****   //USART 3 Init
 183:laserInterface.cpp ****   RCC_APB1PeriphClockCmd(RCC_APB1Periph_USART3, ENABLE);
 184:laserInterface.cpp **** 
 185:laserInterface.cpp ****   USART3_InitStructure.USART_BaudRate = 115200;
 186:laserInterface.cpp ****   USART3_InitStructure.USART_WordLength = USART_WordLength_8b;
 187:laserInterface.cpp ****   USART3_InitStructure.USART_StopBits = USART_StopBits_1;
 188:laserInterface.cpp ****   USART3_InitStructure.USART_Parity = USART_Parity_No;
 189:laserInterface.cpp ****   USART3_InitStructure.USART_HardwareFlowControl =
 190:laserInterface.cpp **** USART_HardwareFlowControl_None;
 191:laserInterface.cpp ****   USART3_InitStructure.USART_Mode = USART_Mode_Rx | USART_Mode_Tx;
 192:laserInterface.cpp **** 
 193:laserInterface.cpp ****   USART_Init(USART3, &USART3_InitStructure);
 1069              		.loc 8 193 0
 1070 0008 204F     		ldr	r7, .L99+12
 1071              	.LBE28:
 164:laserInterface.cpp **** void USART3_Init(void){
 1072              		.loc 8 164 0
 1073 000a 87B0     		sub	sp, sp, #28
 1074              	.LCFI19:
 1075              		.cfi_def_cfa_offset 48
 1076              	.LBB29:
 169:laserInterface.cpp ****   RCC_AHB1PeriphClockCmd(RCC_AHB1Periph_GPIOC, ENABLE);
 1077              		.loc 8 169 0
 1078 000c 0420     		movs	r0, #4
 1079 000e 0121     		movs	r1, #1
 1080 0010 9847     		blx	r3
 1081              	.LVL61:
 171:laserInterface.cpp ****   GPIO_PinAFConfig(GPIOC, GPIO_PinSource10, GPIO_AF_USART3);
 1082              		.loc 8 171 0
 1083 0012 0A21     		movs	r1, #10
 1084 0014 0722     		movs	r2, #7
 1085 0016 2846     		mov	r0, r5
 1086 0018 A047     		blx	r4
 1087              	.LVL62:
 172:laserInterface.cpp ****   GPIO_PinAFConfig(GPIOC, GPIO_PinSource11, GPIO_AF_USART3);
 1088              		.loc 8 172 0
 1089 001a 2846     		mov	r0, r5
 1090 001c 0722     		movs	r2, #7
 1091 001e 0B21     		movs	r1, #11
 1092 0020 A047     		blx	r4
 1093              	.LVL63:
 174:laserInterface.cpp ****   GPIOC_10_11_InitStructure.GPIO_Mode = GPIO_Mode_AF;
 1094              		.loc 8 174 0
 1095 0022 0223     		movs	r3, #2
 175:laserInterface.cpp ****   GPIOC_10_11_InitStructure.GPIO_OType = GPIO_OType_PP;
 1096              		.loc 8 175 0
 1097 0024 0024     		movs	r4, #0
 176:laserInterface.cpp ****   GPIOC_10_11_InitStructure.GPIO_Pin = GPIO_Pin_10 | GPIO_Pin_11;
 1098              		.loc 8 176 0
 1099 0026 4FF44062 		mov	r2, #3072
 177:laserInterface.cpp ****   GPIOC_10_11_InitStructure.GPIO_PuPd = GPIO_PuPd_UP;
 1100              		.loc 8 177 0
 1101 002a 0126     		movs	r6, #1
 180:laserInterface.cpp ****   GPIO_Init(GPIOC, &GPIOC_10_11_InitStructure);
 1102              		.loc 8 180 0
 1103 002c 2846     		mov	r0, r5
 1104 002e 6946     		mov	r1, sp
 174:laserInterface.cpp ****   GPIOC_10_11_InitStructure.GPIO_Mode = GPIO_Mode_AF;
 1105              		.loc 8 174 0
 1106 0030 8DF80430 		strb	r3, [sp, #4]
 178:laserInterface.cpp ****   GPIOC_10_11_InitStructure.GPIO_Speed = GPIO_Speed_50MHz;
 1107              		.loc 8 178 0
 1108 0034 8DF80530 		strb	r3, [sp, #5]
 180:laserInterface.cpp ****   GPIO_Init(GPIOC, &GPIOC_10_11_InitStructure);
 1109              		.loc 8 180 0
 1110 0038 154B     		ldr	r3, .L99+16
 176:laserInterface.cpp ****   GPIOC_10_11_InitStructure.GPIO_Pin = GPIO_Pin_10 | GPIO_Pin_11;
 1111              		.loc 8 176 0
 1112 003a 0092     		str	r2, [sp, #0]
 175:laserInterface.cpp ****   GPIOC_10_11_InitStructure.GPIO_OType = GPIO_OType_PP;
 1113              		.loc 8 175 0
 1114 003c 8DF80640 		strb	r4, [sp, #6]
 177:laserInterface.cpp ****   GPIOC_10_11_InitStructure.GPIO_PuPd = GPIO_PuPd_UP;
 1115              		.loc 8 177 0
 1116 0040 8DF80760 		strb	r6, [sp, #7]
 180:laserInterface.cpp ****   GPIO_Init(GPIOC, &GPIOC_10_11_InitStructure);
 1117              		.loc 8 180 0
 1118 0044 9847     		blx	r3
 1119              	.LVL64:
 183:laserInterface.cpp ****   RCC_APB1PeriphClockCmd(RCC_APB1Periph_USART3, ENABLE);
 1120              		.loc 8 183 0
 1121 0046 3146     		mov	r1, r6
 1122 0048 4FF48020 		mov	r0, #262144
 1123 004c 114B     		ldr	r3, .L99+20
 1124 004e 9847     		blx	r3
 1125              	.LVL65:
 185:laserInterface.cpp ****   USART3_InitStructure.USART_BaudRate = 115200;
 1126              		.loc 8 185 0
 1127 0050 4FF4E133 		mov	r3, #115200
 1128 0054 0293     		str	r3, [sp, #8]
 191:laserInterface.cpp ****   USART3_InitStructure.USART_Mode = USART_Mode_Rx | USART_Mode_Tx;
 1129              		.loc 8 191 0
 1130 0056 0C23     		movs	r3, #12
 1131              		.loc 8 193 0
 1132 0058 3846     		mov	r0, r7
 1133 005a 02A9     		add	r1, sp, #8
 191:laserInterface.cpp ****   USART3_InitStructure.USART_Mode = USART_Mode_Rx | USART_Mode_Tx;
 1134              		.loc 8 191 0
 1135 005c ADF81230 		strh	r3, [sp, #18]	@ movhi
 1136              		.loc 8 193 0
 1137 0060 0D4B     		ldr	r3, .L99+24
 186:laserInterface.cpp ****   USART3_InitStructure.USART_WordLength = USART_WordLength_8b;
 1138              		.loc 8 186 0
 1139 0062 ADF80C40 		strh	r4, [sp, #12]	@ movhi
 187:laserInterface.cpp ****   USART3_InitStructure.USART_StopBits = USART_StopBits_1;
 1140              		.loc 8 187 0
 1141 0066 ADF80E40 		strh	r4, [sp, #14]	@ movhi
 188:laserInterface.cpp ****   USART3_InitStructure.USART_Parity = USART_Parity_No;
 1142              		.loc 8 188 0
 1143 006a ADF81040 		strh	r4, [sp, #16]	@ movhi
 190:laserInterface.cpp **** USART_HardwareFlowControl_None;
 1144              		.loc 8 190 0
 1145 006e ADF81440 		strh	r4, [sp, #20]	@ movhi
 1146              		.loc 8 193 0
 1147 0072 9847     		blx	r3
 1148              	.LVL66:
 194:laserInterface.cpp ****   USART_Cmd(USART3, ENABLE);
 1149              		.loc 8 194 0
 1150 0074 3846     		mov	r0, r7
 1151 0076 3146     		mov	r1, r6
 1152 0078 084B     		ldr	r3, .L99+28
 1153 007a 9847     		blx	r3
 1154              	.LVL67:
 1155              	.LBE29:
 195:laserInterface.cpp **** }
 1156              		.loc 8 195 0
 1157 007c 07B0     		add	sp, sp, #28
 1158 007e F0BD     		pop	{r4, r5, r6, r7, pc}
 1159              	.L100:
 1160              		.align	2
 1161              	.L99:
 1162 0080 00080240 		.word	1073874944
 1163 0084 00000000 		.word	RCC_AHB1PeriphClockCmd
 1164 0088 00000000 		.word	GPIO_PinAFConfig
 1165 008c 00480040 		.word	1073760256
 1166 0090 00000000 		.word	GPIO_Init
 1167 0094 00000000 		.word	RCC_APB1PeriphClockCmd
 1168 0098 00000000 		.word	USART_Init
 1169 009c 00000000 		.word	USART_Cmd
 1170              		.cfi_endproc
 1171              	.LFE854:
 1173              		.section	.text._Z24DMAStream3_Channel4_Initv,"ax",%progbits
 1174              		.align	2
 1175              		.global	_Z24DMAStream3_Channel4_Initv
 1176              		.thumb
 1177              		.thumb_func
 1179              	_Z24DMAStream3_Channel4_Initv:
 1180              	.LFB855:
 196:laserInterface.cpp **** 
 197:laserInterface.cpp **** void DMAStream3_Channel4_Init(void){
 1181              		.loc 8 197 0
 1182              		.cfi_startproc
 1183              		@ args = 0, pretend = 0, frame = 64
 1184              		@ frame_needed = 0, uses_anonymous_args = 0
 1185 0000 00B5     		push	{lr}
 1186              	.LCFI20:
 1187              		.cfi_def_cfa_offset 4
 1188              		.cfi_offset 14, -4
 1189              	.LBB30:
 198:laserInterface.cpp ****   RCC_AHB1PeriphClockCmd(RCC_AHB1Periph_DMA1, ENABLE);
 1190              		.loc 8 198 0
 1191 0002 0121     		movs	r1, #1
 1192              	.LBE30:
 197:laserInterface.cpp **** void DMAStream3_Channel4_Init(void){
 1193              		.loc 8 197 0
 1194 0004 91B0     		sub	sp, sp, #68
 1195              	.LCFI21:
 1196              		.cfi_def_cfa_offset 72
 1197              	.LBB31:
 1198              		.loc 8 198 0
 1199 0006 4FF40010 		mov	r0, #2097152
 1200 000a 144B     		ldr	r3, .L102
 1201 000c 9847     		blx	r3
 1202              	.LVL68:
 199:laserInterface.cpp **** 
 200:laserInterface.cpp ****   DMA_InitTypeDef DMA_InitStruct;
 201:laserInterface.cpp ****   DMA_StructInit(&DMA_InitStruct);
 1203              		.loc 8 201 0
 1204 000e 01A8     		add	r0, sp, #4
 1205 0010 134B     		ldr	r3, .L102+4
 1206 0012 9847     		blx	r3
 1207              	.LVL69:
 202:laserInterface.cpp ****   DMA_InitStruct.DMA_Channel = DMA_Channel_4;
 1208              		.loc 8 202 0
 1209 0014 4FF00062 		mov	r2, #134217728
 1210 0018 0192     		str	r2, [sp, #4]
 203:laserInterface.cpp ****   DMA_InitStruct.DMA_PeripheralBaseAddr = (uint32_t)&(USART3->DR);
 204:laserInterface.cpp ****   DMA_InitStruct.DMA_Memory0BaseAddr = (uint32_t)bufferOut;
 1211              		.loc 8 204 0
 1212 001a 124A     		ldr	r2, .L102+8
 203:laserInterface.cpp ****   DMA_InitStruct.DMA_PeripheralBaseAddr = (uint32_t)&(USART3->DR);
 1213              		.loc 8 203 0
 1214 001c 124B     		ldr	r3, .L102+12
 1215              		.loc 8 204 0
 1216 001e 0392     		str	r2, [sp, #12]
 205:laserInterface.cpp ****   DMA_InitStruct.DMA_DIR = DMA_DIR_MemoryToPeripheral;
 1217              		.loc 8 205 0
 1218 0020 4022     		movs	r2, #64
 1219 0022 0492     		str	r2, [sp, #16]
 206:laserInterface.cpp ****   DMA_InitStruct.DMA_BufferSize = requestLength;
 1220              		.loc 8 206 0
 1221 0024 0522     		movs	r2, #5
 1222 0026 0592     		str	r2, [sp, #20]
 207:laserInterface.cpp ****   DMA_InitStruct.DMA_PeripheralInc = DMA_PeripheralInc_Disable;
 208:laserInterface.cpp ****   DMA_InitStruct.DMA_MemoryInc = DMA_MemoryInc_Enable;
 1223              		.loc 8 208 0
 1224 0028 4FF48062 		mov	r2, #1024
 1225 002c 0792     		str	r2, [sp, #28]
 209:laserInterface.cpp ****   DMA_InitStruct.DMA_PeripheralDataSize = DMA_PeripheralDataSize_Byte;
 210:laserInterface.cpp ****   DMA_InitStruct.DMA_MemoryDataSize = DMA_MemoryDataSize_Byte;
 211:laserInterface.cpp ****   DMA_InitStruct.DMA_Mode = DMA_Mode_Circular;
 1226              		.loc 8 211 0
 1227 002e 4FF48072 		mov	r2, #256
 203:laserInterface.cpp ****   DMA_InitStruct.DMA_PeripheralBaseAddr = (uint32_t)&(USART3->DR);
 1228              		.loc 8 203 0
 1229 0032 0293     		str	r3, [sp, #8]
 1230              		.loc 8 211 0
 1231 0034 0A92     		str	r2, [sp, #40]
 207:laserInterface.cpp ****   DMA_InitStruct.DMA_PeripheralInc = DMA_PeripheralInc_Disable;
 1232              		.loc 8 207 0
 1233 0036 0023     		movs	r3, #0
 212:laserInterface.cpp ****   DMA_InitStruct.DMA_Priority = DMA_Priority_Medium;
 1234              		.loc 8 212 0
 1235 0038 4FF48032 		mov	r2, #65536
 207:laserInterface.cpp ****   DMA_InitStruct.DMA_PeripheralInc = DMA_PeripheralInc_Disable;
 1236              		.loc 8 207 0
 1237 003c 0693     		str	r3, [sp, #24]
 209:laserInterface.cpp ****   DMA_InitStruct.DMA_PeripheralDataSize = DMA_PeripheralDataSize_Byte;
 1238              		.loc 8 209 0
 1239 003e 0893     		str	r3, [sp, #32]
 210:laserInterface.cpp ****   DMA_InitStruct.DMA_MemoryDataSize = DMA_MemoryDataSize_Byte;
 1240              		.loc 8 210 0
 1241 0040 0993     		str	r3, [sp, #36]
 1242              		.loc 8 212 0
 1243 0042 0B92     		str	r2, [sp, #44]
 213:laserInterface.cpp ****   DMA_InitStruct.DMA_FIFOMode = DMA_FIFOMode_Disable;
 1244              		.loc 8 213 0
 1245 0044 0C93     		str	r3, [sp, #48]
 214:laserInterface.cpp ****   DMA_InitStruct.DMA_FIFOThreshold = DMA_FIFOThreshold_HalfFull;
 1246              		.loc 8 214 0
 1247 0046 0122     		movs	r2, #1
 215:laserInterface.cpp ****   DMA_InitStruct.DMA_MemoryBurst = DMA_MemoryBurst_Single;
 1248              		.loc 8 215 0
 1249 0048 0E93     		str	r3, [sp, #56]
 216:laserInterface.cpp ****   DMA_InitStruct.DMA_PeripheralBurst = DMA_PeripheralBurst_Single;
 1250              		.loc 8 216 0
 1251 004a 0F93     		str	r3, [sp, #60]
 217:laserInterface.cpp ****   DMA_Init(DMA1_Stream3, &DMA_InitStruct);
 1252              		.loc 8 217 0
 1253 004c 0748     		ldr	r0, .L102+16
 1254 004e 084B     		ldr	r3, .L102+20
 214:laserInterface.cpp ****   DMA_InitStruct.DMA_FIFOThreshold = DMA_FIFOThreshold_HalfFull;
 1255              		.loc 8 214 0
 1256 0050 0D92     		str	r2, [sp, #52]
 1257              		.loc 8 217 0
 1258 0052 01A9     		add	r1, sp, #4
 1259 0054 9847     		blx	r3
 1260              	.LVL70:
 1261              	.LBE31:
 218:laserInterface.cpp **** }
 1262              		.loc 8 218 0
 1263 0056 11B0     		add	sp, sp, #68
 1264 0058 00BD     		pop	{pc}
 1265              	.L103:
 1266 005a 00BF     		.align	2
 1267              	.L102:
 1268 005c 00000000 		.word	RCC_AHB1PeriphClockCmd
 1269 0060 00000000 		.word	DMA_StructInit
 1270 0064 00000000 		.word	.LANCHOR6
 1271 0068 04480040 		.word	1073760260
 1272 006c 58600240 		.word	1073897560
 1273 0070 00000000 		.word	DMA_Init
 1274              		.cfi_endproc
 1275              	.LFE855:
 1277              		.section	.text._Z24enable_USART3_Interruptsv,"ax",%progbits
 1278              		.align	2
 1279              		.global	_Z24enable_USART3_Interruptsv
 1280              		.thumb
 1281              		.thumb_func
 1283              	_Z24enable_USART3_Interruptsv:
 1284              	.LFB856:
 219:laserInterface.cpp **** 
 220:laserInterface.cpp **** void enable_USART3_Interrupts(){
 1285              		.loc 8 220 0
 1286              		.cfi_startproc
 1287              		@ args = 0, pretend = 0, frame = 8
 1288              		@ frame_needed = 0, uses_anonymous_args = 0
 1289 0000 30B5     		push	{r4, r5, lr}
 1290              	.LCFI22:
 1291              		.cfi_def_cfa_offset 12
 1292              		.cfi_offset 4, -12
 1293              		.cfi_offset 5, -8
 1294              		.cfi_offset 14, -4
 1295              	.LBB32:
 221:laserInterface.cpp **** 
 222:laserInterface.cpp **** 	/* Here the USART3 receive interrupt is enabled
 223:laserInterface.cpp **** 	 * and the interrupt controller is configured
 224:laserInterface.cpp **** 	 * to jump to the USART3_IRQHandler() function
 225:laserInterface.cpp **** 	 * if the USART3 receive interrupt occurs
 226:laserInterface.cpp **** 	 */
 227:laserInterface.cpp **** 	USART_ITConfig(USART3, USART_IT_RXNE, ENABLE); // enable the USART3 receive interrupt
 1296              		.loc 8 227 0
 1297 0002 0E4C     		ldr	r4, .L105
 1298 0004 0E4B     		ldr	r3, .L105+4
 1299              	.LBE32:
 220:laserInterface.cpp **** void enable_USART3_Interrupts(){
 1300              		.loc 8 220 0
 1301 0006 83B0     		sub	sp, sp, #12
 1302              	.LCFI23:
 1303              		.cfi_def_cfa_offset 24
 1304              	.LBB33:
 1305              		.loc 8 227 0
 1306 0008 2046     		mov	r0, r4
 1307 000a 40F22551 		movw	r1, #1317
 1308 000e 0122     		movs	r2, #1
 1309 0010 9847     		blx	r3
 1310              	.LVL71:
 228:laserInterface.cpp **** 
 229:laserInterface.cpp **** 	NVIC_InitTypeDef NVIC_InitStructure; // this is used to configure the NVIC (nested vector interrup
 230:laserInterface.cpp **** 	NVIC_InitStructure.NVIC_IRQChannel = USART3_IRQn;		 // we want to configure the USART3 interrupts
 231:laserInterface.cpp **** 	NVIC_InitStructure.NVIC_IRQChannelPreemptionPriority = 0;// this sets the priority group of the US
 1311              		.loc 8 231 0
 1312 0012 0023     		movs	r3, #0
 232:laserInterface.cpp **** 	NVIC_InitStructure.NVIC_IRQChannelSubPriority = 0;		 // this sets the subpriority inside the group
 233:laserInterface.cpp **** 	NVIC_InitStructure.NVIC_IRQChannelCmd = ENABLE;			 // the USART3 interrupts are globally enabled
 1313              		.loc 8 233 0
 1314 0014 0125     		movs	r5, #1
 234:laserInterface.cpp **** 	NVIC_Init(&NVIC_InitStructure);							 // the properties are passed to the NVIC_Init function whic
 1315              		.loc 8 234 0
 1316 0016 01A8     		add	r0, sp, #4
 230:laserInterface.cpp **** 	NVIC_InitStructure.NVIC_IRQChannel = USART3_IRQn;		 // we want to configure the USART3 interrupts
 1317              		.loc 8 230 0
 1318 0018 2722     		movs	r2, #39
 231:laserInterface.cpp **** 	NVIC_InitStructure.NVIC_IRQChannelPreemptionPriority = 0;// this sets the priority group of the US
 1319              		.loc 8 231 0
 1320 001a 8DF80530 		strb	r3, [sp, #5]
 232:laserInterface.cpp **** 	NVIC_InitStructure.NVIC_IRQChannelSubPriority = 0;		 // this sets the subpriority inside the group
 1321              		.loc 8 232 0
 1322 001e 8DF80630 		strb	r3, [sp, #6]
 1323              		.loc 8 234 0
 1324 0022 084B     		ldr	r3, .L105+8
 230:laserInterface.cpp **** 	NVIC_InitStructure.NVIC_IRQChannel = USART3_IRQn;		 // we want to configure the USART3 interrupts
 1325              		.loc 8 230 0
 1326 0024 8DF80420 		strb	r2, [sp, #4]
 233:laserInterface.cpp **** 	NVIC_InitStructure.NVIC_IRQChannelCmd = ENABLE;			 // the USART3 interrupts are globally enabled
 1327              		.loc 8 233 0
 1328 0028 8DF80750 		strb	r5, [sp, #7]
 1329              		.loc 8 234 0
 1330 002c 9847     		blx	r3
 1331              	.LVL72:
 235:laserInterface.cpp **** 
 236:laserInterface.cpp **** 	// finally this enables the complete USART3 peripheral
 237:laserInterface.cpp **** 	USART_Cmd(USART3, ENABLE);
 1332              		.loc 8 237 0
 1333 002e 2046     		mov	r0, r4
 1334 0030 2946     		mov	r1, r5
 1335 0032 054B     		ldr	r3, .L105+12
 1336 0034 9847     		blx	r3
 1337              	.LVL73:
 1338              	.LBE33:
 238:laserInterface.cpp **** }
 1339              		.loc 8 238 0
 1340 0036 03B0     		add	sp, sp, #12
 1341 0038 30BD     		pop	{r4, r5, pc}
 1342              	.L106:
 1343 003a 00BF     		.align	2
 1344              	.L105:
 1345 003c 00480040 		.word	1073760256
 1346 0040 00000000 		.word	USART_ITConfig
 1347 0044 00000000 		.word	NVIC_Init
 1348 0048 00000000 		.word	USART_Cmd
 1349              		.cfi_endproc
 1350              	.LFE856:
 1352              		.section	.text._ZN5Laser22sendMeasurementRequestEv,"ax",%progbits
 1353              		.align	2
 1354              		.global	_ZN5Laser22sendMeasurementRequestEv
 1355              		.thumb
 1356              		.thumb_func
 1358              	_ZN5Laser22sendMeasurementRequestEv:
 1359              	.LFB858:
 239:laserInterface.cpp **** 
 240:laserInterface.cpp **** #pragma GCC pop_options
 241:laserInterface.cpp **** 
 242:laserInterface.cpp **** #if USE_LASER_DMA
 243:laserInterface.cpp **** 
 244:laserInterface.cpp **** // this is the interrupt request handler (IRQ) for ALL USART3 interrupts
 245:laserInterface.cpp **** extern "C" void
 246:laserInterface.cpp **** USART3_IRQHandler(void){
 247:laserInterface.cpp **** 
 248:laserInterface.cpp **** 	// check if the USART3 receive interrupt flag was set
 249:laserInterface.cpp **** 	if( USART_GetITStatus(USART3, USART_IT_RXNE) ){
 250:laserInterface.cpp **** 
 251:laserInterface.cpp **** 		char c = USART3->DR;
 252:laserInterface.cpp **** 
 253:laserInterface.cpp **** 		Laser::handleChar(c);
 254:laserInterface.cpp **** 
 255:laserInterface.cpp **** 		//USART_ClearITPendingBit(USART3, USART_IT_RXNE); not needed
 256:laserInterface.cpp **** 	}
 257:laserInterface.cpp **** }
 258:laserInterface.cpp **** 
 259:laserInterface.cpp **** #endif
 260:laserInterface.cpp **** 
 261:laserInterface.cpp **** void Laser::handleChar(char c){
 262:laserInterface.cpp **** 	Laser::DoubleBuffer::addChar(c);
 263:laserInterface.cpp **** 
 264:laserInterface.cpp **** 	if(c == '\r'){
 265:laserInterface.cpp **** 
 266:laserInterface.cpp **** #if !USE_LASER_DMA
 267:laserInterface.cpp **** 		Laser::sendMeasurementRequest();
 268:laserInterface.cpp **** #endif
 269:laserInterface.cpp **** 
 270:laserInterface.cpp **** 		//do some sanity checks
 271:laserInterface.cpp **** 		//active low -> high means invalid measurement
 272:laserInterface.cpp **** 		bool nok = LASER_STATUS::read();
 273:laserInterface.cpp **** 		State::setOrange(nok);
 274:laserInterface.cpp **** 		if(nok){
 275:laserInterface.cpp **** 			Laser::DoubleBuffer::reset();
 276:laserInterface.cpp **** 			lastError = 3000;
 277:laserInterface.cpp **** 			return;
 278:laserInterface.cpp **** 		}
 279:laserInterface.cpp **** 
 280:laserInterface.cpp **** 		if(Laser::DoubleBuffer::get()[0] == 'E'
 281:laserInterface.cpp **** 				&& Laser::DoubleBuffer::get()[1] == 'R'){
 282:laserInterface.cpp **** 			lastError = atoi2(Laser::DoubleBuffer::get()+6, 2, -1);
 283:laserInterface.cpp **** 			Laser::DoubleBuffer::reset();
 284:laserInterface.cpp **** 		}else{
 285:laserInterface.cpp **** 			lastError = -1; //no error
 286:laserInterface.cpp **** 			if(Laser::DoubleBuffer::getInSize() == normalRequestAnswerLength){
 287:laserInterface.cpp **** 				Laser::DoubleBuffer::swap();
 288:laserInterface.cpp **** 				//Trigger::forceTrigger();
 289:laserInterface.cpp **** 			}else{
 290:laserInterface.cpp **** 				Laser::DoubleBuffer::reset();
 291:laserInterface.cpp **** 				lastError = 2000+Laser::DoubleBuffer::getInSize();
 292:laserInterface.cpp **** 			}
 293:laserInterface.cpp **** 		}
 294:laserInterface.cpp **** 	}
 295:laserInterface.cpp **** 
 296:laserInterface.cpp **** 	if(Laser::DoubleBuffer::getInSize() >= LASER_INPUT_BUFFER_SIZE){
 297:laserInterface.cpp **** 		Laser::DoubleBuffer::reset(); //reset everything
 298:laserInterface.cpp **** 	}
 299:laserInterface.cpp **** }
 300:laserInterface.cpp **** 
 301:laserInterface.cpp **** void Laser::sendMeasurementRequest(){
 1360              		.loc 8 301 0
 1361              		.cfi_startproc
 1362              		@ args = 0, pretend = 0, frame = 0
 1363              		@ frame_needed = 0, uses_anonymous_args = 0
 1364 0000 08B5     		push	{r3, lr}
 1365              	.LCFI24:
 1366              		.cfi_def_cfa_offset 8
 1367              		.cfi_offset 3, -8
 1368              		.cfi_offset 14, -4
 302:laserInterface.cpp **** 	uart3.write(bufferOut, requestLength);
 1369              		.loc 8 302 0
 1370 0002 0248     		ldr	r0, .L108
 1371 0004 024B     		ldr	r3, .L108+4
 1372 0006 0521     		movs	r1, #5
 1373 0008 9847     		blx	r3
 1374              	.LVL74:
 1375 000a 08BD     		pop	{r3, pc}
 1376              	.L109:
 1377              		.align	2
 1378              	.L108:
 1379 000c 00000000 		.word	.LANCHOR6
 1380 0010 00000000 		.word	_ZN4xpcc5stm3214BufferedUsart35writeEPKhh
 1381              		.cfi_endproc
 1382              	.LFE858:
 1384              		.section	.text._ZN5Laser10handleCharEc,"ax",%progbits
 1385              		.align	2
 1386              		.global	_ZN5Laser10handleCharEc
 1387              		.thumb
 1388              		.thumb_func
 1390              	_ZN5Laser10handleCharEc:
 1391              	.LFB857:
 261:laserInterface.cpp **** void Laser::handleChar(char c){
 1392              		.loc 8 261 0
 1393              		.cfi_startproc
 1394              		@ args = 0, pretend = 0, frame = 0
 1395              		@ frame_needed = 0, uses_anonymous_args = 0
 1396              	.LVL75:
 1397 0000 38B5     		push	{r3, r4, r5, lr}
 1398              	.LCFI25:
 1399              		.cfi_def_cfa_offset 16
 1400              		.cfi_offset 3, -16
 1401              		.cfi_offset 4, -12
 1402              		.cfi_offset 5, -8
 1403              		.cfi_offset 14, -4
 261:laserInterface.cpp **** void Laser::handleChar(char c){
 1404              		.loc 8 261 0
 1405 0002 0446     		mov	r4, r0
 1406              	.LBB34:
 262:laserInterface.cpp **** 	Laser::DoubleBuffer::addChar(c);
 1407              		.loc 8 262 0
 1408 0004 214B     		ldr	r3, .L125
 1409 0006 9847     		blx	r3
 1410              	.LVL76:
 1411              	.LBB35:
 264:laserInterface.cpp **** 	if(c == '\r'){
 1412              		.loc 8 264 0
 1413 0008 0D2C     		cmp	r4, #13
 1414 000a 07D0     		beq	.L119
 1415 000c 204C     		ldr	r4, .L125+4
 1416              	.L111:
 1417              	.LBE35:
 296:laserInterface.cpp **** 	if(Laser::DoubleBuffer::getInSize() >= LASER_INPUT_BUFFER_SIZE){
 1418              		.loc 8 296 0
 1419 000e A047     		blx	r4
 1420              	.LVL77:
 1421 0010 3128     		cmp	r0, #49
 1422 0012 00DC     		bgt	.L121
 1423 0014 38BD     		pop	{r3, r4, r5, pc}
 1424              	.L121:
 297:laserInterface.cpp **** 		Laser::DoubleBuffer::reset(); //reset everything
 1425              		.loc 8 297 0
 1426 0016 1F4B     		ldr	r3, .L125+8
 1427 0018 9847     		blx	r3
 1428              	.LVL78:
 1429 001a 38BD     		pop	{r3, r4, r5, pc}
 1430              	.L119:
 1431              	.LBB41:
 1432              	.LBB36:
 267:laserInterface.cpp **** 		Laser::sendMeasurementRequest();
 1433              		.loc 8 267 0
 1434 001c 1E4B     		ldr	r3, .L125+12
 1435 001e 9847     		blx	r3
 1436              	.LVL79:
 1437              	.LBB37:
 1438              	.LBB38:
  41:laserInterface.cpp **** GPIO__INPUT(LASER_STATUS, E, 5);
 1439              		.loc 8 41 0
 1440 0020 1E4B     		ldr	r3, .L125+16
 1441 0022 1C69     		ldr	r4, [r3, #16]
 1442              	.LBE38:
 1443              	.LBE37:
 273:laserInterface.cpp **** 		State::setOrange(nok);
 1444              		.loc 8 273 0
 1445 0024 1E4B     		ldr	r3, .L125+20
 1446              	.LBB40:
 1447              	.LBB39:
  41:laserInterface.cpp **** GPIO__INPUT(LASER_STATUS, E, 5);
 1448              		.loc 8 41 0
 1449 0026 C4F34014 		ubfx	r4, r4, #5, #1
 1450              	.LBE39:
 1451              	.LBE40:
 273:laserInterface.cpp **** 		State::setOrange(nok);
 1452              		.loc 8 273 0
 1453 002a 2046     		mov	r0, r4
 1454 002c 9847     		blx	r3
 1455              	.LVL80:
 274:laserInterface.cpp **** 		if(nok){
 1456              		.loc 8 274 0
 1457 002e 14BB     		cbnz	r4, .L122
 280:laserInterface.cpp **** 		if(Laser::DoubleBuffer::get()[0] == 'E'
 1458              		.loc 8 280 0
 1459 0030 1C4B     		ldr	r3, .L125+24
 1460 0032 9847     		blx	r3
 1461              	.LVL81:
 1462 0034 0378     		ldrb	r3, [r0, #0]	@ zero_extendqisi2
 1463 0036 452B     		cmp	r3, #69
 1464 0038 0ED0     		beq	.L123
 1465              	.L114:
 285:laserInterface.cpp **** 			lastError = -1; //no error
 1466              		.loc 8 285 0
 1467 003a 1B4D     		ldr	r5, .L125+28
 286:laserInterface.cpp **** 			if(Laser::DoubleBuffer::getInSize() == normalRequestAnswerLength){
 1468              		.loc 8 286 0
 1469 003c 144C     		ldr	r4, .L125+4
 285:laserInterface.cpp **** 			lastError = -1; //no error
 1470              		.loc 8 285 0
 1471 003e 4FF0FF33 		mov	r3, #-1
 1472 0042 2B60     		str	r3, [r5, #0]
 286:laserInterface.cpp **** 			if(Laser::DoubleBuffer::getInSize() == normalRequestAnswerLength){
 1473              		.loc 8 286 0
 1474 0044 A047     		blx	r4
 1475              	.LVL82:
 1476 0046 0F28     		cmp	r0, #15
 1477 0048 1CD0     		beq	.L124
 290:laserInterface.cpp **** 				Laser::DoubleBuffer::reset();
 1478              		.loc 8 290 0
 1479 004a 124B     		ldr	r3, .L125+8
 1480 004c 9847     		blx	r3
 1481              	.LVL83:
 291:laserInterface.cpp **** 				lastError = 2000+Laser::DoubleBuffer::getInSize();
 1482              		.loc 8 291 0
 1483 004e A047     		blx	r4
 1484              	.LVL84:
 1485 0050 00F5FA60 		add	r0, r0, #2000
 1486 0054 2860     		str	r0, [r5, #0]
 1487 0056 DAE7     		b	.L111
 1488              	.L123:
 280:laserInterface.cpp **** 		if(Laser::DoubleBuffer::get()[0] == 'E'
 1489              		.loc 8 280 0 discriminator 1
 1490 0058 4378     		ldrb	r3, [r0, #1]	@ zero_extendqisi2
 1491 005a 522B     		cmp	r3, #82
 1492 005c EDD1     		bne	.L114
 282:laserInterface.cpp **** 			lastError = atoi2(Laser::DoubleBuffer::get()+6, 2, -1);
 1493              		.loc 8 282 0
 1494 005e 0221     		movs	r1, #2
 1495 0060 4FF0FF32 		mov	r2, #-1
 1496 0064 0630     		adds	r0, r0, #6
 1497 0066 114B     		ldr	r3, .L125+32
 1498 0068 094C     		ldr	r4, .L125+4
 1499 006a 9847     		blx	r3
 1500              	.LVL85:
 1501 006c 0E4B     		ldr	r3, .L125+28
 1502 006e 1860     		str	r0, [r3, #0]
 283:laserInterface.cpp **** 			Laser::DoubleBuffer::reset();
 1503              		.loc 8 283 0
 1504 0070 084B     		ldr	r3, .L125+8
 1505 0072 9847     		blx	r3
 1506              	.LVL86:
 1507 0074 CBE7     		b	.L111
 1508              	.L122:
 275:laserInterface.cpp **** 			Laser::DoubleBuffer::reset();
 1509              		.loc 8 275 0
 1510 0076 074B     		ldr	r3, .L125+8
 1511 0078 9847     		blx	r3
 1512              	.LVL87:
 276:laserInterface.cpp **** 			lastError = 3000;
 1513              		.loc 8 276 0
 1514 007a 0B4B     		ldr	r3, .L125+28
 1515 007c 40F6B832 		movw	r2, #3000
 1516 0080 1A60     		str	r2, [r3, #0]
 277:laserInterface.cpp **** 			return;
 1517              		.loc 8 277 0
 1518 0082 38BD     		pop	{r3, r4, r5, pc}
 1519              	.L124:
 287:laserInterface.cpp **** 				Laser::DoubleBuffer::swap();
 1520              		.loc 8 287 0
 1521 0084 0A4B     		ldr	r3, .L125+36
 1522 0086 9847     		blx	r3
 1523              	.LVL88:
 1524 0088 C1E7     		b	.L111
 1525              	.L126:
 1526 008a 00BF     		.align	2
 1527              	.L125:
 1528 008c 00000000 		.word	_ZN5Laser12DoubleBuffer7addCharEh
 1529 0090 00000000 		.word	_ZN5Laser12DoubleBuffer9getInSizeEv
 1530 0094 00000000 		.word	_ZN5Laser12DoubleBuffer5resetEv
 1531 0098 00000000 		.word	_ZN5Laser22sendMeasurementRequestEv
 1532 009c 00100240 		.word	1073876992
 1533 00a0 00000000 		.word	_ZN5State9setOrangeEb
 1534 00a4 00000000 		.word	_ZN5Laser12DoubleBuffer3getEv
 1535 00a8 00000000 		.word	.LANCHOR4
 1536 00ac 00000000 		.word	_Z5atoi2PKcii
 1537 00b0 00000000 		.word	_ZN5Laser12DoubleBuffer4swapEv
 1538              	.LBE36:
 1539              	.LBE41:
 1540              	.LBE34:
 1541              		.cfi_endproc
 1542              	.LFE857:
 1544              		.section	.text._ZN5Laser14enableRequestsEv,"ax",%progbits
 1545              		.align	2
 1546              		.global	_ZN5Laser14enableRequestsEv
 1547              		.thumb
 1548              		.thumb_func
 1550              	_ZN5Laser14enableRequestsEv:
 1551              	.LFB848:
  95:laserInterface.cpp **** void Laser::enableRequests(){
 1552              		.loc 8 95 0
 1553              		.cfi_startproc
 1554              		@ args = 0, pretend = 0, frame = 0
 1555              		@ frame_needed = 0, uses_anonymous_args = 0
 1556 0000 08B5     		push	{r3, lr}
 1557              	.LCFI26:
 1558              		.cfi_def_cfa_offset 8
 1559              		.cfi_offset 3, -8
 1560              		.cfi_offset 14, -4
 100:laserInterface.cpp **** 	sendMeasurementRequest();
 1561              		.loc 8 100 0
 1562 0002 014B     		ldr	r3, .L128
 1563 0004 9847     		blx	r3
 1564              	.LVL89:
 1565 0006 08BD     		pop	{r3, pc}
 1566              	.L129:
 1567              		.align	2
 1568              	.L128:
 1569 0008 00000000 		.word	_ZN5Laser22sendMeasurementRequestEv
 1570              		.cfi_endproc
 1571              	.LFE848:
 1573              		.section	.text._ZN4xpcc15IODeviceWrapperINS_5stm3214BufferedUsart3EEC2ERKS2_,"axG",%progbits,_ZN4x
 1574              		.align	2
 1575              		.weak	_ZN4xpcc15IODeviceWrapperINS_5stm3214BufferedUsart3EEC2ERKS2_
 1576              		.thumb
 1577              		.thumb_func
 1579              	_ZN4xpcc15IODeviceWrapperINS_5stm3214BufferedUsart3EEC2ERKS2_:
 1580              	.LFB887:
  73:/home/jonas/warwick/3dProfilometer/xpcc/src/xpcc/io/iodevice_wrapper.hpp **** 		IODeviceWrapper(const T& device)
 1581              		.loc 1 73 0
 1582              		.cfi_startproc
 1583              		@ args = 0, pretend = 0, frame = 0
 1584              		@ frame_needed = 0, uses_anonymous_args = 0
 1585              	.LVL90:
 1586 0000 10B5     		push	{r4, lr}
 1587              	.LCFI27:
 1588              		.cfi_def_cfa_offset 8
 1589              		.cfi_offset 4, -8
 1590              		.cfi_offset 14, -4
 1591              	.LBB42:
  74:/home/jonas/warwick/3dProfilometer/xpcc/src/xpcc/io/iodevice_wrapper.hpp **** 		{
 1592              		.loc 1 74 0
 1593 0002 034B     		ldr	r3, .L131
 1594              	.LBE42:
  73:/home/jonas/warwick/3dProfilometer/xpcc/src/xpcc/io/iodevice_wrapper.hpp **** 		IODeviceWrapper(const T& device)
 1595              		.loc 1 73 0
 1596 0004 0446     		mov	r4, r0
 1597              	.LBB43:
  74:/home/jonas/warwick/3dProfilometer/xpcc/src/xpcc/io/iodevice_wrapper.hpp **** 		{
 1598              		.loc 1 74 0
 1599 0006 9847     		blx	r3
 1600              	.LVL91:
 1601 0008 024B     		ldr	r3, .L131+4
 1602              	.LBE43:
  77:/home/jonas/warwick/3dProfilometer/xpcc/src/xpcc/io/iodevice_wrapper.hpp **** 		}
 1603              		.loc 1 77 0
 1604 000a 2046     		mov	r0, r4
 1605              	.LBB44:
  74:/home/jonas/warwick/3dProfilometer/xpcc/src/xpcc/io/iodevice_wrapper.hpp **** 		{
 1606              		.loc 1 74 0
 1607 000c 2360     		str	r3, [r4, #0]
 1608              	.LBE44:
  77:/home/jonas/warwick/3dProfilometer/xpcc/src/xpcc/io/iodevice_wrapper.hpp **** 		}
 1609              		.loc 1 77 0
 1610 000e 10BD     		pop	{r4, pc}
 1611              	.L132:
 1612              		.align	2
 1613              	.L131:
 1614 0010 00000000 		.word	_ZN4xpcc8IODeviceC2Ev
 1615 0014 08000000 		.word	_ZTVN4xpcc15IODeviceWrapperINS_5stm3214BufferedUsart3EEE+8
 1616              		.cfi_endproc
 1617              	.LFE887:
 1619              		.weak	_ZN4xpcc15IODeviceWrapperINS_5stm3214BufferedUsart3EEC1ERKS2_
 1620              		.thumb_set _ZN4xpcc15IODeviceWrapperINS_5stm3214BufferedUsart3EEC1ERKS2_,_ZN4xpcc15IODeviceWrapper
 1621              		.section	.text._Z41__static_initialization_and_destruction_0ii.constprop.1,"ax",%progbits
 1622              		.align	2
 1623              		.thumb
 1624              		.thumb_func
 1626              	_Z41__static_initialization_and_destruction_0ii.constprop.1:
 1627              	.LFB905:
 303:laserInterface.cpp **** }
 1628              		.loc 8 303 0
 1629              		.cfi_startproc
 1630              		@ args = 0, pretend = 0, frame = 0
 1631              		@ frame_needed = 0, uses_anonymous_args = 0
 1632              	.LVL92:
 1633 0000 70B5     		push	{r4, r5, r6, lr}
 1634              	.LCFI28:
 1635              		.cfi_def_cfa_offset 16
 1636              		.cfi_offset 4, -16
 1637              		.cfi_offset 5, -12
 1638              		.cfi_offset 6, -8
 1639              		.cfi_offset 14, -4
  63:laserInterface.cpp **** xpcc::stm32::BufferedUsart3 uart3(115200, 4);
 1640              		.loc 8 63 0
 1641 0002 0B4D     		ldr	r5, .L134
  64:laserInterface.cpp **** xpcc::IODeviceWrapper<xpcc::stm32::BufferedUsart3> uartWrap3(uart3);
 1642              		.loc 8 64 0
 1643 0004 0B4C     		ldr	r4, .L134+4
  63:laserInterface.cpp **** xpcc::stm32::BufferedUsart3 uart3(115200, 4);
 1644              		.loc 8 63 0
 1645 0006 0C4E     		ldr	r6, .L134+8
 1646 0008 0422     		movs	r2, #4
 1647 000a 0123     		movs	r3, #1
 1648 000c 4FF4E131 		mov	r1, #115200
 1649 0010 2846     		mov	r0, r5
 1650 0012 B047     		blx	r6
 1651              	.LVL93:
  64:laserInterface.cpp **** xpcc::IODeviceWrapper<xpcc::stm32::BufferedUsart3> uartWrap3(uart3);
 1652              		.loc 8 64 0
 1653 0014 2946     		mov	r1, r5
 1654 0016 2046     		mov	r0, r4
 1655 0018 084B     		ldr	r3, .L134+12
 1656 001a 9847     		blx	r3
 1657              	.LVL94:
 1658 001c 2046     		mov	r0, r4
 1659 001e 0849     		ldr	r1, .L134+16
 1660 0020 084A     		ldr	r2, .L134+20
 1661 0022 094B     		ldr	r3, .L134+24
 1662 0024 9847     		blx	r3
 1663              	.LVL95:
  66:laserInterface.cpp **** xpcc::IOStream laserOutStream(uartWrap3);
 1664              		.loc 8 66 0
 1665 0026 2146     		mov	r1, r4
 1666 0028 084B     		ldr	r3, .L134+28
 1667 002a 0948     		ldr	r0, .L134+32
 1668 002c 9847     		blx	r3
 1669              	.LVL96:
 1670 002e 70BD     		pop	{r4, r5, r6, pc}
 1671              	.L135:
 1672              		.align	2
 1673              	.L134:
 1674 0030 00000000 		.word	.LANCHOR7
 1675 0034 00000000 		.word	.LANCHOR8
 1676 0038 00000000 		.word	_ZN4xpcc5stm3214BufferedUsart3C1Emmb
 1677 003c 00000000 		.word	_ZN4xpcc15IODeviceWrapperINS_5stm3214BufferedUsart3EEC1ERKS2_
 1678 0040 00000000 		.word	_ZN4xpcc15IODeviceWrapperINS_5stm3214BufferedUsart3EED1Ev
 1679 0044 00000000 		.word	__dso_handle
 1680 0048 00000000 		.word	__aeabi_atexit
 1681 004c 00000000 		.word	_ZN4xpcc8IOStreamC1ERNS_8IODeviceE
 1682 0050 00000000 		.word	.LANCHOR5
 1683              		.cfi_endproc
 1684              	.LFE905:
 1686              		.section	.text._ZN4xpcc7TimeoutINS_5ClockEEC2ENS_9TimestampE,"axG",%progbits,_ZN4xpcc7TimeoutINS_5
 1687              		.align	2
 1688              		.weak	_ZN4xpcc7TimeoutINS_5ClockEEC2ENS_9TimestampE
 1689              		.thumb
 1690              		.thumb_func
 1692              	_ZN4xpcc7TimeoutINS_5ClockEEC2ENS_9TimestampE:
 1693              	.LFB890:
 1694              		.file 9 "/home/jonas/warwick/3dProfilometer/xpcc/src/xpcc/workflow/timeout_impl.hpp"
   1:/home/jonas/warwick/3dProfilometer/xpcc/src/xpcc/workflow/timeout_impl.hpp **** // coding: utf-8
   2:/home/jonas/warwick/3dProfilometer/xpcc/src/xpcc/workflow/timeout_impl.hpp **** // ----------------------------------------------------------------------------
   3:/home/jonas/warwick/3dProfilometer/xpcc/src/xpcc/workflow/timeout_impl.hpp **** /* Copyright (c) 2009, Roboterclub Aachen e.V.
   4:/home/jonas/warwick/3dProfilometer/xpcc/src/xpcc/workflow/timeout_impl.hpp ****  * All rights reserved.
   5:/home/jonas/warwick/3dProfilometer/xpcc/src/xpcc/workflow/timeout_impl.hpp ****  *
   6:/home/jonas/warwick/3dProfilometer/xpcc/src/xpcc/workflow/timeout_impl.hpp ****  * Redistribution and use in source and binary forms, with or without
   7:/home/jonas/warwick/3dProfilometer/xpcc/src/xpcc/workflow/timeout_impl.hpp ****  * modification, are permitted provided that the following conditions are met:
   8:/home/jonas/warwick/3dProfilometer/xpcc/src/xpcc/workflow/timeout_impl.hpp ****  *
   9:/home/jonas/warwick/3dProfilometer/xpcc/src/xpcc/workflow/timeout_impl.hpp ****  *     * Redistributions of source code must retain the above copyright
  10:/home/jonas/warwick/3dProfilometer/xpcc/src/xpcc/workflow/timeout_impl.hpp ****  *       notice, this list of conditions and the following disclaimer.
  11:/home/jonas/warwick/3dProfilometer/xpcc/src/xpcc/workflow/timeout_impl.hpp ****  *     * Redistributions in binary form must reproduce the above copyright
  12:/home/jonas/warwick/3dProfilometer/xpcc/src/xpcc/workflow/timeout_impl.hpp ****  *       notice, this list of conditions and the following disclaimer in the
  13:/home/jonas/warwick/3dProfilometer/xpcc/src/xpcc/workflow/timeout_impl.hpp ****  *       documentation and/or other materials provided with the distribution.
  14:/home/jonas/warwick/3dProfilometer/xpcc/src/xpcc/workflow/timeout_impl.hpp ****  *     * Neither the name of the Roboterclub Aachen e.V. nor the
  15:/home/jonas/warwick/3dProfilometer/xpcc/src/xpcc/workflow/timeout_impl.hpp ****  *       names of its contributors may be used to endorse or promote products
  16:/home/jonas/warwick/3dProfilometer/xpcc/src/xpcc/workflow/timeout_impl.hpp ****  *       derived from this software without specific prior written permission.
  17:/home/jonas/warwick/3dProfilometer/xpcc/src/xpcc/workflow/timeout_impl.hpp ****  *
  18:/home/jonas/warwick/3dProfilometer/xpcc/src/xpcc/workflow/timeout_impl.hpp ****  * THIS SOFTWARE IS PROVIDED BY ROBOTERCLUB AACHEN E.V. ''AS IS'' AND ANY
  19:/home/jonas/warwick/3dProfilometer/xpcc/src/xpcc/workflow/timeout_impl.hpp ****  * EXPRESS OR IMPLIED WARRANTIES, INCLUDING, BUT NOT LIMITED TO, THE IMPLIED
  20:/home/jonas/warwick/3dProfilometer/xpcc/src/xpcc/workflow/timeout_impl.hpp ****  * WARRANTIES OF MERCHANTABILITY AND FITNESS FOR A PARTICULAR PURPOSE ARE
  21:/home/jonas/warwick/3dProfilometer/xpcc/src/xpcc/workflow/timeout_impl.hpp ****  * DISCLAIMED. IN NO EVENT SHALL ROBOTERCLUB AACHEN E.V. BE LIABLE FOR ANY
  22:/home/jonas/warwick/3dProfilometer/xpcc/src/xpcc/workflow/timeout_impl.hpp ****  * DIRECT, INDIRECT, INCIDENTAL, SPECIAL, EXEMPLARY, OR CONSEQUENTIAL DAMAGES
  23:/home/jonas/warwick/3dProfilometer/xpcc/src/xpcc/workflow/timeout_impl.hpp ****  * (INCLUDING, BUT NOT LIMITED TO, PROCUREMENT OF SUBSTITUTE GOODS OR SERVICES;
  24:/home/jonas/warwick/3dProfilometer/xpcc/src/xpcc/workflow/timeout_impl.hpp ****  * LOSS OF USE, DATA, OR PROFITS; OR BUSINESS INTERRUPTION) HOWEVER CAUSED AND
  25:/home/jonas/warwick/3dProfilometer/xpcc/src/xpcc/workflow/timeout_impl.hpp ****  * ON ANY THEORY OF LIABILITY, WHETHER IN CONTRACT, STRICT LIABILITY, OR TORT
  26:/home/jonas/warwick/3dProfilometer/xpcc/src/xpcc/workflow/timeout_impl.hpp ****  * (INCLUDING NEGLIGENCE OR OTHERWISE) ARISING IN ANY WAY OUT OF THE USE OF
  27:/home/jonas/warwick/3dProfilometer/xpcc/src/xpcc/workflow/timeout_impl.hpp ****  * THIS SOFTWARE, EVEN IF ADVISED OF THE POSSIBILITY OF SUCH DAMAGE.
  28:/home/jonas/warwick/3dProfilometer/xpcc/src/xpcc/workflow/timeout_impl.hpp ****  */
  29:/home/jonas/warwick/3dProfilometer/xpcc/src/xpcc/workflow/timeout_impl.hpp **** // ----------------------------------------------------------------------------
  30:/home/jonas/warwick/3dProfilometer/xpcc/src/xpcc/workflow/timeout_impl.hpp **** 
  31:/home/jonas/warwick/3dProfilometer/xpcc/src/xpcc/workflow/timeout_impl.hpp **** #ifndef	XPCC__TIMEOUT_HPP
  32:/home/jonas/warwick/3dProfilometer/xpcc/src/xpcc/workflow/timeout_impl.hpp **** 	#error	"Don't include this file directly, use 'timeout.hpp' instead!"
  33:/home/jonas/warwick/3dProfilometer/xpcc/src/xpcc/workflow/timeout_impl.hpp **** #endif
  34:/home/jonas/warwick/3dProfilometer/xpcc/src/xpcc/workflow/timeout_impl.hpp **** 
  35:/home/jonas/warwick/3dProfilometer/xpcc/src/xpcc/workflow/timeout_impl.hpp **** template<typename T>
  36:/home/jonas/warwick/3dProfilometer/xpcc/src/xpcc/workflow/timeout_impl.hpp **** xpcc::Timeout<T>::Timeout() :
  37:/home/jonas/warwick/3dProfilometer/xpcc/src/xpcc/workflow/timeout_impl.hpp **** 	endTime(0), state(EXPIRED)
  38:/home/jonas/warwick/3dProfilometer/xpcc/src/xpcc/workflow/timeout_impl.hpp **** {
  39:/home/jonas/warwick/3dProfilometer/xpcc/src/xpcc/workflow/timeout_impl.hpp **** }
  40:/home/jonas/warwick/3dProfilometer/xpcc/src/xpcc/workflow/timeout_impl.hpp **** 
  41:/home/jonas/warwick/3dProfilometer/xpcc/src/xpcc/workflow/timeout_impl.hpp **** template<typename T>
  42:/home/jonas/warwick/3dProfilometer/xpcc/src/xpcc/workflow/timeout_impl.hpp **** xpcc::Timeout<T>::Timeout(const Timestamp time) :
 1695              		.loc 9 42 0
 1696              		.cfi_startproc
 1697              		@ args = 0, pretend = 0, frame = 16
 1698              		@ frame_needed = 0, uses_anonymous_args = 0
 1699              	.LVL97:
 1700 0000 10B5     		push	{r4, lr}
 1701              	.LCFI29:
 1702              		.cfi_def_cfa_offset 8
 1703              		.cfi_offset 4, -8
 1704              		.cfi_offset 14, -4
 1705 0002 84B0     		sub	sp, sp, #16
 1706              	.LCFI30:
 1707              		.cfi_def_cfa_offset 24
 1708              	.LBB45:
  43:/home/jonas/warwick/3dProfilometer/xpcc/src/xpcc/workflow/timeout_impl.hpp **** 	endTime(T::now() + time), state(ACTIVE)
 1709              		.loc 9 43 0
 1710 0004 084B     		ldr	r3, .L137
 1711              	.LBE45:
  42:/home/jonas/warwick/3dProfilometer/xpcc/src/xpcc/workflow/timeout_impl.hpp **** xpcc::Timeout<T>::Timeout(const Timestamp time) :
 1712              		.loc 9 42 0
 1713 0006 0191     		str	r1, [sp, #4]
 1714 0008 0446     		mov	r4, r0
 1715              	.LBB46:
 1716              		.loc 9 43 0
 1717 000a 9847     		blx	r3
 1718              	.LVL98:
 1719 000c 04AB     		add	r3, sp, #16
 1720 000e 01A9     		add	r1, sp, #4
 1721 0010 43F8040D 		str	r0, [r3, #-4]!
 1722 0014 1846     		mov	r0, r3
 1723 0016 054B     		ldr	r3, .L137+4
 1724 0018 9847     		blx	r3
 1725              	.LVL99:
 1726 001a 0123     		movs	r3, #1
 1727 001c 2060     		str	r0, [r4, #0]
 1728 001e 2371     		strb	r3, [r4, #4]
 1729              	.LBE46:
  44:/home/jonas/warwick/3dProfilometer/xpcc/src/xpcc/workflow/timeout_impl.hpp **** {
  45:/home/jonas/warwick/3dProfilometer/xpcc/src/xpcc/workflow/timeout_impl.hpp **** }
 1730              		.loc 9 45 0
 1731 0020 2046     		mov	r0, r4
 1732 0022 04B0     		add	sp, sp, #16
 1733 0024 10BD     		pop	{r4, pc}
 1734              	.L138:
 1735 0026 00BF     		.align	2
 1736              	.L137:
 1737 0028 00000000 		.word	_ZN4xpcc5Clock3nowEv
 1738 002c 00000000 		.word	_ZNK4xpcc9TimestampplERKS0_
 1739              		.cfi_endproc
 1740              	.LFE890:
 1742              		.weak	_ZN4xpcc7TimeoutINS_5ClockEEC1ENS_9TimestampE
 1743              		.thumb_set _ZN4xpcc7TimeoutINS_5ClockEEC1ENS_9TimestampE,_ZN4xpcc7TimeoutINS_5ClockEEC2ENS_9Timest
 1744              		.section	.text._ZN4xpcc7TimeoutINS_5ClockEE9isExpiredEv,"axG",%progbits,_ZN4xpcc7TimeoutINS_5Clock
 1745              		.align	2
 1746              		.weak	_ZN4xpcc7TimeoutINS_5ClockEE9isExpiredEv
 1747              		.thumb
 1748              		.thumb_func
 1750              	_ZN4xpcc7TimeoutINS_5ClockEE9isExpiredEv:
 1751              	.LFB892:
  46:/home/jonas/warwick/3dProfilometer/xpcc/src/xpcc/workflow/timeout_impl.hpp **** 
  47:/home/jonas/warwick/3dProfilometer/xpcc/src/xpcc/workflow/timeout_impl.hpp **** template<typename T>
  48:/home/jonas/warwick/3dProfilometer/xpcc/src/xpcc/workflow/timeout_impl.hpp **** bool
  49:/home/jonas/warwick/3dProfilometer/xpcc/src/xpcc/workflow/timeout_impl.hpp **** xpcc::Timeout<T>::isExpired()
 1752              		.loc 9 49 0
 1753              		.cfi_startproc
 1754              		@ args = 0, pretend = 0, frame = 8
 1755              		@ frame_needed = 0, uses_anonymous_args = 0
 1756              	.LVL100:
 1757 0000 30B5     		push	{r4, r5, lr}
 1758              	.LCFI31:
 1759              		.cfi_def_cfa_offset 12
 1760              		.cfi_offset 4, -12
 1761              		.cfi_offset 5, -8
 1762              		.cfi_offset 14, -4
  50:/home/jonas/warwick/3dProfilometer/xpcc/src/xpcc/workflow/timeout_impl.hpp **** {
  51:/home/jonas/warwick/3dProfilometer/xpcc/src/xpcc/workflow/timeout_impl.hpp **** 	if (state == ACTIVE)
 1763              		.loc 9 51 0
 1764 0002 0579     		ldrb	r5, [r0, #4]	@ zero_extendqisi2
 1765 0004 012D     		cmp	r5, #1
  49:/home/jonas/warwick/3dProfilometer/xpcc/src/xpcc/workflow/timeout_impl.hpp **** xpcc::Timeout<T>::isExpired()
 1766              		.loc 9 49 0
 1767 0006 83B0     		sub	sp, sp, #12
 1768              	.LCFI32:
 1769              		.cfi_def_cfa_offset 24
  49:/home/jonas/warwick/3dProfilometer/xpcc/src/xpcc/workflow/timeout_impl.hpp **** xpcc::Timeout<T>::isExpired()
 1770              		.loc 9 49 0
 1771 0008 0446     		mov	r4, r0
 1772              		.loc 9 51 0
 1773 000a 02D0     		beq	.L143
  52:/home/jonas/warwick/3dProfilometer/xpcc/src/xpcc/workflow/timeout_impl.hpp **** 	{
  53:/home/jonas/warwick/3dProfilometer/xpcc/src/xpcc/workflow/timeout_impl.hpp **** 		if (T::now() >= endTime)
  54:/home/jonas/warwick/3dProfilometer/xpcc/src/xpcc/workflow/timeout_impl.hpp **** 		{
  55:/home/jonas/warwick/3dProfilometer/xpcc/src/xpcc/workflow/timeout_impl.hpp **** 			state = EXPIRED;
  56:/home/jonas/warwick/3dProfilometer/xpcc/src/xpcc/workflow/timeout_impl.hpp **** 		}
  57:/home/jonas/warwick/3dProfilometer/xpcc/src/xpcc/workflow/timeout_impl.hpp **** 		else {
  58:/home/jonas/warwick/3dProfilometer/xpcc/src/xpcc/workflow/timeout_impl.hpp **** 			return false;
  59:/home/jonas/warwick/3dProfilometer/xpcc/src/xpcc/workflow/timeout_impl.hpp **** 		}
  60:/home/jonas/warwick/3dProfilometer/xpcc/src/xpcc/workflow/timeout_impl.hpp **** 	}
  61:/home/jonas/warwick/3dProfilometer/xpcc/src/xpcc/workflow/timeout_impl.hpp **** 	
  62:/home/jonas/warwick/3dProfilometer/xpcc/src/xpcc/workflow/timeout_impl.hpp **** 	return true;
 1774              		.loc 9 62 0
 1775 000c 0120     		movs	r0, #1
 1776              	.LVL101:
 1777              	.L140:
  63:/home/jonas/warwick/3dProfilometer/xpcc/src/xpcc/workflow/timeout_impl.hpp **** }
 1778              		.loc 9 63 0
 1779 000e 03B0     		add	sp, sp, #12
 1780 0010 30BD     		pop	{r4, r5, pc}
 1781              	.LVL102:
 1782              	.L143:
  53:/home/jonas/warwick/3dProfilometer/xpcc/src/xpcc/workflow/timeout_impl.hpp **** 		if (T::now() >= endTime)
 1783              		.loc 9 53 0
 1784 0012 074B     		ldr	r3, .L144
 1785 0014 9847     		blx	r3
 1786              	.LVL103:
 1787 0016 02AB     		add	r3, sp, #8
 1788 0018 2146     		mov	r1, r4
 1789 001a 43F8040D 		str	r0, [r3, #-4]!
 1790 001e 1846     		mov	r0, r3
 1791 0020 044B     		ldr	r3, .L144+4
 1792 0022 9847     		blx	r3
 1793              	.LVL104:
 1794 0024 0028     		cmp	r0, #0
 1795 0026 F2D0     		beq	.L140
  55:/home/jonas/warwick/3dProfilometer/xpcc/src/xpcc/workflow/timeout_impl.hpp **** 			state = EXPIRED;
 1796              		.loc 9 55 0
 1797 0028 0223     		movs	r3, #2
 1798 002a 2371     		strb	r3, [r4, #4]
  62:/home/jonas/warwick/3dProfilometer/xpcc/src/xpcc/workflow/timeout_impl.hpp **** 	return true;
 1799              		.loc 9 62 0
 1800 002c 2846     		mov	r0, r5
 1801 002e EEE7     		b	.L140
 1802              	.L145:
 1803              		.align	2
 1804              	.L144:
 1805 0030 00000000 		.word	_ZN4xpcc5Clock3nowEv
 1806 0034 00000000 		.word	_ZNK4xpcc9TimestampgeERKS0_
 1807              		.cfi_endproc
 1808              	.LFE892:
 1810              		.section	.text._ZN5Laser4execEPKc,"ax",%progbits
 1811              		.align	2
 1812              		.global	_ZN5Laser4execEPKc
 1813              		.thumb
 1814              		.thumb_func
 1816              	_ZN5Laser4execEPKc:
 1817              	.LFB851:
 112:laserInterface.cpp **** const char* Laser::exec(const char* cmd){
 1818              		.loc 8 112 0
 1819              		.cfi_startproc
 1820              		@ args = 0, pretend = 0, frame = 16
 1821              		@ frame_needed = 0, uses_anonymous_args = 0
 1822              	.LVL105:
 1823 0000 2DE9F041 		push	{r4, r5, r6, r7, r8, lr}
 1824              	.LCFI33:
 1825              		.cfi_def_cfa_offset 24
 1826              		.cfi_offset 4, -24
 1827              		.cfi_offset 5, -20
 1828              		.cfi_offset 6, -16
 1829              		.cfi_offset 7, -12
 1830              		.cfi_offset 8, -8
 1831              		.cfi_offset 14, -4
 1832 0004 84B0     		sub	sp, sp, #16
 1833              	.LCFI34:
 1834              		.cfi_def_cfa_offset 40
 1835              	.LBB47:
 113:laserInterface.cpp **** 	disableRequests();
 1836              		.loc 8 113 0
 1837 0006 2F4B     		ldr	r3, .L167
 115:laserInterface.cpp **** 	xpcc::delay_ms(500);
 1838              		.loc 8 115 0
 1839 0008 2F4F     		ldr	r7, .L167+4
 1840 000a 304E     		ldr	r6, .L167+8
 117:laserInterface.cpp **** 	char c = 0;
 1841              		.loc 8 117 0
 1842 000c 04AD     		add	r5, sp, #16
 1843              	.LBE47:
 112:laserInterface.cpp **** const char* Laser::exec(const char* cmd){
 1844              		.loc 8 112 0
 1845 000e 8046     		mov	r8, r0
 1846              	.LBB53:
 117:laserInterface.cpp **** 	char c = 0;
 1847              		.loc 8 117 0
 1848 0010 0024     		movs	r4, #0
 113:laserInterface.cpp **** 	disableRequests();
 1849              		.loc 8 113 0
 1850 0012 9847     		blx	r3
 1851              	.LVL106:
 114:laserInterface.cpp **** 	USART_ITConfig(USART3, USART_IT_RXNE, DISABLE);
 1852              		.loc 8 114 0
 1853 0014 2E48     		ldr	r0, .L167+12
 1854 0016 2F4B     		ldr	r3, .L167+16
 1855 0018 40F22551 		movw	r1, #1317
 1856 001c 0022     		movs	r2, #0
 1857 001e 9847     		blx	r3
 1858              	.LVL107:
 115:laserInterface.cpp **** 	xpcc::delay_ms(500);
 1859              		.loc 8 115 0
 1860 0020 B847     		blx	r7
 1861              	.LVL108:
 117:laserInterface.cpp **** 	char c = 0;
 1862              		.loc 8 117 0
 1863 0022 05F80D4D 		strb	r4, [r5, #-13]!
 1864              	.LVL109:
 1865              	.L147:
 1866              	.LBB48:
 120:laserInterface.cpp **** 		uart3.read((uint8_t&)c);
 1867              		.loc 8 120 0 discriminator 2
 1868 0026 2846     		mov	r0, r5
 119:laserInterface.cpp **** 	for(int i = 0; i < 100; i++){
 1869              		.loc 8 119 0 discriminator 2
 1870 0028 0134     		adds	r4, r4, #1
 120:laserInterface.cpp **** 		uart3.read((uint8_t&)c);
 1871              		.loc 8 120 0 discriminator 2
 1872 002a B047     		blx	r6
 1873              	.LVL110:
 119:laserInterface.cpp **** 	for(int i = 0; i < 100; i++){
 1874              		.loc 8 119 0 discriminator 2
 1875 002c 642C     		cmp	r4, #100
 1876 002e FAD1     		bne	.L147
 1877              	.LBE48:
 122:laserInterface.cpp **** 	sendString(cmd);
 1878              		.loc 8 122 0
 1879 0030 4046     		mov	r0, r8
 1880 0032 294B     		ldr	r3, .L167+20
 1881 0034 9847     		blx	r3
 1882              	.LVL111:
 124:laserInterface.cpp **** 	xpcc::Timeout<> timeout(1000);
 1883              		.loc 8 124 0
 1884 0036 4FF47A71 		mov	r1, #1000
 1885 003a 284B     		ldr	r3, .L167+24
 1886 003c 01A8     		add	r0, sp, #4
 1887 003e 9847     		blx	r3
 1888              	.LVL112:
 1889 0040 02A8     		add	r0, sp, #8
 1890 0042 0199     		ldr	r1, [sp, #4]
 1891 0044 264B     		ldr	r3, .L167+28
 1892 0046 9847     		blx	r3
 1893              	.LVL113:
 123:laserInterface.cpp **** 	int i = 0;
 1894              		.loc 8 123 0
 1895 0048 0024     		movs	r4, #0
 1896              	.LVL114:
 1897              	.L151:
 126:laserInterface.cpp **** 		if(uart3.read((uint8_t&)c)){
 1898              		.loc 8 126 0
 1899 004a 2846     		mov	r0, r5
 1900 004c B047     		blx	r6
 1901              	.LVL115:
 127:laserInterface.cpp **** 			response[i] = c;
 1902              		.loc 8 127 0
 1903 004e 2549     		ldr	r1, .L167+32
 128:laserInterface.cpp **** 			i++;
 1904              		.loc 8 128 0
 1905 0050 631C     		adds	r3, r4, #1
 1906              	.LVL116:
 126:laserInterface.cpp **** 		if(uart3.read((uint8_t&)c)){
 1907              		.loc 8 126 0
 1908 0052 38B1     		cbz	r0, .L148
 1909              	.LVL117:
 127:laserInterface.cpp **** 			response[i] = c;
 1910              		.loc 8 127 0
 1911 0054 9DF80320 		ldrb	r2, [sp, #3]	@ zero_extendqisi2
 129:laserInterface.cpp **** 			if(i > 254 || c == '\r'){
 1912              		.loc 8 129 0
 1913 0058 FE2B     		cmp	r3, #254
 127:laserInterface.cpp **** 			response[i] = c;
 1914              		.loc 8 127 0
 1915 005a 0A55     		strb	r2, [r1, r4]
 129:laserInterface.cpp **** 			if(i > 254 || c == '\r'){
 1916              		.loc 8 129 0
 1917 005c 16DC     		bgt	.L149
 129:laserInterface.cpp **** 			if(i > 254 || c == '\r'){
 1918              		.loc 8 129 0 is_stmt 0 discriminator 1
 1919 005e 0D2A     		cmp	r2, #13
 1920 0060 14D0     		beq	.L149
 129:laserInterface.cpp **** 			if(i > 254 || c == '\r'){
 1921              		.loc 8 129 0
 1922 0062 1C46     		mov	r4, r3
 1923              	.L148:
 1924              	.LVL118:
 134:laserInterface.cpp **** 		if(timeout.isExpired()){
 1925              		.loc 8 134 0 is_stmt 1
 1926 0064 02A8     		add	r0, sp, #8
 1927 0066 204B     		ldr	r3, .L167+36
 1928 0068 9847     		blx	r3
 1929              	.LVL119:
 1930 006a 0028     		cmp	r0, #0
 1931 006c EDD0     		beq	.L151
 1932              	.L150:
 139:laserInterface.cpp **** 	xpcc::delay_ms(500);
 1933              		.loc 8 139 0
 1934 006e B847     		blx	r7
 1935              	.LVL120:
 140:laserInterface.cpp **** 	enableRequests();
 1936              		.loc 8 140 0
 1937 0070 1E4B     		ldr	r3, .L167+40
 1938 0072 9847     		blx	r3
 1939              	.LVL121:
 141:laserInterface.cpp **** 	enable_USART3_Interrupts();
 1940              		.loc 8 141 0
 1941 0074 1E4B     		ldr	r3, .L167+44
 1942 0076 9847     		blx	r3
 1943              	.LVL122:
 143:laserInterface.cpp **** 	if(c == '\r'){
 1944              		.loc 8 143 0
 1945 0078 9DF80330 		ldrb	r3, [sp, #3]	@ zero_extendqisi2
 1946              	.LVL123:
 1947 007c 0D2B     		cmp	r3, #13
 1948              	.LVL124:
 1949 007e 0FD0     		beq	.L154
 146:laserInterface.cpp **** 	if(i > 254){
 1950              		.loc 8 146 0
 1951 0080 FE2C     		cmp	r4, #254
 1952 0082 07DD     		ble	.L165
 147:laserInterface.cpp **** 		return "Buffer overrun while executing laser command";
 1953              		.loc 8 147 0
 1954 0084 1B48     		ldr	r0, .L167+48
 1955              	.LVL125:
 1956              	.L152:
 1957              	.LBE53:
 154:laserInterface.cpp **** }
 1958              		.loc 8 154 0
 1959 0086 04B0     		add	sp, sp, #16
 1960 0088 BDE8F081 		pop	{r4, r5, r6, r7, r8, pc}
 1961              	.LVL126:
 1962              	.L149:
 1963              	.LBB54:
 130:laserInterface.cpp **** 				response[i-1] = '\0';
 1964              		.loc 8 130 0
 1965 008c 0022     		movs	r2, #0
 1966 008e 0A55     		strb	r2, [r1, r4]
 131:laserInterface.cpp **** 				break;
 1967              		.loc 8 131 0
 1968 0090 1C46     		mov	r4, r3
 1969 0092 ECE7     		b	.L150
 1970              	.LVL127:
 1971              	.L165:
 149:laserInterface.cpp **** 	if(timeout.isExpired()){
 1972              		.loc 8 149 0
 1973 0094 02A8     		add	r0, sp, #8
 1974 0096 144B     		ldr	r3, .L167+36
 1975              	.LVL128:
 1976 0098 9847     		blx	r3
 1977              	.LVL129:
 1978 009a 18B1     		cbz	r0, .L166
 150:laserInterface.cpp **** 		return "Timeout expired while executing laser command";
 1979              		.loc 8 150 0
 1980 009c 1648     		ldr	r0, .L167+52
 1981 009e F2E7     		b	.L152
 1982              	.LVL130:
 1983              	.L154:
 144:laserInterface.cpp **** 		return response;
 1984              		.loc 8 144 0
 1985 00a0 1048     		ldr	r0, .L167+32
 1986 00a2 F0E7     		b	.L152
 1987              	.LVL131:
 1988              	.L166:
 152:laserInterface.cpp **** 	cerr << " LaserInterface.cpp: " << __LINE__ << " : this point should not be reached" << endl;
 1989              		.loc 8 152 0
 1990 00a4 1549     		ldr	r1, .L167+56
 1991 00a6 164C     		ldr	r4, .L167+60
 1992              	.LVL132:
 1993 00a8 1648     		ldr	r0, .L167+64
 1994 00aa A047     		blx	r4
 1995              	.LVL133:
 1996              	.LBB49:
 1997              	.LBB50:
 236:/home/jonas/warwick/3dProfilometer/xpcc/src/xpcc/io/iostream.hpp **** 			this->writeInteger(static_cast<int32_t>(v));
 1998              		.loc 2 236 0
 1999 00ac 164B     		ldr	r3, .L167+68
 2000              	.LBE50:
 2001              	.LBE49:
 152:laserInterface.cpp **** 	cerr << " LaserInterface.cpp: " << __LINE__ << " : this point should not be reached" << endl;
 2002              		.loc 8 152 0
 2003 00ae 0546     		mov	r5, r0
 2004              	.LVL134:
 2005              	.LBB52:
 2006              	.LBB51:
 236:/home/jonas/warwick/3dProfilometer/xpcc/src/xpcc/io/iostream.hpp **** 			this->writeInteger(static_cast<int32_t>(v));
 2007              		.loc 2 236 0
 2008 00b0 9821     		movs	r1, #152
 2009 00b2 9847     		blx	r3
 2010              	.LVL135:
 2011              	.LBE51:
 2012              	.LBE52:
 152:laserInterface.cpp **** 	cerr << " LaserInterface.cpp: " << __LINE__ << " : this point should not be reached" << endl;
 2013              		.loc 8 152 0
 2014 00b4 1549     		ldr	r1, .L167+72
 2015 00b6 2846     		mov	r0, r5
 2016 00b8 A047     		blx	r4
 2017              	.LVL136:
 2018 00ba 0A21     		movs	r1, #10
 2019 00bc 144B     		ldr	r3, .L167+76
 2020 00be 9847     		blx	r3
 2021              	.LVL137:
 153:laserInterface.cpp **** 	return "";
 2022              		.loc 8 153 0
 2023 00c0 1448     		ldr	r0, .L167+80
 2024 00c2 E0E7     		b	.L152
 2025              	.L168:
 2026              		.align	2
 2027              	.L167:
 2028 00c4 00000000 		.word	_ZN5Laser15disableRequestsEv
 2029 00c8 00000000 		.word	_ZN4xpccL8delay_msEm.constprop.2
 2030 00cc 00000000 		.word	_ZN4xpcc5stm3214BufferedUsart34readERh
 2031 00d0 00480040 		.word	1073760256
 2032 00d4 00000000 		.word	USART_ITConfig
 2033 00d8 00000000 		.word	_ZN5Laser10sendStringEPKc
 2034 00dc 00000000 		.word	_ZN4xpcc9TimestampC1Ej
 2035 00e0 00000000 		.word	_ZN4xpcc7TimeoutINS_5ClockEEC1ENS_9TimestampE
 2036 00e4 00000000 		.word	.LANCHOR9
 2037 00e8 00000000 		.word	_ZN4xpcc7TimeoutINS_5ClockEE9isExpiredEv
 2038 00ec 00000000 		.word	_ZN5Laser14enableRequestsEv
 2039 00f0 00000000 		.word	_Z24enable_USART3_Interruptsv
 2040 00f4 00000000 		.word	.LC0
 2041 00f8 30000000 		.word	.LC1
 2042 00fc 64000000 		.word	.LC3
 2043 0100 00000000 		.word	_ZN4xpcc8IOStreamlsEPKc
 2044 0104 00000000 		.word	cerr
 2045 0108 00000000 		.word	_ZN4xpcc8IOStream12writeIntegerEl
 2046 010c 7C000000 		.word	.LC4
 2047 0110 00000000 		.word	_ZN4xpcc8IOStreamlsERKc.isra.0
 2048 0114 60000000 		.word	.LC2
 2049              	.LBE54:
 2050              		.cfi_endproc
 2051              	.LFE851:
 2053              		.section	.text.startup._GLOBAL__sub_I__ZN5Laser12DoubleBuffer4buf1E,"ax",%progbits
 2054              		.align	2
 2055              		.thumb
 2056              		.thumb_func
 2058              	_GLOBAL__sub_I__ZN5Laser12DoubleBuffer4buf1E:
 2059              	.LFB902:
 2060              		.loc 8 303 0
 2061              		.cfi_startproc
 2062              		@ args = 0, pretend = 0, frame = 0
 2063              		@ frame_needed = 0, uses_anonymous_args = 0
 2064 0000 08B5     		push	{r3, lr}
 2065              	.LCFI35:
 2066              		.cfi_def_cfa_offset 8
 2067              		.cfi_offset 3, -8
 2068              		.cfi_offset 14, -4
 2069              		.loc 8 303 0
 2070 0002 014B     		ldr	r3, .L170
 2071 0004 9847     		blx	r3
 2072              	.LVL138:
 2073 0006 08BD     		pop	{r3, pc}
 2074              	.L171:
 2075              		.align	2
 2076              	.L170:
 2077 0008 00000000 		.word	_Z41__static_initialization_and_destruction_0ii.constprop.1
 2078              		.cfi_endproc
 2079              	.LFE902:
 2081              		.section	.init_array,"aw",%init_array
 2082              		.align	2
 2083 0000 00000000 		.word	_GLOBAL__sub_I__ZN5Laser12DoubleBuffer4buf1E(target1)
 2084              		.global	laserOutStream
 2085              		.global	uartWrap3
 2086              		.global	uart3
 2087              		.global	_ZN5Laser12DoubleBuffer7outSizeE
 2088              		.global	_ZN5Laser12DoubleBuffer6inSizeE
 2089              		.global	_ZN5Laser12DoubleBuffer9bufOutPtrE
 2090              		.global	_ZN5Laser12DoubleBuffer8bufInPtrE
 2091              		.global	_ZN5Laser12DoubleBuffer4buf2E
 2092              		.global	_ZN5Laser12DoubleBuffer4buf1E
 2093              		.weak	_ZTVN4xpcc15IODeviceWrapperINS_5stm3214BufferedUsart3EEE
 2094              		.section	.rodata._ZTVN4xpcc15IODeviceWrapperINS_5stm3214BufferedUsart3EEE,"aG",%progbits,_ZTVN4xpc
 2095              		.align	3
 2098              	_ZTVN4xpcc15IODeviceWrapperINS_5stm3214BufferedUsart3EEE:
 2099 0000 00000000 		.word	0
 2100 0004 00000000 		.word	0
 2101 0008 00000000 		.word	_ZN4xpcc15IODeviceWrapperINS_5stm3214BufferedUsart3EED1Ev
 2102 000c 00000000 		.word	_ZN4xpcc15IODeviceWrapperINS_5stm3214BufferedUsart3EED0Ev
 2103 0010 00000000 		.word	_ZN4xpcc15IODeviceWrapperINS_5stm3214BufferedUsart3EE5writeEc
 2104 0014 00000000 		.word	_ZN4xpcc15IODeviceWrapperINS_5stm3214BufferedUsart3EE5writeEPKc
 2105 0018 00000000 		.word	_ZN4xpcc15IODeviceWrapperINS_5stm3214BufferedUsart3EE5flushEv
 2106 001c 00000000 		.word	_ZN4xpcc15IODeviceWrapperINS_5stm3214BufferedUsart3EE4readERc
 2107              		.section	.bss.uartWrap3,"aw",%nobits
 2108              		.align	2
 2109              		.set	.LANCHOR8,. + 0
 2112              	uartWrap3:
 2113 0000 00000000 		.space	4
 2114              		.section	.bss.uart3,"aw",%nobits
 2115              		.align	2
 2116              		.set	.LANCHOR7,. + 0
 2119              	uart3:
 2120 0000 00       		.space	1
 2121 0001 000000   		.section	.bss._ZN5Laser12DoubleBuffer4buf2E,"aw",%nobits
 2122              		.align	2
 2125              	_ZN5Laser12DoubleBuffer4buf2E:
 2126 0000 00000000 		.space	51
 2126      00000000 
 2126      00000000 
 2126      00000000 
 2126      00000000 
 2127 0033 00       		.section	.bss._ZN5Laser12DoubleBuffer7outSizeE,"aw",%nobits
 2128              		.align	2
 2129              		.set	.LANCHOR3,. + 0
 2132              	_ZN5Laser12DoubleBuffer7outSizeE:
 2133 0000 00000000 		.space	4
 2134              		.section	.bss._ZN5Laser12DoubleBuffer6inSizeE,"aw",%nobits
 2135              		.align	2
 2136              		.set	.LANCHOR0,. + 0
 2139              	_ZN5Laser12DoubleBuffer6inSizeE:
 2140 0000 00000000 		.space	4
 2141              		.section	.bss._ZN5Laser12DoubleBuffer4buf1E,"aw",%nobits
 2142              		.align	2
 2145              	_ZN5Laser12DoubleBuffer4buf1E:
 2146 0000 00000000 		.space	51
 2146      00000000 
 2146      00000000 
 2146      00000000 
 2146      00000000 
 2147 0033 00       		.section	.data._ZL13normalRequest,"aw",%progbits
 2148              		.align	2
 2149              		.set	.LANCHOR6,. + 0
 2152              	_ZL13normalRequest:
 2153 0000 4D312C31 		.ascii	"M1,1\015\000"
 2153      0D00
 2154 0006 0000     		.section	.data._ZN5Laser12DoubleBuffer8bufInPtrE,"aw",%progbits
 2155              		.align	2
 2156              		.set	.LANCHOR1,. + 0
 2159              	_ZN5Laser12DoubleBuffer8bufInPtrE:
 2160 0000 00000000 		.word	_ZN5Laser12DoubleBuffer4buf1E
 2161              		.section	.bss.laserOutStream,"aw",%nobits
 2162              		.align	2
 2163              		.set	.LANCHOR5,. + 0
 2166              	laserOutStream:
 2167 0000 00000000 		.space	8
 2167      00000000 
 2168              		.section	.rodata.str1.4,"aMS",%progbits,1
 2169              		.align	2
 2170              	.LC0:
 2171 0000 42756666 		.ascii	"Buffer overrun while executing laser command\000"
 2171      6572206F 
 2171      76657272 
 2171      756E2077 
 2171      68696C65 
 2172 002d 000000   		.space	3
 2173              	.LC1:
 2174 0030 54696D65 		.ascii	"Timeout expired while executing laser command\000"
 2174      6F757420 
 2174      65787069 
 2174      72656420 
 2174      7768696C 
 2175 005e 0000     		.space	2
 2176              	.LC2:
 2177 0060 00       		.ascii	"\000"
 2178 0061 000000   		.space	3
 2179              	.LC3:
 2180 0064 204C6173 		.ascii	" LaserInterface.cpp: \000"
 2180      6572496E 
 2180      74657266 
 2180      6163652E 
 2180      6370703A 
 2181 007a 0000     		.space	2
 2182              	.LC4:
 2183 007c 203A2074 		.ascii	" : this point should not be reached\000"
 2183      68697320 
 2183      706F696E 
 2183      74207368 
 2183      6F756C64 
 2184              		.section	.bss._ZZN5Laser4execEPKcE8response,"aw",%nobits
 2185              		.align	2
 2186              		.set	.LANCHOR9,. + 0
 2189              	_ZZN5Laser4execEPKcE8response:
 2190 0000 00000000 		.space	256
 2190      00000000 
 2190      00000000 
 2190      00000000 
 2190      00000000 
 2191              		.section	.data._ZN5Laser12DoubleBuffer9bufOutPtrE,"aw",%progbits
 2192              		.align	2
 2193              		.set	.LANCHOR2,. + 0
 2196              	_ZN5Laser12DoubleBuffer9bufOutPtrE:
 2197 0000 00000000 		.word	_ZN5Laser12DoubleBuffer4buf2E
 2198              		.section	.data._ZL9lastError,"aw",%progbits
 2199              		.align	2
 2200              		.set	.LANCHOR4,. + 0
 2203              	_ZL9lastError:
 2204 0000 FFFFFFFF 		.word	-1
 2205              		.text
 2206              	.Letext0:
 2207              		.file 10 "/opt/arm-2012.09/bin/../lib/gcc/arm-none-eabi/4.7.2/../../../../arm-none-eabi/include/st
 2208              		.file 11 "/home/jonas/warwick/3dProfilometer/xpcc/ext/stm32f4xx_lib/CMSIS/Device/ST/STM32F4xx/Incl
 2209              		.file 12 "/home/jonas/warwick/3dProfilometer/xpcc/src/xpcc/architecture/platform/cortex_m3/stm32/c
 2210              		.file 13 "/home/jonas/warwick/3dProfilometer/xpcc/src/xpcc/architecture/platform/cortex_m3/stm32/s
 2211              		.file 14 "/home/jonas/warwick/3dProfilometer/xpcc/src/xpcc/architecture/platform/cortex_m3/stm32/u
 2212              		.file 15 "/home/jonas/warwick/3dProfilometer/xpcc/src/xpcc/architecture/driver/gpio.hpp"
 2213              		.file 16 "/home/jonas/warwick/3dProfilometer/xpcc/src/xpcc/architecture/platform/cortex_m3/stm32/f
 2214              		.file 17 "/home/jonas/warwick/3dProfilometer/xpcc/src/xpcc/driver/connectivity/i2c/constants.hpp"
 2215              		.file 18 "/home/jonas/warwick/3dProfilometer/xpcc/src/xpcc/architecture/driver/atomic.hpp"
 2216              		.file 19 "/home/jonas/warwick/3dProfilometer/xpcc/src/xpcc/driver/connectivity/can/message.hpp"
 2217              		.file 20 "/home/jonas/warwick/3dProfilometer/xpcc/src/xpcc/utils/template_metaprogramming.hpp"
 2218              		.file 21 "/home/jonas/warwick/3dProfilometer/xpcc/src/xpcc/architecture/driver/clock.hpp"
 2219              		.file 22 "/home/jonas/warwick/3dProfilometer/xpcc/src/xpcc/architecture/driver/accessor/ram.hpp"
 2220              		.file 23 "/home/jonas/warwick/3dProfilometer/xpcc/src/xpcc/workflow/timeout.hpp"
 2221              		.file 24 "/opt/arm-2012.09/bin/../lib/gcc/arm-none-eabi/4.7.2/include/stddef.h"
 2222              		.file 25 "<built-in>"
 2223              		.file 26 "/opt/arm-2012.09/bin/../lib/gcc/arm-none-eabi/4.7.2/../../../../arm-none-eabi/include/c+
 2224              		.file 27 "/opt/arm-2012.09/bin/../lib/gcc/arm-none-eabi/4.7.2/../../../../arm-none-eabi/include/st
 2225              		.file 28 "/home/jonas/warwick/3dProfilometer/xpcc/src/../ext/stm32f4xx_lib/STM32F4xx_StdPeriph_Dri
 2226              		.file 29 "/home/jonas/warwick/3dProfilometer/xpcc/src/../ext/stm32f4xx_lib/STM32F4xx_StdPeriph_Dri
 2227              		.file 30 "/home/jonas/warwick/3dProfilometer/xpcc/src/../ext/stm32f4xx_lib/STM32F4xx_StdPeriph_Dri
 2228              		.file 31 "/home/jonas/warwick/3dProfilometer/xpcc/src/../ext/stm32f4xx_lib/STM32F4xx_StdPeriph_Dri
 2229              		.file 32 "/home/jonas/warwick/3dProfilometer/xpcc/ext/stm32f4xx_lib/CMSIS/Include/core_cm4.h"
 2230              		.file 33 "project.h"