   1              		.syntax unified
   2              		.cpu cortex-m4
   3              		.eabi_attribute 27, 3
   4              		.fpu fpv4-sp-d16
   5              		.eabi_attribute 20, 1
   6              		.eabi_attribute 21, 1
   7              		.eabi_attribute 23, 3
   8              		.eabi_attribute 24, 1
   9              		.eabi_attribute 25, 1
  10              		.eabi_attribute 26, 1
  11              		.eabi_attribute 30, 2
  12              		.eabi_attribute 34, 1
  13              		.eabi_attribute 18, 4
  14              		.thumb
  15              		.file	"state.cpp"
  16              		.text
  17              	.Ltext0:
  18              		.cfi_sections	.debug_frame
  19              		.section	.text._Z14disableAllLedsv,"ax",%progbits
  20              		.align	2
  21              		.global	_Z14disableAllLedsv
  22              		.thumb
  23              		.thumb_func
  25              	_Z14disableAllLedsv:
  26              	.LFB862:
  27              		.file 1 "state.cpp"
   1:state.cpp     **** /*
   2:state.cpp     ****  * state.cpp
   3:state.cpp     ****  *
   4:state.cpp     ****  *  Created on: Dec 30, 2013
   5:state.cpp     ****  *      Author: jonas
   6:state.cpp     ****  */
   7:state.cpp     **** 
   8:state.cpp     **** #include "state.h"
   9:state.cpp     **** #include "project.h"
  10:state.cpp     **** #include "pcInterface.h"
  11:state.cpp     **** 
  12:state.cpp     **** #include <xpcc/architecture.hpp>
  13:state.cpp     **** 
  14:state.cpp     **** using namespace xpcc::stm32;
  15:state.cpp     **** 
  16:state.cpp     **** GPIO__OUTPUT(ledRed, D, 14);
  17:state.cpp     **** GPIO__OUTPUT(ledBlue, D, 15);
  18:state.cpp     **** GPIO__OUTPUT(ledOrange, D, 13);
  19:state.cpp     **** GPIO__OUTPUT(ledGreen, D, 12);
  20:state.cpp     **** 
  21:state.cpp     **** int State::currentState;
  22:state.cpp     **** 
  23:state.cpp     **** 
  24:state.cpp     **** void disableAllLeds(){
  28              		.loc 1 24 0
  29              		.cfi_startproc
  30              		@ args = 0, pretend = 0, frame = 0
  31              		@ frame_needed = 0, uses_anonymous_args = 0
  32              		@ link register save eliminated.
  33 0000 10B4     		push	{r4}
  34              	.LCFI0:
  35              		.cfi_def_cfa_offset 4
  36              		.cfi_offset 4, -4
  37              	.LBB179:
  38              	.LBB180:
  39              		.file 2 "/home/jonas/warwick/3dProfilometer/xpcc/src/xpcc/architecture/platform/cortex_m3/stm32/ti
   1:/home/jonas/warwick/3dProfilometer/xpcc/src/xpcc/architecture/platform/cortex_m3/stm32/timer/timer_1.hpp **** // coding: utf-8
   2:/home/jonas/warwick/3dProfilometer/xpcc/src/xpcc/architecture/platform/cortex_m3/stm32/timer/timer_1.hpp **** // ----------------------------------------------------------------------------
   3:/home/jonas/warwick/3dProfilometer/xpcc/src/xpcc/architecture/platform/cortex_m3/stm32/timer/timer_1.hpp **** /* Copyright (c) 2011, Roboterclub Aachen e.V.
   4:/home/jonas/warwick/3dProfilometer/xpcc/src/xpcc/architecture/platform/cortex_m3/stm32/timer/timer_1.hpp ****  * All rights reserved.
   5:/home/jonas/warwick/3dProfilometer/xpcc/src/xpcc/architecture/platform/cortex_m3/stm32/timer/timer_1.hpp ****  *
   6:/home/jonas/warwick/3dProfilometer/xpcc/src/xpcc/architecture/platform/cortex_m3/stm32/timer/timer_1.hpp ****  * Redistribution and use in source and binary forms, with or without
   7:/home/jonas/warwick/3dProfilometer/xpcc/src/xpcc/architecture/platform/cortex_m3/stm32/timer/timer_1.hpp ****  * modification, are permitted provided that the following conditions are met:
   8:/home/jonas/warwick/3dProfilometer/xpcc/src/xpcc/architecture/platform/cortex_m3/stm32/timer/timer_1.hpp ****  * 
   9:/home/jonas/warwick/3dProfilometer/xpcc/src/xpcc/architecture/platform/cortex_m3/stm32/timer/timer_1.hpp ****  *     * Redistributions of source code must retain the above copyright
  10:/home/jonas/warwick/3dProfilometer/xpcc/src/xpcc/architecture/platform/cortex_m3/stm32/timer/timer_1.hpp ****  *       notice, this list of conditions and the following disclaimer.
  11:/home/jonas/warwick/3dProfilometer/xpcc/src/xpcc/architecture/platform/cortex_m3/stm32/timer/timer_1.hpp ****  *     * Redistributions in binary form must reproduce the above copyright
  12:/home/jonas/warwick/3dProfilometer/xpcc/src/xpcc/architecture/platform/cortex_m3/stm32/timer/timer_1.hpp ****  *       notice, this list of conditions and the following disclaimer in the
  13:/home/jonas/warwick/3dProfilometer/xpcc/src/xpcc/architecture/platform/cortex_m3/stm32/timer/timer_1.hpp ****  *       documentation and/or other materials provided with the distribution.
  14:/home/jonas/warwick/3dProfilometer/xpcc/src/xpcc/architecture/platform/cortex_m3/stm32/timer/timer_1.hpp ****  *     * Neither the name of the Roboterclub Aachen e.V. nor the
  15:/home/jonas/warwick/3dProfilometer/xpcc/src/xpcc/architecture/platform/cortex_m3/stm32/timer/timer_1.hpp ****  *       names of its contributors may be used to endorse or promote products
  16:/home/jonas/warwick/3dProfilometer/xpcc/src/xpcc/architecture/platform/cortex_m3/stm32/timer/timer_1.hpp ****  *       derived from this software without specific prior written permission.
  17:/home/jonas/warwick/3dProfilometer/xpcc/src/xpcc/architecture/platform/cortex_m3/stm32/timer/timer_1.hpp ****  *
  18:/home/jonas/warwick/3dProfilometer/xpcc/src/xpcc/architecture/platform/cortex_m3/stm32/timer/timer_1.hpp ****  * THIS SOFTWARE IS PROVIDED BY ROBOTERCLUB AACHEN E.V. ''AS IS'' AND ANY
  19:/home/jonas/warwick/3dProfilometer/xpcc/src/xpcc/architecture/platform/cortex_m3/stm32/timer/timer_1.hpp ****  * EXPRESS OR IMPLIED WARRANTIES, INCLUDING, BUT NOT LIMITED TO, THE IMPLIED
  20:/home/jonas/warwick/3dProfilometer/xpcc/src/xpcc/architecture/platform/cortex_m3/stm32/timer/timer_1.hpp ****  * WARRANTIES OF MERCHANTABILITY AND FITNESS FOR A PARTICULAR PURPOSE ARE
  21:/home/jonas/warwick/3dProfilometer/xpcc/src/xpcc/architecture/platform/cortex_m3/stm32/timer/timer_1.hpp ****  * DISCLAIMED. IN NO EVENT SHALL ROBOTERCLUB AACHEN E.V. BE LIABLE FOR ANY
  22:/home/jonas/warwick/3dProfilometer/xpcc/src/xpcc/architecture/platform/cortex_m3/stm32/timer/timer_1.hpp ****  * DIRECT, INDIRECT, INCIDENTAL, SPECIAL, EXEMPLARY, OR CONSEQUENTIAL DAMAGES
  23:/home/jonas/warwick/3dProfilometer/xpcc/src/xpcc/architecture/platform/cortex_m3/stm32/timer/timer_1.hpp ****  * (INCLUDING, BUT NOT LIMITED TO, PROCUREMENT OF SUBSTITUTE GOODS OR SERVICES;
  24:/home/jonas/warwick/3dProfilometer/xpcc/src/xpcc/architecture/platform/cortex_m3/stm32/timer/timer_1.hpp ****  * LOSS OF USE, DATA, OR PROFITS; OR BUSINESS INTERRUPTION) HOWEVER CAUSED AND
  25:/home/jonas/warwick/3dProfilometer/xpcc/src/xpcc/architecture/platform/cortex_m3/stm32/timer/timer_1.hpp ****  * ON ANY THEORY OF LIABILITY, WHETHER IN CONTRACT, STRICT LIABILITY, OR TORT
  26:/home/jonas/warwick/3dProfilometer/xpcc/src/xpcc/architecture/platform/cortex_m3/stm32/timer/timer_1.hpp ****  * (INCLUDING NEGLIGENCE OR OTHERWISE) ARISING IN ANY WAY OUT OF THE USE OF
  27:/home/jonas/warwick/3dProfilometer/xpcc/src/xpcc/architecture/platform/cortex_m3/stm32/timer/timer_1.hpp ****  * THIS SOFTWARE, EVEN IF ADVISED OF THE POSSIBILITY OF SUCH DAMAGE.
  28:/home/jonas/warwick/3dProfilometer/xpcc/src/xpcc/architecture/platform/cortex_m3/stm32/timer/timer_1.hpp ****  */
  29:/home/jonas/warwick/3dProfilometer/xpcc/src/xpcc/architecture/platform/cortex_m3/stm32/timer/timer_1.hpp **** // ----------------------------------------------------------------------------
  30:/home/jonas/warwick/3dProfilometer/xpcc/src/xpcc/architecture/platform/cortex_m3/stm32/timer/timer_1.hpp **** /*
  31:/home/jonas/warwick/3dProfilometer/xpcc/src/xpcc/architecture/platform/cortex_m3/stm32/timer/timer_1.hpp ****  * WARNING: This file is generated automatically, do not edit!
  32:/home/jonas/warwick/3dProfilometer/xpcc/src/xpcc/architecture/platform/cortex_m3/stm32/timer/timer_1.hpp ****  * Please modify the corresponding *.in file instead and rebuild this file. 
  33:/home/jonas/warwick/3dProfilometer/xpcc/src/xpcc/architecture/platform/cortex_m3/stm32/timer/timer_1.hpp ****  */
  34:/home/jonas/warwick/3dProfilometer/xpcc/src/xpcc/architecture/platform/cortex_m3/stm32/timer/timer_1.hpp **** // ----------------------------------------------------------------------------
  35:/home/jonas/warwick/3dProfilometer/xpcc/src/xpcc/architecture/platform/cortex_m3/stm32/timer/timer_1.hpp **** 
  36:/home/jonas/warwick/3dProfilometer/xpcc/src/xpcc/architecture/platform/cortex_m3/stm32/timer/timer_1.hpp **** #ifndef XPCC_STM32__TIMER_1_HPP
  37:/home/jonas/warwick/3dProfilometer/xpcc/src/xpcc/architecture/platform/cortex_m3/stm32/timer/timer_1.hpp **** #define XPCC_STM32__TIMER_1_HPP
  38:/home/jonas/warwick/3dProfilometer/xpcc/src/xpcc/architecture/platform/cortex_m3/stm32/timer/timer_1.hpp **** 
  39:/home/jonas/warwick/3dProfilometer/xpcc/src/xpcc/architecture/platform/cortex_m3/stm32/timer/timer_1.hpp **** #include "timer_base.hpp"
  40:/home/jonas/warwick/3dProfilometer/xpcc/src/xpcc/architecture/platform/cortex_m3/stm32/timer/timer_1.hpp **** 
  41:/home/jonas/warwick/3dProfilometer/xpcc/src/xpcc/architecture/platform/cortex_m3/stm32/timer/timer_1.hpp **** namespace xpcc
  42:/home/jonas/warwick/3dProfilometer/xpcc/src/xpcc/architecture/platform/cortex_m3/stm32/timer/timer_1.hpp **** {
  43:/home/jonas/warwick/3dProfilometer/xpcc/src/xpcc/architecture/platform/cortex_m3/stm32/timer/timer_1.hpp **** 	namespace stm32
  44:/home/jonas/warwick/3dProfilometer/xpcc/src/xpcc/architecture/platform/cortex_m3/stm32/timer/timer_1.hpp **** 	{
  45:/home/jonas/warwick/3dProfilometer/xpcc/src/xpcc/architecture/platform/cortex_m3/stm32/timer/timer_1.hpp **** 		/**
  46:/home/jonas/warwick/3dProfilometer/xpcc/src/xpcc/architecture/platform/cortex_m3/stm32/timer/timer_1.hpp **** 		 * @brief		Advanced Control Timer 1
  47:/home/jonas/warwick/3dProfilometer/xpcc/src/xpcc/architecture/platform/cortex_m3/stm32/timer/timer_1.hpp **** 		 * 
  48:/home/jonas/warwick/3dProfilometer/xpcc/src/xpcc/architecture/platform/cortex_m3/stm32/timer/timer_1.hpp **** 		 * 
  49:/home/jonas/warwick/3dProfilometer/xpcc/src/xpcc/architecture/platform/cortex_m3/stm32/timer/timer_1.hpp **** 		 * Interrupt handler (for LD, MD, HD and CL):
  50:/home/jonas/warwick/3dProfilometer/xpcc/src/xpcc/architecture/platform/cortex_m3/stm32/timer/timer_1.hpp **** 		 * - TIM1_BRK_IRQHandler
  51:/home/jonas/warwick/3dProfilometer/xpcc/src/xpcc/architecture/platform/cortex_m3/stm32/timer/timer_1.hpp **** 		 * - TIM1_UP_IRQHandler
  52:/home/jonas/warwick/3dProfilometer/xpcc/src/xpcc/architecture/platform/cortex_m3/stm32/timer/timer_1.hpp **** 		 * - TIM1_TRG_COM_IRQHandler
  53:/home/jonas/warwick/3dProfilometer/xpcc/src/xpcc/architecture/platform/cortex_m3/stm32/timer/timer_1.hpp **** 		 * - TIM1_CC_IRQHandler
  54:/home/jonas/warwick/3dProfilometer/xpcc/src/xpcc/architecture/platform/cortex_m3/stm32/timer/timer_1.hpp **** 		 * 
  55:/home/jonas/warwick/3dProfilometer/xpcc/src/xpcc/architecture/platform/cortex_m3/stm32/timer/timer_1.hpp **** 		 * Interrupt handler for XL Density:
  56:/home/jonas/warwick/3dProfilometer/xpcc/src/xpcc/architecture/platform/cortex_m3/stm32/timer/timer_1.hpp **** 		 * - TIM1_BRK_TIM9_IRQHandler
  57:/home/jonas/warwick/3dProfilometer/xpcc/src/xpcc/architecture/platform/cortex_m3/stm32/timer/timer_1.hpp **** 		 * - TIM1_UP_TIM10_IRQn
  58:/home/jonas/warwick/3dProfilometer/xpcc/src/xpcc/architecture/platform/cortex_m3/stm32/timer/timer_1.hpp **** 		 * - TIM1_TRG_COM_TIM11_IRQn
  59:/home/jonas/warwick/3dProfilometer/xpcc/src/xpcc/architecture/platform/cortex_m3/stm32/timer/timer_1.hpp **** 		 * - TIM1_CC_IRQn
  60:/home/jonas/warwick/3dProfilometer/xpcc/src/xpcc/architecture/platform/cortex_m3/stm32/timer/timer_1.hpp **** 		 * 
  61:/home/jonas/warwick/3dProfilometer/xpcc/src/xpcc/architecture/platform/cortex_m3/stm32/timer/timer_1.hpp **** 		 * 
  62:/home/jonas/warwick/3dProfilometer/xpcc/src/xpcc/architecture/platform/cortex_m3/stm32/timer/timer_1.hpp **** 		 * Example:
  63:/home/jonas/warwick/3dProfilometer/xpcc/src/xpcc/architecture/platform/cortex_m3/stm32/timer/timer_1.hpp **** 		 * \code
  64:/home/jonas/warwick/3dProfilometer/xpcc/src/xpcc/architecture/platform/cortex_m3/stm32/timer/timer_1.hpp **** 		 * extern "C" void
  65:/home/jonas/warwick/3dProfilometer/xpcc/src/xpcc/architecture/platform/cortex_m3/stm32/timer/timer_1.hpp **** 		 * TIM1_UP_IRQHandler(void)
  66:/home/jonas/warwick/3dProfilometer/xpcc/src/xpcc/architecture/platform/cortex_m3/stm32/timer/timer_1.hpp **** 		 * {
  67:/home/jonas/warwick/3dProfilometer/xpcc/src/xpcc/architecture/platform/cortex_m3/stm32/timer/timer_1.hpp **** 		 *     Timer1::resetInterruptFlags(Timer1::...);
  68:/home/jonas/warwick/3dProfilometer/xpcc/src/xpcc/architecture/platform/cortex_m3/stm32/timer/timer_1.hpp **** 		 *     
  69:/home/jonas/warwick/3dProfilometer/xpcc/src/xpcc/architecture/platform/cortex_m3/stm32/timer/timer_1.hpp **** 		 *     ...
  70:/home/jonas/warwick/3dProfilometer/xpcc/src/xpcc/architecture/platform/cortex_m3/stm32/timer/timer_1.hpp **** 		 * }
  71:/home/jonas/warwick/3dProfilometer/xpcc/src/xpcc/architecture/platform/cortex_m3/stm32/timer/timer_1.hpp **** 		 * \endcode
  72:/home/jonas/warwick/3dProfilometer/xpcc/src/xpcc/architecture/platform/cortex_m3/stm32/timer/timer_1.hpp **** 		 * 
  73:/home/jonas/warwick/3dProfilometer/xpcc/src/xpcc/architecture/platform/cortex_m3/stm32/timer/timer_1.hpp **** 		 * \warning	The Timer has much more possibilities than presented by this
  74:/home/jonas/warwick/3dProfilometer/xpcc/src/xpcc/architecture/platform/cortex_m3/stm32/timer/timer_1.hpp **** 		 * 			interface (e.g. Input Capture, Trigger for other Timers, DMA).
  75:/home/jonas/warwick/3dProfilometer/xpcc/src/xpcc/architecture/platform/cortex_m3/stm32/timer/timer_1.hpp **** 		 * 			It might be expanded in the future.
  76:/home/jonas/warwick/3dProfilometer/xpcc/src/xpcc/architecture/platform/cortex_m3/stm32/timer/timer_1.hpp **** 		 * 
  77:/home/jonas/warwick/3dProfilometer/xpcc/src/xpcc/architecture/platform/cortex_m3/stm32/timer/timer_1.hpp **** 		 * @author		Fabian Greif
  78:/home/jonas/warwick/3dProfilometer/xpcc/src/xpcc/architecture/platform/cortex_m3/stm32/timer/timer_1.hpp **** 		 * @ingroup		stm32
  79:/home/jonas/warwick/3dProfilometer/xpcc/src/xpcc/architecture/platform/cortex_m3/stm32/timer/timer_1.hpp **** 		 */
  80:/home/jonas/warwick/3dProfilometer/xpcc/src/xpcc/architecture/platform/cortex_m3/stm32/timer/timer_1.hpp **** 		class Timer1 : public AdvancedControlTimer
  81:/home/jonas/warwick/3dProfilometer/xpcc/src/xpcc/architecture/platform/cortex_m3/stm32/timer/timer_1.hpp **** 		{
  82:/home/jonas/warwick/3dProfilometer/xpcc/src/xpcc/architecture/platform/cortex_m3/stm32/timer/timer_1.hpp **** #if defined(STM32F2XX) || defined(STM32F3XX) || defined(STM32F4XX)
  83:/home/jonas/warwick/3dProfilometer/xpcc/src/xpcc/architecture/platform/cortex_m3/stm32/timer/timer_1.hpp **** 		public:
  84:/home/jonas/warwick/3dProfilometer/xpcc/src/xpcc/architecture/platform/cortex_m3/stm32/timer/timer_1.hpp **** 			
  85:/home/jonas/warwick/3dProfilometer/xpcc/src/xpcc/architecture/platform/cortex_m3/stm32/timer/timer_1.hpp **** #else
  86:/home/jonas/warwick/3dProfilometer/xpcc/src/xpcc/architecture/platform/cortex_m3/stm32/timer/timer_1.hpp **** 		public:
  87:/home/jonas/warwick/3dProfilometer/xpcc/src/xpcc/architecture/platform/cortex_m3/stm32/timer/timer_1.hpp **** 			enum Remap
  88:/home/jonas/warwick/3dProfilometer/xpcc/src/xpcc/architecture/platform/cortex_m3/stm32/timer/timer_1.hpp **** 			{
  89:/home/jonas/warwick/3dProfilometer/xpcc/src/xpcc/architecture/platform/cortex_m3/stm32/timer/timer_1.hpp **** 				NO_REMAP = AFIO_MAPR_TIM1_REMAP_NOREMAP,			///< ETR/PA12, CH1/PA8, CH2/PA9, CH3/PA10, CH4/PA11,
  90:/home/jonas/warwick/3dProfilometer/xpcc/src/xpcc/architecture/platform/cortex_m3/stm32/timer/timer_1.hpp **** 				PARTIAL_REMAP = AFIO_MAPR_TIM1_REMAP_PARTIALREMAP,	///< ETR/PA12, CH1/PA8, CH2/PA9, CH3/PA10, C
  91:/home/jonas/warwick/3dProfilometer/xpcc/src/xpcc/architecture/platform/cortex_m3/stm32/timer/timer_1.hpp **** 				FULL_REMAP = AFIO_MAPR_TIM1_REMAP_FULLREMAP,		///< ETR/PE7, CH1/PE9, CH2/PE11, CH3/PE13, CH4/PE
  92:/home/jonas/warwick/3dProfilometer/xpcc/src/xpcc/architecture/platform/cortex_m3/stm32/timer/timer_1.hpp **** 			};
  93:/home/jonas/warwick/3dProfilometer/xpcc/src/xpcc/architecture/platform/cortex_m3/stm32/timer/timer_1.hpp **** 			static const uint32_t remapMask = AFIO_MAPR_TIM1_REMAP;
  94:/home/jonas/warwick/3dProfilometer/xpcc/src/xpcc/architecture/platform/cortex_m3/stm32/timer/timer_1.hpp **** 			
  95:/home/jonas/warwick/3dProfilometer/xpcc/src/xpcc/architecture/platform/cortex_m3/stm32/timer/timer_1.hpp **** 			/**
  96:/home/jonas/warwick/3dProfilometer/xpcc/src/xpcc/architecture/platform/cortex_m3/stm32/timer/timer_1.hpp **** 			 * Remap compare channels to other locations.
  97:/home/jonas/warwick/3dProfilometer/xpcc/src/xpcc/architecture/platform/cortex_m3/stm32/timer/timer_1.hpp **** 			 * 
  98:/home/jonas/warwick/3dProfilometer/xpcc/src/xpcc/architecture/platform/cortex_m3/stm32/timer/timer_1.hpp **** 			 * The pins are not automatically initialized. This has to be
  99:/home/jonas/warwick/3dProfilometer/xpcc/src/xpcc/architecture/platform/cortex_m3/stm32/timer/timer_1.hpp **** 			 * done by the user.
 100:/home/jonas/warwick/3dProfilometer/xpcc/src/xpcc/architecture/platform/cortex_m3/stm32/timer/timer_1.hpp **** 			 */
 101:/home/jonas/warwick/3dProfilometer/xpcc/src/xpcc/architecture/platform/cortex_m3/stm32/timer/timer_1.hpp **** 			static inline void
 102:/home/jonas/warwick/3dProfilometer/xpcc/src/xpcc/architecture/platform/cortex_m3/stm32/timer/timer_1.hpp **** 			remapPins(Remap mapping)
 103:/home/jonas/warwick/3dProfilometer/xpcc/src/xpcc/architecture/platform/cortex_m3/stm32/timer/timer_1.hpp **** 			{
 104:/home/jonas/warwick/3dProfilometer/xpcc/src/xpcc/architecture/platform/cortex_m3/stm32/timer/timer_1.hpp **** 				AFIO->MAPR = (AFIO->MAPR & ~remapMask) | mapping;
 105:/home/jonas/warwick/3dProfilometer/xpcc/src/xpcc/architecture/platform/cortex_m3/stm32/timer/timer_1.hpp **** 			}
 106:/home/jonas/warwick/3dProfilometer/xpcc/src/xpcc/architecture/platform/cortex_m3/stm32/timer/timer_1.hpp **** #endif
 107:/home/jonas/warwick/3dProfilometer/xpcc/src/xpcc/architecture/platform/cortex_m3/stm32/timer/timer_1.hpp **** 			
 108:/home/jonas/warwick/3dProfilometer/xpcc/src/xpcc/architecture/platform/cortex_m3/stm32/timer/timer_1.hpp **** 		public:
 109:/home/jonas/warwick/3dProfilometer/xpcc/src/xpcc/architecture/platform/cortex_m3/stm32/timer/timer_1.hpp **** 			enum MasterMode
 110:/home/jonas/warwick/3dProfilometer/xpcc/src/xpcc/architecture/platform/cortex_m3/stm32/timer/timer_1.hpp **** 			{
 111:/home/jonas/warwick/3dProfilometer/xpcc/src/xpcc/architecture/platform/cortex_m3/stm32/timer/timer_1.hpp **** 				MASTER_RESET 			= 0,							// 0b000
 112:/home/jonas/warwick/3dProfilometer/xpcc/src/xpcc/architecture/platform/cortex_m3/stm32/timer/timer_1.hpp **** 				MASTER_ENABLE 			= TIM_CR2_MMS_0,				// 0b001
 113:/home/jonas/warwick/3dProfilometer/xpcc/src/xpcc/architecture/platform/cortex_m3/stm32/timer/timer_1.hpp **** 				MASTER_UPDATE 			= TIM_CR2_MMS_1,				// 0b010
 114:/home/jonas/warwick/3dProfilometer/xpcc/src/xpcc/architecture/platform/cortex_m3/stm32/timer/timer_1.hpp **** 				MASTER_COMPARE_PULSE 	= TIM_CR2_MMS_1 | TIM_CR2_MMS_0,// 0b011
 115:/home/jonas/warwick/3dProfilometer/xpcc/src/xpcc/architecture/platform/cortex_m3/stm32/timer/timer_1.hpp **** 				MASTER_COMPARE_OC1REF 	= TIM_CR2_MMS_2,				// 0b100
 116:/home/jonas/warwick/3dProfilometer/xpcc/src/xpcc/architecture/platform/cortex_m3/stm32/timer/timer_1.hpp **** 				MASTER_COMPARE_OC2REF 	= TIM_CR2_MMS_2 | TIM_CR2_MMS_0,// 0b101
 117:/home/jonas/warwick/3dProfilometer/xpcc/src/xpcc/architecture/platform/cortex_m3/stm32/timer/timer_1.hpp **** 				MASTER_COMPARE_OC3REF 	= TIM_CR2_MMS_2 | TIM_CR2_MMS_1,// 0b110
 118:/home/jonas/warwick/3dProfilometer/xpcc/src/xpcc/architecture/platform/cortex_m3/stm32/timer/timer_1.hpp **** 				MASTER_COMPARE_OC4REF 	= TIM_CR2_MMS_2 | TIM_CR2_MMS_1	// 0b111
 119:/home/jonas/warwick/3dProfilometer/xpcc/src/xpcc/architecture/platform/cortex_m3/stm32/timer/timer_1.hpp **** 														| TIM_CR2_MMS_0,
 120:/home/jonas/warwick/3dProfilometer/xpcc/src/xpcc/architecture/platform/cortex_m3/stm32/timer/timer_1.hpp **** 			};
 121:/home/jonas/warwick/3dProfilometer/xpcc/src/xpcc/architecture/platform/cortex_m3/stm32/timer/timer_1.hpp **** 
 122:/home/jonas/warwick/3dProfilometer/xpcc/src/xpcc/architecture/platform/cortex_m3/stm32/timer/timer_1.hpp **** 			enum CaptureCompareControlUpdate
 123:/home/jonas/warwick/3dProfilometer/xpcc/src/xpcc/architecture/platform/cortex_m3/stm32/timer/timer_1.hpp **** 			{
 124:/home/jonas/warwick/3dProfilometer/xpcc/src/xpcc/architecture/platform/cortex_m3/stm32/timer/timer_1.hpp **** 				SET_COMG = 0,
 125:/home/jonas/warwick/3dProfilometer/xpcc/src/xpcc/architecture/platform/cortex_m3/stm32/timer/timer_1.hpp **** 				SET_COMG_OR_TRGI_RIDING_EDGE = TIM_CR2_CCUS
 126:/home/jonas/warwick/3dProfilometer/xpcc/src/xpcc/architecture/platform/cortex_m3/stm32/timer/timer_1.hpp **** 			};
 127:/home/jonas/warwick/3dProfilometer/xpcc/src/xpcc/architecture/platform/cortex_m3/stm32/timer/timer_1.hpp **** 
 128:/home/jonas/warwick/3dProfilometer/xpcc/src/xpcc/architecture/platform/cortex_m3/stm32/timer/timer_1.hpp **** #if defined(STM32F3XX)
 129:/home/jonas/warwick/3dProfilometer/xpcc/src/xpcc/architecture/platform/cortex_m3/stm32/timer/timer_1.hpp **** 			enum MasterMode2
 130:/home/jonas/warwick/3dProfilometer/xpcc/src/xpcc/architecture/platform/cortex_m3/stm32/timer/timer_1.hpp **** 			{
 131:/home/jonas/warwick/3dProfilometer/xpcc/src/xpcc/architecture/platform/cortex_m3/stm32/timer/timer_1.hpp **** 				MASTER2_RESET			= 0,							//0b0000
 132:/home/jonas/warwick/3dProfilometer/xpcc/src/xpcc/architecture/platform/cortex_m3/stm32/timer/timer_1.hpp **** 				MASTER2_ENABLE			= TIM_CR2_MMS2_0,				//0b0001
 133:/home/jonas/warwick/3dProfilometer/xpcc/src/xpcc/architecture/platform/cortex_m3/stm32/timer/timer_1.hpp **** 				MASTER2_UPDATE			= TIM_CR2_MMS2_1,				//0b0010
 134:/home/jonas/warwick/3dProfilometer/xpcc/src/xpcc/architecture/platform/cortex_m3/stm32/timer/timer_1.hpp **** 				MASTER2_COMPARE_PULSE	= TIM_CR2_MMS2_1				//0b0010
 135:/home/jonas/warwick/3dProfilometer/xpcc/src/xpcc/architecture/platform/cortex_m3/stm32/timer/timer_1.hpp **** 										| TIM_CR2_MMS2_0,
 136:/home/jonas/warwick/3dProfilometer/xpcc/src/xpcc/architecture/platform/cortex_m3/stm32/timer/timer_1.hpp **** 				MASTER2_COMPARE_OC1REF	= TIM_CR2_MMS2_2,				//0b0100
 137:/home/jonas/warwick/3dProfilometer/xpcc/src/xpcc/architecture/platform/cortex_m3/stm32/timer/timer_1.hpp **** 				MASTER2_COMPARE_OC2REF	= TIM_CR2_MMS2_2				//0b0101
 138:/home/jonas/warwick/3dProfilometer/xpcc/src/xpcc/architecture/platform/cortex_m3/stm32/timer/timer_1.hpp **** 										| TIM_CR2_MMS2_0,
 139:/home/jonas/warwick/3dProfilometer/xpcc/src/xpcc/architecture/platform/cortex_m3/stm32/timer/timer_1.hpp **** 				MASTER2_COMPARE_OC3REF	= TIM_CR2_MMS2_2				//0b0110
 140:/home/jonas/warwick/3dProfilometer/xpcc/src/xpcc/architecture/platform/cortex_m3/stm32/timer/timer_1.hpp **** 										| TIM_CR2_MMS2_1,
 141:/home/jonas/warwick/3dProfilometer/xpcc/src/xpcc/architecture/platform/cortex_m3/stm32/timer/timer_1.hpp **** 				MASTER2_COMPARE_OC4REF	= TIM_CR2_MMS2_2				//0b0111
 142:/home/jonas/warwick/3dProfilometer/xpcc/src/xpcc/architecture/platform/cortex_m3/stm32/timer/timer_1.hpp **** 										| TIM_CR2_MMS2_1 | TIM_CR2_MMS2_0,
 143:/home/jonas/warwick/3dProfilometer/xpcc/src/xpcc/architecture/platform/cortex_m3/stm32/timer/timer_1.hpp **** 				MASTER2_COMPARE_OC5REF	= TIM_CR2_MMS2_3,				//0b1000
 144:/home/jonas/warwick/3dProfilometer/xpcc/src/xpcc/architecture/platform/cortex_m3/stm32/timer/timer_1.hpp **** 				MASTER2_COMPARE_OC6REF	= TIM_CR2_MMS2_3				//0b1001
 145:/home/jonas/warwick/3dProfilometer/xpcc/src/xpcc/architecture/platform/cortex_m3/stm32/timer/timer_1.hpp **** 										| TIM_CR2_MMS2_0,
 146:/home/jonas/warwick/3dProfilometer/xpcc/src/xpcc/architecture/platform/cortex_m3/stm32/timer/timer_1.hpp **** 				// TODO: Add other Master Modes
 147:/home/jonas/warwick/3dProfilometer/xpcc/src/xpcc/architecture/platform/cortex_m3/stm32/timer/timer_1.hpp **** 			};
 148:/home/jonas/warwick/3dProfilometer/xpcc/src/xpcc/architecture/platform/cortex_m3/stm32/timer/timer_1.hpp **** #endif /* defined(STM32F3XX) */
 149:/home/jonas/warwick/3dProfilometer/xpcc/src/xpcc/architecture/platform/cortex_m3/stm32/timer/timer_1.hpp **** 
 150:/home/jonas/warwick/3dProfilometer/xpcc/src/xpcc/architecture/platform/cortex_m3/stm32/timer/timer_1.hpp **** 			enum SlaveModeTrigger
 151:/home/jonas/warwick/3dProfilometer/xpcc/src/xpcc/architecture/platform/cortex_m3/stm32/timer/timer_1.hpp **** 			{
 152:/home/jonas/warwick/3dProfilometer/xpcc/src/xpcc/architecture/platform/cortex_m3/stm32/timer/timer_1.hpp **** 				TRIGGER_INTERNAL_0 = 0,
 153:/home/jonas/warwick/3dProfilometer/xpcc/src/xpcc/architecture/platform/cortex_m3/stm32/timer/timer_1.hpp **** 				TRIGGER_INTERNAL_1 = TIM_SMCR_TS_0,
 154:/home/jonas/warwick/3dProfilometer/xpcc/src/xpcc/architecture/platform/cortex_m3/stm32/timer/timer_1.hpp **** 				TRIGGER_INTERNAL_2 = TIM_SMCR_TS_1,
 155:/home/jonas/warwick/3dProfilometer/xpcc/src/xpcc/architecture/platform/cortex_m3/stm32/timer/timer_1.hpp **** 				TRIGGER_INTERNAL_3 = TIM_SMCR_TS_1 | TIM_SMCR_TS_0,
 156:/home/jonas/warwick/3dProfilometer/xpcc/src/xpcc/architecture/platform/cortex_m3/stm32/timer/timer_1.hpp **** 				TRIGGER_TI1_EDGE_DETECTOR = TIM_SMCR_TS_2,
 157:/home/jonas/warwick/3dProfilometer/xpcc/src/xpcc/architecture/platform/cortex_m3/stm32/timer/timer_1.hpp **** 				TRIGGER_FILTERED_TI1 = TIM_SMCR_TS_2 | TIM_SMCR_TS_0,
 158:/home/jonas/warwick/3dProfilometer/xpcc/src/xpcc/architecture/platform/cortex_m3/stm32/timer/timer_1.hpp **** 				TRIGGER_FILTERED_TI2 = TIM_SMCR_TS_2 | TIM_SMCR_TS_1,
 159:/home/jonas/warwick/3dProfilometer/xpcc/src/xpcc/architecture/platform/cortex_m3/stm32/timer/timer_1.hpp **** 				TRIGGER_EXTERNAL = TIM_SMCR_TS_2 | TIM_SMCR_TS_1 | TIM_SMCR_TS_0,
 160:/home/jonas/warwick/3dProfilometer/xpcc/src/xpcc/architecture/platform/cortex_m3/stm32/timer/timer_1.hpp **** 			};
 161:/home/jonas/warwick/3dProfilometer/xpcc/src/xpcc/architecture/platform/cortex_m3/stm32/timer/timer_1.hpp **** 			
 162:/home/jonas/warwick/3dProfilometer/xpcc/src/xpcc/architecture/platform/cortex_m3/stm32/timer/timer_1.hpp **** 			enum SlaveMode
 163:/home/jonas/warwick/3dProfilometer/xpcc/src/xpcc/architecture/platform/cortex_m3/stm32/timer/timer_1.hpp **** 			{
 164:/home/jonas/warwick/3dProfilometer/xpcc/src/xpcc/architecture/platform/cortex_m3/stm32/timer/timer_1.hpp **** 				SLAVE_DISABLED	= 0, // Slave mode disabled - if CEN = '1' then the prescaler is clocked directl
 165:/home/jonas/warwick/3dProfilometer/xpcc/src/xpcc/architecture/platform/cortex_m3/stm32/timer/timer_1.hpp **** 				SLAVE_ENCODER_1	= TIM_SMCR_SMS_0, // Counter counts up/down on TI2FP2 edge depending on TI1FP1 
 166:/home/jonas/warwick/3dProfilometer/xpcc/src/xpcc/architecture/platform/cortex_m3/stm32/timer/timer_1.hpp **** 				SLAVE_ENCODER_2	= TIM_SMCR_SMS_1, // Counter counts up/down on TI1FP1 edge depending on TI2FP2 
 167:/home/jonas/warwick/3dProfilometer/xpcc/src/xpcc/architecture/platform/cortex_m3/stm32/timer/timer_1.hpp **** 				SLAVE_ENCODER_3	= TIM_SMCR_SMS_1 | TIM_SMCR_SMS_0, // Counter counts up/down on both TI1FP1 and
 168:/home/jonas/warwick/3dProfilometer/xpcc/src/xpcc/architecture/platform/cortex_m3/stm32/timer/timer_1.hpp **** 				SLAVE_RESET		= TIM_SMCR_SMS_2, // Rising edge of the selected trigger input (TRGI) reinitialize
 169:/home/jonas/warwick/3dProfilometer/xpcc/src/xpcc/architecture/platform/cortex_m3/stm32/timer/timer_1.hpp **** 				SLAVE_GATED		= TIM_SMCR_SMS_2 | TIM_SMCR_SMS_0, // The counter clock is enabled when the trigge
 170:/home/jonas/warwick/3dProfilometer/xpcc/src/xpcc/architecture/platform/cortex_m3/stm32/timer/timer_1.hpp **** 				SLAVE_TRIGGER	= TIM_SMCR_SMS_2 | TIM_SMCR_SMS_1, // The counter starts at a rising edge of the 
 171:/home/jonas/warwick/3dProfilometer/xpcc/src/xpcc/architecture/platform/cortex_m3/stm32/timer/timer_1.hpp **** 				SLAVE_EXTERNAL_CLOCK = TIM_SMCR_SMS_2 | TIM_SMCR_SMS_1 | TIM_SMCR_SMS_0, // Rising edges of the
 172:/home/jonas/warwick/3dProfilometer/xpcc/src/xpcc/architecture/platform/cortex_m3/stm32/timer/timer_1.hpp **** 			};
 173:/home/jonas/warwick/3dProfilometer/xpcc/src/xpcc/architecture/platform/cortex_m3/stm32/timer/timer_1.hpp **** 
 174:/home/jonas/warwick/3dProfilometer/xpcc/src/xpcc/architecture/platform/cortex_m3/stm32/timer/timer_1.hpp **** 			enum OffStateForRunMode
 175:/home/jonas/warwick/3dProfilometer/xpcc/src/xpcc/architecture/platform/cortex_m3/stm32/timer/timer_1.hpp **** 			{
 176:/home/jonas/warwick/3dProfilometer/xpcc/src/xpcc/architecture/platform/cortex_m3/stm32/timer/timer_1.hpp **** 				OSSR_DISABLE = 0,
 177:/home/jonas/warwick/3dProfilometer/xpcc/src/xpcc/architecture/platform/cortex_m3/stm32/timer/timer_1.hpp **** 				OSSR_ENABLE = TIM_BDTR_OSSR,
 178:/home/jonas/warwick/3dProfilometer/xpcc/src/xpcc/architecture/platform/cortex_m3/stm32/timer/timer_1.hpp **** 			};
 179:/home/jonas/warwick/3dProfilometer/xpcc/src/xpcc/architecture/platform/cortex_m3/stm32/timer/timer_1.hpp **** 
 180:/home/jonas/warwick/3dProfilometer/xpcc/src/xpcc/architecture/platform/cortex_m3/stm32/timer/timer_1.hpp **** 			enum OffStateForIdleMode
 181:/home/jonas/warwick/3dProfilometer/xpcc/src/xpcc/architecture/platform/cortex_m3/stm32/timer/timer_1.hpp **** 			{
 182:/home/jonas/warwick/3dProfilometer/xpcc/src/xpcc/architecture/platform/cortex_m3/stm32/timer/timer_1.hpp **** 				OSSI_DISABLE = 0,
 183:/home/jonas/warwick/3dProfilometer/xpcc/src/xpcc/architecture/platform/cortex_m3/stm32/timer/timer_1.hpp **** 				OSSI_ENABLE = TIM_BDTR_OSSI,
 184:/home/jonas/warwick/3dProfilometer/xpcc/src/xpcc/architecture/platform/cortex_m3/stm32/timer/timer_1.hpp **** 			};
 185:/home/jonas/warwick/3dProfilometer/xpcc/src/xpcc/architecture/platform/cortex_m3/stm32/timer/timer_1.hpp **** 
 186:/home/jonas/warwick/3dProfilometer/xpcc/src/xpcc/architecture/platform/cortex_m3/stm32/timer/timer_1.hpp **** 			enum OutputIdleState
 187:/home/jonas/warwick/3dProfilometer/xpcc/src/xpcc/architecture/platform/cortex_m3/stm32/timer/timer_1.hpp **** 			{
 188:/home/jonas/warwick/3dProfilometer/xpcc/src/xpcc/architecture/platform/cortex_m3/stm32/timer/timer_1.hpp **** 				IDLE_STATE_RESET = 0,
 189:/home/jonas/warwick/3dProfilometer/xpcc/src/xpcc/architecture/platform/cortex_m3/stm32/timer/timer_1.hpp **** 				IDLE_STATE_SET = TIM_CR2_OIS1,
 190:/home/jonas/warwick/3dProfilometer/xpcc/src/xpcc/architecture/platform/cortex_m3/stm32/timer/timer_1.hpp **** 			};
 191:/home/jonas/warwick/3dProfilometer/xpcc/src/xpcc/architecture/platform/cortex_m3/stm32/timer/timer_1.hpp **** 
 192:/home/jonas/warwick/3dProfilometer/xpcc/src/xpcc/architecture/platform/cortex_m3/stm32/timer/timer_1.hpp **** 			enum Event
 193:/home/jonas/warwick/3dProfilometer/xpcc/src/xpcc/architecture/platform/cortex_m3/stm32/timer/timer_1.hpp **** 			{
 194:/home/jonas/warwick/3dProfilometer/xpcc/src/xpcc/architecture/platform/cortex_m3/stm32/timer/timer_1.hpp **** 			#if defined(STM32F3XX)
 195:/home/jonas/warwick/3dProfilometer/xpcc/src/xpcc/architecture/platform/cortex_m3/stm32/timer/timer_1.hpp **** 				EVENT_BREAK_2 							= TIM_EGR_B2G,
 196:/home/jonas/warwick/3dProfilometer/xpcc/src/xpcc/architecture/platform/cortex_m3/stm32/timer/timer_1.hpp **** 			#endif
 197:/home/jonas/warwick/3dProfilometer/xpcc/src/xpcc/architecture/platform/cortex_m3/stm32/timer/timer_1.hpp **** 				EVENT_BREAK 							= TIM_EGR_BG,
 198:/home/jonas/warwick/3dProfilometer/xpcc/src/xpcc/architecture/platform/cortex_m3/stm32/timer/timer_1.hpp **** 				EVENT_TRIGGER 							= TIM_EGR_TG,
 199:/home/jonas/warwick/3dProfilometer/xpcc/src/xpcc/architecture/platform/cortex_m3/stm32/timer/timer_1.hpp **** 				EVENT_CAPTURE_COMPARE_CONTROL_UPDATE 	= TIM_EGR_COMG,
 200:/home/jonas/warwick/3dProfilometer/xpcc/src/xpcc/architecture/platform/cortex_m3/stm32/timer/timer_1.hpp **** 				EVENT_CAPTURE_COMPARE_4 				= TIM_EGR_CC4G,
 201:/home/jonas/warwick/3dProfilometer/xpcc/src/xpcc/architecture/platform/cortex_m3/stm32/timer/timer_1.hpp **** 				EVENT_CAPTURE_COMPARE_3 				= TIM_EGR_CC3G,
 202:/home/jonas/warwick/3dProfilometer/xpcc/src/xpcc/architecture/platform/cortex_m3/stm32/timer/timer_1.hpp **** 				EVENT_CAPTURE_COMPARE_2 				= TIM_EGR_CC2G,
 203:/home/jonas/warwick/3dProfilometer/xpcc/src/xpcc/architecture/platform/cortex_m3/stm32/timer/timer_1.hpp **** 				EVENT_CAPTURE_COMPARE_1 				= TIM_EGR_CC1G,
 204:/home/jonas/warwick/3dProfilometer/xpcc/src/xpcc/architecture/platform/cortex_m3/stm32/timer/timer_1.hpp **** 				EVENT_UPDATE 							= TIM_EGR_UG,
 205:/home/jonas/warwick/3dProfilometer/xpcc/src/xpcc/architecture/platform/cortex_m3/stm32/timer/timer_1.hpp **** 			};
 206:/home/jonas/warwick/3dProfilometer/xpcc/src/xpcc/architecture/platform/cortex_m3/stm32/timer/timer_1.hpp **** 
 207:/home/jonas/warwick/3dProfilometer/xpcc/src/xpcc/architecture/platform/cortex_m3/stm32/timer/timer_1.hpp **** 			
 208:/home/jonas/warwick/3dProfilometer/xpcc/src/xpcc/architecture/platform/cortex_m3/stm32/timer/timer_1.hpp **** 			static void
 209:/home/jonas/warwick/3dProfilometer/xpcc/src/xpcc/architecture/platform/cortex_m3/stm32/timer/timer_1.hpp **** 			enable();
 210:/home/jonas/warwick/3dProfilometer/xpcc/src/xpcc/architecture/platform/cortex_m3/stm32/timer/timer_1.hpp **** 			
 211:/home/jonas/warwick/3dProfilometer/xpcc/src/xpcc/architecture/platform/cortex_m3/stm32/timer/timer_1.hpp **** 			static void
 212:/home/jonas/warwick/3dProfilometer/xpcc/src/xpcc/architecture/platform/cortex_m3/stm32/timer/timer_1.hpp **** 			disable();
 213:/home/jonas/warwick/3dProfilometer/xpcc/src/xpcc/architecture/platform/cortex_m3/stm32/timer/timer_1.hpp **** 			
 214:/home/jonas/warwick/3dProfilometer/xpcc/src/xpcc/architecture/platform/cortex_m3/stm32/timer/timer_1.hpp **** 			static inline void
 215:/home/jonas/warwick/3dProfilometer/xpcc/src/xpcc/architecture/platform/cortex_m3/stm32/timer/timer_1.hpp **** 			pause()
 216:/home/jonas/warwick/3dProfilometer/xpcc/src/xpcc/architecture/platform/cortex_m3/stm32/timer/timer_1.hpp **** 			{
 217:/home/jonas/warwick/3dProfilometer/xpcc/src/xpcc/architecture/platform/cortex_m3/stm32/timer/timer_1.hpp **** 				TIM1->CR1 &= ~TIM_CR1_CEN;
  40              		.loc 2 217 0
  41 0002 124C     		ldr	r4, .L2
  42              	.LBE180:
  43              	.LBE179:
  44              	.LBB183:
  45              	.LBB184:
  46              		.file 3 "/home/jonas/warwick/3dProfilometer/xpcc/src/xpcc/architecture/platform/cortex_m3/stm32/ti
   1:/home/jonas/warwick/3dProfilometer/xpcc/src/xpcc/architecture/platform/cortex_m3/stm32/timer/timer_6.hpp **** // coding: utf-8
   2:/home/jonas/warwick/3dProfilometer/xpcc/src/xpcc/architecture/platform/cortex_m3/stm32/timer/timer_6.hpp **** // ----------------------------------------------------------------------------
   3:/home/jonas/warwick/3dProfilometer/xpcc/src/xpcc/architecture/platform/cortex_m3/stm32/timer/timer_6.hpp **** /* Copyright (c) 2011, Roboterclub Aachen e.V.
   4:/home/jonas/warwick/3dProfilometer/xpcc/src/xpcc/architecture/platform/cortex_m3/stm32/timer/timer_6.hpp ****  * All rights reserved.
   5:/home/jonas/warwick/3dProfilometer/xpcc/src/xpcc/architecture/platform/cortex_m3/stm32/timer/timer_6.hpp ****  *
   6:/home/jonas/warwick/3dProfilometer/xpcc/src/xpcc/architecture/platform/cortex_m3/stm32/timer/timer_6.hpp ****  * Redistribution and use in source and binary forms, with or without
   7:/home/jonas/warwick/3dProfilometer/xpcc/src/xpcc/architecture/platform/cortex_m3/stm32/timer/timer_6.hpp ****  * modification, are permitted provided that the following conditions are met:
   8:/home/jonas/warwick/3dProfilometer/xpcc/src/xpcc/architecture/platform/cortex_m3/stm32/timer/timer_6.hpp ****  * 
   9:/home/jonas/warwick/3dProfilometer/xpcc/src/xpcc/architecture/platform/cortex_m3/stm32/timer/timer_6.hpp ****  *     * Redistributions of source code must retain the above copyright
  10:/home/jonas/warwick/3dProfilometer/xpcc/src/xpcc/architecture/platform/cortex_m3/stm32/timer/timer_6.hpp ****  *       notice, this list of conditions and the following disclaimer.
  11:/home/jonas/warwick/3dProfilometer/xpcc/src/xpcc/architecture/platform/cortex_m3/stm32/timer/timer_6.hpp ****  *     * Redistributions in binary form must reproduce the above copyright
  12:/home/jonas/warwick/3dProfilometer/xpcc/src/xpcc/architecture/platform/cortex_m3/stm32/timer/timer_6.hpp ****  *       notice, this list of conditions and the following disclaimer in the
  13:/home/jonas/warwick/3dProfilometer/xpcc/src/xpcc/architecture/platform/cortex_m3/stm32/timer/timer_6.hpp ****  *       documentation and/or other materials provided with the distribution.
  14:/home/jonas/warwick/3dProfilometer/xpcc/src/xpcc/architecture/platform/cortex_m3/stm32/timer/timer_6.hpp ****  *     * Neither the name of the Roboterclub Aachen e.V. nor the
  15:/home/jonas/warwick/3dProfilometer/xpcc/src/xpcc/architecture/platform/cortex_m3/stm32/timer/timer_6.hpp ****  *       names of its contributors may be used to endorse or promote products
  16:/home/jonas/warwick/3dProfilometer/xpcc/src/xpcc/architecture/platform/cortex_m3/stm32/timer/timer_6.hpp ****  *       derived from this software without specific prior written permission.
  17:/home/jonas/warwick/3dProfilometer/xpcc/src/xpcc/architecture/platform/cortex_m3/stm32/timer/timer_6.hpp ****  *
  18:/home/jonas/warwick/3dProfilometer/xpcc/src/xpcc/architecture/platform/cortex_m3/stm32/timer/timer_6.hpp ****  * THIS SOFTWARE IS PROVIDED BY ROBOTERCLUB AACHEN E.V. ''AS IS'' AND ANY
  19:/home/jonas/warwick/3dProfilometer/xpcc/src/xpcc/architecture/platform/cortex_m3/stm32/timer/timer_6.hpp ****  * EXPRESS OR IMPLIED WARRANTIES, INCLUDING, BUT NOT LIMITED TO, THE IMPLIED
  20:/home/jonas/warwick/3dProfilometer/xpcc/src/xpcc/architecture/platform/cortex_m3/stm32/timer/timer_6.hpp ****  * WARRANTIES OF MERCHANTABILITY AND FITNESS FOR A PARTICULAR PURPOSE ARE
  21:/home/jonas/warwick/3dProfilometer/xpcc/src/xpcc/architecture/platform/cortex_m3/stm32/timer/timer_6.hpp ****  * DISCLAIMED. IN NO EVENT SHALL ROBOTERCLUB AACHEN E.V. BE LIABLE FOR ANY
  22:/home/jonas/warwick/3dProfilometer/xpcc/src/xpcc/architecture/platform/cortex_m3/stm32/timer/timer_6.hpp ****  * DIRECT, INDIRECT, INCIDENTAL, SPECIAL, EXEMPLARY, OR CONSEQUENTIAL DAMAGES
  23:/home/jonas/warwick/3dProfilometer/xpcc/src/xpcc/architecture/platform/cortex_m3/stm32/timer/timer_6.hpp ****  * (INCLUDING, BUT NOT LIMITED TO, PROCUREMENT OF SUBSTITUTE GOODS OR SERVICES;
  24:/home/jonas/warwick/3dProfilometer/xpcc/src/xpcc/architecture/platform/cortex_m3/stm32/timer/timer_6.hpp ****  * LOSS OF USE, DATA, OR PROFITS; OR BUSINESS INTERRUPTION) HOWEVER CAUSED AND
  25:/home/jonas/warwick/3dProfilometer/xpcc/src/xpcc/architecture/platform/cortex_m3/stm32/timer/timer_6.hpp ****  * ON ANY THEORY OF LIABILITY, WHETHER IN CONTRACT, STRICT LIABILITY, OR TORT
  26:/home/jonas/warwick/3dProfilometer/xpcc/src/xpcc/architecture/platform/cortex_m3/stm32/timer/timer_6.hpp ****  * (INCLUDING NEGLIGENCE OR OTHERWISE) ARISING IN ANY WAY OUT OF THE USE OF
  27:/home/jonas/warwick/3dProfilometer/xpcc/src/xpcc/architecture/platform/cortex_m3/stm32/timer/timer_6.hpp ****  * THIS SOFTWARE, EVEN IF ADVISED OF THE POSSIBILITY OF SUCH DAMAGE.
  28:/home/jonas/warwick/3dProfilometer/xpcc/src/xpcc/architecture/platform/cortex_m3/stm32/timer/timer_6.hpp ****  */
  29:/home/jonas/warwick/3dProfilometer/xpcc/src/xpcc/architecture/platform/cortex_m3/stm32/timer/timer_6.hpp **** // ----------------------------------------------------------------------------
  30:/home/jonas/warwick/3dProfilometer/xpcc/src/xpcc/architecture/platform/cortex_m3/stm32/timer/timer_6.hpp **** /*
  31:/home/jonas/warwick/3dProfilometer/xpcc/src/xpcc/architecture/platform/cortex_m3/stm32/timer/timer_6.hpp ****  * WARNING: This file is generated automatically, do not edit!
  32:/home/jonas/warwick/3dProfilometer/xpcc/src/xpcc/architecture/platform/cortex_m3/stm32/timer/timer_6.hpp ****  * Please modify the corresponding *.in file instead and rebuild this file. 
  33:/home/jonas/warwick/3dProfilometer/xpcc/src/xpcc/architecture/platform/cortex_m3/stm32/timer/timer_6.hpp ****  */
  34:/home/jonas/warwick/3dProfilometer/xpcc/src/xpcc/architecture/platform/cortex_m3/stm32/timer/timer_6.hpp **** // ----------------------------------------------------------------------------
  35:/home/jonas/warwick/3dProfilometer/xpcc/src/xpcc/architecture/platform/cortex_m3/stm32/timer/timer_6.hpp **** 
  36:/home/jonas/warwick/3dProfilometer/xpcc/src/xpcc/architecture/platform/cortex_m3/stm32/timer/timer_6.hpp **** #ifndef XPCC_STM32__TIMER_6_HPP
  37:/home/jonas/warwick/3dProfilometer/xpcc/src/xpcc/architecture/platform/cortex_m3/stm32/timer/timer_6.hpp **** #define XPCC_STM32__TIMER_6_HPP
  38:/home/jonas/warwick/3dProfilometer/xpcc/src/xpcc/architecture/platform/cortex_m3/stm32/timer/timer_6.hpp **** 
  39:/home/jonas/warwick/3dProfilometer/xpcc/src/xpcc/architecture/platform/cortex_m3/stm32/timer/timer_6.hpp **** #include "timer_base.hpp"
  40:/home/jonas/warwick/3dProfilometer/xpcc/src/xpcc/architecture/platform/cortex_m3/stm32/timer/timer_6.hpp **** 
  41:/home/jonas/warwick/3dProfilometer/xpcc/src/xpcc/architecture/platform/cortex_m3/stm32/timer/timer_6.hpp **** namespace xpcc
  42:/home/jonas/warwick/3dProfilometer/xpcc/src/xpcc/architecture/platform/cortex_m3/stm32/timer/timer_6.hpp **** {
  43:/home/jonas/warwick/3dProfilometer/xpcc/src/xpcc/architecture/platform/cortex_m3/stm32/timer/timer_6.hpp **** 	namespace stm32
  44:/home/jonas/warwick/3dProfilometer/xpcc/src/xpcc/architecture/platform/cortex_m3/stm32/timer/timer_6.hpp **** 	{
  45:/home/jonas/warwick/3dProfilometer/xpcc/src/xpcc/architecture/platform/cortex_m3/stm32/timer/timer_6.hpp **** 		/**
  46:/home/jonas/warwick/3dProfilometer/xpcc/src/xpcc/architecture/platform/cortex_m3/stm32/timer/timer_6.hpp **** 		 * @brief		Basic Timer 6
  47:/home/jonas/warwick/3dProfilometer/xpcc/src/xpcc/architecture/platform/cortex_m3/stm32/timer/timer_6.hpp **** 		 * 
  48:/home/jonas/warwick/3dProfilometer/xpcc/src/xpcc/architecture/platform/cortex_m3/stm32/timer/timer_6.hpp **** 		 * Interrupt handler:
  49:/home/jonas/warwick/3dProfilometer/xpcc/src/xpcc/architecture/platform/cortex_m3/stm32/timer/timer_6.hpp **** 		 * \code
  50:/home/jonas/warwick/3dProfilometer/xpcc/src/xpcc/architecture/platform/cortex_m3/stm32/timer/timer_6.hpp **** 		 * extern "C" void
  51:/home/jonas/warwick/3dProfilometer/xpcc/src/xpcc/architecture/platform/cortex_m3/stm32/timer/timer_6.hpp **** 		 * TIM6_IRQHandler(void)
  52:/home/jonas/warwick/3dProfilometer/xpcc/src/xpcc/architecture/platform/cortex_m3/stm32/timer/timer_6.hpp **** 		 * {
  53:/home/jonas/warwick/3dProfilometer/xpcc/src/xpcc/architecture/platform/cortex_m3/stm32/timer/timer_6.hpp **** 		 *     Timer6::resetInterruptFlags(Timer6::FLAG_UPDATE);
  54:/home/jonas/warwick/3dProfilometer/xpcc/src/xpcc/architecture/platform/cortex_m3/stm32/timer/timer_6.hpp **** 		 *     
  55:/home/jonas/warwick/3dProfilometer/xpcc/src/xpcc/architecture/platform/cortex_m3/stm32/timer/timer_6.hpp **** 		 *     ...
  56:/home/jonas/warwick/3dProfilometer/xpcc/src/xpcc/architecture/platform/cortex_m3/stm32/timer/timer_6.hpp **** 		 * }
  57:/home/jonas/warwick/3dProfilometer/xpcc/src/xpcc/architecture/platform/cortex_m3/stm32/timer/timer_6.hpp **** 		 * \endcode
  58:/home/jonas/warwick/3dProfilometer/xpcc/src/xpcc/architecture/platform/cortex_m3/stm32/timer/timer_6.hpp **** 		 * 
  59:/home/jonas/warwick/3dProfilometer/xpcc/src/xpcc/architecture/platform/cortex_m3/stm32/timer/timer_6.hpp **** 		 * For the STM32F2xx and STM32F4xx:
  60:/home/jonas/warwick/3dProfilometer/xpcc/src/xpcc/architecture/platform/cortex_m3/stm32/timer/timer_6.hpp **** 		 * \code
  61:/home/jonas/warwick/3dProfilometer/xpcc/src/xpcc/architecture/platform/cortex_m3/stm32/timer/timer_6.hpp **** 		 * extern "C" void
  62:/home/jonas/warwick/3dProfilometer/xpcc/src/xpcc/architecture/platform/cortex_m3/stm32/timer/timer_6.hpp **** 		 * TIM6_DAC_IRQHandler(void)
  63:/home/jonas/warwick/3dProfilometer/xpcc/src/xpcc/architecture/platform/cortex_m3/stm32/timer/timer_6.hpp **** 		 * {
  64:/home/jonas/warwick/3dProfilometer/xpcc/src/xpcc/architecture/platform/cortex_m3/stm32/timer/timer_6.hpp **** 		 *     Timer6::resetInterruptFlags(Timer6::FLAG_UPDATE);
  65:/home/jonas/warwick/3dProfilometer/xpcc/src/xpcc/architecture/platform/cortex_m3/stm32/timer/timer_6.hpp **** 		 *     
  66:/home/jonas/warwick/3dProfilometer/xpcc/src/xpcc/architecture/platform/cortex_m3/stm32/timer/timer_6.hpp **** 		 *     ...
  67:/home/jonas/warwick/3dProfilometer/xpcc/src/xpcc/architecture/platform/cortex_m3/stm32/timer/timer_6.hpp **** 		 * }
  68:/home/jonas/warwick/3dProfilometer/xpcc/src/xpcc/architecture/platform/cortex_m3/stm32/timer/timer_6.hpp **** 		 * \endcode
  69:/home/jonas/warwick/3dProfilometer/xpcc/src/xpcc/architecture/platform/cortex_m3/stm32/timer/timer_6.hpp **** 		 * 
  70:/home/jonas/warwick/3dProfilometer/xpcc/src/xpcc/architecture/platform/cortex_m3/stm32/timer/timer_6.hpp **** 		 * @author		Fabian Greif
  71:/home/jonas/warwick/3dProfilometer/xpcc/src/xpcc/architecture/platform/cortex_m3/stm32/timer/timer_6.hpp **** 		 * @ingroup		stm32
  72:/home/jonas/warwick/3dProfilometer/xpcc/src/xpcc/architecture/platform/cortex_m3/stm32/timer/timer_6.hpp **** 		 */
  73:/home/jonas/warwick/3dProfilometer/xpcc/src/xpcc/architecture/platform/cortex_m3/stm32/timer/timer_6.hpp **** 		class Timer6 : public BasicTimer
  74:/home/jonas/warwick/3dProfilometer/xpcc/src/xpcc/architecture/platform/cortex_m3/stm32/timer/timer_6.hpp **** 		{
  75:/home/jonas/warwick/3dProfilometer/xpcc/src/xpcc/architecture/platform/cortex_m3/stm32/timer/timer_6.hpp **** 		public:
  76:/home/jonas/warwick/3dProfilometer/xpcc/src/xpcc/architecture/platform/cortex_m3/stm32/timer/timer_6.hpp **** 			static void
  77:/home/jonas/warwick/3dProfilometer/xpcc/src/xpcc/architecture/platform/cortex_m3/stm32/timer/timer_6.hpp **** 			enable();
  78:/home/jonas/warwick/3dProfilometer/xpcc/src/xpcc/architecture/platform/cortex_m3/stm32/timer/timer_6.hpp **** 			
  79:/home/jonas/warwick/3dProfilometer/xpcc/src/xpcc/architecture/platform/cortex_m3/stm32/timer/timer_6.hpp **** 			static void
  80:/home/jonas/warwick/3dProfilometer/xpcc/src/xpcc/architecture/platform/cortex_m3/stm32/timer/timer_6.hpp **** 			disable();
  81:/home/jonas/warwick/3dProfilometer/xpcc/src/xpcc/architecture/platform/cortex_m3/stm32/timer/timer_6.hpp **** 			
  82:/home/jonas/warwick/3dProfilometer/xpcc/src/xpcc/architecture/platform/cortex_m3/stm32/timer/timer_6.hpp **** 			static inline void
  83:/home/jonas/warwick/3dProfilometer/xpcc/src/xpcc/architecture/platform/cortex_m3/stm32/timer/timer_6.hpp **** 			pause()
  84:/home/jonas/warwick/3dProfilometer/xpcc/src/xpcc/architecture/platform/cortex_m3/stm32/timer/timer_6.hpp **** 			{
  85:/home/jonas/warwick/3dProfilometer/xpcc/src/xpcc/architecture/platform/cortex_m3/stm32/timer/timer_6.hpp **** 				TIM6->CR1 &= ~TIM_CR1_CEN;
  47              		.loc 3 85 0
  48 0004 1248     		ldr	r0, .L2+4
  49              	.LBE184:
  50              	.LBE183:
  51              	.LBB186:
  52              	.LBB181:
  53              		.loc 2 217 0
  54 0006 2388     		ldrh	r3, [r4, #0]
  55              	.LBE181:
  56              	.LBE186:
  57              	.LBB187:
  58              	.LBB188:
  59              		.file 4 "/home/jonas/warwick/3dProfilometer/xpcc/src/xpcc/architecture/platform/cortex_m3/stm32/ti
   1:/home/jonas/warwick/3dProfilometer/xpcc/src/xpcc/architecture/platform/cortex_m3/stm32/timer/timer_7.hpp **** // coding: utf-8
   2:/home/jonas/warwick/3dProfilometer/xpcc/src/xpcc/architecture/platform/cortex_m3/stm32/timer/timer_7.hpp **** // ----------------------------------------------------------------------------
   3:/home/jonas/warwick/3dProfilometer/xpcc/src/xpcc/architecture/platform/cortex_m3/stm32/timer/timer_7.hpp **** /* Copyright (c) 2011, Roboterclub Aachen e.V.
   4:/home/jonas/warwick/3dProfilometer/xpcc/src/xpcc/architecture/platform/cortex_m3/stm32/timer/timer_7.hpp ****  * All rights reserved.
   5:/home/jonas/warwick/3dProfilometer/xpcc/src/xpcc/architecture/platform/cortex_m3/stm32/timer/timer_7.hpp ****  *
   6:/home/jonas/warwick/3dProfilometer/xpcc/src/xpcc/architecture/platform/cortex_m3/stm32/timer/timer_7.hpp ****  * Redistribution and use in source and binary forms, with or without
   7:/home/jonas/warwick/3dProfilometer/xpcc/src/xpcc/architecture/platform/cortex_m3/stm32/timer/timer_7.hpp ****  * modification, are permitted provided that the following conditions are met:
   8:/home/jonas/warwick/3dProfilometer/xpcc/src/xpcc/architecture/platform/cortex_m3/stm32/timer/timer_7.hpp ****  * 
   9:/home/jonas/warwick/3dProfilometer/xpcc/src/xpcc/architecture/platform/cortex_m3/stm32/timer/timer_7.hpp ****  *     * Redistributions of source code must retain the above copyright
  10:/home/jonas/warwick/3dProfilometer/xpcc/src/xpcc/architecture/platform/cortex_m3/stm32/timer/timer_7.hpp ****  *       notice, this list of conditions and the following disclaimer.
  11:/home/jonas/warwick/3dProfilometer/xpcc/src/xpcc/architecture/platform/cortex_m3/stm32/timer/timer_7.hpp ****  *     * Redistributions in binary form must reproduce the above copyright
  12:/home/jonas/warwick/3dProfilometer/xpcc/src/xpcc/architecture/platform/cortex_m3/stm32/timer/timer_7.hpp ****  *       notice, this list of conditions and the following disclaimer in the
  13:/home/jonas/warwick/3dProfilometer/xpcc/src/xpcc/architecture/platform/cortex_m3/stm32/timer/timer_7.hpp ****  *       documentation and/or other materials provided with the distribution.
  14:/home/jonas/warwick/3dProfilometer/xpcc/src/xpcc/architecture/platform/cortex_m3/stm32/timer/timer_7.hpp ****  *     * Neither the name of the Roboterclub Aachen e.V. nor the
  15:/home/jonas/warwick/3dProfilometer/xpcc/src/xpcc/architecture/platform/cortex_m3/stm32/timer/timer_7.hpp ****  *       names of its contributors may be used to endorse or promote products
  16:/home/jonas/warwick/3dProfilometer/xpcc/src/xpcc/architecture/platform/cortex_m3/stm32/timer/timer_7.hpp ****  *       derived from this software without specific prior written permission.
  17:/home/jonas/warwick/3dProfilometer/xpcc/src/xpcc/architecture/platform/cortex_m3/stm32/timer/timer_7.hpp ****  *
  18:/home/jonas/warwick/3dProfilometer/xpcc/src/xpcc/architecture/platform/cortex_m3/stm32/timer/timer_7.hpp ****  * THIS SOFTWARE IS PROVIDED BY ROBOTERCLUB AACHEN E.V. ''AS IS'' AND ANY
  19:/home/jonas/warwick/3dProfilometer/xpcc/src/xpcc/architecture/platform/cortex_m3/stm32/timer/timer_7.hpp ****  * EXPRESS OR IMPLIED WARRANTIES, INCLUDING, BUT NOT LIMITED TO, THE IMPLIED
  20:/home/jonas/warwick/3dProfilometer/xpcc/src/xpcc/architecture/platform/cortex_m3/stm32/timer/timer_7.hpp ****  * WARRANTIES OF MERCHANTABILITY AND FITNESS FOR A PARTICULAR PURPOSE ARE
  21:/home/jonas/warwick/3dProfilometer/xpcc/src/xpcc/architecture/platform/cortex_m3/stm32/timer/timer_7.hpp ****  * DISCLAIMED. IN NO EVENT SHALL ROBOTERCLUB AACHEN E.V. BE LIABLE FOR ANY
  22:/home/jonas/warwick/3dProfilometer/xpcc/src/xpcc/architecture/platform/cortex_m3/stm32/timer/timer_7.hpp ****  * DIRECT, INDIRECT, INCIDENTAL, SPECIAL, EXEMPLARY, OR CONSEQUENTIAL DAMAGES
  23:/home/jonas/warwick/3dProfilometer/xpcc/src/xpcc/architecture/platform/cortex_m3/stm32/timer/timer_7.hpp ****  * (INCLUDING, BUT NOT LIMITED TO, PROCUREMENT OF SUBSTITUTE GOODS OR SERVICES;
  24:/home/jonas/warwick/3dProfilometer/xpcc/src/xpcc/architecture/platform/cortex_m3/stm32/timer/timer_7.hpp ****  * LOSS OF USE, DATA, OR PROFITS; OR BUSINESS INTERRUPTION) HOWEVER CAUSED AND
  25:/home/jonas/warwick/3dProfilometer/xpcc/src/xpcc/architecture/platform/cortex_m3/stm32/timer/timer_7.hpp ****  * ON ANY THEORY OF LIABILITY, WHETHER IN CONTRACT, STRICT LIABILITY, OR TORT
  26:/home/jonas/warwick/3dProfilometer/xpcc/src/xpcc/architecture/platform/cortex_m3/stm32/timer/timer_7.hpp ****  * (INCLUDING NEGLIGENCE OR OTHERWISE) ARISING IN ANY WAY OUT OF THE USE OF
  27:/home/jonas/warwick/3dProfilometer/xpcc/src/xpcc/architecture/platform/cortex_m3/stm32/timer/timer_7.hpp ****  * THIS SOFTWARE, EVEN IF ADVISED OF THE POSSIBILITY OF SUCH DAMAGE.
  28:/home/jonas/warwick/3dProfilometer/xpcc/src/xpcc/architecture/platform/cortex_m3/stm32/timer/timer_7.hpp ****  */
  29:/home/jonas/warwick/3dProfilometer/xpcc/src/xpcc/architecture/platform/cortex_m3/stm32/timer/timer_7.hpp **** // ----------------------------------------------------------------------------
  30:/home/jonas/warwick/3dProfilometer/xpcc/src/xpcc/architecture/platform/cortex_m3/stm32/timer/timer_7.hpp **** /*
  31:/home/jonas/warwick/3dProfilometer/xpcc/src/xpcc/architecture/platform/cortex_m3/stm32/timer/timer_7.hpp ****  * WARNING: This file is generated automatically, do not edit!
  32:/home/jonas/warwick/3dProfilometer/xpcc/src/xpcc/architecture/platform/cortex_m3/stm32/timer/timer_7.hpp ****  * Please modify the corresponding *.in file instead and rebuild this file. 
  33:/home/jonas/warwick/3dProfilometer/xpcc/src/xpcc/architecture/platform/cortex_m3/stm32/timer/timer_7.hpp ****  */
  34:/home/jonas/warwick/3dProfilometer/xpcc/src/xpcc/architecture/platform/cortex_m3/stm32/timer/timer_7.hpp **** // ----------------------------------------------------------------------------
  35:/home/jonas/warwick/3dProfilometer/xpcc/src/xpcc/architecture/platform/cortex_m3/stm32/timer/timer_7.hpp **** 
  36:/home/jonas/warwick/3dProfilometer/xpcc/src/xpcc/architecture/platform/cortex_m3/stm32/timer/timer_7.hpp **** #ifndef XPCC_STM32__TIMER_7_HPP
  37:/home/jonas/warwick/3dProfilometer/xpcc/src/xpcc/architecture/platform/cortex_m3/stm32/timer/timer_7.hpp **** #define XPCC_STM32__TIMER_7_HPP
  38:/home/jonas/warwick/3dProfilometer/xpcc/src/xpcc/architecture/platform/cortex_m3/stm32/timer/timer_7.hpp **** 
  39:/home/jonas/warwick/3dProfilometer/xpcc/src/xpcc/architecture/platform/cortex_m3/stm32/timer/timer_7.hpp **** #include "timer_base.hpp"
  40:/home/jonas/warwick/3dProfilometer/xpcc/src/xpcc/architecture/platform/cortex_m3/stm32/timer/timer_7.hpp **** 
  41:/home/jonas/warwick/3dProfilometer/xpcc/src/xpcc/architecture/platform/cortex_m3/stm32/timer/timer_7.hpp **** namespace xpcc
  42:/home/jonas/warwick/3dProfilometer/xpcc/src/xpcc/architecture/platform/cortex_m3/stm32/timer/timer_7.hpp **** {
  43:/home/jonas/warwick/3dProfilometer/xpcc/src/xpcc/architecture/platform/cortex_m3/stm32/timer/timer_7.hpp **** 	namespace stm32
  44:/home/jonas/warwick/3dProfilometer/xpcc/src/xpcc/architecture/platform/cortex_m3/stm32/timer/timer_7.hpp **** 	{
  45:/home/jonas/warwick/3dProfilometer/xpcc/src/xpcc/architecture/platform/cortex_m3/stm32/timer/timer_7.hpp **** 		/**
  46:/home/jonas/warwick/3dProfilometer/xpcc/src/xpcc/architecture/platform/cortex_m3/stm32/timer/timer_7.hpp **** 		 * @brief		Basic Timer 7
  47:/home/jonas/warwick/3dProfilometer/xpcc/src/xpcc/architecture/platform/cortex_m3/stm32/timer/timer_7.hpp **** 		 * 
  48:/home/jonas/warwick/3dProfilometer/xpcc/src/xpcc/architecture/platform/cortex_m3/stm32/timer/timer_7.hpp **** 		 * Interrupt handler:
  49:/home/jonas/warwick/3dProfilometer/xpcc/src/xpcc/architecture/platform/cortex_m3/stm32/timer/timer_7.hpp **** 		 * \code
  50:/home/jonas/warwick/3dProfilometer/xpcc/src/xpcc/architecture/platform/cortex_m3/stm32/timer/timer_7.hpp **** 		 * extern "C" void
  51:/home/jonas/warwick/3dProfilometer/xpcc/src/xpcc/architecture/platform/cortex_m3/stm32/timer/timer_7.hpp **** 		 * TIM7_IRQHandler(void)
  52:/home/jonas/warwick/3dProfilometer/xpcc/src/xpcc/architecture/platform/cortex_m3/stm32/timer/timer_7.hpp **** 		 * {
  53:/home/jonas/warwick/3dProfilometer/xpcc/src/xpcc/architecture/platform/cortex_m3/stm32/timer/timer_7.hpp **** 		 *     Timer7::resetInterruptFlags(Timer7::FLAG_UPDATE);
  54:/home/jonas/warwick/3dProfilometer/xpcc/src/xpcc/architecture/platform/cortex_m3/stm32/timer/timer_7.hpp **** 		 *     
  55:/home/jonas/warwick/3dProfilometer/xpcc/src/xpcc/architecture/platform/cortex_m3/stm32/timer/timer_7.hpp **** 		 *     ...
  56:/home/jonas/warwick/3dProfilometer/xpcc/src/xpcc/architecture/platform/cortex_m3/stm32/timer/timer_7.hpp **** 		 * }
  57:/home/jonas/warwick/3dProfilometer/xpcc/src/xpcc/architecture/platform/cortex_m3/stm32/timer/timer_7.hpp **** 		 * \endcode
  58:/home/jonas/warwick/3dProfilometer/xpcc/src/xpcc/architecture/platform/cortex_m3/stm32/timer/timer_7.hpp **** 		 * 
  59:/home/jonas/warwick/3dProfilometer/xpcc/src/xpcc/architecture/platform/cortex_m3/stm32/timer/timer_7.hpp **** 		 
  60:/home/jonas/warwick/3dProfilometer/xpcc/src/xpcc/architecture/platform/cortex_m3/stm32/timer/timer_7.hpp **** 		 * 
  61:/home/jonas/warwick/3dProfilometer/xpcc/src/xpcc/architecture/platform/cortex_m3/stm32/timer/timer_7.hpp **** 		 * @author		Fabian Greif
  62:/home/jonas/warwick/3dProfilometer/xpcc/src/xpcc/architecture/platform/cortex_m3/stm32/timer/timer_7.hpp **** 		 * @ingroup		stm32
  63:/home/jonas/warwick/3dProfilometer/xpcc/src/xpcc/architecture/platform/cortex_m3/stm32/timer/timer_7.hpp **** 		 */
  64:/home/jonas/warwick/3dProfilometer/xpcc/src/xpcc/architecture/platform/cortex_m3/stm32/timer/timer_7.hpp **** 		class Timer7 : public BasicTimer
  65:/home/jonas/warwick/3dProfilometer/xpcc/src/xpcc/architecture/platform/cortex_m3/stm32/timer/timer_7.hpp **** 		{
  66:/home/jonas/warwick/3dProfilometer/xpcc/src/xpcc/architecture/platform/cortex_m3/stm32/timer/timer_7.hpp **** 		public:
  67:/home/jonas/warwick/3dProfilometer/xpcc/src/xpcc/architecture/platform/cortex_m3/stm32/timer/timer_7.hpp **** 			static void
  68:/home/jonas/warwick/3dProfilometer/xpcc/src/xpcc/architecture/platform/cortex_m3/stm32/timer/timer_7.hpp **** 			enable();
  69:/home/jonas/warwick/3dProfilometer/xpcc/src/xpcc/architecture/platform/cortex_m3/stm32/timer/timer_7.hpp **** 			
  70:/home/jonas/warwick/3dProfilometer/xpcc/src/xpcc/architecture/platform/cortex_m3/stm32/timer/timer_7.hpp **** 			static void
  71:/home/jonas/warwick/3dProfilometer/xpcc/src/xpcc/architecture/platform/cortex_m3/stm32/timer/timer_7.hpp **** 			disable();
  72:/home/jonas/warwick/3dProfilometer/xpcc/src/xpcc/architecture/platform/cortex_m3/stm32/timer/timer_7.hpp **** 			
  73:/home/jonas/warwick/3dProfilometer/xpcc/src/xpcc/architecture/platform/cortex_m3/stm32/timer/timer_7.hpp **** 			static inline void
  74:/home/jonas/warwick/3dProfilometer/xpcc/src/xpcc/architecture/platform/cortex_m3/stm32/timer/timer_7.hpp **** 			pause()
  75:/home/jonas/warwick/3dProfilometer/xpcc/src/xpcc/architecture/platform/cortex_m3/stm32/timer/timer_7.hpp **** 			{
  76:/home/jonas/warwick/3dProfilometer/xpcc/src/xpcc/architecture/platform/cortex_m3/stm32/timer/timer_7.hpp **** 				TIM7->CR1 &= ~TIM_CR1_CEN;
  60              		.loc 4 76 0
  61 0008 1249     		ldr	r1, .L2+8
  62              	.LBE188:
  63              	.LBE187:
  64              	.LBB190:
  65              	.LBB191:
  66              	.LBB192:
  16:state.cpp     **** GPIO__OUTPUT(ledRed, D, 14);
  67              		.loc 1 16 0
  68 000a 134A     		ldr	r2, .L2+12
  69              	.LBE192:
  70              	.LBE191:
  71              	.LBE190:
  72              	.LBB195:
  73              	.LBB182:
  74              		.loc 2 217 0
  75 000c 23F00103 		bic	r3, r3, #1
  76 0010 1B04     		lsls	r3, r3, #16
  77 0012 1B0C     		lsrs	r3, r3, #16
  78 0014 2380     		strh	r3, [r4, #0]	@ movhi
  79              	.LBE182:
  80              	.LBE195:
  81              	.LBB196:
  82              	.LBB185:
  83              		.loc 3 85 0
  84 0016 0388     		ldrh	r3, [r0, #0]
  85 0018 23F00103 		bic	r3, r3, #1
  86 001c 1B04     		lsls	r3, r3, #16
  87 001e 1B0C     		lsrs	r3, r3, #16
  88 0020 0380     		strh	r3, [r0, #0]	@ movhi
  89              	.LBE185:
  90              	.LBE196:
  91              	.LBB197:
  92              	.LBB189:
  93              		.loc 4 76 0
  94 0022 0B88     		ldrh	r3, [r1, #0]
  95 0024 23F00103 		bic	r3, r3, #1
  96 0028 1B04     		lsls	r3, r3, #16
  97 002a 1B0C     		lsrs	r3, r3, #16
  98 002c 0B80     		strh	r3, [r1, #0]	@ movhi
  99              	.LVL0:
 100              	.LBE189:
 101              	.LBE197:
 102              	.LBB198:
 103              	.LBB194:
 104              	.LBB193:
  16:state.cpp     **** GPIO__OUTPUT(ledRed, D, 14);
 105              		.loc 1 16 0
 106 002e 4FF48043 		mov	r3, #16384
 107 0032 5383     		strh	r3, [r2, #26]	@ movhi
 108              	.LVL1:
 109              	.LBE193:
 110              	.LBE194:
 111              	.LBE198:
 112              	.LBB199:
 113              	.LBB200:
 114              	.LBB201:
  17:state.cpp     **** GPIO__OUTPUT(ledBlue, D, 15);
 115              		.loc 1 17 0
 116 0034 4FF40043 		mov	r3, #32768
 117 0038 5383     		strh	r3, [r2, #26]	@ movhi
 118              	.LVL2:
 119              	.LBE201:
 120              	.LBE200:
 121              	.LBE199:
 122              	.LBB202:
 123              	.LBB203:
 124              	.LBB204:
  18:state.cpp     **** GPIO__OUTPUT(ledOrange, D, 13);
 125              		.loc 1 18 0
 126 003a 4FF40053 		mov	r3, #8192
 127 003e 5383     		strh	r3, [r2, #26]	@ movhi
 128              	.LVL3:
 129              	.LBE204:
 130              	.LBE203:
 131              	.LBE202:
 132              	.LBB205:
 133              	.LBB206:
 134              	.LBB207:
  19:state.cpp     **** GPIO__OUTPUT(ledGreen, D, 12);
 135              		.loc 1 19 0
 136 0040 4FF48053 		mov	r3, #4096
 137 0044 5383     		strh	r3, [r2, #26]	@ movhi
 138              	.LBE207:
 139              	.LBE206:
 140              	.LBE205:
  25:state.cpp     **** 
  26:state.cpp     **** 	//disable timers
  27:state.cpp     **** 	Timer1::pause();
  28:state.cpp     **** 	Timer6::pause();
  29:state.cpp     **** 	Timer7::pause();
  30:state.cpp     **** 
  31:state.cpp     **** 	ledRed::set(false);
  32:state.cpp     **** 	ledBlue::set(false);
  33:state.cpp     **** 	ledOrange::set(false);
  34:state.cpp     **** 	ledGreen::set(false);
  35:state.cpp     **** }
 141              		.loc 1 35 0
 142 0046 10BC     		pop	{r4}
 143 0048 7047     		bx	lr
 144              	.L3:
 145 004a 00BF     		.align	2
 146              	.L2:
 147 004c 00000140 		.word	1073807360
 148 0050 00100040 		.word	1073745920
 149 0054 00140040 		.word	1073746944
 150 0058 000C0240 		.word	1073875968
 151              		.cfi_endproc
 152              	.LFE862:
 154              		.section	.text._ZN5State4initEv,"ax",%progbits
 155              		.align	2
 156              		.global	_ZN5State4initEv
 157              		.thumb
 158              		.thumb_func
 160              	_ZN5State4initEv:
 161              	.LFB863:
  36:state.cpp     **** 
  37:state.cpp     **** void State::init(){
 162              		.loc 1 37 0
 163              		.cfi_startproc
 164              		@ args = 0, pretend = 0, frame = 0
 165              		@ frame_needed = 0, uses_anonymous_args = 0
 166              	.LVL4:
 167 0000 2DE9F041 		push	{r4, r5, r6, r7, r8, lr}
 168              	.LCFI1:
 169              		.cfi_def_cfa_offset 24
 170              		.cfi_offset 4, -24
 171              		.cfi_offset 5, -20
 172              		.cfi_offset 6, -16
 173              		.cfi_offset 7, -12
 174              		.cfi_offset 8, -8
 175              		.cfi_offset 14, -4
 176              	.LBB263:
 177              	.LBB264:
  16:state.cpp     **** GPIO__OUTPUT(ledRed, D, 14);
 178              		.loc 1 16 0
 179 0004 6F4C     		ldr	r4, .L14
 180              	.LBE264:
 181              	.LBE263:
 182              	.LBB267:
 183              	.LBB268:
 218:/home/jonas/warwick/3dProfilometer/xpcc/src/xpcc/architecture/platform/cortex_m3/stm32/timer/timer_1.hpp **** 			}
 219:/home/jonas/warwick/3dProfilometer/xpcc/src/xpcc/architecture/platform/cortex_m3/stm32/timer/timer_1.hpp **** 			
 220:/home/jonas/warwick/3dProfilometer/xpcc/src/xpcc/architecture/platform/cortex_m3/stm32/timer/timer_1.hpp **** 			static inline void
 221:/home/jonas/warwick/3dProfilometer/xpcc/src/xpcc/architecture/platform/cortex_m3/stm32/timer/timer_1.hpp **** 			start()
 222:/home/jonas/warwick/3dProfilometer/xpcc/src/xpcc/architecture/platform/cortex_m3/stm32/timer/timer_1.hpp **** 			{
 223:/home/jonas/warwick/3dProfilometer/xpcc/src/xpcc/architecture/platform/cortex_m3/stm32/timer/timer_1.hpp **** 				TIM1->CR1 |= TIM_CR1_CEN;
 224:/home/jonas/warwick/3dProfilometer/xpcc/src/xpcc/architecture/platform/cortex_m3/stm32/timer/timer_1.hpp **** 			}
 225:/home/jonas/warwick/3dProfilometer/xpcc/src/xpcc/architecture/platform/cortex_m3/stm32/timer/timer_1.hpp **** 			
 226:/home/jonas/warwick/3dProfilometer/xpcc/src/xpcc/architecture/platform/cortex_m3/stm32/timer/timer_1.hpp **** 			static void
 227:/home/jonas/warwick/3dProfilometer/xpcc/src/xpcc/architecture/platform/cortex_m3/stm32/timer/timer_1.hpp **** 			setMode(Mode mode,
 228:/home/jonas/warwick/3dProfilometer/xpcc/src/xpcc/architecture/platform/cortex_m3/stm32/timer/timer_1.hpp **** 					SlaveMode slaveMode = SLAVE_DISABLED,
 229:/home/jonas/warwick/3dProfilometer/xpcc/src/xpcc/architecture/platform/cortex_m3/stm32/timer/timer_1.hpp **** 					SlaveModeTrigger slaveModeTrigger = TRIGGER_INTERNAL_0,
 230:/home/jonas/warwick/3dProfilometer/xpcc/src/xpcc/architecture/platform/cortex_m3/stm32/timer/timer_1.hpp **** 					MasterMode masterMode = MASTER_RESET
 231:/home/jonas/warwick/3dProfilometer/xpcc/src/xpcc/architecture/platform/cortex_m3/stm32/timer/timer_1.hpp **** #if defined(STM32F3XX)
 232:/home/jonas/warwick/3dProfilometer/xpcc/src/xpcc/architecture/platform/cortex_m3/stm32/timer/timer_1.hpp **** 					, MasterMode2 masterMode2 = MASTER2_RESET
 233:/home/jonas/warwick/3dProfilometer/xpcc/src/xpcc/architecture/platform/cortex_m3/stm32/timer/timer_1.hpp **** #endif /* defined(STM32F3XX) */
 234:/home/jonas/warwick/3dProfilometer/xpcc/src/xpcc/architecture/platform/cortex_m3/stm32/timer/timer_1.hpp **** 					);
 235:/home/jonas/warwick/3dProfilometer/xpcc/src/xpcc/architecture/platform/cortex_m3/stm32/timer/timer_1.hpp **** 
 236:/home/jonas/warwick/3dProfilometer/xpcc/src/xpcc/architecture/platform/cortex_m3/stm32/timer/timer_1.hpp **** 			static inline void
 237:/home/jonas/warwick/3dProfilometer/xpcc/src/xpcc/architecture/platform/cortex_m3/stm32/timer/timer_1.hpp **** 			setCaptureCompareControlUpdate(CaptureCompareControlUpdate update)
 238:/home/jonas/warwick/3dProfilometer/xpcc/src/xpcc/architecture/platform/cortex_m3/stm32/timer/timer_1.hpp **** 			{
 239:/home/jonas/warwick/3dProfilometer/xpcc/src/xpcc/architecture/platform/cortex_m3/stm32/timer/timer_1.hpp **** 				TIM1->CR2 =  (TIM1->CR2 & ~TIM_CR2_CCUS)
 240:/home/jonas/warwick/3dProfilometer/xpcc/src/xpcc/architecture/platform/cortex_m3/stm32/timer/timer_1.hpp **** 									| update;
 241:/home/jonas/warwick/3dProfilometer/xpcc/src/xpcc/architecture/platform/cortex_m3/stm32/timer/timer_1.hpp **** 			};
 242:/home/jonas/warwick/3dProfilometer/xpcc/src/xpcc/architecture/platform/cortex_m3/stm32/timer/timer_1.hpp **** 
 243:/home/jonas/warwick/3dProfilometer/xpcc/src/xpcc/architecture/platform/cortex_m3/stm32/timer/timer_1.hpp **** 
 244:/home/jonas/warwick/3dProfilometer/xpcc/src/xpcc/architecture/platform/cortex_m3/stm32/timer/timer_1.hpp **** 			/*
 245:/home/jonas/warwick/3dProfilometer/xpcc/src/xpcc/architecture/platform/cortex_m3/stm32/timer/timer_1.hpp **** 			 * Enables Capture/Compare preloaded control
 246:/home/jonas/warwick/3dProfilometer/xpcc/src/xpcc/architecture/platform/cortex_m3/stm32/timer/timer_1.hpp **** 			 *
 247:/home/jonas/warwick/3dProfilometer/xpcc/src/xpcc/architecture/platform/cortex_m3/stm32/timer/timer_1.hpp **** 			 * If enabled CCxE, CCxNE and OCxM bits are preloaded and only
 248:/home/jonas/warwick/3dProfilometer/xpcc/src/xpcc/architecture/platform/cortex_m3/stm32/timer/timer_1.hpp **** 			 * updated when the COMG bit is set or on a rising edge on TRGI
 249:/home/jonas/warwick/3dProfilometer/xpcc/src/xpcc/architecture/platform/cortex_m3/stm32/timer/timer_1.hpp **** 			 * This is determined by the CaptureCompareControlUpdate setting.
 250:/home/jonas/warwick/3dProfilometer/xpcc/src/xpcc/architecture/platform/cortex_m3/stm32/timer/timer_1.hpp **** 			 */
 251:/home/jonas/warwick/3dProfilometer/xpcc/src/xpcc/architecture/platform/cortex_m3/stm32/timer/timer_1.hpp **** 			static inline void
 252:/home/jonas/warwick/3dProfilometer/xpcc/src/xpcc/architecture/platform/cortex_m3/stm32/timer/timer_1.hpp **** 			enableCaptureComparePreloadedControl
 253:/home/jonas/warwick/3dProfilometer/xpcc/src/xpcc/architecture/platform/cortex_m3/stm32/timer/timer_1.hpp **** 			(CaptureCompareControlUpdate update = SET_COMG)
 254:/home/jonas/warwick/3dProfilometer/xpcc/src/xpcc/architecture/platform/cortex_m3/stm32/timer/timer_1.hpp **** 			{
 255:/home/jonas/warwick/3dProfilometer/xpcc/src/xpcc/architecture/platform/cortex_m3/stm32/timer/timer_1.hpp **** 				TIM1->CR2 = (TIM1->CR2 & ~TIM_CR2_CCUS)
 256:/home/jonas/warwick/3dProfilometer/xpcc/src/xpcc/architecture/platform/cortex_m3/stm32/timer/timer_1.hpp **** 									| update | TIM_CR2_CCPC;
 257:/home/jonas/warwick/3dProfilometer/xpcc/src/xpcc/architecture/platform/cortex_m3/stm32/timer/timer_1.hpp **** 			}
 258:/home/jonas/warwick/3dProfilometer/xpcc/src/xpcc/architecture/platform/cortex_m3/stm32/timer/timer_1.hpp **** 
 259:/home/jonas/warwick/3dProfilometer/xpcc/src/xpcc/architecture/platform/cortex_m3/stm32/timer/timer_1.hpp **** 			static inline void
 260:/home/jonas/warwick/3dProfilometer/xpcc/src/xpcc/architecture/platform/cortex_m3/stm32/timer/timer_1.hpp **** 			disableCaptureComparePreloadedControl()
 261:/home/jonas/warwick/3dProfilometer/xpcc/src/xpcc/architecture/platform/cortex_m3/stm32/timer/timer_1.hpp **** 			{
 262:/home/jonas/warwick/3dProfilometer/xpcc/src/xpcc/architecture/platform/cortex_m3/stm32/timer/timer_1.hpp **** 				TIM1->CR2 &= ~TIM_CR2_CCPC;
 263:/home/jonas/warwick/3dProfilometer/xpcc/src/xpcc/architecture/platform/cortex_m3/stm32/timer/timer_1.hpp **** 			}
 264:/home/jonas/warwick/3dProfilometer/xpcc/src/xpcc/architecture/platform/cortex_m3/stm32/timer/timer_1.hpp **** 			
 265:/home/jonas/warwick/3dProfilometer/xpcc/src/xpcc/architecture/platform/cortex_m3/stm32/timer/timer_1.hpp **** 			static inline void
 266:/home/jonas/warwick/3dProfilometer/xpcc/src/xpcc/architecture/platform/cortex_m3/stm32/timer/timer_1.hpp **** 			setPrescaler(uint16_t prescaler)
 267:/home/jonas/warwick/3dProfilometer/xpcc/src/xpcc/architecture/platform/cortex_m3/stm32/timer/timer_1.hpp **** 			{
 268:/home/jonas/warwick/3dProfilometer/xpcc/src/xpcc/architecture/platform/cortex_m3/stm32/timer/timer_1.hpp **** 				// Because a prescaler of zero is not possible the actual
 269:/home/jonas/warwick/3dProfilometer/xpcc/src/xpcc/architecture/platform/cortex_m3/stm32/timer/timer_1.hpp **** 				// prescaler value is \p prescaler - 1 (see Datasheet)
 270:/home/jonas/warwick/3dProfilometer/xpcc/src/xpcc/architecture/platform/cortex_m3/stm32/timer/timer_1.hpp **** 				TIM1->PSC = prescaler - 1;
 271:/home/jonas/warwick/3dProfilometer/xpcc/src/xpcc/architecture/platform/cortex_m3/stm32/timer/timer_1.hpp **** 			}
 272:/home/jonas/warwick/3dProfilometer/xpcc/src/xpcc/architecture/platform/cortex_m3/stm32/timer/timer_1.hpp **** 			
 273:/home/jonas/warwick/3dProfilometer/xpcc/src/xpcc/architecture/platform/cortex_m3/stm32/timer/timer_1.hpp **** 			static inline void
 274:/home/jonas/warwick/3dProfilometer/xpcc/src/xpcc/architecture/platform/cortex_m3/stm32/timer/timer_1.hpp **** 			setOverflow(uint16_t overflow)
 275:/home/jonas/warwick/3dProfilometer/xpcc/src/xpcc/architecture/platform/cortex_m3/stm32/timer/timer_1.hpp **** 			{
 276:/home/jonas/warwick/3dProfilometer/xpcc/src/xpcc/architecture/platform/cortex_m3/stm32/timer/timer_1.hpp **** 				TIM1->ARR = overflow;
 277:/home/jonas/warwick/3dProfilometer/xpcc/src/xpcc/architecture/platform/cortex_m3/stm32/timer/timer_1.hpp **** 			}
 278:/home/jonas/warwick/3dProfilometer/xpcc/src/xpcc/architecture/platform/cortex_m3/stm32/timer/timer_1.hpp **** 			
 279:/home/jonas/warwick/3dProfilometer/xpcc/src/xpcc/architecture/platform/cortex_m3/stm32/timer/timer_1.hpp **** 			static uint16_t
 280:/home/jonas/warwick/3dProfilometer/xpcc/src/xpcc/architecture/platform/cortex_m3/stm32/timer/timer_1.hpp **** 			setPeriod(uint32_t microseconds, bool autoApply = true);
 281:/home/jonas/warwick/3dProfilometer/xpcc/src/xpcc/architecture/platform/cortex_m3/stm32/timer/timer_1.hpp **** 			
 282:/home/jonas/warwick/3dProfilometer/xpcc/src/xpcc/architecture/platform/cortex_m3/stm32/timer/timer_1.hpp **** 			static inline void
 283:/home/jonas/warwick/3dProfilometer/xpcc/src/xpcc/architecture/platform/cortex_m3/stm32/timer/timer_1.hpp **** 			applyAndReset()
 284:/home/jonas/warwick/3dProfilometer/xpcc/src/xpcc/architecture/platform/cortex_m3/stm32/timer/timer_1.hpp **** 			{
 285:/home/jonas/warwick/3dProfilometer/xpcc/src/xpcc/architecture/platform/cortex_m3/stm32/timer/timer_1.hpp **** 				// Generate Update Event to apply the new settings for ARR
 286:/home/jonas/warwick/3dProfilometer/xpcc/src/xpcc/architecture/platform/cortex_m3/stm32/timer/timer_1.hpp **** 				generateEvent(EVENT_UPDATE);
 287:/home/jonas/warwick/3dProfilometer/xpcc/src/xpcc/architecture/platform/cortex_m3/stm32/timer/timer_1.hpp **** 			}
 288:/home/jonas/warwick/3dProfilometer/xpcc/src/xpcc/architecture/platform/cortex_m3/stm32/timer/timer_1.hpp **** 
 289:/home/jonas/warwick/3dProfilometer/xpcc/src/xpcc/architecture/platform/cortex_m3/stm32/timer/timer_1.hpp **** 			static inline void
 290:/home/jonas/warwick/3dProfilometer/xpcc/src/xpcc/architecture/platform/cortex_m3/stm32/timer/timer_1.hpp **** 			generateEvent(Event ev)
 291:/home/jonas/warwick/3dProfilometer/xpcc/src/xpcc/architecture/platform/cortex_m3/stm32/timer/timer_1.hpp **** 			{
 292:/home/jonas/warwick/3dProfilometer/xpcc/src/xpcc/architecture/platform/cortex_m3/stm32/timer/timer_1.hpp **** 				TIM1->EGR |= static_cast<uint32_t>(ev);
 293:/home/jonas/warwick/3dProfilometer/xpcc/src/xpcc/architecture/platform/cortex_m3/stm32/timer/timer_1.hpp **** 			}
 294:/home/jonas/warwick/3dProfilometer/xpcc/src/xpcc/architecture/platform/cortex_m3/stm32/timer/timer_1.hpp **** 
 295:/home/jonas/warwick/3dProfilometer/xpcc/src/xpcc/architecture/platform/cortex_m3/stm32/timer/timer_1.hpp **** 			static inline uint16_t
 296:/home/jonas/warwick/3dProfilometer/xpcc/src/xpcc/architecture/platform/cortex_m3/stm32/timer/timer_1.hpp **** 			getValue()
 297:/home/jonas/warwick/3dProfilometer/xpcc/src/xpcc/architecture/platform/cortex_m3/stm32/timer/timer_1.hpp **** 			{
 298:/home/jonas/warwick/3dProfilometer/xpcc/src/xpcc/architecture/platform/cortex_m3/stm32/timer/timer_1.hpp **** 				return TIM1->CNT;
 299:/home/jonas/warwick/3dProfilometer/xpcc/src/xpcc/architecture/platform/cortex_m3/stm32/timer/timer_1.hpp **** 			}
 300:/home/jonas/warwick/3dProfilometer/xpcc/src/xpcc/architecture/platform/cortex_m3/stm32/timer/timer_1.hpp **** 			
 301:/home/jonas/warwick/3dProfilometer/xpcc/src/xpcc/architecture/platform/cortex_m3/stm32/timer/timer_1.hpp **** 			static inline void
 302:/home/jonas/warwick/3dProfilometer/xpcc/src/xpcc/architecture/platform/cortex_m3/stm32/timer/timer_1.hpp **** 			setValue(uint16_t value)
 303:/home/jonas/warwick/3dProfilometer/xpcc/src/xpcc/architecture/platform/cortex_m3/stm32/timer/timer_1.hpp **** 			{
 304:/home/jonas/warwick/3dProfilometer/xpcc/src/xpcc/architecture/platform/cortex_m3/stm32/timer/timer_1.hpp **** 				TIM1->CNT = value;
 305:/home/jonas/warwick/3dProfilometer/xpcc/src/xpcc/architecture/platform/cortex_m3/stm32/timer/timer_1.hpp **** 			}
 306:/home/jonas/warwick/3dProfilometer/xpcc/src/xpcc/architecture/platform/cortex_m3/stm32/timer/timer_1.hpp **** 			
 307:/home/jonas/warwick/3dProfilometer/xpcc/src/xpcc/architecture/platform/cortex_m3/stm32/timer/timer_1.hpp **** 			static inline void
 308:/home/jonas/warwick/3dProfilometer/xpcc/src/xpcc/architecture/platform/cortex_m3/stm32/timer/timer_1.hpp **** 			enableOutput()
 309:/home/jonas/warwick/3dProfilometer/xpcc/src/xpcc/architecture/platform/cortex_m3/stm32/timer/timer_1.hpp **** 			{
 310:/home/jonas/warwick/3dProfilometer/xpcc/src/xpcc/architecture/platform/cortex_m3/stm32/timer/timer_1.hpp **** 				TIM1->BDTR |= TIM_BDTR_MOE;
 311:/home/jonas/warwick/3dProfilometer/xpcc/src/xpcc/architecture/platform/cortex_m3/stm32/timer/timer_1.hpp **** 			}
 312:/home/jonas/warwick/3dProfilometer/xpcc/src/xpcc/architecture/platform/cortex_m3/stm32/timer/timer_1.hpp **** 
 313:/home/jonas/warwick/3dProfilometer/xpcc/src/xpcc/architecture/platform/cortex_m3/stm32/timer/timer_1.hpp **** 			/*
 314:/home/jonas/warwick/3dProfilometer/xpcc/src/xpcc/architecture/platform/cortex_m3/stm32/timer/timer_1.hpp **** 			 * Enable/Disable automatic set of MOE bit at the next update event
 315:/home/jonas/warwick/3dProfilometer/xpcc/src/xpcc/architecture/platform/cortex_m3/stm32/timer/timer_1.hpp **** 			 */
 316:/home/jonas/warwick/3dProfilometer/xpcc/src/xpcc/architecture/platform/cortex_m3/stm32/timer/timer_1.hpp **** 			static inline void
 317:/home/jonas/warwick/3dProfilometer/xpcc/src/xpcc/architecture/platform/cortex_m3/stm32/timer/timer_1.hpp **** 			setAutomaticUpdate(bool enable)
 318:/home/jonas/warwick/3dProfilometer/xpcc/src/xpcc/architecture/platform/cortex_m3/stm32/timer/timer_1.hpp **** 			{
 319:/home/jonas/warwick/3dProfilometer/xpcc/src/xpcc/architecture/platform/cortex_m3/stm32/timer/timer_1.hpp **** 				if(enable)
 320:/home/jonas/warwick/3dProfilometer/xpcc/src/xpcc/architecture/platform/cortex_m3/stm32/timer/timer_1.hpp **** 					TIM1->BDTR |= TIM_BDTR_AOE;
 321:/home/jonas/warwick/3dProfilometer/xpcc/src/xpcc/architecture/platform/cortex_m3/stm32/timer/timer_1.hpp **** 				else
 322:/home/jonas/warwick/3dProfilometer/xpcc/src/xpcc/architecture/platform/cortex_m3/stm32/timer/timer_1.hpp **** 					TIM1->BDTR &= ~TIM_BDTR_AOE;
 323:/home/jonas/warwick/3dProfilometer/xpcc/src/xpcc/architecture/platform/cortex_m3/stm32/timer/timer_1.hpp **** 			}
 324:/home/jonas/warwick/3dProfilometer/xpcc/src/xpcc/architecture/platform/cortex_m3/stm32/timer/timer_1.hpp **** 
 325:/home/jonas/warwick/3dProfilometer/xpcc/src/xpcc/architecture/platform/cortex_m3/stm32/timer/timer_1.hpp **** 			static inline void
 326:/home/jonas/warwick/3dProfilometer/xpcc/src/xpcc/architecture/platform/cortex_m3/stm32/timer/timer_1.hpp **** 			setOffState(OffStateForRunMode runMode, OffStateForIdleMode idleMode)
 327:/home/jonas/warwick/3dProfilometer/xpcc/src/xpcc/architecture/platform/cortex_m3/stm32/timer/timer_1.hpp **** 			{
 328:/home/jonas/warwick/3dProfilometer/xpcc/src/xpcc/architecture/platform/cortex_m3/stm32/timer/timer_1.hpp **** 				uint32_t flags = TIM1->BDTR;
 329:/home/jonas/warwick/3dProfilometer/xpcc/src/xpcc/architecture/platform/cortex_m3/stm32/timer/timer_1.hpp **** 				flags &= ~(TIM_BDTR_OSSR | TIM_BDTR_OSSI);
 330:/home/jonas/warwick/3dProfilometer/xpcc/src/xpcc/architecture/platform/cortex_m3/stm32/timer/timer_1.hpp **** 				flags |= runMode | idleMode;
 331:/home/jonas/warwick/3dProfilometer/xpcc/src/xpcc/architecture/platform/cortex_m3/stm32/timer/timer_1.hpp **** 				TIM1->BDTR = flags;
 332:/home/jonas/warwick/3dProfilometer/xpcc/src/xpcc/architecture/platform/cortex_m3/stm32/timer/timer_1.hpp **** 			}
 333:/home/jonas/warwick/3dProfilometer/xpcc/src/xpcc/architecture/platform/cortex_m3/stm32/timer/timer_1.hpp **** 
 334:/home/jonas/warwick/3dProfilometer/xpcc/src/xpcc/architecture/platform/cortex_m3/stm32/timer/timer_1.hpp **** 			static inline void
 335:/home/jonas/warwick/3dProfilometer/xpcc/src/xpcc/architecture/platform/cortex_m3/stm32/timer/timer_1.hpp **** 			setOutputIdleState(uint32_t channel, OutputIdleState idle,
 336:/home/jonas/warwick/3dProfilometer/xpcc/src/xpcc/architecture/platform/cortex_m3/stm32/timer/timer_1.hpp **** 									OutputIdleState idle_n = IDLE_STATE_RESET)
 337:/home/jonas/warwick/3dProfilometer/xpcc/src/xpcc/architecture/platform/cortex_m3/stm32/timer/timer_1.hpp **** 			{
 338:/home/jonas/warwick/3dProfilometer/xpcc/src/xpcc/architecture/platform/cortex_m3/stm32/timer/timer_1.hpp **** 				uint32_t flags = TIM1->CR2;
 339:/home/jonas/warwick/3dProfilometer/xpcc/src/xpcc/architecture/platform/cortex_m3/stm32/timer/timer_1.hpp **** 				channel -= 1;
 340:/home/jonas/warwick/3dProfilometer/xpcc/src/xpcc/architecture/platform/cortex_m3/stm32/timer/timer_1.hpp **** 				flags &=  (IDLE_STATE_SET << (channel * 2))
 341:/home/jonas/warwick/3dProfilometer/xpcc/src/xpcc/architecture/platform/cortex_m3/stm32/timer/timer_1.hpp **** 						| (IDLE_STATE_SET << (channel * 2 + 1));
 342:/home/jonas/warwick/3dProfilometer/xpcc/src/xpcc/architecture/platform/cortex_m3/stm32/timer/timer_1.hpp **** 				flags |= (idle   << (channel * 2));
 343:/home/jonas/warwick/3dProfilometer/xpcc/src/xpcc/architecture/platform/cortex_m3/stm32/timer/timer_1.hpp **** 				flags |= (idle_n << (channel * 2 + 1));
 344:/home/jonas/warwick/3dProfilometer/xpcc/src/xpcc/architecture/platform/cortex_m3/stm32/timer/timer_1.hpp **** 				TIM1->CR2 = flags;
 345:/home/jonas/warwick/3dProfilometer/xpcc/src/xpcc/architecture/platform/cortex_m3/stm32/timer/timer_1.hpp **** 			}
 346:/home/jonas/warwick/3dProfilometer/xpcc/src/xpcc/architecture/platform/cortex_m3/stm32/timer/timer_1.hpp **** 
 347:/home/jonas/warwick/3dProfilometer/xpcc/src/xpcc/architecture/platform/cortex_m3/stm32/timer/timer_1.hpp **** 			/*
 348:/home/jonas/warwick/3dProfilometer/xpcc/src/xpcc/architecture/platform/cortex_m3/stm32/timer/timer_1.hpp **** 			 * Set Dead Time Value
 349:/home/jonas/warwick/3dProfilometer/xpcc/src/xpcc/architecture/platform/cortex_m3/stm32/timer/timer_1.hpp **** 			 *
 350:/home/jonas/warwick/3dProfilometer/xpcc/src/xpcc/architecture/platform/cortex_m3/stm32/timer/timer_1.hpp **** 			 * Different Resolution Depending on DeadTime[7:5]:
 351:/home/jonas/warwick/3dProfilometer/xpcc/src/xpcc/architecture/platform/cortex_m3/stm32/timer/timer_1.hpp **** 			 *     0xx =>  DeadTime[6:0]            * T(DTS)
 352:/home/jonas/warwick/3dProfilometer/xpcc/src/xpcc/architecture/platform/cortex_m3/stm32/timer/timer_1.hpp **** 			 *     10x => (DeadTime[5:0] + 32) *  2 * T(DTS)
 353:/home/jonas/warwick/3dProfilometer/xpcc/src/xpcc/architecture/platform/cortex_m3/stm32/timer/timer_1.hpp **** 			 *     110 => (DeadTime[4:0] + 4)  *  8 * T(DTS)
 354:/home/jonas/warwick/3dProfilometer/xpcc/src/xpcc/architecture/platform/cortex_m3/stm32/timer/timer_1.hpp **** 			 *     111 => (DeadTime[4:0] + 2)  * 16 * T(DTS)
 355:/home/jonas/warwick/3dProfilometer/xpcc/src/xpcc/architecture/platform/cortex_m3/stm32/timer/timer_1.hpp **** 			 */
 356:/home/jonas/warwick/3dProfilometer/xpcc/src/xpcc/architecture/platform/cortex_m3/stm32/timer/timer_1.hpp **** 			static inline void
 357:/home/jonas/warwick/3dProfilometer/xpcc/src/xpcc/architecture/platform/cortex_m3/stm32/timer/timer_1.hpp **** 			setDeadTime(uint8_t deadTime)
 358:/home/jonas/warwick/3dProfilometer/xpcc/src/xpcc/architecture/platform/cortex_m3/stm32/timer/timer_1.hpp **** 			{
 359:/home/jonas/warwick/3dProfilometer/xpcc/src/xpcc/architecture/platform/cortex_m3/stm32/timer/timer_1.hpp **** 				uint32_t flags = TIM1->BDTR;
 360:/home/jonas/warwick/3dProfilometer/xpcc/src/xpcc/architecture/platform/cortex_m3/stm32/timer/timer_1.hpp **** 				flags &= TIM_BDTR_DTG;
 361:/home/jonas/warwick/3dProfilometer/xpcc/src/xpcc/architecture/platform/cortex_m3/stm32/timer/timer_1.hpp **** 				flags |= deadTime;
 362:/home/jonas/warwick/3dProfilometer/xpcc/src/xpcc/architecture/platform/cortex_m3/stm32/timer/timer_1.hpp **** 				TIM1->BDTR = flags;
 363:/home/jonas/warwick/3dProfilometer/xpcc/src/xpcc/architecture/platform/cortex_m3/stm32/timer/timer_1.hpp **** 			}
 364:/home/jonas/warwick/3dProfilometer/xpcc/src/xpcc/architecture/platform/cortex_m3/stm32/timer/timer_1.hpp **** 
 365:/home/jonas/warwick/3dProfilometer/xpcc/src/xpcc/architecture/platform/cortex_m3/stm32/timer/timer_1.hpp **** 			/*
 366:/home/jonas/warwick/3dProfilometer/xpcc/src/xpcc/architecture/platform/cortex_m3/stm32/timer/timer_1.hpp **** 			 * Set Dead Time Value
 367:/home/jonas/warwick/3dProfilometer/xpcc/src/xpcc/architecture/platform/cortex_m3/stm32/timer/timer_1.hpp **** 			 *
 368:/home/jonas/warwick/3dProfilometer/xpcc/src/xpcc/architecture/platform/cortex_m3/stm32/timer/timer_1.hpp **** 			 * Different Resolution Depending on DeadTime[7:5]:
 369:/home/jonas/warwick/3dProfilometer/xpcc/src/xpcc/architecture/platform/cortex_m3/stm32/timer/timer_1.hpp **** 			 *     0xx =>  DeadTime[6:0]            * T(DTS)
 370:/home/jonas/warwick/3dProfilometer/xpcc/src/xpcc/architecture/platform/cortex_m3/stm32/timer/timer_1.hpp **** 			 *     10x => (DeadTime[5:0] + 32) *  2 * T(DTS)
 371:/home/jonas/warwick/3dProfilometer/xpcc/src/xpcc/architecture/platform/cortex_m3/stm32/timer/timer_1.hpp **** 			 *     110 => (DeadTime[4:0] + 4)  *  8 * T(DTS)
 372:/home/jonas/warwick/3dProfilometer/xpcc/src/xpcc/architecture/platform/cortex_m3/stm32/timer/timer_1.hpp **** 			 *     111 => (DeadTime[4:0] + 2)  * 16 * T(DTS)
 373:/home/jonas/warwick/3dProfilometer/xpcc/src/xpcc/architecture/platform/cortex_m3/stm32/timer/timer_1.hpp **** 			 */
 374:/home/jonas/warwick/3dProfilometer/xpcc/src/xpcc/architecture/platform/cortex_m3/stm32/timer/timer_1.hpp **** 			static inline void
 375:/home/jonas/warwick/3dProfilometer/xpcc/src/xpcc/architecture/platform/cortex_m3/stm32/timer/timer_1.hpp **** 			setDeadTime(DeadTimeResolution resolution, uint8_t deadTime)
 376:/home/jonas/warwick/3dProfilometer/xpcc/src/xpcc/architecture/platform/cortex_m3/stm32/timer/timer_1.hpp **** 			{
 377:/home/jonas/warwick/3dProfilometer/xpcc/src/xpcc/architecture/platform/cortex_m3/stm32/timer/timer_1.hpp **** 				uint8_t bitmask;
 378:/home/jonas/warwick/3dProfilometer/xpcc/src/xpcc/architecture/platform/cortex_m3/stm32/timer/timer_1.hpp **** 				switch(resolution){
 379:/home/jonas/warwick/3dProfilometer/xpcc/src/xpcc/architecture/platform/cortex_m3/stm32/timer/timer_1.hpp **** 					case FROM_0_125NS_STEP:
 380:/home/jonas/warwick/3dProfilometer/xpcc/src/xpcc/architecture/platform/cortex_m3/stm32/timer/timer_1.hpp **** 						bitmask = 0b01111111;
 381:/home/jonas/warwick/3dProfilometer/xpcc/src/xpcc/architecture/platform/cortex_m3/stm32/timer/timer_1.hpp **** 						break;
 382:/home/jonas/warwick/3dProfilometer/xpcc/src/xpcc/architecture/platform/cortex_m3/stm32/timer/timer_1.hpp **** 					case FROM_16US_250NS_STEP:
 383:/home/jonas/warwick/3dProfilometer/xpcc/src/xpcc/architecture/platform/cortex_m3/stm32/timer/timer_1.hpp **** 						bitmask = 0b00111111;
 384:/home/jonas/warwick/3dProfilometer/xpcc/src/xpcc/architecture/platform/cortex_m3/stm32/timer/timer_1.hpp **** 						break;
 385:/home/jonas/warwick/3dProfilometer/xpcc/src/xpcc/architecture/platform/cortex_m3/stm32/timer/timer_1.hpp **** 					case FROM_32US_1US_STEP:
 386:/home/jonas/warwick/3dProfilometer/xpcc/src/xpcc/architecture/platform/cortex_m3/stm32/timer/timer_1.hpp **** 					case FROM_64US_2US_STEP:
 387:/home/jonas/warwick/3dProfilometer/xpcc/src/xpcc/architecture/platform/cortex_m3/stm32/timer/timer_1.hpp **** 						bitmask = 0b00011111;
 388:/home/jonas/warwick/3dProfilometer/xpcc/src/xpcc/architecture/platform/cortex_m3/stm32/timer/timer_1.hpp **** 						break;
 389:/home/jonas/warwick/3dProfilometer/xpcc/src/xpcc/architecture/platform/cortex_m3/stm32/timer/timer_1.hpp **** 					default:
 390:/home/jonas/warwick/3dProfilometer/xpcc/src/xpcc/architecture/platform/cortex_m3/stm32/timer/timer_1.hpp **** 						bitmask = 0x00;
 391:/home/jonas/warwick/3dProfilometer/xpcc/src/xpcc/architecture/platform/cortex_m3/stm32/timer/timer_1.hpp **** 						break;
 392:/home/jonas/warwick/3dProfilometer/xpcc/src/xpcc/architecture/platform/cortex_m3/stm32/timer/timer_1.hpp **** 				}
 393:/home/jonas/warwick/3dProfilometer/xpcc/src/xpcc/architecture/platform/cortex_m3/stm32/timer/timer_1.hpp **** 				uint32_t flags = TIM1->BDTR;
 394:/home/jonas/warwick/3dProfilometer/xpcc/src/xpcc/architecture/platform/cortex_m3/stm32/timer/timer_1.hpp **** 				flags &= TIM_BDTR_DTG;
 395:/home/jonas/warwick/3dProfilometer/xpcc/src/xpcc/architecture/platform/cortex_m3/stm32/timer/timer_1.hpp **** 				flags |= (deadTime & bitmask) | resolution;
 396:/home/jonas/warwick/3dProfilometer/xpcc/src/xpcc/architecture/platform/cortex_m3/stm32/timer/timer_1.hpp **** 				TIM1->BDTR = flags;
 397:/home/jonas/warwick/3dProfilometer/xpcc/src/xpcc/architecture/platform/cortex_m3/stm32/timer/timer_1.hpp **** 			}
 398:/home/jonas/warwick/3dProfilometer/xpcc/src/xpcc/architecture/platform/cortex_m3/stm32/timer/timer_1.hpp **** 
 399:/home/jonas/warwick/3dProfilometer/xpcc/src/xpcc/architecture/platform/cortex_m3/stm32/timer/timer_1.hpp **** 		public:
 400:/home/jonas/warwick/3dProfilometer/xpcc/src/xpcc/architecture/platform/cortex_m3/stm32/timer/timer_1.hpp **** 			static void
 401:/home/jonas/warwick/3dProfilometer/xpcc/src/xpcc/architecture/platform/cortex_m3/stm32/timer/timer_1.hpp **** 			configureInputChannel(uint32_t channel, InputCaptureMapping input,
 402:/home/jonas/warwick/3dProfilometer/xpcc/src/xpcc/architecture/platform/cortex_m3/stm32/timer/timer_1.hpp **** 					InputCapturePrescaler prescaler,
 403:/home/jonas/warwick/3dProfilometer/xpcc/src/xpcc/architecture/platform/cortex_m3/stm32/timer/timer_1.hpp **** 					InputCapturePolarity polarity, uint8_t filter,
 404:/home/jonas/warwick/3dProfilometer/xpcc/src/xpcc/architecture/platform/cortex_m3/stm32/timer/timer_1.hpp **** 					bool xor_ch1_3=false);
 405:/home/jonas/warwick/3dProfilometer/xpcc/src/xpcc/architecture/platform/cortex_m3/stm32/timer/timer_1.hpp **** 
 406:/home/jonas/warwick/3dProfilometer/xpcc/src/xpcc/architecture/platform/cortex_m3/stm32/timer/timer_1.hpp **** 			static void
 407:/home/jonas/warwick/3dProfilometer/xpcc/src/xpcc/architecture/platform/cortex_m3/stm32/timer/timer_1.hpp **** 			configureOutputChannel(uint32_t channel, OutputCompareMode mode,
 408:/home/jonas/warwick/3dProfilometer/xpcc/src/xpcc/architecture/platform/cortex_m3/stm32/timer/timer_1.hpp **** 					uint16_t compareValue);
 409:/home/jonas/warwick/3dProfilometer/xpcc/src/xpcc/architecture/platform/cortex_m3/stm32/timer/timer_1.hpp **** 			// TODO: Maybe add some functionality from the configureOutput
 410:/home/jonas/warwick/3dProfilometer/xpcc/src/xpcc/architecture/platform/cortex_m3/stm32/timer/timer_1.hpp **** 			//       function below...
 411:/home/jonas/warwick/3dProfilometer/xpcc/src/xpcc/architecture/platform/cortex_m3/stm32/timer/timer_1.hpp **** 
 412:/home/jonas/warwick/3dProfilometer/xpcc/src/xpcc/architecture/platform/cortex_m3/stm32/timer/timer_1.hpp **** 			/*
 413:/home/jonas/warwick/3dProfilometer/xpcc/src/xpcc/architecture/platform/cortex_m3/stm32/timer/timer_1.hpp **** 			 * Configure Output Channel without changing the Compare Value
 414:/home/jonas/warwick/3dProfilometer/xpcc/src/xpcc/architecture/platform/cortex_m3/stm32/timer/timer_1.hpp **** 			 *
 415:/home/jonas/warwick/3dProfilometer/xpcc/src/xpcc/architecture/platform/cortex_m3/stm32/timer/timer_1.hpp **** 			 * Normally used to REconfigure the Output channel without touching
 416:/home/jonas/warwick/3dProfilometer/xpcc/src/xpcc/architecture/platform/cortex_m3/stm32/timer/timer_1.hpp **** 			 * the compare value. This can e.g. be useful for commutation of a
 417:/home/jonas/warwick/3dProfilometer/xpcc/src/xpcc/architecture/platform/cortex_m3/stm32/timer/timer_1.hpp **** 			 * bldc motor.
 418:/home/jonas/warwick/3dProfilometer/xpcc/src/xpcc/architecture/platform/cortex_m3/stm32/timer/timer_1.hpp **** 			 *
 419:/home/jonas/warwick/3dProfilometer/xpcc/src/xpcc/architecture/platform/cortex_m3/stm32/timer/timer_1.hpp **** 			 * This function probably won't be used for a one time setup but
 420:/home/jonas/warwick/3dProfilometer/xpcc/src/xpcc/architecture/platform/cortex_m3/stm32/timer/timer_1.hpp **** 			 * rather for adjusting the output setting periodically.
 421:/home/jonas/warwick/3dProfilometer/xpcc/src/xpcc/architecture/platform/cortex_m3/stm32/timer/timer_1.hpp **** 			 * Therefore it aims aims to provide the best performance possible
 422:/home/jonas/warwick/3dProfilometer/xpcc/src/xpcc/architecture/platform/cortex_m3/stm32/timer/timer_1.hpp **** 			 * without sacrificing code readability.
 423:/home/jonas/warwick/3dProfilometer/xpcc/src/xpcc/architecture/platform/cortex_m3/stm32/timer/timer_1.hpp **** 			 */
 424:/home/jonas/warwick/3dProfilometer/xpcc/src/xpcc/architecture/platform/cortex_m3/stm32/timer/timer_1.hpp **** 			static void
 425:/home/jonas/warwick/3dProfilometer/xpcc/src/xpcc/architecture/platform/cortex_m3/stm32/timer/timer_1.hpp **** 			configureOutputChannel(uint32_t channel, OutputCompareMode mode,
 426:/home/jonas/warwick/3dProfilometer/xpcc/src/xpcc/architecture/platform/cortex_m3/stm32/timer/timer_1.hpp **** 					PinState out, OutputComparePolarity polarity,
 427:/home/jonas/warwick/3dProfilometer/xpcc/src/xpcc/architecture/platform/cortex_m3/stm32/timer/timer_1.hpp **** 					PinState out_n,
 428:/home/jonas/warwick/3dProfilometer/xpcc/src/xpcc/architecture/platform/cortex_m3/stm32/timer/timer_1.hpp **** 					OutputComparePolarity polarity_n = OUTPUT_ACTIVE_HIGH,
 429:/home/jonas/warwick/3dProfilometer/xpcc/src/xpcc/architecture/platform/cortex_m3/stm32/timer/timer_1.hpp **** 					OutputComparePreload preload = PRELOAD_REGISTER_DISABLED);
 430:/home/jonas/warwick/3dProfilometer/xpcc/src/xpcc/architecture/platform/cortex_m3/stm32/timer/timer_1.hpp **** 
 431:/home/jonas/warwick/3dProfilometer/xpcc/src/xpcc/architecture/platform/cortex_m3/stm32/timer/timer_1.hpp **** 			/*
 432:/home/jonas/warwick/3dProfilometer/xpcc/src/xpcc/architecture/platform/cortex_m3/stm32/timer/timer_1.hpp **** 			 * Configure Output Channel width Mode/OutputPort uint
 433:/home/jonas/warwick/3dProfilometer/xpcc/src/xpcc/architecture/platform/cortex_m3/stm32/timer/timer_1.hpp **** 			 *
 434:/home/jonas/warwick/3dProfilometer/xpcc/src/xpcc/architecture/platform/cortex_m3/stm32/timer/timer_1.hpp **** 			 * This is the least typesafe way of doing this and should only
 435:/home/jonas/warwick/3dProfilometer/xpcc/src/xpcc/architecture/platform/cortex_m3/stm32/timer/timer_1.hpp **** 			 * be done if it provides a necessary performance
 436:/home/jonas/warwick/3dProfilometer/xpcc/src/xpcc/architecture/platform/cortex_m3/stm32/timer/timer_1.hpp **** 			 * (or more or less) laziness benefit.
 437:/home/jonas/warwick/3dProfilometer/xpcc/src/xpcc/architecture/platform/cortex_m3/stm32/timer/timer_1.hpp **** 			 * i.e. if you have specific mode/output uints precalculated and
 438:/home/jonas/warwick/3dProfilometer/xpcc/src/xpcc/architecture/platform/cortex_m3/stm32/timer/timer_1.hpp **** 			 * just want to load them as fast as possible.
 439:/home/jonas/warwick/3dProfilometer/xpcc/src/xpcc/architecture/platform/cortex_m3/stm32/timer/timer_1.hpp **** 			 *
 440:/home/jonas/warwick/3dProfilometer/xpcc/src/xpcc/architecture/platform/cortex_m3/stm32/timer/timer_1.hpp **** 			 * The "mode/output" uint contains four bits
 441:/home/jonas/warwick/3dProfilometer/xpcc/src/xpcc/architecture/platform/cortex_m3/stm32/timer/timer_1.hpp **** 			 * that describe the intended output setting:
 442:/home/jonas/warwick/3dProfilometer/xpcc/src/xpcc/architecture/platform/cortex_m3/stm32/timer/timer_1.hpp **** 			 * Bit0: Output Enabled/Disabled
 443:/home/jonas/warwick/3dProfilometer/xpcc/src/xpcc/architecture/platform/cortex_m3/stm32/timer/timer_1.hpp **** 			 * Bit1: Output Polarity
 444:/home/jonas/warwick/3dProfilometer/xpcc/src/xpcc/architecture/platform/cortex_m3/stm32/timer/timer_1.hpp **** 			 * Bit2: Complementary Output Enable/Disable
 445:/home/jonas/warwick/3dProfilometer/xpcc/src/xpcc/architecture/platform/cortex_m3/stm32/timer/timer_1.hpp **** 			 * Bit3: Complementary Output Polarity
 446:/home/jonas/warwick/3dProfilometer/xpcc/src/xpcc/architecture/platform/cortex_m3/stm32/timer/timer_1.hpp **** 			 *
 447:/home/jonas/warwick/3dProfilometer/xpcc/src/xpcc/architecture/platform/cortex_m3/stm32/timer/timer_1.hpp **** 			 * As well as Mode Information (Bit6-Bit4)
 448:/home/jonas/warwick/3dProfilometer/xpcc/src/xpcc/architecture/platform/cortex_m3/stm32/timer/timer_1.hpp **** 			 * which is just an OutputCompareMode constant ored with the
 449:/home/jonas/warwick/3dProfilometer/xpcc/src/xpcc/architecture/platform/cortex_m3/stm32/timer/timer_1.hpp **** 			 * port output quadruple specified above.
 450:/home/jonas/warwick/3dProfilometer/xpcc/src/xpcc/architecture/platform/cortex_m3/stm32/timer/timer_1.hpp **** 			 */
 451:/home/jonas/warwick/3dProfilometer/xpcc/src/xpcc/architecture/platform/cortex_m3/stm32/timer/timer_1.hpp **** 			static void
 452:/home/jonas/warwick/3dProfilometer/xpcc/src/xpcc/architecture/platform/cortex_m3/stm32/timer/timer_1.hpp **** 			configureOutputChannel(uint32_t channel, uint32_t modeOutputPorts);
 453:/home/jonas/warwick/3dProfilometer/xpcc/src/xpcc/architecture/platform/cortex_m3/stm32/timer/timer_1.hpp **** 
 454:/home/jonas/warwick/3dProfilometer/xpcc/src/xpcc/architecture/platform/cortex_m3/stm32/timer/timer_1.hpp **** 			static inline void
 455:/home/jonas/warwick/3dProfilometer/xpcc/src/xpcc/architecture/platform/cortex_m3/stm32/timer/timer_1.hpp **** 			setCompareValue(uint32_t channel, uint16_t value)
 456:/home/jonas/warwick/3dProfilometer/xpcc/src/xpcc/architecture/platform/cortex_m3/stm32/timer/timer_1.hpp **** 			{
 457:/home/jonas/warwick/3dProfilometer/xpcc/src/xpcc/architecture/platform/cortex_m3/stm32/timer/timer_1.hpp **** #if defined(STM32F2XX) || defined(STM32F3XX) || defined(STM32F4XX)
 458:/home/jonas/warwick/3dProfilometer/xpcc/src/xpcc/architecture/platform/cortex_m3/stm32/timer/timer_1.hpp **** 				*(&TIM1->CCR1 + (channel - 1)) = value;
 459:/home/jonas/warwick/3dProfilometer/xpcc/src/xpcc/architecture/platform/cortex_m3/stm32/timer/timer_1.hpp **** #else
 460:/home/jonas/warwick/3dProfilometer/xpcc/src/xpcc/architecture/platform/cortex_m3/stm32/timer/timer_1.hpp **** 				*(&TIM1->CCR1 + ((channel - 1) * 2)) = value;
 461:/home/jonas/warwick/3dProfilometer/xpcc/src/xpcc/architecture/platform/cortex_m3/stm32/timer/timer_1.hpp **** #endif
 462:/home/jonas/warwick/3dProfilometer/xpcc/src/xpcc/architecture/platform/cortex_m3/stm32/timer/timer_1.hpp **** 			}
 463:/home/jonas/warwick/3dProfilometer/xpcc/src/xpcc/architecture/platform/cortex_m3/stm32/timer/timer_1.hpp **** 			
 464:/home/jonas/warwick/3dProfilometer/xpcc/src/xpcc/architecture/platform/cortex_m3/stm32/timer/timer_1.hpp **** 			static inline uint16_t
 465:/home/jonas/warwick/3dProfilometer/xpcc/src/xpcc/architecture/platform/cortex_m3/stm32/timer/timer_1.hpp **** 			getCompareValue(uint32_t channel)
 466:/home/jonas/warwick/3dProfilometer/xpcc/src/xpcc/architecture/platform/cortex_m3/stm32/timer/timer_1.hpp **** 			{
 467:/home/jonas/warwick/3dProfilometer/xpcc/src/xpcc/architecture/platform/cortex_m3/stm32/timer/timer_1.hpp **** #if defined(STM32F2XX) || defined(STM32F3XX) || defined(STM32F4XX)
 468:/home/jonas/warwick/3dProfilometer/xpcc/src/xpcc/architecture/platform/cortex_m3/stm32/timer/timer_1.hpp **** 				return *(&TIM1->CCR1 + (channel - 1));
 469:/home/jonas/warwick/3dProfilometer/xpcc/src/xpcc/architecture/platform/cortex_m3/stm32/timer/timer_1.hpp **** #else
 470:/home/jonas/warwick/3dProfilometer/xpcc/src/xpcc/architecture/platform/cortex_m3/stm32/timer/timer_1.hpp **** 				return *(&TIM1->CCR1 + ((channel - 1) * 2));
 471:/home/jonas/warwick/3dProfilometer/xpcc/src/xpcc/architecture/platform/cortex_m3/stm32/timer/timer_1.hpp **** #endif
 472:/home/jonas/warwick/3dProfilometer/xpcc/src/xpcc/architecture/platform/cortex_m3/stm32/timer/timer_1.hpp **** 			}
 473:/home/jonas/warwick/3dProfilometer/xpcc/src/xpcc/architecture/platform/cortex_m3/stm32/timer/timer_1.hpp **** 			
 474:/home/jonas/warwick/3dProfilometer/xpcc/src/xpcc/architecture/platform/cortex_m3/stm32/timer/timer_1.hpp **** 		public:
 475:/home/jonas/warwick/3dProfilometer/xpcc/src/xpcc/architecture/platform/cortex_m3/stm32/timer/timer_1.hpp **** 			/**
 476:/home/jonas/warwick/3dProfilometer/xpcc/src/xpcc/architecture/platform/cortex_m3/stm32/timer/timer_1.hpp **** 			 * Enables or disables Interrupt Vectors.
 477:/home/jonas/warwick/3dProfilometer/xpcc/src/xpcc/architecture/platform/cortex_m3/stm32/timer/timer_1.hpp **** 			 * 
 478:/home/jonas/warwick/3dProfilometer/xpcc/src/xpcc/architecture/platform/cortex_m3/stm32/timer/timer_1.hpp **** 			 * You must pass an or-conjuncted list of entries from the
 479:/home/jonas/warwick/3dProfilometer/xpcc/src/xpcc/architecture/platform/cortex_m3/stm32/timer/timer_1.hpp **** 			 * Interrupt enum. Interrupt vectors which fit to 
 480:/home/jonas/warwick/3dProfilometer/xpcc/src/xpcc/architecture/platform/cortex_m3/stm32/timer/timer_1.hpp **** 			 * will be enabled (or disabled if \p enable = false).
 481:/home/jonas/warwick/3dProfilometer/xpcc/src/xpcc/architecture/platform/cortex_m3/stm32/timer/timer_1.hpp **** 			 * 
 482:/home/jonas/warwick/3dProfilometer/xpcc/src/xpcc/architecture/platform/cortex_m3/stm32/timer/timer_1.hpp **** 			 * The Adanvced timers have four interrupt vectors:
 483:/home/jonas/warwick/3dProfilometer/xpcc/src/xpcc/architecture/platform/cortex_m3/stm32/timer/timer_1.hpp **** 			 * - UP (used by INTERRUPT_UPDATE)
 484:/home/jonas/warwick/3dProfilometer/xpcc/src/xpcc/architecture/platform/cortex_m3/stm32/timer/timer_1.hpp **** 			 * - BRK (used by INTERRUPT_BREAK)
 485:/home/jonas/warwick/3dProfilometer/xpcc/src/xpcc/architecture/platform/cortex_m3/stm32/timer/timer_1.hpp **** 			 * - TRG_COM (used by INTERRUPT_TRIGGER and INTERRUPT_COM)
 486:/home/jonas/warwick/3dProfilometer/xpcc/src/xpcc/architecture/platform/cortex_m3/stm32/timer/timer_1.hpp **** 			 * - CC (used by INTERRUPT_CAPTURE_COMPARE_1..3)
 487:/home/jonas/warwick/3dProfilometer/xpcc/src/xpcc/architecture/platform/cortex_m3/stm32/timer/timer_1.hpp **** 			 */
 488:/home/jonas/warwick/3dProfilometer/xpcc/src/xpcc/architecture/platform/cortex_m3/stm32/timer/timer_1.hpp **** 			static void
 489:/home/jonas/warwick/3dProfilometer/xpcc/src/xpcc/architecture/platform/cortex_m3/stm32/timer/timer_1.hpp **** 			enableInterruptVector(Interrupt interrupt, bool enable, uint32_t priority);
 490:/home/jonas/warwick/3dProfilometer/xpcc/src/xpcc/architecture/platform/cortex_m3/stm32/timer/timer_1.hpp **** 			
 491:/home/jonas/warwick/3dProfilometer/xpcc/src/xpcc/architecture/platform/cortex_m3/stm32/timer/timer_1.hpp **** 			static inline void
 492:/home/jonas/warwick/3dProfilometer/xpcc/src/xpcc/architecture/platform/cortex_m3/stm32/timer/timer_1.hpp **** 			enableInterrupt(Interrupt interrupt)
 493:/home/jonas/warwick/3dProfilometer/xpcc/src/xpcc/architecture/platform/cortex_m3/stm32/timer/timer_1.hpp **** 			{
 494:/home/jonas/warwick/3dProfilometer/xpcc/src/xpcc/architecture/platform/cortex_m3/stm32/timer/timer_1.hpp **** 				TIM1->DIER |= interrupt;
 184              		.loc 2 494 0
 185 0006 704F     		ldr	r7, .L14+4
 186              	.LBE268:
 187              	.LBE267:
 188              	.LBB271:
 189              	.LBB265:
  16:state.cpp     **** GPIO__OUTPUT(ledRed, D, 14);
 190              		.loc 1 16 0
 191 0008 2368     		ldr	r3, [r4, #0]
 192              	.LBE265:
 193              	.LBE271:
 194              	.LBB272:
 195              	.LBB273:
  86:/home/jonas/warwick/3dProfilometer/xpcc/src/xpcc/architecture/platform/cortex_m3/stm32/timer/timer_6.hpp **** 			}
  87:/home/jonas/warwick/3dProfilometer/xpcc/src/xpcc/architecture/platform/cortex_m3/stm32/timer/timer_6.hpp **** 			
  88:/home/jonas/warwick/3dProfilometer/xpcc/src/xpcc/architecture/platform/cortex_m3/stm32/timer/timer_6.hpp **** 			static inline void
  89:/home/jonas/warwick/3dProfilometer/xpcc/src/xpcc/architecture/platform/cortex_m3/stm32/timer/timer_6.hpp **** 			start()
  90:/home/jonas/warwick/3dProfilometer/xpcc/src/xpcc/architecture/platform/cortex_m3/stm32/timer/timer_6.hpp **** 			{
  91:/home/jonas/warwick/3dProfilometer/xpcc/src/xpcc/architecture/platform/cortex_m3/stm32/timer/timer_6.hpp **** 				TIM6->CR1 |= TIM_CR1_CEN;
  92:/home/jonas/warwick/3dProfilometer/xpcc/src/xpcc/architecture/platform/cortex_m3/stm32/timer/timer_6.hpp **** 			}
  93:/home/jonas/warwick/3dProfilometer/xpcc/src/xpcc/architecture/platform/cortex_m3/stm32/timer/timer_6.hpp **** 			
  94:/home/jonas/warwick/3dProfilometer/xpcc/src/xpcc/architecture/platform/cortex_m3/stm32/timer/timer_6.hpp **** 			static void
  95:/home/jonas/warwick/3dProfilometer/xpcc/src/xpcc/architecture/platform/cortex_m3/stm32/timer/timer_6.hpp **** 			setMode(Mode mode);
  96:/home/jonas/warwick/3dProfilometer/xpcc/src/xpcc/architecture/platform/cortex_m3/stm32/timer/timer_6.hpp **** 			
  97:/home/jonas/warwick/3dProfilometer/xpcc/src/xpcc/architecture/platform/cortex_m3/stm32/timer/timer_6.hpp **** 			static inline void
  98:/home/jonas/warwick/3dProfilometer/xpcc/src/xpcc/architecture/platform/cortex_m3/stm32/timer/timer_6.hpp **** 			setPrescaler(uint16_t prescaler)
  99:/home/jonas/warwick/3dProfilometer/xpcc/src/xpcc/architecture/platform/cortex_m3/stm32/timer/timer_6.hpp **** 			{
 100:/home/jonas/warwick/3dProfilometer/xpcc/src/xpcc/architecture/platform/cortex_m3/stm32/timer/timer_6.hpp **** 				// Because a prescaler of zero is not possible the actual
 101:/home/jonas/warwick/3dProfilometer/xpcc/src/xpcc/architecture/platform/cortex_m3/stm32/timer/timer_6.hpp **** 				// prescaler value is \p prescaler - 1 (see Datasheet)
 102:/home/jonas/warwick/3dProfilometer/xpcc/src/xpcc/architecture/platform/cortex_m3/stm32/timer/timer_6.hpp **** 				TIM6->PSC = prescaler - 1;
 103:/home/jonas/warwick/3dProfilometer/xpcc/src/xpcc/architecture/platform/cortex_m3/stm32/timer/timer_6.hpp **** 			}
 104:/home/jonas/warwick/3dProfilometer/xpcc/src/xpcc/architecture/platform/cortex_m3/stm32/timer/timer_6.hpp **** 			
 105:/home/jonas/warwick/3dProfilometer/xpcc/src/xpcc/architecture/platform/cortex_m3/stm32/timer/timer_6.hpp **** 			static inline void
 106:/home/jonas/warwick/3dProfilometer/xpcc/src/xpcc/architecture/platform/cortex_m3/stm32/timer/timer_6.hpp **** 			setOverflow(uint16_t overflow)
 107:/home/jonas/warwick/3dProfilometer/xpcc/src/xpcc/architecture/platform/cortex_m3/stm32/timer/timer_6.hpp **** 			{
 108:/home/jonas/warwick/3dProfilometer/xpcc/src/xpcc/architecture/platform/cortex_m3/stm32/timer/timer_6.hpp **** 				TIM6->ARR = overflow;
 109:/home/jonas/warwick/3dProfilometer/xpcc/src/xpcc/architecture/platform/cortex_m3/stm32/timer/timer_6.hpp **** 			}
 110:/home/jonas/warwick/3dProfilometer/xpcc/src/xpcc/architecture/platform/cortex_m3/stm32/timer/timer_6.hpp **** 			
 111:/home/jonas/warwick/3dProfilometer/xpcc/src/xpcc/architecture/platform/cortex_m3/stm32/timer/timer_6.hpp **** 			static uint16_t
 112:/home/jonas/warwick/3dProfilometer/xpcc/src/xpcc/architecture/platform/cortex_m3/stm32/timer/timer_6.hpp **** 			setPeriod(uint32_t microseconds, bool autoApply = true);
 113:/home/jonas/warwick/3dProfilometer/xpcc/src/xpcc/architecture/platform/cortex_m3/stm32/timer/timer_6.hpp **** 			
 114:/home/jonas/warwick/3dProfilometer/xpcc/src/xpcc/architecture/platform/cortex_m3/stm32/timer/timer_6.hpp **** 			static inline void
 115:/home/jonas/warwick/3dProfilometer/xpcc/src/xpcc/architecture/platform/cortex_m3/stm32/timer/timer_6.hpp **** 			applyAndReset()
 116:/home/jonas/warwick/3dProfilometer/xpcc/src/xpcc/architecture/platform/cortex_m3/stm32/timer/timer_6.hpp **** 			{
 117:/home/jonas/warwick/3dProfilometer/xpcc/src/xpcc/architecture/platform/cortex_m3/stm32/timer/timer_6.hpp **** 				// Generate Update Event to apply the new settings for ARR
 118:/home/jonas/warwick/3dProfilometer/xpcc/src/xpcc/architecture/platform/cortex_m3/stm32/timer/timer_6.hpp **** 				TIM6->EGR |= TIM_EGR_UG;
 119:/home/jonas/warwick/3dProfilometer/xpcc/src/xpcc/architecture/platform/cortex_m3/stm32/timer/timer_6.hpp **** 			}
 120:/home/jonas/warwick/3dProfilometer/xpcc/src/xpcc/architecture/platform/cortex_m3/stm32/timer/timer_6.hpp **** 			
 121:/home/jonas/warwick/3dProfilometer/xpcc/src/xpcc/architecture/platform/cortex_m3/stm32/timer/timer_6.hpp **** 			static inline uint16_t
 122:/home/jonas/warwick/3dProfilometer/xpcc/src/xpcc/architecture/platform/cortex_m3/stm32/timer/timer_6.hpp **** 			getValue()
 123:/home/jonas/warwick/3dProfilometer/xpcc/src/xpcc/architecture/platform/cortex_m3/stm32/timer/timer_6.hpp **** 			{
 124:/home/jonas/warwick/3dProfilometer/xpcc/src/xpcc/architecture/platform/cortex_m3/stm32/timer/timer_6.hpp **** 				return TIM6->CNT;
 125:/home/jonas/warwick/3dProfilometer/xpcc/src/xpcc/architecture/platform/cortex_m3/stm32/timer/timer_6.hpp **** 			}
 126:/home/jonas/warwick/3dProfilometer/xpcc/src/xpcc/architecture/platform/cortex_m3/stm32/timer/timer_6.hpp **** 			
 127:/home/jonas/warwick/3dProfilometer/xpcc/src/xpcc/architecture/platform/cortex_m3/stm32/timer/timer_6.hpp **** 			static inline void
 128:/home/jonas/warwick/3dProfilometer/xpcc/src/xpcc/architecture/platform/cortex_m3/stm32/timer/timer_6.hpp **** 			setValue(uint16_t value)
 129:/home/jonas/warwick/3dProfilometer/xpcc/src/xpcc/architecture/platform/cortex_m3/stm32/timer/timer_6.hpp **** 			{
 130:/home/jonas/warwick/3dProfilometer/xpcc/src/xpcc/architecture/platform/cortex_m3/stm32/timer/timer_6.hpp **** 				TIM6->CNT = value;
 131:/home/jonas/warwick/3dProfilometer/xpcc/src/xpcc/architecture/platform/cortex_m3/stm32/timer/timer_6.hpp **** 			}
 132:/home/jonas/warwick/3dProfilometer/xpcc/src/xpcc/architecture/platform/cortex_m3/stm32/timer/timer_6.hpp **** 			
 133:/home/jonas/warwick/3dProfilometer/xpcc/src/xpcc/architecture/platform/cortex_m3/stm32/timer/timer_6.hpp **** 			static void
 134:/home/jonas/warwick/3dProfilometer/xpcc/src/xpcc/architecture/platform/cortex_m3/stm32/timer/timer_6.hpp **** 			enableInterruptVector(bool enable, uint32_t priority);
 135:/home/jonas/warwick/3dProfilometer/xpcc/src/xpcc/architecture/platform/cortex_m3/stm32/timer/timer_6.hpp **** 			
 136:/home/jonas/warwick/3dProfilometer/xpcc/src/xpcc/architecture/platform/cortex_m3/stm32/timer/timer_6.hpp **** 			static inline void
 137:/home/jonas/warwick/3dProfilometer/xpcc/src/xpcc/architecture/platform/cortex_m3/stm32/timer/timer_6.hpp **** 			enableInterrupt(Interrupt interrupt)
 138:/home/jonas/warwick/3dProfilometer/xpcc/src/xpcc/architecture/platform/cortex_m3/stm32/timer/timer_6.hpp **** 			{
 139:/home/jonas/warwick/3dProfilometer/xpcc/src/xpcc/architecture/platform/cortex_m3/stm32/timer/timer_6.hpp **** 				TIM6->DIER |= interrupt;
 196              		.loc 3 139 0
 197 000a 704E     		ldr	r6, .L14+8
 198              	.LBE273:
 199              	.LBE272:
 200              	.LBB276:
 201              	.LBB277:
  77:/home/jonas/warwick/3dProfilometer/xpcc/src/xpcc/architecture/platform/cortex_m3/stm32/timer/timer_7.hpp **** 			}
  78:/home/jonas/warwick/3dProfilometer/xpcc/src/xpcc/architecture/platform/cortex_m3/stm32/timer/timer_7.hpp **** 			
  79:/home/jonas/warwick/3dProfilometer/xpcc/src/xpcc/architecture/platform/cortex_m3/stm32/timer/timer_7.hpp **** 			static inline void
  80:/home/jonas/warwick/3dProfilometer/xpcc/src/xpcc/architecture/platform/cortex_m3/stm32/timer/timer_7.hpp **** 			start()
  81:/home/jonas/warwick/3dProfilometer/xpcc/src/xpcc/architecture/platform/cortex_m3/stm32/timer/timer_7.hpp **** 			{
  82:/home/jonas/warwick/3dProfilometer/xpcc/src/xpcc/architecture/platform/cortex_m3/stm32/timer/timer_7.hpp **** 				TIM7->CR1 |= TIM_CR1_CEN;
  83:/home/jonas/warwick/3dProfilometer/xpcc/src/xpcc/architecture/platform/cortex_m3/stm32/timer/timer_7.hpp **** 			}
  84:/home/jonas/warwick/3dProfilometer/xpcc/src/xpcc/architecture/platform/cortex_m3/stm32/timer/timer_7.hpp **** 			
  85:/home/jonas/warwick/3dProfilometer/xpcc/src/xpcc/architecture/platform/cortex_m3/stm32/timer/timer_7.hpp **** 			static void
  86:/home/jonas/warwick/3dProfilometer/xpcc/src/xpcc/architecture/platform/cortex_m3/stm32/timer/timer_7.hpp **** 			setMode(Mode mode);
  87:/home/jonas/warwick/3dProfilometer/xpcc/src/xpcc/architecture/platform/cortex_m3/stm32/timer/timer_7.hpp **** 			
  88:/home/jonas/warwick/3dProfilometer/xpcc/src/xpcc/architecture/platform/cortex_m3/stm32/timer/timer_7.hpp **** 			static inline void
  89:/home/jonas/warwick/3dProfilometer/xpcc/src/xpcc/architecture/platform/cortex_m3/stm32/timer/timer_7.hpp **** 			setPrescaler(uint16_t prescaler)
  90:/home/jonas/warwick/3dProfilometer/xpcc/src/xpcc/architecture/platform/cortex_m3/stm32/timer/timer_7.hpp **** 			{
  91:/home/jonas/warwick/3dProfilometer/xpcc/src/xpcc/architecture/platform/cortex_m3/stm32/timer/timer_7.hpp **** 				// Because a prescaler of zero is not possible the actual
  92:/home/jonas/warwick/3dProfilometer/xpcc/src/xpcc/architecture/platform/cortex_m3/stm32/timer/timer_7.hpp **** 				// prescaler value is \p prescaler - 1 (see Datasheet)
  93:/home/jonas/warwick/3dProfilometer/xpcc/src/xpcc/architecture/platform/cortex_m3/stm32/timer/timer_7.hpp **** 				TIM7->PSC = prescaler - 1;
  94:/home/jonas/warwick/3dProfilometer/xpcc/src/xpcc/architecture/platform/cortex_m3/stm32/timer/timer_7.hpp **** 			}
  95:/home/jonas/warwick/3dProfilometer/xpcc/src/xpcc/architecture/platform/cortex_m3/stm32/timer/timer_7.hpp **** 			
  96:/home/jonas/warwick/3dProfilometer/xpcc/src/xpcc/architecture/platform/cortex_m3/stm32/timer/timer_7.hpp **** 			static inline void
  97:/home/jonas/warwick/3dProfilometer/xpcc/src/xpcc/architecture/platform/cortex_m3/stm32/timer/timer_7.hpp **** 			setOverflow(uint16_t overflow)
  98:/home/jonas/warwick/3dProfilometer/xpcc/src/xpcc/architecture/platform/cortex_m3/stm32/timer/timer_7.hpp **** 			{
  99:/home/jonas/warwick/3dProfilometer/xpcc/src/xpcc/architecture/platform/cortex_m3/stm32/timer/timer_7.hpp **** 				TIM7->ARR = overflow;
 100:/home/jonas/warwick/3dProfilometer/xpcc/src/xpcc/architecture/platform/cortex_m3/stm32/timer/timer_7.hpp **** 			}
 101:/home/jonas/warwick/3dProfilometer/xpcc/src/xpcc/architecture/platform/cortex_m3/stm32/timer/timer_7.hpp **** 			
 102:/home/jonas/warwick/3dProfilometer/xpcc/src/xpcc/architecture/platform/cortex_m3/stm32/timer/timer_7.hpp **** 			static uint16_t
 103:/home/jonas/warwick/3dProfilometer/xpcc/src/xpcc/architecture/platform/cortex_m3/stm32/timer/timer_7.hpp **** 			setPeriod(uint32_t microseconds, bool autoApply = true);
 104:/home/jonas/warwick/3dProfilometer/xpcc/src/xpcc/architecture/platform/cortex_m3/stm32/timer/timer_7.hpp **** 			
 105:/home/jonas/warwick/3dProfilometer/xpcc/src/xpcc/architecture/platform/cortex_m3/stm32/timer/timer_7.hpp **** 			static inline void
 106:/home/jonas/warwick/3dProfilometer/xpcc/src/xpcc/architecture/platform/cortex_m3/stm32/timer/timer_7.hpp **** 			applyAndReset()
 107:/home/jonas/warwick/3dProfilometer/xpcc/src/xpcc/architecture/platform/cortex_m3/stm32/timer/timer_7.hpp **** 			{
 108:/home/jonas/warwick/3dProfilometer/xpcc/src/xpcc/architecture/platform/cortex_m3/stm32/timer/timer_7.hpp **** 				// Generate Update Event to apply the new settings for ARR
 109:/home/jonas/warwick/3dProfilometer/xpcc/src/xpcc/architecture/platform/cortex_m3/stm32/timer/timer_7.hpp **** 				TIM7->EGR |= TIM_EGR_UG;
 110:/home/jonas/warwick/3dProfilometer/xpcc/src/xpcc/architecture/platform/cortex_m3/stm32/timer/timer_7.hpp **** 			}
 111:/home/jonas/warwick/3dProfilometer/xpcc/src/xpcc/architecture/platform/cortex_m3/stm32/timer/timer_7.hpp **** 			
 112:/home/jonas/warwick/3dProfilometer/xpcc/src/xpcc/architecture/platform/cortex_m3/stm32/timer/timer_7.hpp **** 			static inline uint16_t
 113:/home/jonas/warwick/3dProfilometer/xpcc/src/xpcc/architecture/platform/cortex_m3/stm32/timer/timer_7.hpp **** 			getValue()
 114:/home/jonas/warwick/3dProfilometer/xpcc/src/xpcc/architecture/platform/cortex_m3/stm32/timer/timer_7.hpp **** 			{
 115:/home/jonas/warwick/3dProfilometer/xpcc/src/xpcc/architecture/platform/cortex_m3/stm32/timer/timer_7.hpp **** 				return TIM7->CNT;
 116:/home/jonas/warwick/3dProfilometer/xpcc/src/xpcc/architecture/platform/cortex_m3/stm32/timer/timer_7.hpp **** 			}
 117:/home/jonas/warwick/3dProfilometer/xpcc/src/xpcc/architecture/platform/cortex_m3/stm32/timer/timer_7.hpp **** 			
 118:/home/jonas/warwick/3dProfilometer/xpcc/src/xpcc/architecture/platform/cortex_m3/stm32/timer/timer_7.hpp **** 			static inline void
 119:/home/jonas/warwick/3dProfilometer/xpcc/src/xpcc/architecture/platform/cortex_m3/stm32/timer/timer_7.hpp **** 			setValue(uint16_t value)
 120:/home/jonas/warwick/3dProfilometer/xpcc/src/xpcc/architecture/platform/cortex_m3/stm32/timer/timer_7.hpp **** 			{
 121:/home/jonas/warwick/3dProfilometer/xpcc/src/xpcc/architecture/platform/cortex_m3/stm32/timer/timer_7.hpp **** 				TIM7->CNT = value;
 122:/home/jonas/warwick/3dProfilometer/xpcc/src/xpcc/architecture/platform/cortex_m3/stm32/timer/timer_7.hpp **** 			}
 123:/home/jonas/warwick/3dProfilometer/xpcc/src/xpcc/architecture/platform/cortex_m3/stm32/timer/timer_7.hpp **** 			
 124:/home/jonas/warwick/3dProfilometer/xpcc/src/xpcc/architecture/platform/cortex_m3/stm32/timer/timer_7.hpp **** 			static void
 125:/home/jonas/warwick/3dProfilometer/xpcc/src/xpcc/architecture/platform/cortex_m3/stm32/timer/timer_7.hpp **** 			enableInterruptVector(bool enable, uint32_t priority);
 126:/home/jonas/warwick/3dProfilometer/xpcc/src/xpcc/architecture/platform/cortex_m3/stm32/timer/timer_7.hpp **** 			
 127:/home/jonas/warwick/3dProfilometer/xpcc/src/xpcc/architecture/platform/cortex_m3/stm32/timer/timer_7.hpp **** 			static inline void
 128:/home/jonas/warwick/3dProfilometer/xpcc/src/xpcc/architecture/platform/cortex_m3/stm32/timer/timer_7.hpp **** 			enableInterrupt(Interrupt interrupt)
 129:/home/jonas/warwick/3dProfilometer/xpcc/src/xpcc/architecture/platform/cortex_m3/stm32/timer/timer_7.hpp **** 			{
 130:/home/jonas/warwick/3dProfilometer/xpcc/src/xpcc/architecture/platform/cortex_m3/stm32/timer/timer_7.hpp **** 				TIM7->DIER |= interrupt;
 202              		.loc 4 130 0
 203 000c 704D     		ldr	r5, .L14+12
 204              	.LBE277:
 205              	.LBE276:
 206              	.LBB281:
 207              	.LBB282:
 208              	.LBB283:
 209              	.LBB284:
 210              		.file 5 "/home/jonas/warwick/3dProfilometer/xpcc/src/xpcc/io/iostream.hpp"
   1:/home/jonas/warwick/3dProfilometer/xpcc/src/xpcc/io/iostream.hpp **** // coding: utf-8
   2:/home/jonas/warwick/3dProfilometer/xpcc/src/xpcc/io/iostream.hpp **** // ----------------------------------------------------------------------------
   3:/home/jonas/warwick/3dProfilometer/xpcc/src/xpcc/io/iostream.hpp **** /* Copyright (c) 2009, Roboterclub Aachen e.V.
   4:/home/jonas/warwick/3dProfilometer/xpcc/src/xpcc/io/iostream.hpp ****  * All rights reserved.
   5:/home/jonas/warwick/3dProfilometer/xpcc/src/xpcc/io/iostream.hpp ****  *
   6:/home/jonas/warwick/3dProfilometer/xpcc/src/xpcc/io/iostream.hpp ****  * Redistribution and use in source and binary forms, with or without
   7:/home/jonas/warwick/3dProfilometer/xpcc/src/xpcc/io/iostream.hpp ****  * modification, are permitted provided that the following conditions are met:
   8:/home/jonas/warwick/3dProfilometer/xpcc/src/xpcc/io/iostream.hpp ****  * 
   9:/home/jonas/warwick/3dProfilometer/xpcc/src/xpcc/io/iostream.hpp ****  *     * Redistributions of source code must retain the above copyright
  10:/home/jonas/warwick/3dProfilometer/xpcc/src/xpcc/io/iostream.hpp ****  *       notice, this list of conditions and the following disclaimer.
  11:/home/jonas/warwick/3dProfilometer/xpcc/src/xpcc/io/iostream.hpp ****  *     * Redistributions in binary form must reproduce the above copyright
  12:/home/jonas/warwick/3dProfilometer/xpcc/src/xpcc/io/iostream.hpp ****  *       notice, this list of conditions and the following disclaimer in the
  13:/home/jonas/warwick/3dProfilometer/xpcc/src/xpcc/io/iostream.hpp ****  *       documentation and/or other materials provided with the distribution.
  14:/home/jonas/warwick/3dProfilometer/xpcc/src/xpcc/io/iostream.hpp ****  *     * Neither the name of the Roboterclub Aachen e.V. nor the
  15:/home/jonas/warwick/3dProfilometer/xpcc/src/xpcc/io/iostream.hpp ****  *       names of its contributors may be used to endorse or promote products
  16:/home/jonas/warwick/3dProfilometer/xpcc/src/xpcc/io/iostream.hpp ****  *       derived from this software without specific prior written permission.
  17:/home/jonas/warwick/3dProfilometer/xpcc/src/xpcc/io/iostream.hpp ****  *
  18:/home/jonas/warwick/3dProfilometer/xpcc/src/xpcc/io/iostream.hpp ****  * THIS SOFTWARE IS PROVIDED BY ROBOTERCLUB AACHEN E.V. ''AS IS'' AND ANY
  19:/home/jonas/warwick/3dProfilometer/xpcc/src/xpcc/io/iostream.hpp ****  * EXPRESS OR IMPLIED WARRANTIES, INCLUDING, BUT NOT LIMITED TO, THE IMPLIED
  20:/home/jonas/warwick/3dProfilometer/xpcc/src/xpcc/io/iostream.hpp ****  * WARRANTIES OF MERCHANTABILITY AND FITNESS FOR A PARTICULAR PURPOSE ARE
  21:/home/jonas/warwick/3dProfilometer/xpcc/src/xpcc/io/iostream.hpp ****  * DISCLAIMED. IN NO EVENT SHALL ROBOTERCLUB AACHEN E.V. BE LIABLE FOR ANY
  22:/home/jonas/warwick/3dProfilometer/xpcc/src/xpcc/io/iostream.hpp ****  * DIRECT, INDIRECT, INCIDENTAL, SPECIAL, EXEMPLARY, OR CONSEQUENTIAL DAMAGES
  23:/home/jonas/warwick/3dProfilometer/xpcc/src/xpcc/io/iostream.hpp ****  * (INCLUDING, BUT NOT LIMITED TO, PROCUREMENT OF SUBSTITUTE GOODS OR SERVICES;
  24:/home/jonas/warwick/3dProfilometer/xpcc/src/xpcc/io/iostream.hpp ****  * LOSS OF USE, DATA, OR PROFITS; OR BUSINESS INTERRUPTION) HOWEVER CAUSED AND
  25:/home/jonas/warwick/3dProfilometer/xpcc/src/xpcc/io/iostream.hpp ****  * ON ANY THEORY OF LIABILITY, WHETHER IN CONTRACT, STRICT LIABILITY, OR TORT
  26:/home/jonas/warwick/3dProfilometer/xpcc/src/xpcc/io/iostream.hpp ****  * (INCLUDING NEGLIGENCE OR OTHERWISE) ARISING IN ANY WAY OUT OF THE USE OF
  27:/home/jonas/warwick/3dProfilometer/xpcc/src/xpcc/io/iostream.hpp ****  * THIS SOFTWARE, EVEN IF ADVISED OF THE POSSIBILITY OF SUCH DAMAGE.
  28:/home/jonas/warwick/3dProfilometer/xpcc/src/xpcc/io/iostream.hpp ****  */
  29:/home/jonas/warwick/3dProfilometer/xpcc/src/xpcc/io/iostream.hpp **** // ----------------------------------------------------------------------------
  30:/home/jonas/warwick/3dProfilometer/xpcc/src/xpcc/io/iostream.hpp **** 
  31:/home/jonas/warwick/3dProfilometer/xpcc/src/xpcc/io/iostream.hpp **** #ifndef XPCC__IOSTREAM_HPP
  32:/home/jonas/warwick/3dProfilometer/xpcc/src/xpcc/io/iostream.hpp **** #define XPCC__IOSTREAM_HPP
  33:/home/jonas/warwick/3dProfilometer/xpcc/src/xpcc/io/iostream.hpp **** 
  34:/home/jonas/warwick/3dProfilometer/xpcc/src/xpcc/io/iostream.hpp **** #include <xpcc/architecture/utils.hpp>
  35:/home/jonas/warwick/3dProfilometer/xpcc/src/xpcc/io/iostream.hpp **** 
  36:/home/jonas/warwick/3dProfilometer/xpcc/src/xpcc/io/iostream.hpp **** #include "iodevice.hpp"
  37:/home/jonas/warwick/3dProfilometer/xpcc/src/xpcc/io/iostream.hpp **** #include "iodevice_wrapper.hpp"
  38:/home/jonas/warwick/3dProfilometer/xpcc/src/xpcc/io/iostream.hpp **** 
  39:/home/jonas/warwick/3dProfilometer/xpcc/src/xpcc/io/iostream.hpp **** namespace xpcc
  40:/home/jonas/warwick/3dProfilometer/xpcc/src/xpcc/io/iostream.hpp **** {
  41:/home/jonas/warwick/3dProfilometer/xpcc/src/xpcc/io/iostream.hpp **** 	/**
  42:/home/jonas/warwick/3dProfilometer/xpcc/src/xpcc/io/iostream.hpp **** 	 * \brief 	This Formats all primary types into a string stream for
  43:/home/jonas/warwick/3dProfilometer/xpcc/src/xpcc/io/iostream.hpp **** 	 * 			output or it reads values from a input and converts them to
  44:/home/jonas/warwick/3dProfilometer/xpcc/src/xpcc/io/iostream.hpp **** 	 * 			a given type;
  45:/home/jonas/warwick/3dProfilometer/xpcc/src/xpcc/io/iostream.hpp **** 	 *
  46:/home/jonas/warwick/3dProfilometer/xpcc/src/xpcc/io/iostream.hpp **** 	 * \ingroup io
  47:/home/jonas/warwick/3dProfilometer/xpcc/src/xpcc/io/iostream.hpp **** 	 * \author	Martin Rosekeit <martin.rosekeit@rwth-aachen.de>
  48:/home/jonas/warwick/3dProfilometer/xpcc/src/xpcc/io/iostream.hpp **** 	 */
  49:/home/jonas/warwick/3dProfilometer/xpcc/src/xpcc/io/iostream.hpp **** 	class IOStream
  50:/home/jonas/warwick/3dProfilometer/xpcc/src/xpcc/io/iostream.hpp **** 	{
  51:/home/jonas/warwick/3dProfilometer/xpcc/src/xpcc/io/iostream.hpp **** 	public :
  52:/home/jonas/warwick/3dProfilometer/xpcc/src/xpcc/io/iostream.hpp **** 		/**
  53:/home/jonas/warwick/3dProfilometer/xpcc/src/xpcc/io/iostream.hpp **** 		 * \brief	Constructor
  54:/home/jonas/warwick/3dProfilometer/xpcc/src/xpcc/io/iostream.hpp **** 		 * 
  55:/home/jonas/warwick/3dProfilometer/xpcc/src/xpcc/io/iostream.hpp **** 		 * \param	device	device to write the stream to
  56:/home/jonas/warwick/3dProfilometer/xpcc/src/xpcc/io/iostream.hpp **** 		 * 
  57:/home/jonas/warwick/3dProfilometer/xpcc/src/xpcc/io/iostream.hpp **** 		 * \code
  58:/home/jonas/warwick/3dProfilometer/xpcc/src/xpcc/io/iostream.hpp **** 		 *	MyIODevice device;
  59:/home/jonas/warwick/3dProfilometer/xpcc/src/xpcc/io/iostream.hpp **** 		 *	IOStream stream( device );
  60:/home/jonas/warwick/3dProfilometer/xpcc/src/xpcc/io/iostream.hpp **** 		 * \endcode
  61:/home/jonas/warwick/3dProfilometer/xpcc/src/xpcc/io/iostream.hpp **** 		 */
  62:/home/jonas/warwick/3dProfilometer/xpcc/src/xpcc/io/iostream.hpp **** 		IOStream(IODevice& device);
  63:/home/jonas/warwick/3dProfilometer/xpcc/src/xpcc/io/iostream.hpp **** 
  64:/home/jonas/warwick/3dProfilometer/xpcc/src/xpcc/io/iostream.hpp **** 		inline IOStream&
  65:/home/jonas/warwick/3dProfilometer/xpcc/src/xpcc/io/iostream.hpp **** 		write(char c)
  66:/home/jonas/warwick/3dProfilometer/xpcc/src/xpcc/io/iostream.hpp **** 		{
  67:/home/jonas/warwick/3dProfilometer/xpcc/src/xpcc/io/iostream.hpp **** 			this->device->write(c);
  68:/home/jonas/warwick/3dProfilometer/xpcc/src/xpcc/io/iostream.hpp **** 			return *this;
  69:/home/jonas/warwick/3dProfilometer/xpcc/src/xpcc/io/iostream.hpp **** 		}
  70:/home/jonas/warwick/3dProfilometer/xpcc/src/xpcc/io/iostream.hpp **** 		
  71:/home/jonas/warwick/3dProfilometer/xpcc/src/xpcc/io/iostream.hpp **** 		inline IOStream&
  72:/home/jonas/warwick/3dProfilometer/xpcc/src/xpcc/io/iostream.hpp **** 		flush()
  73:/home/jonas/warwick/3dProfilometer/xpcc/src/xpcc/io/iostream.hpp **** 		{
  74:/home/jonas/warwick/3dProfilometer/xpcc/src/xpcc/io/iostream.hpp **** 			this->device->flush();
  75:/home/jonas/warwick/3dProfilometer/xpcc/src/xpcc/io/iostream.hpp **** 			this->mode = Mode::Ascii;
  76:/home/jonas/warwick/3dProfilometer/xpcc/src/xpcc/io/iostream.hpp **** 			return *this;
  77:/home/jonas/warwick/3dProfilometer/xpcc/src/xpcc/io/iostream.hpp **** 		}
  78:/home/jonas/warwick/3dProfilometer/xpcc/src/xpcc/io/iostream.hpp **** 		
  79:/home/jonas/warwick/3dProfilometer/xpcc/src/xpcc/io/iostream.hpp **** 		/// set the output mode to Mode::Binary style for \c char and \c char*
  80:/home/jonas/warwick/3dProfilometer/xpcc/src/xpcc/io/iostream.hpp **** 		ALWAYS_INLINE IOStream&
  81:/home/jonas/warwick/3dProfilometer/xpcc/src/xpcc/io/iostream.hpp **** 		bin()
  82:/home/jonas/warwick/3dProfilometer/xpcc/src/xpcc/io/iostream.hpp **** 		{
  83:/home/jonas/warwick/3dProfilometer/xpcc/src/xpcc/io/iostream.hpp **** 			this->mode = Mode::Binary;
  84:/home/jonas/warwick/3dProfilometer/xpcc/src/xpcc/io/iostream.hpp **** 			return *this;
  85:/home/jonas/warwick/3dProfilometer/xpcc/src/xpcc/io/iostream.hpp **** 		}
  86:/home/jonas/warwick/3dProfilometer/xpcc/src/xpcc/io/iostream.hpp **** 
  87:/home/jonas/warwick/3dProfilometer/xpcc/src/xpcc/io/iostream.hpp **** 		/// set the output mode to Mode::Hexadecimal style for \c char and \c char*
  88:/home/jonas/warwick/3dProfilometer/xpcc/src/xpcc/io/iostream.hpp **** 		ALWAYS_INLINE IOStream&
  89:/home/jonas/warwick/3dProfilometer/xpcc/src/xpcc/io/iostream.hpp **** 		hex()
  90:/home/jonas/warwick/3dProfilometer/xpcc/src/xpcc/io/iostream.hpp **** 		{
  91:/home/jonas/warwick/3dProfilometer/xpcc/src/xpcc/io/iostream.hpp **** 			this->mode = Mode::Hexadecimal;
  92:/home/jonas/warwick/3dProfilometer/xpcc/src/xpcc/io/iostream.hpp **** 			return *this;
  93:/home/jonas/warwick/3dProfilometer/xpcc/src/xpcc/io/iostream.hpp **** 		}
  94:/home/jonas/warwick/3dProfilometer/xpcc/src/xpcc/io/iostream.hpp **** 
  95:/home/jonas/warwick/3dProfilometer/xpcc/src/xpcc/io/iostream.hpp **** 		/// set the output mode to Mode::Ascii style for \c char and \c char*
  96:/home/jonas/warwick/3dProfilometer/xpcc/src/xpcc/io/iostream.hpp **** 		ALWAYS_INLINE IOStream&
  97:/home/jonas/warwick/3dProfilometer/xpcc/src/xpcc/io/iostream.hpp **** 		ascii()
  98:/home/jonas/warwick/3dProfilometer/xpcc/src/xpcc/io/iostream.hpp **** 		{
  99:/home/jonas/warwick/3dProfilometer/xpcc/src/xpcc/io/iostream.hpp **** 			this->mode = Mode::Ascii;
 100:/home/jonas/warwick/3dProfilometer/xpcc/src/xpcc/io/iostream.hpp **** 			return *this;
 101:/home/jonas/warwick/3dProfilometer/xpcc/src/xpcc/io/iostream.hpp **** 		}
 102:/home/jonas/warwick/3dProfilometer/xpcc/src/xpcc/io/iostream.hpp **** 		
 103:/home/jonas/warwick/3dProfilometer/xpcc/src/xpcc/io/iostream.hpp **** 		
 104:/home/jonas/warwick/3dProfilometer/xpcc/src/xpcc/io/iostream.hpp **** 		IOStream&
 105:/home/jonas/warwick/3dProfilometer/xpcc/src/xpcc/io/iostream.hpp **** 		operator << (const unsigned char& v)
 106:/home/jonas/warwick/3dProfilometer/xpcc/src/xpcc/io/iostream.hpp **** 		{
 107:/home/jonas/warwick/3dProfilometer/xpcc/src/xpcc/io/iostream.hpp **** 			if (this->mode == Mode::Ascii) {
 108:/home/jonas/warwick/3dProfilometer/xpcc/src/xpcc/io/iostream.hpp **** 				this->writeInteger(static_cast<uint16_t>(v));
 109:/home/jonas/warwick/3dProfilometer/xpcc/src/xpcc/io/iostream.hpp **** 			}
 110:/home/jonas/warwick/3dProfilometer/xpcc/src/xpcc/io/iostream.hpp **** 			else if (this->mode == Mode::Binary) {
 111:/home/jonas/warwick/3dProfilometer/xpcc/src/xpcc/io/iostream.hpp **** 				this->writeBin(v);
 112:/home/jonas/warwick/3dProfilometer/xpcc/src/xpcc/io/iostream.hpp **** 			}
 113:/home/jonas/warwick/3dProfilometer/xpcc/src/xpcc/io/iostream.hpp **** 			else {
 114:/home/jonas/warwick/3dProfilometer/xpcc/src/xpcc/io/iostream.hpp **** 				this->writeHex(v);
 115:/home/jonas/warwick/3dProfilometer/xpcc/src/xpcc/io/iostream.hpp **** 			}
 116:/home/jonas/warwick/3dProfilometer/xpcc/src/xpcc/io/iostream.hpp **** 			return *this;
 117:/home/jonas/warwick/3dProfilometer/xpcc/src/xpcc/io/iostream.hpp **** 		}
 118:/home/jonas/warwick/3dProfilometer/xpcc/src/xpcc/io/iostream.hpp **** 
 119:/home/jonas/warwick/3dProfilometer/xpcc/src/xpcc/io/iostream.hpp **** 		IOStream&
 120:/home/jonas/warwick/3dProfilometer/xpcc/src/xpcc/io/iostream.hpp **** 		operator << (const char& v)
 121:/home/jonas/warwick/3dProfilometer/xpcc/src/xpcc/io/iostream.hpp **** 		{
 122:/home/jonas/warwick/3dProfilometer/xpcc/src/xpcc/io/iostream.hpp **** 			if (this->mode == Mode::Ascii) {
 123:/home/jonas/warwick/3dProfilometer/xpcc/src/xpcc/io/iostream.hpp **** 				this->device->write(v);
 124:/home/jonas/warwick/3dProfilometer/xpcc/src/xpcc/io/iostream.hpp **** 			}
 125:/home/jonas/warwick/3dProfilometer/xpcc/src/xpcc/io/iostream.hpp **** 			else if (this->mode == Mode::Binary) {
 126:/home/jonas/warwick/3dProfilometer/xpcc/src/xpcc/io/iostream.hpp **** 				this->writeBin(v);
 127:/home/jonas/warwick/3dProfilometer/xpcc/src/xpcc/io/iostream.hpp **** 			}
 128:/home/jonas/warwick/3dProfilometer/xpcc/src/xpcc/io/iostream.hpp **** 			else {
 129:/home/jonas/warwick/3dProfilometer/xpcc/src/xpcc/io/iostream.hpp **** 				this->writeHex(v);
 130:/home/jonas/warwick/3dProfilometer/xpcc/src/xpcc/io/iostream.hpp **** 			}
 131:/home/jonas/warwick/3dProfilometer/xpcc/src/xpcc/io/iostream.hpp **** 			return *this;
 132:/home/jonas/warwick/3dProfilometer/xpcc/src/xpcc/io/iostream.hpp **** 		}
 133:/home/jonas/warwick/3dProfilometer/xpcc/src/xpcc/io/iostream.hpp **** 		
 134:/home/jonas/warwick/3dProfilometer/xpcc/src/xpcc/io/iostream.hpp **** 		ALWAYS_INLINE IOStream&
 135:/home/jonas/warwick/3dProfilometer/xpcc/src/xpcc/io/iostream.hpp **** 		operator << (const uint16_t& v)
 136:/home/jonas/warwick/3dProfilometer/xpcc/src/xpcc/io/iostream.hpp **** 		{
 137:/home/jonas/warwick/3dProfilometer/xpcc/src/xpcc/io/iostream.hpp **** 			if (this->mode == Mode::Ascii) {
 138:/home/jonas/warwick/3dProfilometer/xpcc/src/xpcc/io/iostream.hpp **** 				this->writeInteger(v);
 139:/home/jonas/warwick/3dProfilometer/xpcc/src/xpcc/io/iostream.hpp **** 			}
 140:/home/jonas/warwick/3dProfilometer/xpcc/src/xpcc/io/iostream.hpp **** 			else if (this->mode == Mode::Binary) {
 141:/home/jonas/warwick/3dProfilometer/xpcc/src/xpcc/io/iostream.hpp **** 				this->writeBin(static_cast<uint8_t>(v >> 8));
 142:/home/jonas/warwick/3dProfilometer/xpcc/src/xpcc/io/iostream.hpp **** 				this->writeBin(static_cast<uint8_t>(v & 0xff));
 143:/home/jonas/warwick/3dProfilometer/xpcc/src/xpcc/io/iostream.hpp **** 			}
 144:/home/jonas/warwick/3dProfilometer/xpcc/src/xpcc/io/iostream.hpp **** 			else {
 145:/home/jonas/warwick/3dProfilometer/xpcc/src/xpcc/io/iostream.hpp **** 				this->writeHex(static_cast<uint8_t>(v >> 8));
 146:/home/jonas/warwick/3dProfilometer/xpcc/src/xpcc/io/iostream.hpp **** 				this->writeHex(static_cast<uint8_t>(v & 0xff));
 147:/home/jonas/warwick/3dProfilometer/xpcc/src/xpcc/io/iostream.hpp **** 			}
 148:/home/jonas/warwick/3dProfilometer/xpcc/src/xpcc/io/iostream.hpp **** 			return *this;
 149:/home/jonas/warwick/3dProfilometer/xpcc/src/xpcc/io/iostream.hpp **** 		}
 150:/home/jonas/warwick/3dProfilometer/xpcc/src/xpcc/io/iostream.hpp **** 
 151:/home/jonas/warwick/3dProfilometer/xpcc/src/xpcc/io/iostream.hpp **** 		ALWAYS_INLINE IOStream&
 152:/home/jonas/warwick/3dProfilometer/xpcc/src/xpcc/io/iostream.hpp **** 		operator << (const int16_t& v)
 153:/home/jonas/warwick/3dProfilometer/xpcc/src/xpcc/io/iostream.hpp **** 		{
 154:/home/jonas/warwick/3dProfilometer/xpcc/src/xpcc/io/iostream.hpp **** 			if (this->mode == Mode::Ascii) {
 155:/home/jonas/warwick/3dProfilometer/xpcc/src/xpcc/io/iostream.hpp **** 				this->writeInteger(v);
 156:/home/jonas/warwick/3dProfilometer/xpcc/src/xpcc/io/iostream.hpp **** 			}
 157:/home/jonas/warwick/3dProfilometer/xpcc/src/xpcc/io/iostream.hpp **** 			else if (this->mode == Mode::Binary) {
 158:/home/jonas/warwick/3dProfilometer/xpcc/src/xpcc/io/iostream.hpp **** 				this->writeBin(static_cast<uint8_t>(v >> 8));
 159:/home/jonas/warwick/3dProfilometer/xpcc/src/xpcc/io/iostream.hpp **** 				this->writeBin(static_cast<uint8_t>(v & 0xff));
 160:/home/jonas/warwick/3dProfilometer/xpcc/src/xpcc/io/iostream.hpp **** 			}
 161:/home/jonas/warwick/3dProfilometer/xpcc/src/xpcc/io/iostream.hpp **** 			else {
 162:/home/jonas/warwick/3dProfilometer/xpcc/src/xpcc/io/iostream.hpp **** 				this->writeHex(static_cast<uint8_t>(v >> 8));
 163:/home/jonas/warwick/3dProfilometer/xpcc/src/xpcc/io/iostream.hpp **** 				this->writeHex(static_cast<uint8_t>(v & 0xff));
 164:/home/jonas/warwick/3dProfilometer/xpcc/src/xpcc/io/iostream.hpp **** 			}
 165:/home/jonas/warwick/3dProfilometer/xpcc/src/xpcc/io/iostream.hpp **** 			return *this;
 166:/home/jonas/warwick/3dProfilometer/xpcc/src/xpcc/io/iostream.hpp **** 		}
 167:/home/jonas/warwick/3dProfilometer/xpcc/src/xpcc/io/iostream.hpp **** 
 168:/home/jonas/warwick/3dProfilometer/xpcc/src/xpcc/io/iostream.hpp **** 		ALWAYS_INLINE IOStream&
 169:/home/jonas/warwick/3dProfilometer/xpcc/src/xpcc/io/iostream.hpp **** 		operator << (const uint32_t& v)
 170:/home/jonas/warwick/3dProfilometer/xpcc/src/xpcc/io/iostream.hpp **** 		{
 171:/home/jonas/warwick/3dProfilometer/xpcc/src/xpcc/io/iostream.hpp **** 			if (this->mode == Mode::Ascii) {
 172:/home/jonas/warwick/3dProfilometer/xpcc/src/xpcc/io/iostream.hpp **** 				this->writeInteger(v);
 173:/home/jonas/warwick/3dProfilometer/xpcc/src/xpcc/io/iostream.hpp **** 			}
 174:/home/jonas/warwick/3dProfilometer/xpcc/src/xpcc/io/iostream.hpp **** 			else if (this->mode == Mode::Binary) {
 175:/home/jonas/warwick/3dProfilometer/xpcc/src/xpcc/io/iostream.hpp **** 				this->writeBin(static_cast<uint8_t>(v >> 24));
 176:/home/jonas/warwick/3dProfilometer/xpcc/src/xpcc/io/iostream.hpp **** 				this->writeBin(static_cast<uint8_t>(v >> 16));
 177:/home/jonas/warwick/3dProfilometer/xpcc/src/xpcc/io/iostream.hpp **** 				this->writeBin(static_cast<uint8_t>(v >> 8));
 178:/home/jonas/warwick/3dProfilometer/xpcc/src/xpcc/io/iostream.hpp **** 				this->writeBin(static_cast<uint8_t>(v & 0xff));
 179:/home/jonas/warwick/3dProfilometer/xpcc/src/xpcc/io/iostream.hpp **** 			}
 180:/home/jonas/warwick/3dProfilometer/xpcc/src/xpcc/io/iostream.hpp **** 			else {
 181:/home/jonas/warwick/3dProfilometer/xpcc/src/xpcc/io/iostream.hpp **** 				this->writeHex(static_cast<uint8_t>(v >> 24));
 182:/home/jonas/warwick/3dProfilometer/xpcc/src/xpcc/io/iostream.hpp **** 				this->writeHex(static_cast<uint8_t>(v >> 16));
 183:/home/jonas/warwick/3dProfilometer/xpcc/src/xpcc/io/iostream.hpp **** 				this->writeHex(static_cast<uint8_t>(v >> 8));
 184:/home/jonas/warwick/3dProfilometer/xpcc/src/xpcc/io/iostream.hpp **** 				this->writeHex(static_cast<uint8_t>(v & 0xff));
 185:/home/jonas/warwick/3dProfilometer/xpcc/src/xpcc/io/iostream.hpp **** 			}
 186:/home/jonas/warwick/3dProfilometer/xpcc/src/xpcc/io/iostream.hpp **** 			return *this;
 187:/home/jonas/warwick/3dProfilometer/xpcc/src/xpcc/io/iostream.hpp **** 		}
 188:/home/jonas/warwick/3dProfilometer/xpcc/src/xpcc/io/iostream.hpp **** 
 189:/home/jonas/warwick/3dProfilometer/xpcc/src/xpcc/io/iostream.hpp **** 		ALWAYS_INLINE IOStream&
 190:/home/jonas/warwick/3dProfilometer/xpcc/src/xpcc/io/iostream.hpp **** 		operator << (const int32_t& v)
 191:/home/jonas/warwick/3dProfilometer/xpcc/src/xpcc/io/iostream.hpp **** 		{
 192:/home/jonas/warwick/3dProfilometer/xpcc/src/xpcc/io/iostream.hpp **** 			if (this->mode == Mode::Ascii) {
 193:/home/jonas/warwick/3dProfilometer/xpcc/src/xpcc/io/iostream.hpp **** 				this->writeInteger(v);
 194:/home/jonas/warwick/3dProfilometer/xpcc/src/xpcc/io/iostream.hpp **** 			}
 195:/home/jonas/warwick/3dProfilometer/xpcc/src/xpcc/io/iostream.hpp **** 			else if (this->mode == Mode::Binary) {
 196:/home/jonas/warwick/3dProfilometer/xpcc/src/xpcc/io/iostream.hpp **** 				this->writeBin(static_cast<uint8_t>(v >> 24));
 197:/home/jonas/warwick/3dProfilometer/xpcc/src/xpcc/io/iostream.hpp **** 				this->writeBin(static_cast<uint8_t>(v >> 16));
 198:/home/jonas/warwick/3dProfilometer/xpcc/src/xpcc/io/iostream.hpp **** 				this->writeBin(static_cast<uint8_t>(v >> 8));
 199:/home/jonas/warwick/3dProfilometer/xpcc/src/xpcc/io/iostream.hpp **** 				this->writeBin(static_cast<uint8_t>(v & 0xff));
 200:/home/jonas/warwick/3dProfilometer/xpcc/src/xpcc/io/iostream.hpp **** 			}
 201:/home/jonas/warwick/3dProfilometer/xpcc/src/xpcc/io/iostream.hpp **** 			else {
 202:/home/jonas/warwick/3dProfilometer/xpcc/src/xpcc/io/iostream.hpp **** 				this->writeHex(static_cast<uint8_t>(v >> 24));
 203:/home/jonas/warwick/3dProfilometer/xpcc/src/xpcc/io/iostream.hpp **** 				this->writeHex(static_cast<uint8_t>(v >> 16));
 204:/home/jonas/warwick/3dProfilometer/xpcc/src/xpcc/io/iostream.hpp **** 				this->writeHex(static_cast<uint8_t>(v >> 8));
 205:/home/jonas/warwick/3dProfilometer/xpcc/src/xpcc/io/iostream.hpp **** 				this->writeHex(static_cast<uint8_t>(v & 0xff));
 206:/home/jonas/warwick/3dProfilometer/xpcc/src/xpcc/io/iostream.hpp **** 			}
 207:/home/jonas/warwick/3dProfilometer/xpcc/src/xpcc/io/iostream.hpp **** 			return *this;
 208:/home/jonas/warwick/3dProfilometer/xpcc/src/xpcc/io/iostream.hpp **** 		}
 209:/home/jonas/warwick/3dProfilometer/xpcc/src/xpcc/io/iostream.hpp **** 		
 210:/home/jonas/warwick/3dProfilometer/xpcc/src/xpcc/io/iostream.hpp **** #if defined(XPCC__OS_OSX)
 211:/home/jonas/warwick/3dProfilometer/xpcc/src/xpcc/io/iostream.hpp **** 		// For APPLE 'int64_t' is of type 'int'. Therefore there is no
 212:/home/jonas/warwick/3dProfilometer/xpcc/src/xpcc/io/iostream.hpp **** 		// function here for the default type 'long int'. As 'long int' has the same
 213:/home/jonas/warwick/3dProfilometer/xpcc/src/xpcc/io/iostream.hpp **** 		// width as 'int64_t' we just use a typedef here.
 214:/home/jonas/warwick/3dProfilometer/xpcc/src/xpcc/io/iostream.hpp **** 		ALWAYS_INLINE IOStream&
 215:/home/jonas/warwick/3dProfilometer/xpcc/src/xpcc/io/iostream.hpp **** 		operator << (const long int& v)
 216:/home/jonas/warwick/3dProfilometer/xpcc/src/xpcc/io/iostream.hpp **** 		{
 217:/home/jonas/warwick/3dProfilometer/xpcc/src/xpcc/io/iostream.hpp **** 			this->writeInteger(static_cast<int64_t>(v));
 218:/home/jonas/warwick/3dProfilometer/xpcc/src/xpcc/io/iostream.hpp **** 			return *this;
 219:/home/jonas/warwick/3dProfilometer/xpcc/src/xpcc/io/iostream.hpp **** 		}
 220:/home/jonas/warwick/3dProfilometer/xpcc/src/xpcc/io/iostream.hpp **** 		
 221:/home/jonas/warwick/3dProfilometer/xpcc/src/xpcc/io/iostream.hpp **** 		ALWAYS_INLINE IOStream&
 222:/home/jonas/warwick/3dProfilometer/xpcc/src/xpcc/io/iostream.hpp **** 		operator << (const long unsigned int& v)
 223:/home/jonas/warwick/3dProfilometer/xpcc/src/xpcc/io/iostream.hpp **** 		{
 224:/home/jonas/warwick/3dProfilometer/xpcc/src/xpcc/io/iostream.hpp **** 			this->writeInteger(static_cast<uint64_t>(v));
 225:/home/jonas/warwick/3dProfilometer/xpcc/src/xpcc/io/iostream.hpp **** 			return *this;
 226:/home/jonas/warwick/3dProfilometer/xpcc/src/xpcc/io/iostream.hpp **** 		}
 227:/home/jonas/warwick/3dProfilometer/xpcc/src/xpcc/io/iostream.hpp **** #endif
 228:/home/jonas/warwick/3dProfilometer/xpcc/src/xpcc/io/iostream.hpp **** 		
 229:/home/jonas/warwick/3dProfilometer/xpcc/src/xpcc/io/iostream.hpp **** #if defined(XPCC__CPU_ARM) || defined(XPCC__CPU_AVR32)
 230:/home/jonas/warwick/3dProfilometer/xpcc/src/xpcc/io/iostream.hpp **** 		// For ARM 'int32_t' is of type 'long'. Therefore there is no
 231:/home/jonas/warwick/3dProfilometer/xpcc/src/xpcc/io/iostream.hpp **** 		// function here for the default type 'int'. As 'int' has the same
 232:/home/jonas/warwick/3dProfilometer/xpcc/src/xpcc/io/iostream.hpp **** 		// width as 'int32_t' we just use a typedef here.
 233:/home/jonas/warwick/3dProfilometer/xpcc/src/xpcc/io/iostream.hpp **** 		ALWAYS_INLINE IOStream&
 234:/home/jonas/warwick/3dProfilometer/xpcc/src/xpcc/io/iostream.hpp **** 		operator << (const int& v)
 235:/home/jonas/warwick/3dProfilometer/xpcc/src/xpcc/io/iostream.hpp **** 		{
 236:/home/jonas/warwick/3dProfilometer/xpcc/src/xpcc/io/iostream.hpp **** 			this->writeInteger(static_cast<int32_t>(v));
 237:/home/jonas/warwick/3dProfilometer/xpcc/src/xpcc/io/iostream.hpp **** 			return *this;
 238:/home/jonas/warwick/3dProfilometer/xpcc/src/xpcc/io/iostream.hpp **** 		}
 239:/home/jonas/warwick/3dProfilometer/xpcc/src/xpcc/io/iostream.hpp **** 		
 240:/home/jonas/warwick/3dProfilometer/xpcc/src/xpcc/io/iostream.hpp **** 		ALWAYS_INLINE IOStream&
 241:/home/jonas/warwick/3dProfilometer/xpcc/src/xpcc/io/iostream.hpp **** 		operator << (const unsigned int& v)
 242:/home/jonas/warwick/3dProfilometer/xpcc/src/xpcc/io/iostream.hpp **** 		{
 243:/home/jonas/warwick/3dProfilometer/xpcc/src/xpcc/io/iostream.hpp **** 			this->writeInteger(static_cast<uint32_t>(v));
 244:/home/jonas/warwick/3dProfilometer/xpcc/src/xpcc/io/iostream.hpp **** 			return *this;
 245:/home/jonas/warwick/3dProfilometer/xpcc/src/xpcc/io/iostream.hpp **** 		}
 246:/home/jonas/warwick/3dProfilometer/xpcc/src/xpcc/io/iostream.hpp **** #endif
 247:/home/jonas/warwick/3dProfilometer/xpcc/src/xpcc/io/iostream.hpp **** 		
 248:/home/jonas/warwick/3dProfilometer/xpcc/src/xpcc/io/iostream.hpp **** // The 64-bit types on the AVR are extremely slow and are
 249:/home/jonas/warwick/3dProfilometer/xpcc/src/xpcc/io/iostream.hpp **** // therefore excluded here
 250:/home/jonas/warwick/3dProfilometer/xpcc/src/xpcc/io/iostream.hpp **** #if !defined(XPCC__CPU_AVR)
 251:/home/jonas/warwick/3dProfilometer/xpcc/src/xpcc/io/iostream.hpp **** 		ALWAYS_INLINE IOStream&
 252:/home/jonas/warwick/3dProfilometer/xpcc/src/xpcc/io/iostream.hpp **** 		operator << (const uint64_t& v)
 253:/home/jonas/warwick/3dProfilometer/xpcc/src/xpcc/io/iostream.hpp **** 		{
 254:/home/jonas/warwick/3dProfilometer/xpcc/src/xpcc/io/iostream.hpp **** 			this->writeInteger(v);
 255:/home/jonas/warwick/3dProfilometer/xpcc/src/xpcc/io/iostream.hpp **** 			return *this;
 256:/home/jonas/warwick/3dProfilometer/xpcc/src/xpcc/io/iostream.hpp **** 		}
 257:/home/jonas/warwick/3dProfilometer/xpcc/src/xpcc/io/iostream.hpp **** 		
 258:/home/jonas/warwick/3dProfilometer/xpcc/src/xpcc/io/iostream.hpp **** 		ALWAYS_INLINE IOStream&
 259:/home/jonas/warwick/3dProfilometer/xpcc/src/xpcc/io/iostream.hpp **** 		operator << (const int64_t& v)
 260:/home/jonas/warwick/3dProfilometer/xpcc/src/xpcc/io/iostream.hpp **** 		{
 261:/home/jonas/warwick/3dProfilometer/xpcc/src/xpcc/io/iostream.hpp **** 			this->writeInteger(v);
 262:/home/jonas/warwick/3dProfilometer/xpcc/src/xpcc/io/iostream.hpp **** 			return *this;
 263:/home/jonas/warwick/3dProfilometer/xpcc/src/xpcc/io/iostream.hpp **** 		}
 264:/home/jonas/warwick/3dProfilometer/xpcc/src/xpcc/io/iostream.hpp **** #endif
 265:/home/jonas/warwick/3dProfilometer/xpcc/src/xpcc/io/iostream.hpp **** 		
 266:/home/jonas/warwick/3dProfilometer/xpcc/src/xpcc/io/iostream.hpp **** 		ALWAYS_INLINE IOStream&
 267:/home/jonas/warwick/3dProfilometer/xpcc/src/xpcc/io/iostream.hpp **** 		operator << (const float& v)
 268:/home/jonas/warwick/3dProfilometer/xpcc/src/xpcc/io/iostream.hpp **** 		{
 269:/home/jonas/warwick/3dProfilometer/xpcc/src/xpcc/io/iostream.hpp **** 			this->writeFloat(v);
 270:/home/jonas/warwick/3dProfilometer/xpcc/src/xpcc/io/iostream.hpp **** 			return *this;
 271:/home/jonas/warwick/3dProfilometer/xpcc/src/xpcc/io/iostream.hpp **** 		}
 272:/home/jonas/warwick/3dProfilometer/xpcc/src/xpcc/io/iostream.hpp **** 
 273:/home/jonas/warwick/3dProfilometer/xpcc/src/xpcc/io/iostream.hpp **** 		ALWAYS_INLINE IOStream&
 274:/home/jonas/warwick/3dProfilometer/xpcc/src/xpcc/io/iostream.hpp **** 		operator << (const double& v)
 275:/home/jonas/warwick/3dProfilometer/xpcc/src/xpcc/io/iostream.hpp **** 		{
 276:/home/jonas/warwick/3dProfilometer/xpcc/src/xpcc/io/iostream.hpp **** #if defined(XPCC__CPU_AVR)
 277:/home/jonas/warwick/3dProfilometer/xpcc/src/xpcc/io/iostream.hpp **** 			this->writeFloat(static_cast<float>(v));
 278:/home/jonas/warwick/3dProfilometer/xpcc/src/xpcc/io/iostream.hpp **** #else
 279:/home/jonas/warwick/3dProfilometer/xpcc/src/xpcc/io/iostream.hpp **** 			this->writeDouble(v);
 280:/home/jonas/warwick/3dProfilometer/xpcc/src/xpcc/io/iostream.hpp **** #endif
 281:/home/jonas/warwick/3dProfilometer/xpcc/src/xpcc/io/iostream.hpp **** 			return *this;
 282:/home/jonas/warwick/3dProfilometer/xpcc/src/xpcc/io/iostream.hpp **** 		}
 283:/home/jonas/warwick/3dProfilometer/xpcc/src/xpcc/io/iostream.hpp **** 
 284:/home/jonas/warwick/3dProfilometer/xpcc/src/xpcc/io/iostream.hpp **** 		IOStream&
 285:/home/jonas/warwick/3dProfilometer/xpcc/src/xpcc/io/iostream.hpp **** 		operator << (const char* s)
 286:/home/jonas/warwick/3dProfilometer/xpcc/src/xpcc/io/iostream.hpp **** 		{
 287:/home/jonas/warwick/3dProfilometer/xpcc/src/xpcc/io/iostream.hpp **** 			if( this->mode == Mode::Ascii ) {
 211              		.loc 5 287 0
 212 000e DFF80C82 		ldr	r8, .L14+88
 213              	.LBE284:
 214              	.LBE283:
 215              	.LBE282:
 216              	.LBE281:
 217              	.LBB327:
 218              	.LBB266:
  16:state.cpp     **** GPIO__OUTPUT(ledRed, D, 14);
 219              		.loc 1 16 0
 220 0012 23F04053 		bic	r3, r3, #805306368
 221 0016 43F08053 		orr	r3, r3, #268435456
 222 001a 2360     		str	r3, [r4, #0]
 223 001c 6368     		ldr	r3, [r4, #4]
 224 001e 23F48043 		bic	r3, r3, #16384
 225 0022 6360     		str	r3, [r4, #4]
 226 0024 A368     		ldr	r3, [r4, #8]
 227 0026 23F04053 		bic	r3, r3, #805306368
 228 002a 43F08053 		orr	r3, r3, #268435456
 229 002e A360     		str	r3, [r4, #8]
 230 0030 E368     		ldr	r3, [r4, #12]
 231 0032 23F04053 		bic	r3, r3, #805306368
 232 0036 E360     		str	r3, [r4, #12]
 233              	.LVL5:
 234              	.LBE266:
 235              	.LBE327:
 236              	.LBB328:
 237              	.LBB329:
  17:state.cpp     **** GPIO__OUTPUT(ledBlue, D, 15);
 238              		.loc 1 17 0
 239 0038 2368     		ldr	r3, [r4, #0]
 240 003a 23F04043 		bic	r3, r3, #-1073741824
 241 003e 43F08043 		orr	r3, r3, #1073741824
 242 0042 2360     		str	r3, [r4, #0]
 243 0044 6368     		ldr	r3, [r4, #4]
 244 0046 23F40043 		bic	r3, r3, #32768
 245 004a 6360     		str	r3, [r4, #4]
 246 004c A368     		ldr	r3, [r4, #8]
 247 004e 23F04043 		bic	r3, r3, #-1073741824
 248 0052 43F08043 		orr	r3, r3, #1073741824
 249 0056 A360     		str	r3, [r4, #8]
 250 0058 E368     		ldr	r3, [r4, #12]
 251 005a 23F04043 		bic	r3, r3, #-1073741824
 252 005e E360     		str	r3, [r4, #12]
 253              	.LVL6:
 254              	.LBE329:
 255              	.LBE328:
 256              	.LBB330:
 257              	.LBB331:
  18:state.cpp     **** GPIO__OUTPUT(ledOrange, D, 13);
 258              		.loc 1 18 0
 259 0060 2368     		ldr	r3, [r4, #0]
 260 0062 23F04063 		bic	r3, r3, #201326592
 261 0066 43F08063 		orr	r3, r3, #67108864
 262 006a 2360     		str	r3, [r4, #0]
 263 006c 6368     		ldr	r3, [r4, #4]
 264 006e 23F40053 		bic	r3, r3, #8192
 265 0072 6360     		str	r3, [r4, #4]
 266 0074 A368     		ldr	r3, [r4, #8]
 267 0076 23F04063 		bic	r3, r3, #201326592
 268 007a 43F08063 		orr	r3, r3, #67108864
 269 007e A360     		str	r3, [r4, #8]
 270 0080 E368     		ldr	r3, [r4, #12]
 271 0082 23F04063 		bic	r3, r3, #201326592
 272 0086 E360     		str	r3, [r4, #12]
 273              	.LVL7:
 274              	.LBE331:
 275              	.LBE330:
 276              	.LBB332:
 277              	.LBB333:
  19:state.cpp     **** GPIO__OUTPUT(ledGreen, D, 12);
 278              		.loc 1 19 0
 279 0088 2368     		ldr	r3, [r4, #0]
 280 008a 23F04073 		bic	r3, r3, #50331648
 281 008e 43F08073 		orr	r3, r3, #16777216
 282 0092 2360     		str	r3, [r4, #0]
 283 0094 6368     		ldr	r3, [r4, #4]
 284 0096 23F48053 		bic	r3, r3, #4096
 285 009a 6360     		str	r3, [r4, #4]
 286 009c A368     		ldr	r3, [r4, #8]
 287 009e 23F04073 		bic	r3, r3, #50331648
 288 00a2 43F08073 		orr	r3, r3, #16777216
 289 00a6 A360     		str	r3, [r4, #8]
 290 00a8 E368     		ldr	r3, [r4, #12]
 291 00aa 23F04073 		bic	r3, r3, #50331648
 292 00ae E360     		str	r3, [r4, #12]
 293              	.LBE333:
 294              	.LBE332:
  38:state.cpp     **** 	ledRed::setOutput(xpcc::stm32::PUSH_PULL);
  39:state.cpp     **** 	ledBlue::setOutput(xpcc::stm32::PUSH_PULL);
  40:state.cpp     **** 	ledOrange::setOutput(xpcc::stm32::PUSH_PULL);
  41:state.cpp     **** 	ledGreen::setOutput(xpcc::stm32::PUSH_PULL);
  42:state.cpp     **** 
  43:state.cpp     **** 	//configure timers:
  44:state.cpp     **** 	//timer1 -> red led -> errors
  45:state.cpp     **** 	Timer1::enable();
 295              		.loc 1 45 0
 296 00b0 484B     		ldr	r3, .L14+16
 297 00b2 9847     		blx	r3
 298              	.LVL8:
  46:state.cpp     **** 	Timer1::setMode(Timer3::UP_COUNTER);
 299              		.loc 1 46 0
 300 00b4 0020     		movs	r0, #0
 301 00b6 DFF874C1 		ldr	ip, .L14+104
 302 00ba 0346     		mov	r3, r0
 303 00bc 0146     		mov	r1, r0
 304 00be 0246     		mov	r2, r0
 305 00c0 E047     		blx	ip
 306              	.LVL9:
  47:state.cpp     **** 	Timer1::enableInterruptVector(GeneralPurposeTimer::Interrupt::INTERRUPT_UPDATE, true, 15);
 307              		.loc 1 47 0
 308 00c2 0120     		movs	r0, #1
 309 00c4 0F22     		movs	r2, #15
 310 00c6 0146     		mov	r1, r0
 311 00c8 434B     		ldr	r3, .L14+20
 312 00ca 9847     		blx	r3
 313              	.LVL10:
 314              	.LBB334:
 315              	.LBB269:
 316              		.loc 2 494 0
 317 00cc BB89     		ldrh	r3, [r7, #12]
 318              	.LBE269:
 319              	.LBE334:
  48:state.cpp     **** 	Timer1::enableInterrupt(Timer1::INTERRUPT_UPDATE);
  49:state.cpp     **** 	Timer1::setPeriod(300000);	// 300 ms
 320              		.loc 1 49 0
 321 00ce 4348     		ldr	r0, .L14+24
 322 00d0 0121     		movs	r1, #1
 323              	.LBB335:
 324              	.LBB270:
 325              		.loc 2 494 0
 326 00d2 9BB2     		uxth	r3, r3
 327 00d4 0B43     		orrs	r3, r3, r1
 328 00d6 BB81     		strh	r3, [r7, #12]	@ movhi
 329              	.LBE270:
 330              	.LBE335:
 331              		.loc 1 49 0
 332 00d8 414B     		ldr	r3, .L14+28
 333 00da 9847     		blx	r3
 334              	.LVL11:
  50:state.cpp     **** 
  51:state.cpp     **** 	//timer6 -> blue led -> executing rectangle scan
  52:state.cpp     **** 	Timer6::enable();
 335              		.loc 1 52 0
 336 00dc 414B     		ldr	r3, .L14+32
 337 00de 9847     		blx	r3
 338              	.LVL12:
  53:state.cpp     **** 	Timer6::setMode(Timer6::UP_COUNTER);
 339              		.loc 1 53 0
 340 00e0 0020     		movs	r0, #0
 341 00e2 414B     		ldr	r3, .L14+36
 342 00e4 9847     		blx	r3
 343              	.LVL13:
  54:state.cpp     **** 	Timer6::enableInterruptVector(true, 15);
 344              		.loc 1 54 0
 345 00e6 0120     		movs	r0, #1
 346 00e8 0F21     		movs	r1, #15
 347 00ea 404B     		ldr	r3, .L14+40
 348 00ec 9847     		blx	r3
 349              	.LVL14:
 350              	.LBB336:
 351              	.LBB274:
 352              		.loc 3 139 0
 353 00ee B389     		ldrh	r3, [r6, #12]
 354              	.LBE274:
 355              	.LBE336:
  55:state.cpp     **** 	Timer6::enableInterrupt(Timer6::INTERRUPT_UPDATE);
  56:state.cpp     **** 	Timer6::setPeriod(1000000);	// 1000 ms
 356              		.loc 1 56 0
 357 00f0 3F48     		ldr	r0, .L14+44
 358 00f2 0121     		movs	r1, #1
 359              	.LBB337:
 360              	.LBB275:
 361              		.loc 3 139 0
 362 00f4 9BB2     		uxth	r3, r3
 363 00f6 0B43     		orrs	r3, r3, r1
 364 00f8 B381     		strh	r3, [r6, #12]	@ movhi
 365              	.LBE275:
 366              	.LBE337:
 367              		.loc 1 56 0
 368 00fa 3E4B     		ldr	r3, .L14+48
 369 00fc 9847     		blx	r3
 370              	.LVL15:
  57:state.cpp     **** 
  58:state.cpp     **** 	//timer7 -> orange led -> velocity controlled
  59:state.cpp     **** 	Timer7::enable();
 371              		.loc 1 59 0
 372 00fe 3E4B     		ldr	r3, .L14+52
 373 0100 9847     		blx	r3
 374              	.LVL16:
  60:state.cpp     **** 	Timer7::setMode(Timer7::UP_COUNTER);
 375              		.loc 1 60 0
 376 0102 0020     		movs	r0, #0
 377 0104 3D4B     		ldr	r3, .L14+56
 378 0106 9847     		blx	r3
 379              	.LVL17:
  61:state.cpp     **** 	Timer7::enableInterruptVector(true, 15);
 380              		.loc 1 61 0
 381 0108 0120     		movs	r0, #1
 382 010a 0F21     		movs	r1, #15
 383 010c 3C4B     		ldr	r3, .L14+60
 384 010e 9847     		blx	r3
 385              	.LVL18:
 386              	.LBB338:
 387              	.LBB278:
 388              		.loc 4 130 0
 389 0110 AB89     		ldrh	r3, [r5, #12]
 390              	.LBE278:
 391              	.LBE338:
  62:state.cpp     **** 	Timer7::enableInterrupt(Timer7::INTERRUPT_UPDATE);
  63:state.cpp     **** 	Timer7::setPeriod(200000);	// 700 ms
 392              		.loc 1 63 0
 393 0112 3C48     		ldr	r0, .L14+64
 394              	.LBB339:
 395              	.LBB279:
 396              		.loc 4 130 0
 397 0114 9BB2     		uxth	r3, r3
 398 0116 43F00103 		orr	r3, r3, #1
 399              	.LBE279:
 400              	.LBE339:
 401              		.loc 1 63 0
 402 011a 0121     		movs	r1, #1
 403              	.LBB340:
 404              	.LBB280:
 405              		.loc 4 130 0
 406 011c AB81     		strh	r3, [r5, #12]	@ movhi
 407              	.LBE280:
 408              	.LBE340:
 409              		.loc 1 63 0
 410 011e 3A4B     		ldr	r3, .L14+68
 411 0120 9847     		blx	r3
 412              	.LVL19:
 413              	.LBB341:
 414              	.LBB326:
 415              	.LBB288:
 416              	.LBB289:
 417              	.LBB290:
 217:/home/jonas/warwick/3dProfilometer/xpcc/src/xpcc/architecture/platform/cortex_m3/stm32/timer/timer_1.hpp **** 				TIM1->CR1 &= ~TIM_CR1_CEN;
 418              		.loc 2 217 0
 419 0122 3B88     		ldrh	r3, [r7, #0]
 420              	.LBE290:
 421              	.LBE289:
 422              	.LBE288:
 423              	.LBB309:
 424              	.LBB285:
 425              		.loc 5 287 0
 426 0124 D8F80420 		ldr	r2, [r8, #4]
 427              	.LBE285:
 428              	.LBE309:
 429              	.LBB310:
 430              	.LBB292:
 431              	.LBB291:
 217:/home/jonas/warwick/3dProfilometer/xpcc/src/xpcc/architecture/platform/cortex_m3/stm32/timer/timer_1.hpp **** 				TIM1->CR1 &= ~TIM_CR1_CEN;
 432              		.loc 2 217 0
 433 0128 23F00103 		bic	r3, r3, #1
 434 012c 1B04     		lsls	r3, r3, #16
 435 012e 1B0C     		lsrs	r3, r3, #16
 436 0130 3B80     		strh	r3, [r7, #0]	@ movhi
 437              	.LBE291:
 438              	.LBE292:
 439              	.LBB293:
 440              	.LBB294:
  85:/home/jonas/warwick/3dProfilometer/xpcc/src/xpcc/architecture/platform/cortex_m3/stm32/timer/timer_6.hpp **** 				TIM6->CR1 &= ~TIM_CR1_CEN;
 441              		.loc 3 85 0
 442 0132 3388     		ldrh	r3, [r6, #0]
 443 0134 23F00103 		bic	r3, r3, #1
 444 0138 1B04     		lsls	r3, r3, #16
 445 013a 1B0C     		lsrs	r3, r3, #16
 446 013c 3380     		strh	r3, [r6, #0]	@ movhi
 447              	.LBE294:
 448              	.LBE293:
 449              	.LBB295:
 450              	.LBB296:
  76:/home/jonas/warwick/3dProfilometer/xpcc/src/xpcc/architecture/platform/cortex_m3/stm32/timer/timer_7.hpp **** 				TIM7->CR1 &= ~TIM_CR1_CEN;
 451              		.loc 4 76 0
 452 013e 2B88     		ldrh	r3, [r5, #0]
 453 0140 23F00103 		bic	r3, r3, #1
 454 0144 1B04     		lsls	r3, r3, #16
 455 0146 1B0C     		lsrs	r3, r3, #16
 456 0148 2B80     		strh	r3, [r5, #0]	@ movhi
 457              	.LVL20:
 458              	.LBE296:
 459              	.LBE295:
 460              	.LBE310:
  64:state.cpp     **** 
  65:state.cpp     **** 	State::set(State::INITIALIZING);
  66:state.cpp     **** }
  67:state.cpp     **** 
  68:state.cpp     **** void State::set(int newState){
  69:state.cpp     **** 	currentState = newState;
 461              		.loc 1 69 0
 462 014a 304B     		ldr	r3, .L14+72
 463 014c 0021     		movs	r1, #0
 464 014e 1960     		str	r1, [r3, #0]
 465              	.LBB311:
 466              	.LBB297:
 467              	.LBB298:
 468              	.LBB299:
  16:state.cpp     **** GPIO__OUTPUT(ledRed, D, 14);
 469              		.loc 1 16 0
 470 0150 4FF48043 		mov	r3, #16384
 471 0154 6383     		strh	r3, [r4, #26]	@ movhi
 472              	.LVL21:
 473              	.LBE299:
 474              	.LBE298:
 475              	.LBE297:
 476              	.LBB300:
 477              	.LBB301:
 478              	.LBB302:
  17:state.cpp     **** GPIO__OUTPUT(ledBlue, D, 15);
 479              		.loc 1 17 0
 480 0156 4FF40043 		mov	r3, #32768
 481 015a 6383     		strh	r3, [r4, #26]	@ movhi
 482              	.LVL22:
 483              	.LBE302:
 484              	.LBE301:
 485              	.LBE300:
 486              	.LBB303:
 487              	.LBB304:
 488              	.LBB305:
  18:state.cpp     **** GPIO__OUTPUT(ledOrange, D, 13);
 489              		.loc 1 18 0
 490 015c 4FF40053 		mov	r3, #8192
 491 0160 6383     		strh	r3, [r4, #26]	@ movhi
 492              	.LVL23:
 493              	.LBE305:
 494              	.LBE304:
 495              	.LBE303:
 496              	.LBB306:
 497              	.LBB307:
 498              	.LBB308:
  19:state.cpp     **** GPIO__OUTPUT(ledGreen, D, 12);
 499              		.loc 1 19 0
 500 0162 4FF48053 		mov	r3, #4096
 501 0166 6383     		strh	r3, [r4, #26]	@ movhi
 502              	.LVL24:
 503              	.LBE308:
 504              	.LBE307:
 505              	.LBE306:
 506              	.LBE311:
 507              	.LBB312:
 508              	.LBB286:
 509              		.loc 5 287 0
 510 0168 F2B1     		cbz	r2, .L12
 288:/home/jonas/warwick/3dProfilometer/xpcc/src/xpcc/io/iostream.hpp **** 				this->device->write(s);
 289:/home/jonas/warwick/3dProfilometer/xpcc/src/xpcc/io/iostream.hpp **** 			}
 290:/home/jonas/warwick/3dProfilometer/xpcc/src/xpcc/io/iostream.hpp **** 			else if( this->mode == Mode::Binary ) {
 511              		.loc 5 290 0
 512 016a 022A     		cmp	r2, #2
 291:/home/jonas/warwick/3dProfilometer/xpcc/src/xpcc/io/iostream.hpp **** 				this->writeBin(s);
 513              		.loc 5 291 0
 514 016c 4046     		mov	r0, r8
 515 016e 2849     		ldr	r1, .L14+76
 516 0170 0CBF     		ite	eq
 517 0172 284B     		ldreq	r3, .L14+80
 292:/home/jonas/warwick/3dProfilometer/xpcc/src/xpcc/io/iostream.hpp **** 			}
 293:/home/jonas/warwick/3dProfilometer/xpcc/src/xpcc/io/iostream.hpp **** 			else {
 294:/home/jonas/warwick/3dProfilometer/xpcc/src/xpcc/io/iostream.hpp **** 				this->writeHex(s);
 518              		.loc 5 294 0
 519 0174 284B     		ldrne	r3, .L14+84
 520 0176 9847     		blx	r3
 521              	.LVL25:
 522              	.L6:
 523              	.LBE286:
 524              	.LBE312:
 525              	.LBB313:
 526              	.LBB314:
 236:/home/jonas/warwick/3dProfilometer/xpcc/src/xpcc/io/iostream.hpp **** 			this->writeInteger(static_cast<int32_t>(v));
 527              		.loc 5 236 0
 528 0178 284C     		ldr	r4, .L14+88
 529 017a 294B     		ldr	r3, .L14+92
 530 017c 2046     		mov	r0, r4
 531 017e 0021     		movs	r1, #0
 532 0180 9847     		blx	r3
 533              	.LVL26:
 534              	.LBE314:
 535              	.LBE313:
 536              	.LBB315:
 537              	.LBB316:
 122:/home/jonas/warwick/3dProfilometer/xpcc/src/xpcc/io/iostream.hpp **** 			if (this->mode == Mode::Ascii) {
 538              		.loc 5 122 0
 539 0182 D8F80430 		ldr	r3, [r8, #4]
 540 0186 B3B1     		cbz	r3, .L13
 126:/home/jonas/warwick/3dProfilometer/xpcc/src/xpcc/io/iostream.hpp **** 				this->writeBin(v);
 541              		.loc 5 126 0
 542 0188 0A21     		movs	r1, #10
 125:/home/jonas/warwick/3dProfilometer/xpcc/src/xpcc/io/iostream.hpp **** 			else if (this->mode == Mode::Binary) {
 543              		.loc 5 125 0
 544 018a 022B     		cmp	r3, #2
 126:/home/jonas/warwick/3dProfilometer/xpcc/src/xpcc/io/iostream.hpp **** 				this->writeBin(v);
 545              		.loc 5 126 0
 546 018c 2046     		mov	r0, r4
 547 018e 0CBF     		ite	eq
 548 0190 244B     		ldreq	r3, .L14+96
 129:/home/jonas/warwick/3dProfilometer/xpcc/src/xpcc/io/iostream.hpp **** 				this->writeHex(v);
 549              		.loc 5 129 0
 550 0192 254B     		ldrne	r3, .L14+100
 551 0194 9847     		blx	r3
 552              	.LVL27:
 553              	.L9:
 554              	.LBE316:
 555              	.LBE315:
 556              	.LBB318:
 557              	.LBB319:
 558              	.LBB320:
  18:state.cpp     **** GPIO__OUTPUT(ledOrange, D, 13);
 559              		.loc 1 18 0
 560 0196 0B4B     		ldr	r3, .L14
 561 0198 4FF40052 		mov	r2, #8192
 562 019c 1A83     		strh	r2, [r3, #24]	@ movhi
 563              	.LVL28:
 564              	.LBE320:
 565              	.LBE319:
 566              	.LBE318:
 567              	.LBB321:
 568              	.LBB322:
 569              	.LBB323:
  16:state.cpp     **** GPIO__OUTPUT(ledRed, D, 14);
 570              		.loc 1 16 0
 571 019e 4FF48042 		mov	r2, #16384
 572 01a2 1A83     		strh	r2, [r3, #24]	@ movhi
 573 01a4 BDE8F081 		pop	{r4, r5, r6, r7, r8, pc}
 574              	.LVL29:
 575              	.L12:
 576              	.LBE323:
 577              	.LBE322:
 578              	.LBE321:
 579              	.LBB324:
 580              	.LBB287:
 288:/home/jonas/warwick/3dProfilometer/xpcc/src/xpcc/io/iostream.hpp **** 				this->device->write(s);
 581              		.loc 5 288 0
 582 01a8 D8F80000 		ldr	r0, [r8, #0]
 583 01ac 1849     		ldr	r1, .L14+76
 584 01ae 0368     		ldr	r3, [r0, #0]
 585 01b0 DB68     		ldr	r3, [r3, #12]
 586 01b2 9847     		blx	r3
 587              	.LVL30:
 588 01b4 E0E7     		b	.L6
 589              	.LVL31:
 590              	.L13:
 591              	.LBE287:
 592              	.LBE324:
 593              	.LBB325:
 594              	.LBB317:
 123:/home/jonas/warwick/3dProfilometer/xpcc/src/xpcc/io/iostream.hpp **** 				this->device->write(v);
 595              		.loc 5 123 0
 596 01b6 2068     		ldr	r0, [r4, #0]
 597 01b8 0368     		ldr	r3, [r0, #0]
 598 01ba 0A21     		movs	r1, #10
 599 01bc 9B68     		ldr	r3, [r3, #8]
 600 01be 9847     		blx	r3
 601              	.LVL32:
 602 01c0 E9E7     		b	.L9
 603              	.L15:
 604 01c2 00BF     		.align	2
 605              	.L14:
 606 01c4 000C0240 		.word	1073875968
 607 01c8 00000140 		.word	1073807360
 608 01cc 00100040 		.word	1073745920
 609 01d0 00140040 		.word	1073746944
 610 01d4 00000000 		.word	_ZN4xpcc5stm326Timer16enableEv
 611 01d8 00000000 		.word	_ZN4xpcc5stm326Timer121enableInterruptVectorENS0_19GeneralPurposeTimer9InterruptEbm
 612 01dc E0930400 		.word	300000
 613 01e0 00000000 		.word	_ZN4xpcc5stm326Timer19setPeriodEmb
 614 01e4 00000000 		.word	_ZN4xpcc5stm326Timer66enableEv
 615 01e8 00000000 		.word	_ZN4xpcc5stm326Timer67setModeENS0_10BasicTimer4ModeE
 616 01ec 00000000 		.word	_ZN4xpcc5stm326Timer621enableInterruptVectorEbm
 617 01f0 40420F00 		.word	1000000
 618 01f4 00000000 		.word	_ZN4xpcc5stm326Timer69setPeriodEmb
 619 01f8 00000000 		.word	_ZN4xpcc5stm326Timer76enableEv
 620 01fc 00000000 		.word	_ZN4xpcc5stm326Timer77setModeENS0_10BasicTimer4ModeE
 621 0200 00000000 		.word	_ZN4xpcc5stm326Timer721enableInterruptVectorEbm
 622 0204 400D0300 		.word	200000
 623 0208 00000000 		.word	_ZN4xpcc5stm326Timer79setPeriodEmb
 624 020c 00000000 		.word	.LANCHOR0
 625 0210 00000000 		.word	.LC0
 626 0214 00000000 		.word	_ZN4xpcc8IOStream8writeBinEPKc
 627 0218 00000000 		.word	_ZN4xpcc8IOStream8writeHexEPKc
 628 021c 00000000 		.word	dout
 629 0220 00000000 		.word	_ZN4xpcc8IOStream12writeIntegerEl
 630 0224 00000000 		.word	_ZN4xpcc8IOStream8writeBinEh
 631 0228 00000000 		.word	_ZN4xpcc8IOStream8writeHexEh
 632 022c 00000000 		.word	_ZN4xpcc5stm326Timer17setModeENS0_19GeneralPurposeTimer4ModeENS1_9SlaveModeENS1_16SlaveModeT
 633              	.LBE317:
 634              	.LBE325:
 635              	.LBE326:
 636              	.LBE341:
 637              		.cfi_endproc
 638              	.LFE863:
 640              		.section	.text._ZN5State3setEi,"ax",%progbits
 641              		.align	2
 642              		.global	_ZN5State3setEi
 643              		.thumb
 644              		.thumb_func
 646              	_ZN5State3setEi:
 647              	.LFB864:
  68:state.cpp     **** void State::set(int newState){
 648              		.loc 1 68 0
 649              		.cfi_startproc
 650              		@ args = 0, pretend = 0, frame = 0
 651              		@ frame_needed = 0, uses_anonymous_args = 0
 652              	.LVL33:
 653 0000 F8B5     		push	{r3, r4, r5, r6, r7, lr}
 654              	.LCFI2:
 655              		.cfi_def_cfa_offset 24
 656              		.cfi_offset 3, -24
 657              		.cfi_offset 4, -20
 658              		.cfi_offset 5, -16
 659              		.cfi_offset 6, -12
 660              		.cfi_offset 7, -8
 661              		.cfi_offset 14, -4
 662              	.LBB381:
 663              	.LBB382:
 664              	.LBB383:
 217:/home/jonas/warwick/3dProfilometer/xpcc/src/xpcc/architecture/platform/cortex_m3/stm32/timer/timer_1.hpp **** 				TIM1->CR1 &= ~TIM_CR1_CEN;
 665              		.loc 2 217 0
 666 0002 3D4E     		ldr	r6, .L31
 667              	.LBE383:
 668              	.LBE382:
 669              	.LBE381:
 670              	.LBB414:
 671              	.LBB415:
 287:/home/jonas/warwick/3dProfilometer/xpcc/src/xpcc/io/iostream.hpp **** 			if( this->mode == Mode::Ascii ) {
 672              		.loc 5 287 0
 673 0004 3D4D     		ldr	r5, .L31+4
 674              	.LBE415:
 675              	.LBE414:
 676              	.LBB419:
 677              	.LBB386:
 678              	.LBB384:
 217:/home/jonas/warwick/3dProfilometer/xpcc/src/xpcc/architecture/platform/cortex_m3/stm32/timer/timer_1.hpp **** 				TIM1->CR1 &= ~TIM_CR1_CEN;
 679              		.loc 2 217 0
 680 0006 3388     		ldrh	r3, [r6, #0]
 681              	.LBE384:
 682              	.LBE386:
 683              	.LBB387:
 684              	.LBB388:
  85:/home/jonas/warwick/3dProfilometer/xpcc/src/xpcc/architecture/platform/cortex_m3/stm32/timer/timer_6.hpp **** 				TIM6->CR1 &= ~TIM_CR1_CEN;
 685              		.loc 3 85 0
 686 0008 3D4C     		ldr	r4, .L31+8
 687              	.LBE388:
 688              	.LBE387:
 689              	.LBE419:
 690              	.LBB420:
 691              	.LBB416:
 287:/home/jonas/warwick/3dProfilometer/xpcc/src/xpcc/io/iostream.hpp **** 			if( this->mode == Mode::Ascii ) {
 692              		.loc 5 287 0
 693 000a 6F68     		ldr	r7, [r5, #4]
 694              	.LBE416:
 695              	.LBE420:
 696              	.LBB421:
 697              	.LBB390:
 698              	.LBB391:
  76:/home/jonas/warwick/3dProfilometer/xpcc/src/xpcc/architecture/platform/cortex_m3/stm32/timer/timer_7.hpp **** 				TIM7->CR1 &= ~TIM_CR1_CEN;
 699              		.loc 4 76 0
 700 000c 3D49     		ldr	r1, .L31+12
 701              	.LBE391:
 702              	.LBE390:
 703              	.LBB393:
 704              	.LBB394:
 705              	.LBB395:
  16:state.cpp     **** GPIO__OUTPUT(ledRed, D, 14);
 706              		.loc 1 16 0
 707 000e 3E4A     		ldr	r2, .L31+16
 708              	.LBE395:
 709              	.LBE394:
 710              	.LBE393:
 711              	.LBB398:
 712              	.LBB385:
 217:/home/jonas/warwick/3dProfilometer/xpcc/src/xpcc/architecture/platform/cortex_m3/stm32/timer/timer_1.hpp **** 				TIM1->CR1 &= ~TIM_CR1_CEN;
 713              		.loc 2 217 0
 714 0010 23F00103 		bic	r3, r3, #1
 715 0014 1B04     		lsls	r3, r3, #16
 716 0016 1B0C     		lsrs	r3, r3, #16
 717 0018 3380     		strh	r3, [r6, #0]	@ movhi
 718              	.LBE385:
 719              	.LBE398:
 720              	.LBB399:
 721              	.LBB389:
  85:/home/jonas/warwick/3dProfilometer/xpcc/src/xpcc/architecture/platform/cortex_m3/stm32/timer/timer_6.hpp **** 				TIM6->CR1 &= ~TIM_CR1_CEN;
 722              		.loc 3 85 0
 723 001a 2388     		ldrh	r3, [r4, #0]
 724 001c 23F00103 		bic	r3, r3, #1
 725 0020 1B04     		lsls	r3, r3, #16
 726 0022 1B0C     		lsrs	r3, r3, #16
 727 0024 2380     		strh	r3, [r4, #0]	@ movhi
 728              	.LBE389:
 729              	.LBE399:
 730              	.LBB400:
 731              	.LBB392:
  76:/home/jonas/warwick/3dProfilometer/xpcc/src/xpcc/architecture/platform/cortex_m3/stm32/timer/timer_7.hpp **** 				TIM7->CR1 &= ~TIM_CR1_CEN;
 732              		.loc 4 76 0
 733 0026 0B88     		ldrh	r3, [r1, #0]
 734 0028 23F00103 		bic	r3, r3, #1
 735 002c 1B04     		lsls	r3, r3, #16
 736 002e 1B0C     		lsrs	r3, r3, #16
 737 0030 0B80     		strh	r3, [r1, #0]	@ movhi
 738              	.LVL34:
 739              	.LBE392:
 740              	.LBE400:
 741              	.LBE421:
 742              		.loc 1 69 0
 743 0032 364B     		ldr	r3, .L31+20
 744 0034 1860     		str	r0, [r3, #0]
 745              	.LBB422:
 746              	.LBB401:
 747              	.LBB397:
 748              	.LBB396:
  16:state.cpp     **** GPIO__OUTPUT(ledRed, D, 14);
 749              		.loc 1 16 0
 750 0036 4FF48043 		mov	r3, #16384
 751 003a 5383     		strh	r3, [r2, #26]	@ movhi
 752              	.LVL35:
 753              	.LBE396:
 754              	.LBE397:
 755              	.LBE401:
 756              	.LBB402:
 757              	.LBB403:
 758              	.LBB404:
  17:state.cpp     **** GPIO__OUTPUT(ledBlue, D, 15);
 759              		.loc 1 17 0
 760 003c 4FF40043 		mov	r3, #32768
 761 0040 5383     		strh	r3, [r2, #26]	@ movhi
 762              	.LVL36:
 763              	.LBE404:
 764              	.LBE403:
 765              	.LBE402:
 766              	.LBB405:
 767              	.LBB406:
 768              	.LBB407:
  18:state.cpp     **** GPIO__OUTPUT(ledOrange, D, 13);
 769              		.loc 1 18 0
 770 0042 4FF40053 		mov	r3, #8192
 771 0046 5383     		strh	r3, [r2, #26]	@ movhi
 772              	.LVL37:
 773              	.LBE407:
 774              	.LBE406:
 775              	.LBE405:
 776              	.LBB408:
 777              	.LBB409:
 778              	.LBB410:
  19:state.cpp     **** GPIO__OUTPUT(ledGreen, D, 12);
 779              		.loc 1 19 0
 780 0048 4FF48053 		mov	r3, #4096
 781              	.LBE410:
 782              	.LBE409:
 783              	.LBE408:
 784              	.LBE422:
  68:state.cpp     **** void State::set(int newState){
 785              		.loc 1 68 0
 786 004c 0446     		mov	r4, r0
 787              	.LBB423:
 788              	.LBB413:
 789              	.LBB412:
 790              	.LBB411:
  19:state.cpp     **** GPIO__OUTPUT(ledGreen, D, 12);
 791              		.loc 1 19 0
 792 004e 5383     		strh	r3, [r2, #26]	@ movhi
 793              	.LVL38:
 794              	.LBE411:
 795              	.LBE412:
 796              	.LBE413:
 797              	.LBE423:
 798              	.LBB424:
 799              	.LBB417:
 287:/home/jonas/warwick/3dProfilometer/xpcc/src/xpcc/io/iostream.hpp **** 			if( this->mode == Mode::Ascii ) {
 800              		.loc 5 287 0
 801 0050 002F     		cmp	r7, #0
 802 0052 4BD0     		beq	.L29
 290:/home/jonas/warwick/3dProfilometer/xpcc/src/xpcc/io/iostream.hpp **** 			else if( this->mode == Mode::Binary ) {
 803              		.loc 5 290 0
 804 0054 022F     		cmp	r7, #2
 291:/home/jonas/warwick/3dProfilometer/xpcc/src/xpcc/io/iostream.hpp **** 				this->writeBin(s);
 805              		.loc 5 291 0
 806 0056 2846     		mov	r0, r5
 807              	.LVL39:
 808 0058 2D49     		ldr	r1, .L31+24
 809 005a 0CBF     		ite	eq
 810 005c 2D4B     		ldreq	r3, .L31+28
 811              		.loc 5 294 0
 812 005e 2E4B     		ldrne	r3, .L31+32
 813 0060 9847     		blx	r3
 814              	.LVL40:
 815              	.L18:
 816              	.LBE417:
 817              	.LBE424:
 818              	.LBB425:
 819              	.LBB426:
 236:/home/jonas/warwick/3dProfilometer/xpcc/src/xpcc/io/iostream.hpp **** 			this->writeInteger(static_cast<int32_t>(v));
 820              		.loc 5 236 0
 821 0062 264E     		ldr	r6, .L31+4
 822 0064 2D4B     		ldr	r3, .L31+36
 823 0066 3046     		mov	r0, r6
 824 0068 2146     		mov	r1, r4
 825 006a 9847     		blx	r3
 826              	.LVL41:
 827              	.LBE426:
 828              	.LBE425:
 829              	.LBB427:
 830              	.LBB428:
 122:/home/jonas/warwick/3dProfilometer/xpcc/src/xpcc/io/iostream.hpp **** 			if (this->mode == Mode::Ascii) {
 831              		.loc 5 122 0
 832 006c 6B68     		ldr	r3, [r5, #4]
 833 006e 002B     		cmp	r3, #0
 834 0070 36D0     		beq	.L30
 126:/home/jonas/warwick/3dProfilometer/xpcc/src/xpcc/io/iostream.hpp **** 				this->writeBin(v);
 835              		.loc 5 126 0
 836 0072 0A21     		movs	r1, #10
 125:/home/jonas/warwick/3dProfilometer/xpcc/src/xpcc/io/iostream.hpp **** 			else if (this->mode == Mode::Binary) {
 837              		.loc 5 125 0
 838 0074 022B     		cmp	r3, #2
 126:/home/jonas/warwick/3dProfilometer/xpcc/src/xpcc/io/iostream.hpp **** 				this->writeBin(v);
 839              		.loc 5 126 0
 840 0076 3046     		mov	r0, r6
 841 0078 0CBF     		ite	eq
 842 007a 294B     		ldreq	r3, .L31+40
 129:/home/jonas/warwick/3dProfilometer/xpcc/src/xpcc/io/iostream.hpp **** 				this->writeHex(v);
 843              		.loc 5 129 0
 844 007c 294B     		ldrne	r3, .L31+44
 845 007e 9847     		blx	r3
 846              	.LVL42:
 847              	.L21:
 848              	.LBE428:
 849              	.LBE427:
  70:state.cpp     **** 	disableAllLeds();
  71:state.cpp     **** 
  72:state.cpp     **** 	dout << "going to state " << newState << endl;
  73:state.cpp     **** 	switch(newState){
 850              		.loc 1 73 0
 851 0080 202C     		cmp	r4, #32
 852 0082 18D8     		bhi	.L16
 853 0084 DFE804F0 		tbb	[pc, r4]
 854              	.L28:
 855 0088 24       		.byte	(.L24-.L28)/2
 856 0089 1F       		.byte	(.L25-.L28)/2
 857 008a 17       		.byte	(.L16-.L28)/2
 858 008b 17       		.byte	(.L16-.L28)/2
 859 008c 18       		.byte	(.L26-.L28)/2
 860 008d 17       		.byte	(.L16-.L28)/2
 861 008e 17       		.byte	(.L16-.L28)/2
 862 008f 17       		.byte	(.L16-.L28)/2
 863 0090 11       		.byte	(.L27-.L28)/2
 864 0091 17       		.byte	(.L16-.L28)/2
 865 0092 17       		.byte	(.L16-.L28)/2
 866 0093 17       		.byte	(.L16-.L28)/2
 867 0094 17       		.byte	(.L16-.L28)/2
 868 0095 17       		.byte	(.L16-.L28)/2
 869 0096 17       		.byte	(.L16-.L28)/2
 870 0097 17       		.byte	(.L16-.L28)/2
 871 0098 11       		.byte	(.L27-.L28)/2
 872 0099 17       		.byte	(.L16-.L28)/2
 873 009a 17       		.byte	(.L16-.L28)/2
 874 009b 17       		.byte	(.L16-.L28)/2
 875 009c 17       		.byte	(.L16-.L28)/2
 876 009d 17       		.byte	(.L16-.L28)/2
 877 009e 17       		.byte	(.L16-.L28)/2
 878 009f 17       		.byte	(.L16-.L28)/2
 879 00a0 17       		.byte	(.L16-.L28)/2
 880 00a1 17       		.byte	(.L16-.L28)/2
 881 00a2 17       		.byte	(.L16-.L28)/2
 882 00a3 17       		.byte	(.L16-.L28)/2
 883 00a4 17       		.byte	(.L16-.L28)/2
 884 00a5 17       		.byte	(.L16-.L28)/2
 885 00a6 17       		.byte	(.L16-.L28)/2
 886 00a7 17       		.byte	(.L16-.L28)/2
 887 00a8 11       		.byte	(.L27-.L28)/2
 888 00a9 00       		.align	1
 889              	.L27:
 890              	.LBB430:
 891              	.LBB431:
 223:/home/jonas/warwick/3dProfilometer/xpcc/src/xpcc/architecture/platform/cortex_m3/stm32/timer/timer_1.hpp **** 				TIM1->CR1 |= TIM_CR1_CEN;
 892              		.loc 2 223 0
 893 00aa 134B     		ldr	r3, .L31
 894 00ac 1A88     		ldrh	r2, [r3, #0]
 895 00ae 92B2     		uxth	r2, r2
 896 00b0 42F00102 		orr	r2, r2, #1
 897 00b4 1A80     		strh	r2, [r3, #0]	@ movhi
 898              	.L16:
 899 00b6 F8BD     		pop	{r3, r4, r5, r6, r7, pc}
 900              	.L26:
 901              	.LBE431:
 902              	.LBE430:
 903              	.LBB432:
 904              	.LBB433:
  91:/home/jonas/warwick/3dProfilometer/xpcc/src/xpcc/architecture/platform/cortex_m3/stm32/timer/timer_6.hpp **** 				TIM6->CR1 |= TIM_CR1_CEN;
 905              		.loc 3 91 0
 906 00b8 114B     		ldr	r3, .L31+8
 907 00ba 1A88     		ldrh	r2, [r3, #0]
 908 00bc 92B2     		uxth	r2, r2
 909 00be 42F00102 		orr	r2, r2, #1
 910 00c2 1A80     		strh	r2, [r3, #0]	@ movhi
 911 00c4 F8BD     		pop	{r3, r4, r5, r6, r7, pc}
 912              	.L25:
 913              	.LVL43:
 914              	.LBE433:
 915              	.LBE432:
 916              	.LBB434:
 917              	.LBB435:
 918              	.LBB436:
  19:state.cpp     **** GPIO__OUTPUT(ledGreen, D, 12);
 919              		.loc 1 19 0
 920 00c6 104B     		ldr	r3, .L31+16
 921 00c8 4FF48052 		mov	r2, #4096
 922 00cc 1A83     		strh	r2, [r3, #24]	@ movhi
 923 00ce F8BD     		pop	{r3, r4, r5, r6, r7, pc}
 924              	.LVL44:
 925              	.L24:
 926              	.LBE436:
 927              	.LBE435:
 928              	.LBE434:
 929              	.LBB437:
 930              	.LBB438:
 931              	.LBB439:
  18:state.cpp     **** GPIO__OUTPUT(ledOrange, D, 13);
 932              		.loc 1 18 0
 933 00d0 0D4B     		ldr	r3, .L31+16
 934 00d2 4FF40052 		mov	r2, #8192
 935 00d6 1A83     		strh	r2, [r3, #24]	@ movhi
 936              	.LVL45:
 937              	.LBE439:
 938              	.LBE438:
 939              	.LBE437:
 940              	.LBB440:
 941              	.LBB441:
 942              	.LBB442:
  16:state.cpp     **** GPIO__OUTPUT(ledRed, D, 14);
 943              		.loc 1 16 0
 944 00d8 4FF48042 		mov	r2, #16384
 945 00dc 1A83     		strh	r2, [r3, #24]	@ movhi
 946 00de F8BD     		pop	{r3, r4, r5, r6, r7, pc}
 947              	.LVL46:
 948              	.L30:
 949              	.LBE442:
 950              	.LBE441:
 951              	.LBE440:
 952              	.LBB443:
 953              	.LBB429:
 123:/home/jonas/warwick/3dProfilometer/xpcc/src/xpcc/io/iostream.hpp **** 				this->device->write(v);
 954              		.loc 5 123 0
 955 00e0 3068     		ldr	r0, [r6, #0]
 956 00e2 0368     		ldr	r3, [r0, #0]
 957 00e4 0A21     		movs	r1, #10
 958 00e6 9B68     		ldr	r3, [r3, #8]
 959 00e8 9847     		blx	r3
 960              	.LVL47:
 961 00ea C9E7     		b	.L21
 962              	.LVL48:
 963              	.L29:
 964              	.LBE429:
 965              	.LBE443:
 966              	.LBB444:
 967              	.LBB418:
 288:/home/jonas/warwick/3dProfilometer/xpcc/src/xpcc/io/iostream.hpp **** 				this->device->write(s);
 968              		.loc 5 288 0
 969 00ec 2868     		ldr	r0, [r5, #0]
 970              	.LVL49:
 971 00ee 0849     		ldr	r1, .L31+24
 972 00f0 0368     		ldr	r3, [r0, #0]
 973 00f2 DB68     		ldr	r3, [r3, #12]
 974 00f4 9847     		blx	r3
 975              	.LVL50:
 976 00f6 B4E7     		b	.L18
 977              	.L32:
 978              		.align	2
 979              	.L31:
 980 00f8 00000140 		.word	1073807360
 981 00fc 00000000 		.word	dout
 982 0100 00100040 		.word	1073745920
 983 0104 00140040 		.word	1073746944
 984 0108 000C0240 		.word	1073875968
 985 010c 00000000 		.word	.LANCHOR0
 986 0110 00000000 		.word	.LC0
 987 0114 00000000 		.word	_ZN4xpcc8IOStream8writeBinEPKc
 988 0118 00000000 		.word	_ZN4xpcc8IOStream8writeHexEPKc
 989 011c 00000000 		.word	_ZN4xpcc8IOStream12writeIntegerEl
 990 0120 00000000 		.word	_ZN4xpcc8IOStream8writeBinEh
 991 0124 00000000 		.word	_ZN4xpcc8IOStream8writeHexEh
 992              	.LBE418:
 993              	.LBE444:
 994              		.cfi_endproc
 995              	.LFE864:
 997              		.section	.text._ZN5State17setSecondaryStateEib,"ax",%progbits
 998              		.align	2
 999              		.global	_ZN5State17setSecondaryStateEib
 1000              		.thumb
 1001              		.thumb_func
 1003              	_ZN5State17setSecondaryStateEib:
 1004              	.LFB865:
  74:state.cpp     **** 	case State::INITIALIZING:
  75:state.cpp     **** 		ledOrange::set(true);
  76:state.cpp     **** 		ledRed::set(true);
  77:state.cpp     **** 		break;
  78:state.cpp     **** 	case State::READY:
  79:state.cpp     **** 		ledGreen::set(true);
  80:state.cpp     **** 		break;
  81:state.cpp     **** 	case State::SCANNING_RECTANGLE:
  82:state.cpp     **** 		Timer6::start();
  83:state.cpp     **** 		break;
  84:state.cpp     **** 	case State::MOTOR1_FAULT:
  85:state.cpp     **** 	case State::MOTOR2_FAULT:
  86:state.cpp     **** 	case State::PC_INIT_FAIL:
  87:state.cpp     **** 		Timer1::start();
  88:state.cpp     **** 		break;
  89:state.cpp     **** 	}
  90:state.cpp     **** }
  91:state.cpp     **** 
  92:state.cpp     **** void State::setSecondaryState(int state, bool set){
 1005              		.loc 1 92 0
 1006              		.cfi_startproc
 1007              		@ args = 0, pretend = 0, frame = 0
 1008              		@ frame_needed = 0, uses_anonymous_args = 0
 1009              		@ link register save eliminated.
 1010              	.LVL51:
  93:state.cpp     **** 	//dout << "motor limit " << set << endl;
  94:state.cpp     **** 	switch(state){
 1011              		.loc 1 94 0
 1012 0000 0228     		cmp	r0, #2
 1013 0002 00D0     		beq	.L37
 1014 0004 7047     		bx	lr
 1015              	.L37:
  95:state.cpp     **** 	case State::MOTOR_LIMITED:
  96:state.cpp     **** 		if(set){
 1016              		.loc 1 96 0
 1017 0006 59B9     		cbnz	r1, .L38
 1018              	.LBB445:
 1019              	.LBB446:
  76:/home/jonas/warwick/3dProfilometer/xpcc/src/xpcc/architecture/platform/cortex_m3/stm32/timer/timer_7.hpp **** 				TIM7->CR1 &= ~TIM_CR1_CEN;
 1020              		.loc 4 76 0
 1021 0008 094A     		ldr	r2, .L39
 1022 000a 1388     		ldrh	r3, [r2, #0]
 1023 000c 23F00103 		bic	r3, r3, #1
 1024 0010 1B04     		lsls	r3, r3, #16
 1025 0012 1B0C     		lsrs	r3, r3, #16
 1026 0014 1380     		strh	r3, [r2, #0]	@ movhi
 1027              	.LVL52:
 1028              	.LBE446:
 1029              	.LBE445:
 1030              	.LBB447:
 1031              	.LBB448:
 1032              	.LBB449:
 1033              	.LBB450:
  18:state.cpp     **** GPIO__OUTPUT(ledOrange, D, 13);
 1034              		.loc 1 18 0
 1035 0016 074B     		ldr	r3, .L39+4
 1036 0018 4FF40052 		mov	r2, #8192
 1037 001c 5A83     		strh	r2, [r3, #26]	@ movhi
 1038 001e 7047     		bx	lr
 1039              	.LVL53:
 1040              	.L38:
 1041              	.LBE450:
 1042              	.LBE449:
 1043              	.LBE448:
 1044              	.LBE447:
 1045              	.LBB451:
 1046              	.LBB452:
  82:/home/jonas/warwick/3dProfilometer/xpcc/src/xpcc/architecture/platform/cortex_m3/stm32/timer/timer_7.hpp **** 				TIM7->CR1 |= TIM_CR1_CEN;
 1047              		.loc 4 82 0
 1048 0020 034B     		ldr	r3, .L39
 1049 0022 1A88     		ldrh	r2, [r3, #0]
 1050 0024 92B2     		uxth	r2, r2
 1051 0026 42F00102 		orr	r2, r2, #1
 1052 002a 1A80     		strh	r2, [r3, #0]	@ movhi
 1053 002c 7047     		bx	lr
 1054              	.L40:
 1055 002e 00BF     		.align	2
 1056              	.L39:
 1057 0030 00140040 		.word	1073746944
 1058 0034 000C0240 		.word	1073875968
 1059              	.LBE452:
 1060              	.LBE451:
 1061              		.cfi_endproc
 1062              	.LFE865:
 1064              		.section	.text._ZN5State6setRedEb,"ax",%progbits
 1065              		.align	2
 1066              		.global	_ZN5State6setRedEb
 1067              		.thumb
 1068              		.thumb_func
 1070              	_ZN5State6setRedEb:
 1071              	.LFB866:
  97:state.cpp     **** 			Timer7::start();
  98:state.cpp     **** 		}else{
  99:state.cpp     **** 			Timer7::pause();
 100:state.cpp     **** 			setOrange(false);
 101:state.cpp     **** 		}
 102:state.cpp     **** 		break;
 103:state.cpp     **** 	}
 104:state.cpp     **** }
 105:state.cpp     **** 
 106:state.cpp     **** void State::setRed(bool on){
 1072              		.loc 1 106 0
 1073              		.cfi_startproc
 1074              		@ args = 0, pretend = 0, frame = 0
 1075              		@ frame_needed = 0, uses_anonymous_args = 0
 1076              		@ link register save eliminated.
 1077              	.LVL54:
 1078              	.LBB453:
 1079              	.LBB454:
 1080              	.LBB455:
 1081              	.LBB456:
  16:state.cpp     **** GPIO__OUTPUT(ledRed, D, 14);
 1082              		.loc 1 16 0
 1083 0000 4FF48042 		mov	r2, #16384
 1084 0004 024B     		ldr	r3, .L45
 1085              	.LBE456:
 1086              	.LBE455:
 1087 0006 08B9     		cbnz	r0, .L44
 1088              	.LBB458:
 1089              	.LBB459:
 1090 0008 5A83     		strh	r2, [r3, #26]	@ movhi
 1091 000a 7047     		bx	lr
 1092              	.L44:
 1093              	.LBE459:
 1094              	.LBE458:
 1095              	.LBB460:
 1096              	.LBB457:
 1097 000c 1A83     		strh	r2, [r3, #24]	@ movhi
 1098 000e 7047     		bx	lr
 1099              	.L46:
 1100              		.align	2
 1101              	.L45:
 1102 0010 000C0240 		.word	1073875968
 1103              	.LBE457:
 1104              	.LBE460:
 1105              	.LBE454:
 1106              	.LBE453:
 1107              		.cfi_endproc
 1108              	.LFE866:
 1110              		.section	.text._ZN5State7setBlueEb,"ax",%progbits
 1111              		.align	2
 1112              		.global	_ZN5State7setBlueEb
 1113              		.thumb
 1114              		.thumb_func
 1116              	_ZN5State7setBlueEb:
 1117              	.LFB867:
 107:state.cpp     **** 	ledRed::set(on);
 108:state.cpp     **** }
 109:state.cpp     **** 
 110:state.cpp     **** void State::setBlue(bool on){
 1118              		.loc 1 110 0
 1119              		.cfi_startproc
 1120              		@ args = 0, pretend = 0, frame = 0
 1121              		@ frame_needed = 0, uses_anonymous_args = 0
 1122              		@ link register save eliminated.
 1123              	.LVL55:
 1124              	.LBB461:
 1125              	.LBB462:
 1126              	.LBB463:
 1127              	.LBB464:
  17:state.cpp     **** GPIO__OUTPUT(ledBlue, D, 15);
 1128              		.loc 1 17 0
 1129 0000 4FF40042 		mov	r2, #32768
 1130 0004 024B     		ldr	r3, .L51
 1131              	.LBE464:
 1132              	.LBE463:
 1133 0006 08B9     		cbnz	r0, .L50
 1134              	.LBB466:
 1135              	.LBB467:
 1136 0008 5A83     		strh	r2, [r3, #26]	@ movhi
 1137 000a 7047     		bx	lr
 1138              	.L50:
 1139              	.LBE467:
 1140              	.LBE466:
 1141              	.LBB468:
 1142              	.LBB465:
 1143 000c 1A83     		strh	r2, [r3, #24]	@ movhi
 1144 000e 7047     		bx	lr
 1145              	.L52:
 1146              		.align	2
 1147              	.L51:
 1148 0010 000C0240 		.word	1073875968
 1149              	.LBE465:
 1150              	.LBE468:
 1151              	.LBE462:
 1152              	.LBE461:
 1153              		.cfi_endproc
 1154              	.LFE867:
 1156              		.section	.text._ZN5State9setOrangeEb,"ax",%progbits
 1157              		.align	2
 1158              		.global	_ZN5State9setOrangeEb
 1159              		.thumb
 1160              		.thumb_func
 1162              	_ZN5State9setOrangeEb:
 1163              	.LFB868:
 111:state.cpp     **** 	ledBlue::set(on);
 112:state.cpp     **** }
 113:state.cpp     **** 
 114:state.cpp     **** void State::setOrange(bool on){
 1164              		.loc 1 114 0
 1165              		.cfi_startproc
 1166              		@ args = 0, pretend = 0, frame = 0
 1167              		@ frame_needed = 0, uses_anonymous_args = 0
 1168              		@ link register save eliminated.
 1169              	.LVL56:
 1170              	.LBB469:
 1171              	.LBB470:
 1172              	.LBB471:
 1173              	.LBB472:
  18:state.cpp     **** GPIO__OUTPUT(ledOrange, D, 13);
 1174              		.loc 1 18 0
 1175 0000 4FF40052 		mov	r2, #8192
 1176 0004 024B     		ldr	r3, .L57
 1177              	.LBE472:
 1178              	.LBE471:
 1179 0006 08B9     		cbnz	r0, .L56
 1180              	.LBB474:
 1181              	.LBB475:
 1182 0008 5A83     		strh	r2, [r3, #26]	@ movhi
 1183 000a 7047     		bx	lr
 1184              	.L56:
 1185              	.LBE475:
 1186              	.LBE474:
 1187              	.LBB476:
 1188              	.LBB473:
 1189 000c 1A83     		strh	r2, [r3, #24]	@ movhi
 1190 000e 7047     		bx	lr
 1191              	.L58:
 1192              		.align	2
 1193              	.L57:
 1194 0010 000C0240 		.word	1073875968
 1195              	.LBE473:
 1196              	.LBE476:
 1197              	.LBE470:
 1198              	.LBE469:
 1199              		.cfi_endproc
 1200              	.LFE868:
 1202              		.section	.text._ZN5State8setGreenEb,"ax",%progbits
 1203              		.align	2
 1204              		.global	_ZN5State8setGreenEb
 1205              		.thumb
 1206              		.thumb_func
 1208              	_ZN5State8setGreenEb:
 1209              	.LFB869:
 115:state.cpp     **** 	ledOrange::set(on);
 116:state.cpp     **** }
 117:state.cpp     **** 
 118:state.cpp     **** void State::setGreen(bool on){
 1210              		.loc 1 118 0
 1211              		.cfi_startproc
 1212              		@ args = 0, pretend = 0, frame = 0
 1213              		@ frame_needed = 0, uses_anonymous_args = 0
 1214              		@ link register save eliminated.
 1215              	.LVL57:
 1216              	.LBB477:
 1217              	.LBB478:
 1218              	.LBB479:
 1219              	.LBB480:
  19:state.cpp     **** GPIO__OUTPUT(ledGreen, D, 12);
 1220              		.loc 1 19 0
 1221 0000 4FF48052 		mov	r2, #4096
 1222 0004 024B     		ldr	r3, .L63
 1223              	.LBE480:
 1224              	.LBE479:
 1225 0006 08B9     		cbnz	r0, .L62
 1226              	.LBB482:
 1227              	.LBB483:
 1228 0008 5A83     		strh	r2, [r3, #26]	@ movhi
 1229 000a 7047     		bx	lr
 1230              	.L62:
 1231              	.LBE483:
 1232              	.LBE482:
 1233              	.LBB484:
 1234              	.LBB481:
 1235 000c 1A83     		strh	r2, [r3, #24]	@ movhi
 1236 000e 7047     		bx	lr
 1237              	.L64:
 1238              		.align	2
 1239              	.L63:
 1240 0010 000C0240 		.word	1073875968
 1241              	.LBE481:
 1242              	.LBE484:
 1243              	.LBE478:
 1244              	.LBE477:
 1245              		.cfi_endproc
 1246              	.LFE869:
 1248              		.section	.text.TIM1_UP_TIM10_IRQHandler,"ax",%progbits
 1249              		.align	2
 1250              		.global	TIM1_UP_TIM10_IRQHandler
 1251              		.thumb
 1252              		.thumb_func
 1254              	TIM1_UP_TIM10_IRQHandler:
 1255              	.LFB870:
 119:state.cpp     **** 	ledGreen::set(on);
 120:state.cpp     **** }
 121:state.cpp     **** 
 122:state.cpp     **** extern "C" void
 123:state.cpp     **** TIM1_UP_TIM10_IRQHandler(void){
 1256              		.loc 1 123 0
 1257              		.cfi_startproc
 1258              		@ args = 0, pretend = 0, frame = 0
 1259              		@ frame_needed = 0, uses_anonymous_args = 0
 1260              		@ link register save eliminated.
 1261              	.LVL58:
 1262              	.LBB485:
 1263              	.LBB486:
 495:/home/jonas/warwick/3dProfilometer/xpcc/src/xpcc/architecture/platform/cortex_m3/stm32/timer/timer_1.hpp **** 			}
 496:/home/jonas/warwick/3dProfilometer/xpcc/src/xpcc/architecture/platform/cortex_m3/stm32/timer/timer_1.hpp **** 			
 497:/home/jonas/warwick/3dProfilometer/xpcc/src/xpcc/architecture/platform/cortex_m3/stm32/timer/timer_1.hpp **** 			static inline void
 498:/home/jonas/warwick/3dProfilometer/xpcc/src/xpcc/architecture/platform/cortex_m3/stm32/timer/timer_1.hpp **** 			disableInterrupt(Interrupt interrupt)
 499:/home/jonas/warwick/3dProfilometer/xpcc/src/xpcc/architecture/platform/cortex_m3/stm32/timer/timer_1.hpp **** 			{
 500:/home/jonas/warwick/3dProfilometer/xpcc/src/xpcc/architecture/platform/cortex_m3/stm32/timer/timer_1.hpp **** 				TIM1->DIER &= ~interrupt;
 501:/home/jonas/warwick/3dProfilometer/xpcc/src/xpcc/architecture/platform/cortex_m3/stm32/timer/timer_1.hpp **** 			}
 502:/home/jonas/warwick/3dProfilometer/xpcc/src/xpcc/architecture/platform/cortex_m3/stm32/timer/timer_1.hpp **** 			
 503:/home/jonas/warwick/3dProfilometer/xpcc/src/xpcc/architecture/platform/cortex_m3/stm32/timer/timer_1.hpp **** 			static inline void
 504:/home/jonas/warwick/3dProfilometer/xpcc/src/xpcc/architecture/platform/cortex_m3/stm32/timer/timer_1.hpp **** 			enableDmaRequest(DmaRequestEnable dmaRequests)
 505:/home/jonas/warwick/3dProfilometer/xpcc/src/xpcc/architecture/platform/cortex_m3/stm32/timer/timer_1.hpp **** 			{
 506:/home/jonas/warwick/3dProfilometer/xpcc/src/xpcc/architecture/platform/cortex_m3/stm32/timer/timer_1.hpp **** 				TIM1->DIER |= dmaRequests;
 507:/home/jonas/warwick/3dProfilometer/xpcc/src/xpcc/architecture/platform/cortex_m3/stm32/timer/timer_1.hpp **** 			}
 508:/home/jonas/warwick/3dProfilometer/xpcc/src/xpcc/architecture/platform/cortex_m3/stm32/timer/timer_1.hpp **** 			
 509:/home/jonas/warwick/3dProfilometer/xpcc/src/xpcc/architecture/platform/cortex_m3/stm32/timer/timer_1.hpp **** 			static inline void
 510:/home/jonas/warwick/3dProfilometer/xpcc/src/xpcc/architecture/platform/cortex_m3/stm32/timer/timer_1.hpp **** 			disableDmaRequest(DmaRequestEnable dmaRequests)
 511:/home/jonas/warwick/3dProfilometer/xpcc/src/xpcc/architecture/platform/cortex_m3/stm32/timer/timer_1.hpp **** 			{
 512:/home/jonas/warwick/3dProfilometer/xpcc/src/xpcc/architecture/platform/cortex_m3/stm32/timer/timer_1.hpp **** 				TIM1->DIER &= ~dmaRequests;
 513:/home/jonas/warwick/3dProfilometer/xpcc/src/xpcc/architecture/platform/cortex_m3/stm32/timer/timer_1.hpp **** 			}
 514:/home/jonas/warwick/3dProfilometer/xpcc/src/xpcc/architecture/platform/cortex_m3/stm32/timer/timer_1.hpp **** 			
 515:/home/jonas/warwick/3dProfilometer/xpcc/src/xpcc/architecture/platform/cortex_m3/stm32/timer/timer_1.hpp **** 			static inline InterruptFlag
 516:/home/jonas/warwick/3dProfilometer/xpcc/src/xpcc/architecture/platform/cortex_m3/stm32/timer/timer_1.hpp **** 			getInterruptFlags()
 517:/home/jonas/warwick/3dProfilometer/xpcc/src/xpcc/architecture/platform/cortex_m3/stm32/timer/timer_1.hpp **** 			{
 518:/home/jonas/warwick/3dProfilometer/xpcc/src/xpcc/architecture/platform/cortex_m3/stm32/timer/timer_1.hpp **** 				return (InterruptFlag) TIM1->SR;
 519:/home/jonas/warwick/3dProfilometer/xpcc/src/xpcc/architecture/platform/cortex_m3/stm32/timer/timer_1.hpp **** 			}
 520:/home/jonas/warwick/3dProfilometer/xpcc/src/xpcc/architecture/platform/cortex_m3/stm32/timer/timer_1.hpp **** 			
 521:/home/jonas/warwick/3dProfilometer/xpcc/src/xpcc/architecture/platform/cortex_m3/stm32/timer/timer_1.hpp **** 			static inline void
 522:/home/jonas/warwick/3dProfilometer/xpcc/src/xpcc/architecture/platform/cortex_m3/stm32/timer/timer_1.hpp **** 			resetInterruptFlags(InterruptFlag flags)
 523:/home/jonas/warwick/3dProfilometer/xpcc/src/xpcc/architecture/platform/cortex_m3/stm32/timer/timer_1.hpp **** 			{
 524:/home/jonas/warwick/3dProfilometer/xpcc/src/xpcc/architecture/platform/cortex_m3/stm32/timer/timer_1.hpp **** 				// Flags are cleared by writing a zero to the flag position.
 525:/home/jonas/warwick/3dProfilometer/xpcc/src/xpcc/architecture/platform/cortex_m3/stm32/timer/timer_1.hpp **** 				// Writing a one is ignored.
 526:/home/jonas/warwick/3dProfilometer/xpcc/src/xpcc/architecture/platform/cortex_m3/stm32/timer/timer_1.hpp **** 				TIM1->SR = ~flags;
 1264              		.loc 2 526 0
 1265 0000 064A     		ldr	r2, .L68
 1266              	.LBE486:
 1267              	.LBE485:
 1268              	.LBB488:
 1269              	.LBB489:
  16:state.cpp     **** GPIO__OUTPUT(ledRed, D, 14);
 1270              		.loc 1 16 0
 1271 0002 074B     		ldr	r3, .L68+4
 1272              	.LBE489:
 1273              	.LBE488:
 1274              	.LBB495:
 1275              	.LBB487:
 1276              		.loc 2 526 0
 1277 0004 4FF6FE71 		movw	r1, #65534
 1278 0008 1182     		strh	r1, [r2, #16]	@ movhi
 1279              	.LBE487:
 1280              	.LBE495:
 1281              	.LBB496:
 1282              	.LBB494:
  16:state.cpp     **** GPIO__OUTPUT(ledRed, D, 14);
 1283              		.loc 1 16 0
 1284 000a 5A69     		ldr	r2, [r3, #20]
 1285 000c 12F4804F 		tst	r2, #16384
 1286              	.LBB490:
 1287              	.LBB491:
 1288 0010 4FF48042 		mov	r2, #16384
 1289 0014 14BF     		ite	ne
 1290 0016 5A83     		strhne	r2, [r3, #26]	@ movhi
 1291              	.LBE491:
 1292              	.LBE490:
 1293              	.LBB492:
 1294              	.LBB493:
 1295 0018 1A83     		strheq	r2, [r3, #24]	@ movhi
 1296 001a 7047     		bx	lr
 1297              	.L69:
 1298              		.align	2
 1299              	.L68:
 1300 001c 00000140 		.word	1073807360
 1301 0020 000C0240 		.word	1073875968
 1302              	.LBE493:
 1303              	.LBE492:
 1304              	.LBE494:
 1305              	.LBE496:
 1306              		.cfi_endproc
 1307              	.LFE870:
 1309              		.section	.text.TIM6_DAC_IRQHandler,"ax",%progbits
 1310              		.align	2
 1311              		.global	TIM6_DAC_IRQHandler
 1312              		.thumb
 1313              		.thumb_func
 1315              	TIM6_DAC_IRQHandler:
 1316              	.LFB871:
 124:state.cpp     **** 	Timer1::resetInterruptFlags(Timer1::FLAG_UPDATE);
 125:state.cpp     **** 	ledRed::toggle();
 126:state.cpp     **** }
 127:state.cpp     **** 
 128:state.cpp     **** extern "C" void
 129:state.cpp     **** TIM6_DAC_IRQHandler(void){
 1317              		.loc 1 129 0
 1318              		.cfi_startproc
 1319              		@ args = 0, pretend = 0, frame = 0
 1320              		@ frame_needed = 0, uses_anonymous_args = 0
 1321              		@ link register save eliminated.
 1322              	.LVL59:
 1323              	.LBB497:
 1324              	.LBB498:
 140:/home/jonas/warwick/3dProfilometer/xpcc/src/xpcc/architecture/platform/cortex_m3/stm32/timer/timer_6.hpp **** 			}
 141:/home/jonas/warwick/3dProfilometer/xpcc/src/xpcc/architecture/platform/cortex_m3/stm32/timer/timer_6.hpp **** 			
 142:/home/jonas/warwick/3dProfilometer/xpcc/src/xpcc/architecture/platform/cortex_m3/stm32/timer/timer_6.hpp **** 			static inline void
 143:/home/jonas/warwick/3dProfilometer/xpcc/src/xpcc/architecture/platform/cortex_m3/stm32/timer/timer_6.hpp **** 			disableInterrupt(Interrupt interrupt)
 144:/home/jonas/warwick/3dProfilometer/xpcc/src/xpcc/architecture/platform/cortex_m3/stm32/timer/timer_6.hpp **** 			{
 145:/home/jonas/warwick/3dProfilometer/xpcc/src/xpcc/architecture/platform/cortex_m3/stm32/timer/timer_6.hpp **** 				TIM6->DIER &= ~interrupt;
 146:/home/jonas/warwick/3dProfilometer/xpcc/src/xpcc/architecture/platform/cortex_m3/stm32/timer/timer_6.hpp **** 			}
 147:/home/jonas/warwick/3dProfilometer/xpcc/src/xpcc/architecture/platform/cortex_m3/stm32/timer/timer_6.hpp **** 			
 148:/home/jonas/warwick/3dProfilometer/xpcc/src/xpcc/architecture/platform/cortex_m3/stm32/timer/timer_6.hpp **** 			static inline InterruptFlag
 149:/home/jonas/warwick/3dProfilometer/xpcc/src/xpcc/architecture/platform/cortex_m3/stm32/timer/timer_6.hpp **** 			getInterruptFlags()
 150:/home/jonas/warwick/3dProfilometer/xpcc/src/xpcc/architecture/platform/cortex_m3/stm32/timer/timer_6.hpp **** 			{
 151:/home/jonas/warwick/3dProfilometer/xpcc/src/xpcc/architecture/platform/cortex_m3/stm32/timer/timer_6.hpp **** 				return static_cast<InterruptFlag>(TIM6->SR);
 152:/home/jonas/warwick/3dProfilometer/xpcc/src/xpcc/architecture/platform/cortex_m3/stm32/timer/timer_6.hpp **** 			}
 153:/home/jonas/warwick/3dProfilometer/xpcc/src/xpcc/architecture/platform/cortex_m3/stm32/timer/timer_6.hpp **** 			
 154:/home/jonas/warwick/3dProfilometer/xpcc/src/xpcc/architecture/platform/cortex_m3/stm32/timer/timer_6.hpp **** 			static void
 155:/home/jonas/warwick/3dProfilometer/xpcc/src/xpcc/architecture/platform/cortex_m3/stm32/timer/timer_6.hpp **** 			resetInterruptFlags(InterruptFlag interrupt)
 156:/home/jonas/warwick/3dProfilometer/xpcc/src/xpcc/architecture/platform/cortex_m3/stm32/timer/timer_6.hpp **** 			{
 157:/home/jonas/warwick/3dProfilometer/xpcc/src/xpcc/architecture/platform/cortex_m3/stm32/timer/timer_6.hpp **** 				// Flags are cleared by writing a zero to the flag position.
 158:/home/jonas/warwick/3dProfilometer/xpcc/src/xpcc/architecture/platform/cortex_m3/stm32/timer/timer_6.hpp **** 				// Writing a one is ignored.
 159:/home/jonas/warwick/3dProfilometer/xpcc/src/xpcc/architecture/platform/cortex_m3/stm32/timer/timer_6.hpp **** 				TIM6->SR = ~interrupt;
 1325              		.loc 3 159 0
 1326 0000 064A     		ldr	r2, .L73
 1327              	.LBE498:
 1328              	.LBE497:
 1329              	.LBB500:
 1330              	.LBB501:
  17:state.cpp     **** GPIO__OUTPUT(ledBlue, D, 15);
 1331              		.loc 1 17 0
 1332 0002 074B     		ldr	r3, .L73+4
 1333              	.LBE501:
 1334              	.LBE500:
 1335              	.LBB507:
 1336              	.LBB499:
 1337              		.loc 3 159 0
 1338 0004 4FF6FE71 		movw	r1, #65534
 1339 0008 1182     		strh	r1, [r2, #16]	@ movhi
 1340              	.LBE499:
 1341              	.LBE507:
 1342              	.LBB508:
 1343              	.LBB506:
  17:state.cpp     **** GPIO__OUTPUT(ledBlue, D, 15);
 1344              		.loc 1 17 0
 1345 000a 5A69     		ldr	r2, [r3, #20]
 1346 000c 12F4004F 		tst	r2, #32768
 1347              	.LBB502:
 1348              	.LBB503:
 1349 0010 4FF40042 		mov	r2, #32768
 1350 0014 14BF     		ite	ne
 1351 0016 5A83     		strhne	r2, [r3, #26]	@ movhi
 1352              	.LBE503:
 1353              	.LBE502:
 1354              	.LBB504:
 1355              	.LBB505:
 1356 0018 1A83     		strheq	r2, [r3, #24]	@ movhi
 1357 001a 7047     		bx	lr
 1358              	.L74:
 1359              		.align	2
 1360              	.L73:
 1361 001c 00100040 		.word	1073745920
 1362 0020 000C0240 		.word	1073875968
 1363              	.LBE505:
 1364              	.LBE504:
 1365              	.LBE506:
 1366              	.LBE508:
 1367              		.cfi_endproc
 1368              	.LFE871:
 1370              		.section	.text.TIM7_IRQHandler,"ax",%progbits
 1371              		.align	2
 1372              		.global	TIM7_IRQHandler
 1373              		.thumb
 1374              		.thumb_func
 1376              	TIM7_IRQHandler:
 1377              	.LFB872:
 130:state.cpp     **** 	Timer6::resetInterruptFlags(Timer6::FLAG_UPDATE);
 131:state.cpp     **** 	ledBlue::toggle();
 132:state.cpp     **** }
 133:state.cpp     **** 
 134:state.cpp     **** extern "C" void
 135:state.cpp     **** TIM7_IRQHandler(void){
 1378              		.loc 1 135 0
 1379              		.cfi_startproc
 1380              		@ args = 0, pretend = 0, frame = 0
 1381              		@ frame_needed = 0, uses_anonymous_args = 0
 1382              		@ link register save eliminated.
 1383              	.LVL60:
 1384              	.LBB509:
 1385              	.LBB510:
 131:/home/jonas/warwick/3dProfilometer/xpcc/src/xpcc/architecture/platform/cortex_m3/stm32/timer/timer_7.hpp **** 			}
 132:/home/jonas/warwick/3dProfilometer/xpcc/src/xpcc/architecture/platform/cortex_m3/stm32/timer/timer_7.hpp **** 			
 133:/home/jonas/warwick/3dProfilometer/xpcc/src/xpcc/architecture/platform/cortex_m3/stm32/timer/timer_7.hpp **** 			static inline void
 134:/home/jonas/warwick/3dProfilometer/xpcc/src/xpcc/architecture/platform/cortex_m3/stm32/timer/timer_7.hpp **** 			disableInterrupt(Interrupt interrupt)
 135:/home/jonas/warwick/3dProfilometer/xpcc/src/xpcc/architecture/platform/cortex_m3/stm32/timer/timer_7.hpp **** 			{
 136:/home/jonas/warwick/3dProfilometer/xpcc/src/xpcc/architecture/platform/cortex_m3/stm32/timer/timer_7.hpp **** 				TIM7->DIER &= ~interrupt;
 137:/home/jonas/warwick/3dProfilometer/xpcc/src/xpcc/architecture/platform/cortex_m3/stm32/timer/timer_7.hpp **** 			}
 138:/home/jonas/warwick/3dProfilometer/xpcc/src/xpcc/architecture/platform/cortex_m3/stm32/timer/timer_7.hpp **** 			
 139:/home/jonas/warwick/3dProfilometer/xpcc/src/xpcc/architecture/platform/cortex_m3/stm32/timer/timer_7.hpp **** 			static inline InterruptFlag
 140:/home/jonas/warwick/3dProfilometer/xpcc/src/xpcc/architecture/platform/cortex_m3/stm32/timer/timer_7.hpp **** 			getInterruptFlags()
 141:/home/jonas/warwick/3dProfilometer/xpcc/src/xpcc/architecture/platform/cortex_m3/stm32/timer/timer_7.hpp **** 			{
 142:/home/jonas/warwick/3dProfilometer/xpcc/src/xpcc/architecture/platform/cortex_m3/stm32/timer/timer_7.hpp **** 				return static_cast<InterruptFlag>(TIM7->SR);
 143:/home/jonas/warwick/3dProfilometer/xpcc/src/xpcc/architecture/platform/cortex_m3/stm32/timer/timer_7.hpp **** 			}
 144:/home/jonas/warwick/3dProfilometer/xpcc/src/xpcc/architecture/platform/cortex_m3/stm32/timer/timer_7.hpp **** 			
 145:/home/jonas/warwick/3dProfilometer/xpcc/src/xpcc/architecture/platform/cortex_m3/stm32/timer/timer_7.hpp **** 			static void
 146:/home/jonas/warwick/3dProfilometer/xpcc/src/xpcc/architecture/platform/cortex_m3/stm32/timer/timer_7.hpp **** 			resetInterruptFlags(InterruptFlag interrupt)
 147:/home/jonas/warwick/3dProfilometer/xpcc/src/xpcc/architecture/platform/cortex_m3/stm32/timer/timer_7.hpp **** 			{
 148:/home/jonas/warwick/3dProfilometer/xpcc/src/xpcc/architecture/platform/cortex_m3/stm32/timer/timer_7.hpp **** 				// Flags are cleared by writing a zero to the flag position.
 149:/home/jonas/warwick/3dProfilometer/xpcc/src/xpcc/architecture/platform/cortex_m3/stm32/timer/timer_7.hpp **** 				// Writing a one is ignored.
 150:/home/jonas/warwick/3dProfilometer/xpcc/src/xpcc/architecture/platform/cortex_m3/stm32/timer/timer_7.hpp **** 				TIM7->SR = ~interrupt;
 1386              		.loc 4 150 0
 1387 0000 064A     		ldr	r2, .L78
 1388              	.LBE510:
 1389              	.LBE509:
 1390              	.LBB512:
 1391              	.LBB513:
  18:state.cpp     **** GPIO__OUTPUT(ledOrange, D, 13);
 1392              		.loc 1 18 0
 1393 0002 074B     		ldr	r3, .L78+4
 1394              	.LBE513:
 1395              	.LBE512:
 1396              	.LBB519:
 1397              	.LBB511:
 1398              		.loc 4 150 0
 1399 0004 4FF6FE71 		movw	r1, #65534
 1400 0008 1182     		strh	r1, [r2, #16]	@ movhi
 1401              	.LBE511:
 1402              	.LBE519:
 1403              	.LBB520:
 1404              	.LBB518:
  18:state.cpp     **** GPIO__OUTPUT(ledOrange, D, 13);
 1405              		.loc 1 18 0
 1406 000a 5A69     		ldr	r2, [r3, #20]
 1407 000c 12F4005F 		tst	r2, #8192
 1408              	.LBB514:
 1409              	.LBB515:
 1410 0010 4FF40052 		mov	r2, #8192
 1411 0014 14BF     		ite	ne
 1412 0016 5A83     		strhne	r2, [r3, #26]	@ movhi
 1413              	.LBE515:
 1414              	.LBE514:
 1415              	.LBB516:
 1416              	.LBB517:
 1417 0018 1A83     		strheq	r2, [r3, #24]	@ movhi
 1418 001a 7047     		bx	lr
 1419              	.L79:
 1420              		.align	2
 1421              	.L78:
 1422 001c 00140040 		.word	1073746944
 1423 0020 000C0240 		.word	1073875968
 1424              	.LBE517:
 1425              	.LBE516:
 1426              	.LBE518:
 1427              	.LBE520:
 1428              		.cfi_endproc
 1429              	.LFE872:
 1431              		.global	_ZN5State12currentStateE
 1432              		.section	.rodata.str1.4,"aMS",%progbits,1
 1433              		.align	2
 1434              	.LC0:
 1435 0000 676F696E 		.ascii	"going to state \000"
 1435      6720746F 
 1435      20737461 
 1435      74652000 
 1436              		.section	.bss._ZN5State12currentStateE,"aw",%nobits
 1437              		.align	2
 1438              		.set	.LANCHOR0,. + 0
 1441              	_ZN5State12currentStateE:
 1442 0000 00000000 		.space	4
 1443              		.text
 1444              	.Letext0:
 1445              		.file 6 "state.h"
 1446              		.file 7 "/opt/arm-2012.09/bin/../lib/gcc/arm-none-eabi/4.7.2/../../../../arm-none-eabi/include/std
 1447              		.file 8 "/home/jonas/warwick/3dProfilometer/xpcc/ext/stm32f4xx_lib/CMSIS/Device/ST/STM32F4xx/Inclu
 1448              		.file 9 "/home/jonas/warwick/3dProfilometer/xpcc/src/xpcc/architecture/platform/cortex_m3/stm32/co
 1449              		.file 10 "/home/jonas/warwick/3dProfilometer/xpcc/src/xpcc/architecture/platform/cortex_m3/stm32/s
 1450              		.file 11 "/home/jonas/warwick/3dProfilometer/xpcc/src/xpcc/architecture/platform/cortex_m3/stm32/u
 1451              		.file 12 "/home/jonas/warwick/3dProfilometer/xpcc/src/xpcc/architecture/platform/cortex_m3/stm32/u
 1452              		.file 13 "/home/jonas/warwick/3dProfilometer/xpcc/src/xpcc/architecture/platform/cortex_m3/stm32/t
 1453              		.file 14 "/home/jonas/warwick/3dProfilometer/xpcc/src/xpcc/architecture/driver/gpio.hpp"
 1454              		.file 15 "/home/jonas/warwick/3dProfilometer/xpcc/src/xpcc/architecture/platform/cortex_m3/stm32/f
 1455              		.file 16 "/home/jonas/warwick/3dProfilometer/xpcc/src/xpcc/driver/connectivity/i2c/constants.hpp"
 1456              		.file 17 "/home/jonas/warwick/3dProfilometer/xpcc/src/xpcc/architecture/driver/atomic.hpp"
 1457              		.file 18 "/home/jonas/warwick/3dProfilometer/xpcc/src/xpcc/io/iodevice.hpp"
 1458              		.file 19 "/home/jonas/warwick/3dProfilometer/xpcc/src/xpcc/driver/connectivity/can/message.hpp"
 1459              		.file 20 "/home/jonas/warwick/3dProfilometer/xpcc/src/xpcc/utils/template_metaprogramming.hpp"
 1460              		.file 21 "/home/jonas/warwick/3dProfilometer/xpcc/src/xpcc/architecture/driver/accessor/ram.hpp"
 1461              		.file 22 "/opt/arm-2012.09/bin/../lib/gcc/arm-none-eabi/4.7.2/include/stddef.h"
 1462              		.file 23 "<built-in>"
 1463              		.file 24 "/opt/arm-2012.09/bin/../lib/gcc/arm-none-eabi/4.7.2/../../../../arm-none-eabi/include/c+
 1464              		.file 25 "/opt/arm-2012.09/bin/../lib/gcc/arm-none-eabi/4.7.2/../../../../arm-none-eabi/include/st
 1465              		.file 26 "/home/jonas/warwick/3dProfilometer/xpcc/ext/stm32f4xx_lib/CMSIS/Include/core_cm4.h"
 1466              		.file 27 "project.h"
 1467              		.file 28 "pcInterface.h"