   1              		.syntax unified
   2              		.cpu cortex-m4
   3              		.eabi_attribute 27, 3
   4              		.fpu fpv4-sp-d16
   5              		.eabi_attribute 20, 1
   6              		.eabi_attribute 21, 1
   7              		.eabi_attribute 23, 3
   8              		.eabi_attribute 24, 1
   9              		.eabi_attribute 25, 1
  10              		.eabi_attribute 26, 1
  11              		.eabi_attribute 30, 2
  12              		.eabi_attribute 34, 1
  13              		.eabi_attribute 18, 4
  14              		.thumb
  15              		.file	"iostream.cpp"
  16              		.text
  17              	.Ltext0:
  18              		.cfi_sections	.debug_frame
  19              		.section	.text._ZN4xpcc8IOStreamC2ERNS_8IODeviceE,"ax",%progbits
  20              		.align	2
  21              		.global	_ZN4xpcc8IOStreamC2ERNS_8IODeviceE
  22              		.thumb
  23              		.thumb_func
  25              	_ZN4xpcc8IOStreamC2ERNS_8IODeviceE:
  26              	.LFB92:
  27              		.file 1 "/home/jonas/warwick/3dProfilometer/xpcc/src/xpcc/io/iostream.cpp"
   1:/home/jonas/warwick/3dProfilometer/xpcc/src/xpcc/io/iostream.cpp **** // coding: utf-8
   2:/home/jonas/warwick/3dProfilometer/xpcc/src/xpcc/io/iostream.cpp **** // ----------------------------------------------------------------------------
   3:/home/jonas/warwick/3dProfilometer/xpcc/src/xpcc/io/iostream.cpp **** /* Copyright (c) 2009, Roboterclub Aachen e.V.
   4:/home/jonas/warwick/3dProfilometer/xpcc/src/xpcc/io/iostream.cpp ****  * All rights reserved.
   5:/home/jonas/warwick/3dProfilometer/xpcc/src/xpcc/io/iostream.cpp ****  *
   6:/home/jonas/warwick/3dProfilometer/xpcc/src/xpcc/io/iostream.cpp ****  * Redistribution and use in source and binary forms, with or without
   7:/home/jonas/warwick/3dProfilometer/xpcc/src/xpcc/io/iostream.cpp ****  * modification, are permitted provided that the following conditions are met:
   8:/home/jonas/warwick/3dProfilometer/xpcc/src/xpcc/io/iostream.cpp ****  * 
   9:/home/jonas/warwick/3dProfilometer/xpcc/src/xpcc/io/iostream.cpp ****  *     * Redistributions of source code must retain the above copyright
  10:/home/jonas/warwick/3dProfilometer/xpcc/src/xpcc/io/iostream.cpp ****  *       notice, this list of conditions and the following disclaimer.
  11:/home/jonas/warwick/3dProfilometer/xpcc/src/xpcc/io/iostream.cpp ****  *     * Redistributions in binary form must reproduce the above copyright
  12:/home/jonas/warwick/3dProfilometer/xpcc/src/xpcc/io/iostream.cpp ****  *       notice, this list of conditions and the following disclaimer in the
  13:/home/jonas/warwick/3dProfilometer/xpcc/src/xpcc/io/iostream.cpp ****  *       documentation and/or other materials provided with the distribution.
  14:/home/jonas/warwick/3dProfilometer/xpcc/src/xpcc/io/iostream.cpp ****  *     * Neither the name of the Roboterclub Aachen e.V. nor the
  15:/home/jonas/warwick/3dProfilometer/xpcc/src/xpcc/io/iostream.cpp ****  *       names of its contributors may be used to endorse or promote products
  16:/home/jonas/warwick/3dProfilometer/xpcc/src/xpcc/io/iostream.cpp ****  *       derived from this software without specific prior written permission.
  17:/home/jonas/warwick/3dProfilometer/xpcc/src/xpcc/io/iostream.cpp ****  *
  18:/home/jonas/warwick/3dProfilometer/xpcc/src/xpcc/io/iostream.cpp ****  * THIS SOFTWARE IS PROVIDED BY ROBOTERCLUB AACHEN E.V. ''AS IS'' AND ANY
  19:/home/jonas/warwick/3dProfilometer/xpcc/src/xpcc/io/iostream.cpp ****  * EXPRESS OR IMPLIED WARRANTIES, INCLUDING, BUT NOT LIMITED TO, THE IMPLIED
  20:/home/jonas/warwick/3dProfilometer/xpcc/src/xpcc/io/iostream.cpp ****  * WARRANTIES OF MERCHANTABILITY AND FITNESS FOR A PARTICULAR PURPOSE ARE
  21:/home/jonas/warwick/3dProfilometer/xpcc/src/xpcc/io/iostream.cpp ****  * DISCLAIMED. IN NO EVENT SHALL ROBOTERCLUB AACHEN E.V. BE LIABLE FOR ANY
  22:/home/jonas/warwick/3dProfilometer/xpcc/src/xpcc/io/iostream.cpp ****  * DIRECT, INDIRECT, INCIDENTAL, SPECIAL, EXEMPLARY, OR CONSEQUENTIAL DAMAGES
  23:/home/jonas/warwick/3dProfilometer/xpcc/src/xpcc/io/iostream.cpp ****  * (INCLUDING, BUT NOT LIMITED TO, PROCUREMENT OF SUBSTITUTE GOODS OR SERVICES;
  24:/home/jonas/warwick/3dProfilometer/xpcc/src/xpcc/io/iostream.cpp ****  * LOSS OF USE, DATA, OR PROFITS; OR BUSINESS INTERRUPTION) HOWEVER CAUSED AND
  25:/home/jonas/warwick/3dProfilometer/xpcc/src/xpcc/io/iostream.cpp ****  * ON ANY THEORY OF LIABILITY, WHETHER IN CONTRACT, STRICT LIABILITY, OR TORT
  26:/home/jonas/warwick/3dProfilometer/xpcc/src/xpcc/io/iostream.cpp ****  * (INCLUDING NEGLIGENCE OR OTHERWISE) ARISING IN ANY WAY OUT OF THE USE OF
  27:/home/jonas/warwick/3dProfilometer/xpcc/src/xpcc/io/iostream.cpp ****  * THIS SOFTWARE, EVEN IF ADVISED OF THE POSSIBILITY OF SUCH DAMAGE.
  28:/home/jonas/warwick/3dProfilometer/xpcc/src/xpcc/io/iostream.cpp ****  */
  29:/home/jonas/warwick/3dProfilometer/xpcc/src/xpcc/io/iostream.cpp **** // ----------------------------------------------------------------------------
  30:/home/jonas/warwick/3dProfilometer/xpcc/src/xpcc/io/iostream.cpp **** 
  31:/home/jonas/warwick/3dProfilometer/xpcc/src/xpcc/io/iostream.cpp **** #include <stdlib.h>
  32:/home/jonas/warwick/3dProfilometer/xpcc/src/xpcc/io/iostream.cpp **** 
  33:/home/jonas/warwick/3dProfilometer/xpcc/src/xpcc/io/iostream.cpp **** #include <xpcc/utils/arithmetic_traits.hpp>
  34:/home/jonas/warwick/3dProfilometer/xpcc/src/xpcc/io/iostream.cpp **** #include <xpcc/architecture/driver/accessor/flash.hpp>
  35:/home/jonas/warwick/3dProfilometer/xpcc/src/xpcc/io/iostream.cpp **** 
  36:/home/jonas/warwick/3dProfilometer/xpcc/src/xpcc/io/iostream.cpp **** #include "iostream.hpp"
  37:/home/jonas/warwick/3dProfilometer/xpcc/src/xpcc/io/iostream.cpp **** 
  38:/home/jonas/warwick/3dProfilometer/xpcc/src/xpcc/io/iostream.cpp **** FLASH_STORAGE(uint16_t base[]) = { 10, 100, 1000, 10000 };
  39:/home/jonas/warwick/3dProfilometer/xpcc/src/xpcc/io/iostream.cpp **** 
  40:/home/jonas/warwick/3dProfilometer/xpcc/src/xpcc/io/iostream.cpp **** // ----------------------------------------------------------------------------
  41:/home/jonas/warwick/3dProfilometer/xpcc/src/xpcc/io/iostream.cpp **** xpcc::IOStream::IOStream(IODevice& outputDevice) :
  28              		.loc 1 41 0
  29              		.cfi_startproc
  30              		@ args = 0, pretend = 0, frame = 0
  31              		@ frame_needed = 0, uses_anonymous_args = 0
  32              		@ link register save eliminated.
  33              	.LVL0:
  34              	.LBB30:
  42:/home/jonas/warwick/3dProfilometer/xpcc/src/xpcc/io/iostream.cpp **** 	device(&outputDevice),
  43:/home/jonas/warwick/3dProfilometer/xpcc/src/xpcc/io/iostream.cpp **** 	mode(Mode::Ascii)
  35              		.loc 1 43 0
  36 0000 0022     		movs	r2, #0
  37 0002 80E80600 		stmia	r0, {r1, r2}
  38              	.LBE30:
  44:/home/jonas/warwick/3dProfilometer/xpcc/src/xpcc/io/iostream.cpp **** {
  45:/home/jonas/warwick/3dProfilometer/xpcc/src/xpcc/io/iostream.cpp **** }
  39              		.loc 1 45 0
  40 0006 7047     		bx	lr
  41              		.cfi_endproc
  42              	.LFE92:
  44              		.global	_ZN4xpcc8IOStreamC1ERNS_8IODeviceE
  45              		.thumb_set _ZN4xpcc8IOStreamC1ERNS_8IODeviceE,_ZN4xpcc8IOStreamC2ERNS_8IODeviceE
  46              		.section	.text._ZN4xpcc8IOStream12writeIntegerEs,"ax",%progbits
  47              		.align	2
  48              		.global	_ZN4xpcc8IOStream12writeIntegerEs
  49              		.thumb
  50              		.thumb_func
  52              	_ZN4xpcc8IOStream12writeIntegerEs:
  53              	.LFB94:
  46:/home/jonas/warwick/3dProfilometer/xpcc/src/xpcc/io/iostream.cpp **** 
  47:/home/jonas/warwick/3dProfilometer/xpcc/src/xpcc/io/iostream.cpp **** // ----------------------------------------------------------------------------
  48:/home/jonas/warwick/3dProfilometer/xpcc/src/xpcc/io/iostream.cpp **** void
  49:/home/jonas/warwick/3dProfilometer/xpcc/src/xpcc/io/iostream.cpp **** xpcc::IOStream::writeInteger(int16_t value)
  50:/home/jonas/warwick/3dProfilometer/xpcc/src/xpcc/io/iostream.cpp **** {
  54              		.loc 1 50 0
  55              		.cfi_startproc
  56              		@ args = 0, pretend = 0, frame = 0
  57              		@ frame_needed = 0, uses_anonymous_args = 0
  58              	.LVL1:
  59 0000 F8B5     		push	{r3, r4, r5, r6, r7, lr}
  60              	.LCFI0:
  61              		.cfi_def_cfa_offset 24
  62              		.cfi_offset 3, -24
  63              		.cfi_offset 4, -20
  64              		.cfi_offset 5, -16
  65              		.cfi_offset 6, -12
  66              		.cfi_offset 7, -8
  67              		.cfi_offset 14, -4
  51:/home/jonas/warwick/3dProfilometer/xpcc/src/xpcc/io/iostream.cpp **** 	if (value < 0) {
  68              		.loc 1 51 0
  69 0002 0C1E     		subs	r4, r1, #0
  50:/home/jonas/warwick/3dProfilometer/xpcc/src/xpcc/io/iostream.cpp **** {
  70              		.loc 1 50 0
  71 0004 0646     		mov	r6, r0
  72              		.loc 1 51 0
  73 0006 23DB     		blt	.L21
  74 0008 234D     		ldr	r5, .L22
  52:/home/jonas/warwick/3dProfilometer/xpcc/src/xpcc/io/iostream.cpp **** 		this->device->write('-');
  53:/home/jonas/warwick/3dProfilometer/xpcc/src/xpcc/io/iostream.cpp **** 		this->writeInteger(static_cast<uint16_t>(-value));
  54:/home/jonas/warwick/3dProfilometer/xpcc/src/xpcc/io/iostream.cpp **** 	}
  55:/home/jonas/warwick/3dProfilometer/xpcc/src/xpcc/io/iostream.cpp **** 	else{
  56:/home/jonas/warwick/3dProfilometer/xpcc/src/xpcc/io/iostream.cpp **** 		this->writeInteger(static_cast<uint16_t>(value));
  75              		.loc 1 56 0
  76 000a A4B2     		uxth	r4, r4
  77              	.LVL2:
  57:/home/jonas/warwick/3dProfilometer/xpcc/src/xpcc/io/iostream.cpp **** 	}
  58:/home/jonas/warwick/3dProfilometer/xpcc/src/xpcc/io/iostream.cpp **** }
  59:/home/jonas/warwick/3dProfilometer/xpcc/src/xpcc/io/iostream.cpp **** 
  60:/home/jonas/warwick/3dProfilometer/xpcc/src/xpcc/io/iostream.cpp **** void
  61:/home/jonas/warwick/3dProfilometer/xpcc/src/xpcc/io/iostream.cpp **** xpcc::IOStream::writeInteger(uint16_t value)
  62:/home/jonas/warwick/3dProfilometer/xpcc/src/xpcc/io/iostream.cpp **** {
  63:/home/jonas/warwick/3dProfilometer/xpcc/src/xpcc/io/iostream.cpp **** 	accessor::Flash<uint16_t> basePtr = xpcc::accessor::asFlash(base);
  64:/home/jonas/warwick/3dProfilometer/xpcc/src/xpcc/io/iostream.cpp **** 	
  65:/home/jonas/warwick/3dProfilometer/xpcc/src/xpcc/io/iostream.cpp **** 	bool zero = true;
  66:/home/jonas/warwick/3dProfilometer/xpcc/src/xpcc/io/iostream.cpp **** 	uint8_t i = 4;
  78              		.loc 1 66 0
  79 000c 0427     		movs	r7, #4
  65:/home/jonas/warwick/3dProfilometer/xpcc/src/xpcc/io/iostream.cpp **** 	bool zero = true;
  80              		.loc 1 65 0
  81 000e 0122     		movs	r2, #1
  82              	.LVL3:
  83              	.L14:
  84              	.LBB51:
  85              	.LBB52:
  86              	.LBB53:
  67:/home/jonas/warwick/3dProfilometer/xpcc/src/xpcc/io/iostream.cpp **** 	do {
  68:/home/jonas/warwick/3dProfilometer/xpcc/src/xpcc/io/iostream.cpp **** 		i--;
  87              		.loc 1 68 0
  88 0010 013F     		subs	r7, r7, #1
  89              	.LVL4:
  90 0012 FFB2     		uxtb	r7, r7
  91              	.LVL5:
  92              	.LBB54:
  69:/home/jonas/warwick/3dProfilometer/xpcc/src/xpcc/io/iostream.cpp **** 		char d;
  70:/home/jonas/warwick/3dProfilometer/xpcc/src/xpcc/io/iostream.cpp **** 		for (d = static_cast<uint16_t>('0'); value >= basePtr[i]; value -= basePtr[i])
  71:/home/jonas/warwick/3dProfilometer/xpcc/src/xpcc/io/iostream.cpp **** 		{
  72:/home/jonas/warwick/3dProfilometer/xpcc/src/xpcc/io/iostream.cpp **** 			d++;
  73:/home/jonas/warwick/3dProfilometer/xpcc/src/xpcc/io/iostream.cpp **** 			zero = false;
  74:/home/jonas/warwick/3dProfilometer/xpcc/src/xpcc/io/iostream.cpp **** 		}
  75:/home/jonas/warwick/3dProfilometer/xpcc/src/xpcc/io/iostream.cpp **** 		if (!zero) {
  76:/home/jonas/warwick/3dProfilometer/xpcc/src/xpcc/io/iostream.cpp **** 			this->device->write(d);
  77:/home/jonas/warwick/3dProfilometer/xpcc/src/xpcc/io/iostream.cpp **** 		}
  78:/home/jonas/warwick/3dProfilometer/xpcc/src/xpcc/io/iostream.cpp **** 	} while (i);
  79:/home/jonas/warwick/3dProfilometer/xpcc/src/xpcc/io/iostream.cpp **** 	
  80:/home/jonas/warwick/3dProfilometer/xpcc/src/xpcc/io/iostream.cpp **** 	this->device->write(static_cast<char>(value) + '0');
  81:/home/jonas/warwick/3dProfilometer/xpcc/src/xpcc/io/iostream.cpp **** }
  82:/home/jonas/warwick/3dProfilometer/xpcc/src/xpcc/io/iostream.cpp **** 
  83:/home/jonas/warwick/3dProfilometer/xpcc/src/xpcc/io/iostream.cpp **** void
  84:/home/jonas/warwick/3dProfilometer/xpcc/src/xpcc/io/iostream.cpp **** xpcc::IOStream::writeInteger(int32_t value)
  85:/home/jonas/warwick/3dProfilometer/xpcc/src/xpcc/io/iostream.cpp **** {
  86:/home/jonas/warwick/3dProfilometer/xpcc/src/xpcc/io/iostream.cpp **** #if defined(XPCC__CPU_AVR)
  87:/home/jonas/warwick/3dProfilometer/xpcc/src/xpcc/io/iostream.cpp **** 	char buffer[ArithmeticTraits<int32_t>::decimalDigits + 1]; // +1 for '\0'
  88:/home/jonas/warwick/3dProfilometer/xpcc/src/xpcc/io/iostream.cpp **** 	
  89:/home/jonas/warwick/3dProfilometer/xpcc/src/xpcc/io/iostream.cpp **** 	// Uses the optimized non standard function 'ltoa()' which is
  90:/home/jonas/warwick/3dProfilometer/xpcc/src/xpcc/io/iostream.cpp **** 	// not always available.
  91:/home/jonas/warwick/3dProfilometer/xpcc/src/xpcc/io/iostream.cpp **** 
  92:/home/jonas/warwick/3dProfilometer/xpcc/src/xpcc/io/iostream.cpp **** 	this->device->write(ltoa(value, buffer, 10));
  93:/home/jonas/warwick/3dProfilometer/xpcc/src/xpcc/io/iostream.cpp **** #else
  94:/home/jonas/warwick/3dProfilometer/xpcc/src/xpcc/io/iostream.cpp **** 	if (value < 0) {
  95:/home/jonas/warwick/3dProfilometer/xpcc/src/xpcc/io/iostream.cpp **** 		this->device->write('-');
  96:/home/jonas/warwick/3dProfilometer/xpcc/src/xpcc/io/iostream.cpp **** 		this->writeInteger(static_cast<uint32_t>(-value));
  97:/home/jonas/warwick/3dProfilometer/xpcc/src/xpcc/io/iostream.cpp **** 	}
  98:/home/jonas/warwick/3dProfilometer/xpcc/src/xpcc/io/iostream.cpp **** 	else{
  99:/home/jonas/warwick/3dProfilometer/xpcc/src/xpcc/io/iostream.cpp **** 		this->writeInteger(static_cast<uint32_t>(value));
 100:/home/jonas/warwick/3dProfilometer/xpcc/src/xpcc/io/iostream.cpp **** 	}
 101:/home/jonas/warwick/3dProfilometer/xpcc/src/xpcc/io/iostream.cpp **** #endif
 102:/home/jonas/warwick/3dProfilometer/xpcc/src/xpcc/io/iostream.cpp **** }
 103:/home/jonas/warwick/3dProfilometer/xpcc/src/xpcc/io/iostream.cpp **** 
 104:/home/jonas/warwick/3dProfilometer/xpcc/src/xpcc/io/iostream.cpp **** void
 105:/home/jonas/warwick/3dProfilometer/xpcc/src/xpcc/io/iostream.cpp **** xpcc::IOStream::writeInteger(uint32_t value)
 106:/home/jonas/warwick/3dProfilometer/xpcc/src/xpcc/io/iostream.cpp **** {
 107:/home/jonas/warwick/3dProfilometer/xpcc/src/xpcc/io/iostream.cpp **** #if defined(XPCC__CPU_AVR)
 108:/home/jonas/warwick/3dProfilometer/xpcc/src/xpcc/io/iostream.cpp **** 	char buffer[ArithmeticTraits<uint32_t>::decimalDigits + 1]; // +1 for '\0'
 109:/home/jonas/warwick/3dProfilometer/xpcc/src/xpcc/io/iostream.cpp **** 	
 110:/home/jonas/warwick/3dProfilometer/xpcc/src/xpcc/io/iostream.cpp **** 	// Uses the optimized non standard function 'ultoa()' which is
 111:/home/jonas/warwick/3dProfilometer/xpcc/src/xpcc/io/iostream.cpp **** 	// not always available.
 112:/home/jonas/warwick/3dProfilometer/xpcc/src/xpcc/io/iostream.cpp **** 	this->device->write(ultoa(value, buffer, 10));
 113:/home/jonas/warwick/3dProfilometer/xpcc/src/xpcc/io/iostream.cpp **** #else
 114:/home/jonas/warwick/3dProfilometer/xpcc/src/xpcc/io/iostream.cpp **** 	char buffer[ArithmeticTraits<uint32_t>::decimalDigits + 1]; // +1 for '\0'
 115:/home/jonas/warwick/3dProfilometer/xpcc/src/xpcc/io/iostream.cpp **** 	
 116:/home/jonas/warwick/3dProfilometer/xpcc/src/xpcc/io/iostream.cpp **** 	// ptr points to the end of the string, it will be filled backwards
 117:/home/jonas/warwick/3dProfilometer/xpcc/src/xpcc/io/iostream.cpp **** 	char *ptr = buffer + ArithmeticTraits<uint32_t>::decimalDigits;
 118:/home/jonas/warwick/3dProfilometer/xpcc/src/xpcc/io/iostream.cpp **** 
 119:/home/jonas/warwick/3dProfilometer/xpcc/src/xpcc/io/iostream.cpp **** 	*ptr = '\0';
 120:/home/jonas/warwick/3dProfilometer/xpcc/src/xpcc/io/iostream.cpp **** 
 121:/home/jonas/warwick/3dProfilometer/xpcc/src/xpcc/io/iostream.cpp **** 	// calculate the string backwards
 122:/home/jonas/warwick/3dProfilometer/xpcc/src/xpcc/io/iostream.cpp **** 	do{
 123:/home/jonas/warwick/3dProfilometer/xpcc/src/xpcc/io/iostream.cpp **** 		uint32_t quot = value / 10;
 124:/home/jonas/warwick/3dProfilometer/xpcc/src/xpcc/io/iostream.cpp **** 		uint8_t rem = value - quot*10;
 125:/home/jonas/warwick/3dProfilometer/xpcc/src/xpcc/io/iostream.cpp **** 		*(--ptr) = static_cast<char>(rem) + '0';
 126:/home/jonas/warwick/3dProfilometer/xpcc/src/xpcc/io/iostream.cpp **** 		value = quot;
 127:/home/jonas/warwick/3dProfilometer/xpcc/src/xpcc/io/iostream.cpp **** 	}while (value != 0);
 128:/home/jonas/warwick/3dProfilometer/xpcc/src/xpcc/io/iostream.cpp **** 
 129:/home/jonas/warwick/3dProfilometer/xpcc/src/xpcc/io/iostream.cpp **** 	// write string
 130:/home/jonas/warwick/3dProfilometer/xpcc/src/xpcc/io/iostream.cpp **** 	this->device->write(ptr);
 131:/home/jonas/warwick/3dProfilometer/xpcc/src/xpcc/io/iostream.cpp **** #endif
 132:/home/jonas/warwick/3dProfilometer/xpcc/src/xpcc/io/iostream.cpp **** }
 133:/home/jonas/warwick/3dProfilometer/xpcc/src/xpcc/io/iostream.cpp **** 
 134:/home/jonas/warwick/3dProfilometer/xpcc/src/xpcc/io/iostream.cpp **** #ifndef XPCC__CPU_AVR
 135:/home/jonas/warwick/3dProfilometer/xpcc/src/xpcc/io/iostream.cpp **** void
 136:/home/jonas/warwick/3dProfilometer/xpcc/src/xpcc/io/iostream.cpp **** xpcc::IOStream::writeInteger(int64_t value)
 137:/home/jonas/warwick/3dProfilometer/xpcc/src/xpcc/io/iostream.cpp **** {
 138:/home/jonas/warwick/3dProfilometer/xpcc/src/xpcc/io/iostream.cpp **** 	if (value < 0) {
 139:/home/jonas/warwick/3dProfilometer/xpcc/src/xpcc/io/iostream.cpp **** 		this->device->write('-');
 140:/home/jonas/warwick/3dProfilometer/xpcc/src/xpcc/io/iostream.cpp **** 		this->writeInteger(static_cast<uint64_t>(-value));
 141:/home/jonas/warwick/3dProfilometer/xpcc/src/xpcc/io/iostream.cpp **** 	}
 142:/home/jonas/warwick/3dProfilometer/xpcc/src/xpcc/io/iostream.cpp **** 	else{
 143:/home/jonas/warwick/3dProfilometer/xpcc/src/xpcc/io/iostream.cpp **** 		this->writeInteger(static_cast<uint64_t>(value));
 144:/home/jonas/warwick/3dProfilometer/xpcc/src/xpcc/io/iostream.cpp **** 	}
 145:/home/jonas/warwick/3dProfilometer/xpcc/src/xpcc/io/iostream.cpp **** }
 146:/home/jonas/warwick/3dProfilometer/xpcc/src/xpcc/io/iostream.cpp **** 
 147:/home/jonas/warwick/3dProfilometer/xpcc/src/xpcc/io/iostream.cpp **** void
 148:/home/jonas/warwick/3dProfilometer/xpcc/src/xpcc/io/iostream.cpp **** xpcc::IOStream::writeInteger(uint64_t value)
 149:/home/jonas/warwick/3dProfilometer/xpcc/src/xpcc/io/iostream.cpp **** {
 150:/home/jonas/warwick/3dProfilometer/xpcc/src/xpcc/io/iostream.cpp **** 	char buffer[ArithmeticTraits<uint64_t>::decimalDigits + 1]; // +1 for '\0'
 151:/home/jonas/warwick/3dProfilometer/xpcc/src/xpcc/io/iostream.cpp **** 	
 152:/home/jonas/warwick/3dProfilometer/xpcc/src/xpcc/io/iostream.cpp **** 	// ptr points to the end of the string, it will be filled backwards
 153:/home/jonas/warwick/3dProfilometer/xpcc/src/xpcc/io/iostream.cpp **** 	char *ptr = buffer + ArithmeticTraits<uint64_t>::decimalDigits;
 154:/home/jonas/warwick/3dProfilometer/xpcc/src/xpcc/io/iostream.cpp **** 	
 155:/home/jonas/warwick/3dProfilometer/xpcc/src/xpcc/io/iostream.cpp **** 	*ptr = '\0';
 156:/home/jonas/warwick/3dProfilometer/xpcc/src/xpcc/io/iostream.cpp **** 	
 157:/home/jonas/warwick/3dProfilometer/xpcc/src/xpcc/io/iostream.cpp **** 	// calculate the string backwards
 158:/home/jonas/warwick/3dProfilometer/xpcc/src/xpcc/io/iostream.cpp **** 	do{
 159:/home/jonas/warwick/3dProfilometer/xpcc/src/xpcc/io/iostream.cpp **** 		uint64_t quot = value / 10;
 160:/home/jonas/warwick/3dProfilometer/xpcc/src/xpcc/io/iostream.cpp **** 		uint8_t rem = value - quot*10;
 161:/home/jonas/warwick/3dProfilometer/xpcc/src/xpcc/io/iostream.cpp **** 		*(--ptr) = static_cast<char>(rem) + '0';
 162:/home/jonas/warwick/3dProfilometer/xpcc/src/xpcc/io/iostream.cpp **** 		value = quot;
 163:/home/jonas/warwick/3dProfilometer/xpcc/src/xpcc/io/iostream.cpp **** 	}while (value != 0);
 164:/home/jonas/warwick/3dProfilometer/xpcc/src/xpcc/io/iostream.cpp **** 
 165:/home/jonas/warwick/3dProfilometer/xpcc/src/xpcc/io/iostream.cpp **** 	// write string
 166:/home/jonas/warwick/3dProfilometer/xpcc/src/xpcc/io/iostream.cpp **** 	this->device->write(ptr);
 167:/home/jonas/warwick/3dProfilometer/xpcc/src/xpcc/io/iostream.cpp **** }
 168:/home/jonas/warwick/3dProfilometer/xpcc/src/xpcc/io/iostream.cpp **** #endif
 169:/home/jonas/warwick/3dProfilometer/xpcc/src/xpcc/io/iostream.cpp **** 
 170:/home/jonas/warwick/3dProfilometer/xpcc/src/xpcc/io/iostream.cpp **** // ----------------------------------------------------------------------------
 171:/home/jonas/warwick/3dProfilometer/xpcc/src/xpcc/io/iostream.cpp **** void
 172:/home/jonas/warwick/3dProfilometer/xpcc/src/xpcc/io/iostream.cpp **** xpcc::IOStream::writeHex(const char* s)
 173:/home/jonas/warwick/3dProfilometer/xpcc/src/xpcc/io/iostream.cpp **** {
 174:/home/jonas/warwick/3dProfilometer/xpcc/src/xpcc/io/iostream.cpp **** 	while (*s != '\0') {
 175:/home/jonas/warwick/3dProfilometer/xpcc/src/xpcc/io/iostream.cpp **** 		this->writeHex(*s);
 176:/home/jonas/warwick/3dProfilometer/xpcc/src/xpcc/io/iostream.cpp **** 		s++;
 177:/home/jonas/warwick/3dProfilometer/xpcc/src/xpcc/io/iostream.cpp **** 	}
 178:/home/jonas/warwick/3dProfilometer/xpcc/src/xpcc/io/iostream.cpp **** }
 179:/home/jonas/warwick/3dProfilometer/xpcc/src/xpcc/io/iostream.cpp **** 
 180:/home/jonas/warwick/3dProfilometer/xpcc/src/xpcc/io/iostream.cpp **** void
 181:/home/jonas/warwick/3dProfilometer/xpcc/src/xpcc/io/iostream.cpp **** xpcc::IOStream::writeBin(const char* s)
 182:/home/jonas/warwick/3dProfilometer/xpcc/src/xpcc/io/iostream.cpp **** {
 183:/home/jonas/warwick/3dProfilometer/xpcc/src/xpcc/io/iostream.cpp **** 	while (*s != '\0') {
 184:/home/jonas/warwick/3dProfilometer/xpcc/src/xpcc/io/iostream.cpp **** 		this->writeBin(*s);
 185:/home/jonas/warwick/3dProfilometer/xpcc/src/xpcc/io/iostream.cpp **** 		s++;
 186:/home/jonas/warwick/3dProfilometer/xpcc/src/xpcc/io/iostream.cpp **** 	}
 187:/home/jonas/warwick/3dProfilometer/xpcc/src/xpcc/io/iostream.cpp **** }
 188:/home/jonas/warwick/3dProfilometer/xpcc/src/xpcc/io/iostream.cpp **** 
 189:/home/jonas/warwick/3dProfilometer/xpcc/src/xpcc/io/iostream.cpp **** // ----------------------------------------------------------------------------
 190:/home/jonas/warwick/3dProfilometer/xpcc/src/xpcc/io/iostream.cpp **** void
 191:/home/jonas/warwick/3dProfilometer/xpcc/src/xpcc/io/iostream.cpp **** xpcc::IOStream::writeHexNibble(uint8_t nibble)
 192:/home/jonas/warwick/3dProfilometer/xpcc/src/xpcc/io/iostream.cpp **** {
 193:/home/jonas/warwick/3dProfilometer/xpcc/src/xpcc/io/iostream.cpp **** 	char character;
 194:/home/jonas/warwick/3dProfilometer/xpcc/src/xpcc/io/iostream.cpp **** 	if (nibble > 9) {
 195:/home/jonas/warwick/3dProfilometer/xpcc/src/xpcc/io/iostream.cpp **** 		character = nibble + 'A' - 10;
 196:/home/jonas/warwick/3dProfilometer/xpcc/src/xpcc/io/iostream.cpp **** 	}
 197:/home/jonas/warwick/3dProfilometer/xpcc/src/xpcc/io/iostream.cpp **** 	else {
 198:/home/jonas/warwick/3dProfilometer/xpcc/src/xpcc/io/iostream.cpp **** 		character = nibble + '0';
 199:/home/jonas/warwick/3dProfilometer/xpcc/src/xpcc/io/iostream.cpp **** 	}
 200:/home/jonas/warwick/3dProfilometer/xpcc/src/xpcc/io/iostream.cpp **** 	this->device->write(character);
 201:/home/jonas/warwick/3dProfilometer/xpcc/src/xpcc/io/iostream.cpp **** }
 202:/home/jonas/warwick/3dProfilometer/xpcc/src/xpcc/io/iostream.cpp **** 
 203:/home/jonas/warwick/3dProfilometer/xpcc/src/xpcc/io/iostream.cpp **** // ----------------------------------------------------------------------------
 204:/home/jonas/warwick/3dProfilometer/xpcc/src/xpcc/io/iostream.cpp **** void
 205:/home/jonas/warwick/3dProfilometer/xpcc/src/xpcc/io/iostream.cpp **** xpcc::IOStream::writeHex(uint8_t value)
 206:/home/jonas/warwick/3dProfilometer/xpcc/src/xpcc/io/iostream.cpp **** {
 207:/home/jonas/warwick/3dProfilometer/xpcc/src/xpcc/io/iostream.cpp **** 	writeHexNibble(value >> 4);
 208:/home/jonas/warwick/3dProfilometer/xpcc/src/xpcc/io/iostream.cpp **** 	writeHexNibble(value & 0xF);
 209:/home/jonas/warwick/3dProfilometer/xpcc/src/xpcc/io/iostream.cpp **** }
 210:/home/jonas/warwick/3dProfilometer/xpcc/src/xpcc/io/iostream.cpp **** 
 211:/home/jonas/warwick/3dProfilometer/xpcc/src/xpcc/io/iostream.cpp **** void
 212:/home/jonas/warwick/3dProfilometer/xpcc/src/xpcc/io/iostream.cpp **** xpcc::IOStream::writeBin(uint8_t value)
 213:/home/jonas/warwick/3dProfilometer/xpcc/src/xpcc/io/iostream.cpp **** {
 214:/home/jonas/warwick/3dProfilometer/xpcc/src/xpcc/io/iostream.cpp **** 	for (uint_fast8_t ii = 0; ii < 8; ii++)
 215:/home/jonas/warwick/3dProfilometer/xpcc/src/xpcc/io/iostream.cpp **** 	{
 216:/home/jonas/warwick/3dProfilometer/xpcc/src/xpcc/io/iostream.cpp **** 		if (value & 0x80) {
 217:/home/jonas/warwick/3dProfilometer/xpcc/src/xpcc/io/iostream.cpp **** 			this->device->write('1');
 218:/home/jonas/warwick/3dProfilometer/xpcc/src/xpcc/io/iostream.cpp **** 		}
 219:/home/jonas/warwick/3dProfilometer/xpcc/src/xpcc/io/iostream.cpp **** 		else {
 220:/home/jonas/warwick/3dProfilometer/xpcc/src/xpcc/io/iostream.cpp **** 			this->device->write('0');
 221:/home/jonas/warwick/3dProfilometer/xpcc/src/xpcc/io/iostream.cpp **** 		}
 222:/home/jonas/warwick/3dProfilometer/xpcc/src/xpcc/io/iostream.cpp **** 		value <<= 1;
 223:/home/jonas/warwick/3dProfilometer/xpcc/src/xpcc/io/iostream.cpp **** 	}
 224:/home/jonas/warwick/3dProfilometer/xpcc/src/xpcc/io/iostream.cpp **** 
 225:/home/jonas/warwick/3dProfilometer/xpcc/src/xpcc/io/iostream.cpp **** }
 226:/home/jonas/warwick/3dProfilometer/xpcc/src/xpcc/io/iostream.cpp **** 
 227:/home/jonas/warwick/3dProfilometer/xpcc/src/xpcc/io/iostream.cpp **** // ----------------------------------------------------------------------------
 228:/home/jonas/warwick/3dProfilometer/xpcc/src/xpcc/io/iostream.cpp **** xpcc::IOStream&
 229:/home/jonas/warwick/3dProfilometer/xpcc/src/xpcc/io/iostream.cpp **** xpcc::IOStream::operator << (const void* p)
 230:/home/jonas/warwick/3dProfilometer/xpcc/src/xpcc/io/iostream.cpp **** {
 231:/home/jonas/warwick/3dProfilometer/xpcc/src/xpcc/io/iostream.cpp **** #if XPCC__SIZEOF_POINTER == 2
 232:/home/jonas/warwick/3dProfilometer/xpcc/src/xpcc/io/iostream.cpp **** 	
 233:/home/jonas/warwick/3dProfilometer/xpcc/src/xpcc/io/iostream.cpp **** 	this->device->write('0');
 234:/home/jonas/warwick/3dProfilometer/xpcc/src/xpcc/io/iostream.cpp **** 	this->device->write('x');
 235:/home/jonas/warwick/3dProfilometer/xpcc/src/xpcc/io/iostream.cpp **** 	
 236:/home/jonas/warwick/3dProfilometer/xpcc/src/xpcc/io/iostream.cpp **** 	uint16_t value = reinterpret_cast<uint16_t>(p);
 237:/home/jonas/warwick/3dProfilometer/xpcc/src/xpcc/io/iostream.cpp **** 	
 238:/home/jonas/warwick/3dProfilometer/xpcc/src/xpcc/io/iostream.cpp **** 	writeHex(value >> 8);
 239:/home/jonas/warwick/3dProfilometer/xpcc/src/xpcc/io/iostream.cpp **** 	writeHex(value);
 240:/home/jonas/warwick/3dProfilometer/xpcc/src/xpcc/io/iostream.cpp **** 	
 241:/home/jonas/warwick/3dProfilometer/xpcc/src/xpcc/io/iostream.cpp **** #elif XPCC__SIZEOF_POINTER == 4
 242:/home/jonas/warwick/3dProfilometer/xpcc/src/xpcc/io/iostream.cpp **** 	
 243:/home/jonas/warwick/3dProfilometer/xpcc/src/xpcc/io/iostream.cpp **** 	this->device->write('0');
 244:/home/jonas/warwick/3dProfilometer/xpcc/src/xpcc/io/iostream.cpp **** 	this->device->write('x');
 245:/home/jonas/warwick/3dProfilometer/xpcc/src/xpcc/io/iostream.cpp **** 	
 246:/home/jonas/warwick/3dProfilometer/xpcc/src/xpcc/io/iostream.cpp **** 	uint32_t value = reinterpret_cast<uint32_t>(p);
 247:/home/jonas/warwick/3dProfilometer/xpcc/src/xpcc/io/iostream.cpp **** 	
 248:/home/jonas/warwick/3dProfilometer/xpcc/src/xpcc/io/iostream.cpp **** 	writeHex(value >> 24);
 249:/home/jonas/warwick/3dProfilometer/xpcc/src/xpcc/io/iostream.cpp **** 	writeHex(value >> 16);
 250:/home/jonas/warwick/3dProfilometer/xpcc/src/xpcc/io/iostream.cpp **** 	writeHex(value >> 8);
 251:/home/jonas/warwick/3dProfilometer/xpcc/src/xpcc/io/iostream.cpp **** 	writeHex(value);
 252:/home/jonas/warwick/3dProfilometer/xpcc/src/xpcc/io/iostream.cpp **** 	
 253:/home/jonas/warwick/3dProfilometer/xpcc/src/xpcc/io/iostream.cpp **** #elif XPCC__SIZEOF_POINTER == 8
 254:/home/jonas/warwick/3dProfilometer/xpcc/src/xpcc/io/iostream.cpp **** 	
 255:/home/jonas/warwick/3dProfilometer/xpcc/src/xpcc/io/iostream.cpp **** 	this->device->write('0');
 256:/home/jonas/warwick/3dProfilometer/xpcc/src/xpcc/io/iostream.cpp **** 	this->device->write('x');
 257:/home/jonas/warwick/3dProfilometer/xpcc/src/xpcc/io/iostream.cpp **** 	
 258:/home/jonas/warwick/3dProfilometer/xpcc/src/xpcc/io/iostream.cpp **** 	uint64_t value = reinterpret_cast<uint64_t>(p);
 259:/home/jonas/warwick/3dProfilometer/xpcc/src/xpcc/io/iostream.cpp **** 	
 260:/home/jonas/warwick/3dProfilometer/xpcc/src/xpcc/io/iostream.cpp **** 	writeHex(value >> 56);
 261:/home/jonas/warwick/3dProfilometer/xpcc/src/xpcc/io/iostream.cpp **** 	writeHex(value >> 48);
 262:/home/jonas/warwick/3dProfilometer/xpcc/src/xpcc/io/iostream.cpp **** 	writeHex(value >> 40);
 263:/home/jonas/warwick/3dProfilometer/xpcc/src/xpcc/io/iostream.cpp **** 	writeHex(value >> 32);
 264:/home/jonas/warwick/3dProfilometer/xpcc/src/xpcc/io/iostream.cpp **** 	writeHex(value >> 24);
 265:/home/jonas/warwick/3dProfilometer/xpcc/src/xpcc/io/iostream.cpp **** 	writeHex(value >> 16);
 266:/home/jonas/warwick/3dProfilometer/xpcc/src/xpcc/io/iostream.cpp **** 	writeHex(value >> 8);
 267:/home/jonas/warwick/3dProfilometer/xpcc/src/xpcc/io/iostream.cpp **** 	writeHex(value);
 268:/home/jonas/warwick/3dProfilometer/xpcc/src/xpcc/io/iostream.cpp **** 	
 269:/home/jonas/warwick/3dProfilometer/xpcc/src/xpcc/io/iostream.cpp **** #endif
 270:/home/jonas/warwick/3dProfilometer/xpcc/src/xpcc/io/iostream.cpp **** 	return *this;
 271:/home/jonas/warwick/3dProfilometer/xpcc/src/xpcc/io/iostream.cpp **** }
  93              		.loc 1 271 0
  94 0014 35F81730 		ldrh	r3, [r5, r7, lsl #1]
  95              	.LBE54:
  70:/home/jonas/warwick/3dProfilometer/xpcc/src/xpcc/io/iostream.cpp **** 		for (d = static_cast<uint16_t>('0'); value >= basePtr[i]; value -= basePtr[i])
  96              		.loc 1 70 0
  97 0018 9C42     		cmp	r4, r3
  98 001a 15D3     		bcc	.L10
  99 001c 3021     		movs	r1, #48
 100              	.LVL6:
 101              	.L11:
 102 001e E41A     		subs	r4, r4, r3
 103 0020 A4B2     		uxth	r4, r4
  72:/home/jonas/warwick/3dProfilometer/xpcc/src/xpcc/io/iostream.cpp **** 			d++;
 104              		.loc 1 72 0
 105 0022 0131     		adds	r1, r1, #1
  70:/home/jonas/warwick/3dProfilometer/xpcc/src/xpcc/io/iostream.cpp **** 		for (d = static_cast<uint16_t>('0'); value >= basePtr[i]; value -= basePtr[i])
 106              		.loc 1 70 0
 107 0024 9C42     		cmp	r4, r3
  72:/home/jonas/warwick/3dProfilometer/xpcc/src/xpcc/io/iostream.cpp **** 			d++;
 108              		.loc 1 72 0
 109 0026 C9B2     		uxtb	r1, r1
 110              	.LVL7:
  70:/home/jonas/warwick/3dProfilometer/xpcc/src/xpcc/io/iostream.cpp **** 		for (d = static_cast<uint16_t>('0'); value >= basePtr[i]; value -= basePtr[i])
 111              		.loc 1 70 0
 112 0028 F9D2     		bcs	.L11
 113              	.LVL8:
 114              	.L12:
  76:/home/jonas/warwick/3dProfilometer/xpcc/src/xpcc/io/iostream.cpp **** 			this->device->write(d);
 115              		.loc 1 76 0
 116 002a 3068     		ldr	r0, [r6, #0]
 117 002c 0368     		ldr	r3, [r0, #0]
 118 002e 9B68     		ldr	r3, [r3, #8]
 119 0030 9847     		blx	r3
 120              	.LVL9:
 121 0032 0022     		movs	r2, #0
 122              	.L13:
 123              	.LBE53:
  67:/home/jonas/warwick/3dProfilometer/xpcc/src/xpcc/io/iostream.cpp **** 	do {
 124              		.loc 1 67 0
 125 0034 002F     		cmp	r7, #0
 126 0036 EBD1     		bne	.L14
 127              	.LVL10:
 128              	.L19:
  80:/home/jonas/warwick/3dProfilometer/xpcc/src/xpcc/io/iostream.cpp **** 	this->device->write(static_cast<char>(value) + '0');
 129              		.loc 1 80 0
 130 0038 3068     		ldr	r0, [r6, #0]
 131 003a 0368     		ldr	r3, [r0, #0]
 132 003c 04F13001 		add	r1, r4, #48
 133 0040 9B68     		ldr	r3, [r3, #8]
 134 0042 C9B2     		uxtb	r1, r1
 135 0044 9847     		blx	r3
 136              	.LVL11:
 137 0046 F8BD     		pop	{r3, r4, r5, r6, r7, pc}
 138              	.LVL12:
 139              	.L10:
 140              	.LBB55:
  75:/home/jonas/warwick/3dProfilometer/xpcc/src/xpcc/io/iostream.cpp **** 		if (!zero) {
 141              		.loc 1 75 0
 142 0048 002A     		cmp	r2, #0
 143 004a F3D1     		bne	.L13
  70:/home/jonas/warwick/3dProfilometer/xpcc/src/xpcc/io/iostream.cpp **** 		for (d = static_cast<uint16_t>('0'); value >= basePtr[i]; value -= basePtr[i])
 144              		.loc 1 70 0
 145 004c 3021     		movs	r1, #48
 146 004e ECE7     		b	.L12
 147              	.LVL13:
 148              	.L21:
 149              	.LBE55:
 150              	.LBE52:
 151              	.LBE51:
  52:/home/jonas/warwick/3dProfilometer/xpcc/src/xpcc/io/iostream.cpp **** 		this->device->write('-');
 152              		.loc 1 52 0
 153 0050 0068     		ldr	r0, [r0, #0]
 154              	.LVL14:
 155 0052 114D     		ldr	r5, .L22
 156 0054 0368     		ldr	r3, [r0, #0]
 157 0056 2D21     		movs	r1, #45
 158              	.LVL15:
 159 0058 9B68     		ldr	r3, [r3, #8]
  53:/home/jonas/warwick/3dProfilometer/xpcc/src/xpcc/io/iostream.cpp **** 		this->writeInteger(static_cast<uint16_t>(-value));
 160              		.loc 1 53 0
 161 005a 6442     		negs	r4, r4
  52:/home/jonas/warwick/3dProfilometer/xpcc/src/xpcc/io/iostream.cpp **** 		this->device->write('-');
 162              		.loc 1 52 0
 163 005c 9847     		blx	r3
 164              	.LVL16:
  53:/home/jonas/warwick/3dProfilometer/xpcc/src/xpcc/io/iostream.cpp **** 		this->writeInteger(static_cast<uint16_t>(-value));
 165              		.loc 1 53 0
 166 005e A4B2     		uxth	r4, r4
 167              	.LVL17:
  66:/home/jonas/warwick/3dProfilometer/xpcc/src/xpcc/io/iostream.cpp **** 	uint8_t i = 4;
 168              		.loc 1 66 0
 169 0060 0427     		movs	r7, #4
  65:/home/jonas/warwick/3dProfilometer/xpcc/src/xpcc/io/iostream.cpp **** 	bool zero = true;
 170              		.loc 1 65 0
 171 0062 0122     		movs	r2, #1
 172              	.LVL18:
 173              	.L8:
 174              	.LBB56:
 175              	.LBB57:
 176              	.LBB58:
  68:/home/jonas/warwick/3dProfilometer/xpcc/src/xpcc/io/iostream.cpp **** 		i--;
 177              		.loc 1 68 0
 178 0064 013F     		subs	r7, r7, #1
 179              	.LVL19:
 180 0066 FFB2     		uxtb	r7, r7
 181              	.LVL20:
 182              	.LBB59:
 183              		.loc 1 271 0
 184 0068 35F81730 		ldrh	r3, [r5, r7, lsl #1]
 185              	.LBE59:
  70:/home/jonas/warwick/3dProfilometer/xpcc/src/xpcc/io/iostream.cpp **** 		for (d = static_cast<uint16_t>('0'); value >= basePtr[i]; value -= basePtr[i])
 186              		.loc 1 70 0
 187 006c 9C42     		cmp	r4, r3
 188 006e 0ED3     		bcc	.L4
 189 0070 3021     		movs	r1, #48
 190              	.LVL21:
 191              	.L5:
 192 0072 E41A     		subs	r4, r4, r3
 193 0074 A4B2     		uxth	r4, r4
  72:/home/jonas/warwick/3dProfilometer/xpcc/src/xpcc/io/iostream.cpp **** 			d++;
 194              		.loc 1 72 0
 195 0076 0131     		adds	r1, r1, #1
  70:/home/jonas/warwick/3dProfilometer/xpcc/src/xpcc/io/iostream.cpp **** 		for (d = static_cast<uint16_t>('0'); value >= basePtr[i]; value -= basePtr[i])
 196              		.loc 1 70 0
 197 0078 9C42     		cmp	r4, r3
  72:/home/jonas/warwick/3dProfilometer/xpcc/src/xpcc/io/iostream.cpp **** 			d++;
 198              		.loc 1 72 0
 199 007a C9B2     		uxtb	r1, r1
 200              	.LVL22:
  70:/home/jonas/warwick/3dProfilometer/xpcc/src/xpcc/io/iostream.cpp **** 		for (d = static_cast<uint16_t>('0'); value >= basePtr[i]; value -= basePtr[i])
 201              		.loc 1 70 0
 202 007c F9D2     		bcs	.L5
 203              	.LVL23:
 204              	.L6:
  76:/home/jonas/warwick/3dProfilometer/xpcc/src/xpcc/io/iostream.cpp **** 			this->device->write(d);
 205              		.loc 1 76 0
 206 007e 3068     		ldr	r0, [r6, #0]
 207 0080 0368     		ldr	r3, [r0, #0]
 208 0082 9B68     		ldr	r3, [r3, #8]
 209 0084 9847     		blx	r3
 210              	.LVL24:
 211 0086 0022     		movs	r2, #0
 212              	.L7:
 213              	.LBE58:
  67:/home/jonas/warwick/3dProfilometer/xpcc/src/xpcc/io/iostream.cpp **** 	do {
 214              		.loc 1 67 0
 215 0088 002F     		cmp	r7, #0
 216 008a EBD1     		bne	.L8
 217 008c D4E7     		b	.L19
 218              	.LVL25:
 219              	.L4:
 220              	.LBB60:
  75:/home/jonas/warwick/3dProfilometer/xpcc/src/xpcc/io/iostream.cpp **** 		if (!zero) {
 221              		.loc 1 75 0
 222 008e 002A     		cmp	r2, #0
 223 0090 FAD1     		bne	.L7
  70:/home/jonas/warwick/3dProfilometer/xpcc/src/xpcc/io/iostream.cpp **** 		for (d = static_cast<uint16_t>('0'); value >= basePtr[i]; value -= basePtr[i])
 224              		.loc 1 70 0
 225 0092 3021     		movs	r1, #48
 226 0094 F3E7     		b	.L6
 227              	.L23:
 228 0096 00BF     		.align	2
 229              	.L22:
 230 0098 00000000 		.word	.LANCHOR0
 231              	.LBE60:
 232              	.LBE57:
 233              	.LBE56:
 234              		.cfi_endproc
 235              	.LFE94:
 237              		.section	.text._ZN4xpcc8IOStream12writeIntegerEt,"ax",%progbits
 238              		.align	2
 239              		.global	_ZN4xpcc8IOStream12writeIntegerEt
 240              		.thumb
 241              		.thumb_func
 243              	_ZN4xpcc8IOStream12writeIntegerEt:
 244              	.LFB95:
  62:/home/jonas/warwick/3dProfilometer/xpcc/src/xpcc/io/iostream.cpp **** {
 245              		.loc 1 62 0
 246              		.cfi_startproc
 247              		@ args = 0, pretend = 0, frame = 0
 248              		@ frame_needed = 0, uses_anonymous_args = 0
 249              	.LVL26:
 250 0000 F8B5     		push	{r3, r4, r5, r6, r7, lr}
 251              	.LCFI1:
 252              		.cfi_def_cfa_offset 24
 253              		.cfi_offset 3, -24
 254              		.cfi_offset 4, -20
 255              		.cfi_offset 5, -16
 256              		.cfi_offset 6, -12
 257              		.cfi_offset 7, -8
 258              		.cfi_offset 14, -4
 259 0002 124E     		ldr	r6, .L32
  62:/home/jonas/warwick/3dProfilometer/xpcc/src/xpcc/io/iostream.cpp **** {
 260              		.loc 1 62 0
 261 0004 0746     		mov	r7, r0
 262 0006 0C46     		mov	r4, r1
  66:/home/jonas/warwick/3dProfilometer/xpcc/src/xpcc/io/iostream.cpp **** 	uint8_t i = 4;
 263              		.loc 1 66 0
 264 0008 0425     		movs	r5, #4
  65:/home/jonas/warwick/3dProfilometer/xpcc/src/xpcc/io/iostream.cpp **** 	bool zero = true;
 265              		.loc 1 65 0
 266 000a 0122     		movs	r2, #1
 267              	.LVL27:
 268              	.L29:
 269              	.LBB61:
 270              	.LBB62:
  68:/home/jonas/warwick/3dProfilometer/xpcc/src/xpcc/io/iostream.cpp **** 		i--;
 271              		.loc 1 68 0
 272 000c 013D     		subs	r5, r5, #1
 273              	.LVL28:
 274 000e EDB2     		uxtb	r5, r5
 275              	.LVL29:
 276              	.LBB63:
 277              		.loc 1 271 0
 278 0010 36F81530 		ldrh	r3, [r6, r5, lsl #1]
 279              	.LBE63:
  70:/home/jonas/warwick/3dProfilometer/xpcc/src/xpcc/io/iostream.cpp **** 		for (d = static_cast<uint16_t>('0'); value >= basePtr[i]; value -= basePtr[i])
 280              		.loc 1 70 0
 281 0014 9C42     		cmp	r4, r3
 282 0016 15D3     		bcc	.L25
 283 0018 3021     		movs	r1, #48
 284              	.LVL30:
 285              	.L26:
  70:/home/jonas/warwick/3dProfilometer/xpcc/src/xpcc/io/iostream.cpp **** 		for (d = static_cast<uint16_t>('0'); value >= basePtr[i]; value -= basePtr[i])
 286              		.loc 1 70 0 is_stmt 0 discriminator 2
 287 001a E41A     		subs	r4, r4, r3
 288 001c A4B2     		uxth	r4, r4
  72:/home/jonas/warwick/3dProfilometer/xpcc/src/xpcc/io/iostream.cpp **** 			d++;
 289              		.loc 1 72 0 is_stmt 1 discriminator 2
 290 001e 0131     		adds	r1, r1, #1
  70:/home/jonas/warwick/3dProfilometer/xpcc/src/xpcc/io/iostream.cpp **** 		for (d = static_cast<uint16_t>('0'); value >= basePtr[i]; value -= basePtr[i])
 291              		.loc 1 70 0 discriminator 2
 292 0020 9C42     		cmp	r4, r3
  72:/home/jonas/warwick/3dProfilometer/xpcc/src/xpcc/io/iostream.cpp **** 			d++;
 293              		.loc 1 72 0 discriminator 2
 294 0022 C9B2     		uxtb	r1, r1
 295              	.LVL31:
  70:/home/jonas/warwick/3dProfilometer/xpcc/src/xpcc/io/iostream.cpp **** 		for (d = static_cast<uint16_t>('0'); value >= basePtr[i]; value -= basePtr[i])
 296              		.loc 1 70 0 discriminator 2
 297 0024 F9D2     		bcs	.L26
 298              	.LVL32:
 299              	.L27:
  76:/home/jonas/warwick/3dProfilometer/xpcc/src/xpcc/io/iostream.cpp **** 			this->device->write(d);
 300              		.loc 1 76 0
 301 0026 3868     		ldr	r0, [r7, #0]
 302 0028 0368     		ldr	r3, [r0, #0]
 303 002a 9B68     		ldr	r3, [r3, #8]
 304 002c 9847     		blx	r3
 305              	.LVL33:
 306 002e 0022     		movs	r2, #0
 307              	.L28:
 308              	.LBE62:
  67:/home/jonas/warwick/3dProfilometer/xpcc/src/xpcc/io/iostream.cpp **** 	do {
 309              		.loc 1 67 0
 310 0030 002D     		cmp	r5, #0
 311 0032 EBD1     		bne	.L29
  80:/home/jonas/warwick/3dProfilometer/xpcc/src/xpcc/io/iostream.cpp **** 	this->device->write(static_cast<char>(value) + '0');
 312              		.loc 1 80 0
 313 0034 3868     		ldr	r0, [r7, #0]
 314 0036 0368     		ldr	r3, [r0, #0]
 315 0038 04F13001 		add	r1, r4, #48
 316 003c 9B68     		ldr	r3, [r3, #8]
 317 003e C9B2     		uxtb	r1, r1
 318 0040 9847     		blx	r3
 319              	.LVL34:
 320 0042 F8BD     		pop	{r3, r4, r5, r6, r7, pc}
 321              	.LVL35:
 322              	.L25:
 323              	.LBB64:
  75:/home/jonas/warwick/3dProfilometer/xpcc/src/xpcc/io/iostream.cpp **** 		if (!zero) {
 324              		.loc 1 75 0
 325 0044 002A     		cmp	r2, #0
 326 0046 F3D1     		bne	.L28
  70:/home/jonas/warwick/3dProfilometer/xpcc/src/xpcc/io/iostream.cpp **** 		for (d = static_cast<uint16_t>('0'); value >= basePtr[i]; value -= basePtr[i])
 327              		.loc 1 70 0
 328 0048 3021     		movs	r1, #48
 329 004a ECE7     		b	.L27
 330              	.L33:
 331              		.align	2
 332              	.L32:
 333 004c 00000000 		.word	.LANCHOR0
 334              	.LBE64:
 335              	.LBE61:
 336              		.cfi_endproc
 337              	.LFE95:
 339              		.section	.text._ZN4xpcc8IOStream12writeIntegerEl,"ax",%progbits
 340              		.align	2
 341              		.global	_ZN4xpcc8IOStream12writeIntegerEl
 342              		.thumb
 343              		.thumb_func
 345              	_ZN4xpcc8IOStream12writeIntegerEl:
 346              	.LFB96:
  85:/home/jonas/warwick/3dProfilometer/xpcc/src/xpcc/io/iostream.cpp **** {
 347              		.loc 1 85 0
 348              		.cfi_startproc
 349              		@ args = 0, pretend = 0, frame = 16
 350              		@ frame_needed = 0, uses_anonymous_args = 0
 351              	.LVL36:
 352 0000 30B5     		push	{r4, r5, lr}
 353              	.LCFI2:
 354              		.cfi_def_cfa_offset 12
 355              		.cfi_offset 4, -12
 356              		.cfi_offset 5, -8
 357              		.cfi_offset 14, -4
  94:/home/jonas/warwick/3dProfilometer/xpcc/src/xpcc/io/iostream.cpp **** 	if (value < 0) {
 358              		.loc 1 94 0
 359 0002 0C1E     		subs	r4, r1, #0
  85:/home/jonas/warwick/3dProfilometer/xpcc/src/xpcc/io/iostream.cpp **** {
 360              		.loc 1 85 0
 361 0004 85B0     		sub	sp, sp, #20
 362              	.LCFI3:
 363              		.cfi_def_cfa_offset 32
  85:/home/jonas/warwick/3dProfilometer/xpcc/src/xpcc/io/iostream.cpp **** {
 364              		.loc 1 85 0
 365 0006 0546     		mov	r5, r0
  94:/home/jonas/warwick/3dProfilometer/xpcc/src/xpcc/io/iostream.cpp **** 	if (value < 0) {
 366              		.loc 1 94 0
 367 0008 18DB     		blt	.L42
 368              	.LBB73:
 369              	.LBB74:
 119:/home/jonas/warwick/3dProfilometer/xpcc/src/xpcc/io/iostream.cpp **** 	*ptr = '\0';
 370              		.loc 1 119 0
 371 000a 04A9     		add	r1, sp, #16
 372              	.LVL37:
 373 000c 0023     		movs	r3, #0
 374 000e 01F8023D 		strb	r3, [r1, #-2]!
 375              	.LBE74:
 376              	.LBE73:
  99:/home/jonas/warwick/3dProfilometer/xpcc/src/xpcc/io/iostream.cpp **** 		this->writeInteger(static_cast<uint32_t>(value));
 377              		.loc 1 99 0
 378 0012 2346     		mov	r3, r4
 379              	.LVL38:
 380              	.L38:
 381              	.LBB77:
 382              	.LBB76:
 383              	.LBB75:
 123:/home/jonas/warwick/3dProfilometer/xpcc/src/xpcc/io/iostream.cpp **** 		uint32_t quot = value / 10;
 384              		.loc 1 123 0
 385 0014 164A     		ldr	r2, .L43
 386 0016 A2FB0302 		umull	r0, r2, r2, r3
 387 001a D208     		lsrs	r2, r2, #3
 388              	.LVL39:
 124:/home/jonas/warwick/3dProfilometer/xpcc/src/xpcc/io/iostream.cpp **** 		uint8_t rem = value - quot*10;
 389              		.loc 1 124 0
 390 001c 3033     		adds	r3, r3, #48
 391              	.LVL40:
 392 001e 02EB8204 		add	r4, r2, r2, lsl #2
 125:/home/jonas/warwick/3dProfilometer/xpcc/src/xpcc/io/iostream.cpp **** 		*(--ptr) = static_cast<char>(rem) + '0';
 393              		.loc 1 125 0
 394 0022 A3EB4404 		sub	r4, r3, r4, lsl #1
 395 0026 01F8014D 		strb	r4, [r1, #-1]!
 396              	.LVL41:
 397              	.LBE75:
 122:/home/jonas/warwick/3dProfilometer/xpcc/src/xpcc/io/iostream.cpp **** 	do{
 398              		.loc 1 122 0
 399 002a 1346     		mov	r3, r2
 400              	.LVL42:
 401 002c 002A     		cmp	r2, #0
 402 002e F1D1     		bne	.L38
 403              	.LVL43:
 404              	.L41:
 130:/home/jonas/warwick/3dProfilometer/xpcc/src/xpcc/io/iostream.cpp **** 	this->device->write(ptr);
 405              		.loc 1 130 0
 406 0030 2868     		ldr	r0, [r5, #0]
 407 0032 0368     		ldr	r3, [r0, #0]
 408 0034 DB68     		ldr	r3, [r3, #12]
 409 0036 9847     		blx	r3
 410              	.LVL44:
 411              	.LBE76:
 412              	.LBE77:
 102:/home/jonas/warwick/3dProfilometer/xpcc/src/xpcc/io/iostream.cpp **** }
 413              		.loc 1 102 0
 414 0038 05B0     		add	sp, sp, #20
 415 003a 30BD     		pop	{r4, r5, pc}
 416              	.LVL45:
 417              	.L42:
  95:/home/jonas/warwick/3dProfilometer/xpcc/src/xpcc/io/iostream.cpp **** 		this->device->write('-');
 418              		.loc 1 95 0
 419 003c 0068     		ldr	r0, [r0, #0]
 420              	.LVL46:
 421 003e 0368     		ldr	r3, [r0, #0]
 422 0040 2D21     		movs	r1, #45
 423              	.LVL47:
 424 0042 9B68     		ldr	r3, [r3, #8]
 425 0044 9847     		blx	r3
 426              	.LVL48:
 427              	.LBB78:
 428              	.LBB79:
 119:/home/jonas/warwick/3dProfilometer/xpcc/src/xpcc/io/iostream.cpp **** 	*ptr = '\0';
 429              		.loc 1 119 0
 430 0046 04A9     		add	r1, sp, #16
 431 0048 0023     		movs	r3, #0
 432 004a 01F8023D 		strb	r3, [r1, #-2]!
 433              	.LBE79:
 434              	.LBE78:
  96:/home/jonas/warwick/3dProfilometer/xpcc/src/xpcc/io/iostream.cpp **** 		this->writeInteger(static_cast<uint32_t>(-value));
 435              		.loc 1 96 0
 436 004e 6342     		negs	r3, r4
 437              	.LVL49:
 438              	.L36:
 439              	.LBB82:
 440              	.LBB81:
 441              	.LBB80:
 123:/home/jonas/warwick/3dProfilometer/xpcc/src/xpcc/io/iostream.cpp **** 		uint32_t quot = value / 10;
 442              		.loc 1 123 0
 443 0050 074A     		ldr	r2, .L43
 444 0052 A2FB0302 		umull	r0, r2, r2, r3
 445 0056 D208     		lsrs	r2, r2, #3
 446              	.LVL50:
 124:/home/jonas/warwick/3dProfilometer/xpcc/src/xpcc/io/iostream.cpp **** 		uint8_t rem = value - quot*10;
 447              		.loc 1 124 0
 448 0058 3033     		adds	r3, r3, #48
 449              	.LVL51:
 450 005a 02EB8200 		add	r0, r2, r2, lsl #2
 125:/home/jonas/warwick/3dProfilometer/xpcc/src/xpcc/io/iostream.cpp **** 		*(--ptr) = static_cast<char>(rem) + '0';
 451              		.loc 1 125 0
 452 005e A3EB4000 		sub	r0, r3, r0, lsl #1
 453 0062 01F8010D 		strb	r0, [r1, #-1]!
 454              	.LVL52:
 455              	.LBE80:
 122:/home/jonas/warwick/3dProfilometer/xpcc/src/xpcc/io/iostream.cpp **** 	do{
 456              		.loc 1 122 0
 457 0066 1346     		mov	r3, r2
 458              	.LVL53:
 459 0068 002A     		cmp	r2, #0
 460 006a F1D1     		bne	.L36
 461 006c E0E7     		b	.L41
 462              	.L44:
 463 006e 00BF     		.align	2
 464              	.L43:
 465 0070 CDCCCCCC 		.word	-858993459
 466              	.LBE81:
 467              	.LBE82:
 468              		.cfi_endproc
 469              	.LFE96:
 471              		.section	.text._ZN4xpcc8IOStream12writeIntegerEm,"ax",%progbits
 472              		.align	2
 473              		.global	_ZN4xpcc8IOStream12writeIntegerEm
 474              		.thumb
 475              		.thumb_func
 477              	_ZN4xpcc8IOStream12writeIntegerEm:
 478              	.LFB97:
 106:/home/jonas/warwick/3dProfilometer/xpcc/src/xpcc/io/iostream.cpp **** {
 479              		.loc 1 106 0
 480              		.cfi_startproc
 481              		@ args = 0, pretend = 0, frame = 16
 482              		@ frame_needed = 0, uses_anonymous_args = 0
 483              	.LVL54:
 484 0000 10B5     		push	{r4, lr}
 485              	.LCFI4:
 486              		.cfi_def_cfa_offset 8
 487              		.cfi_offset 4, -8
 488              		.cfi_offset 14, -4
 489 0002 84B0     		sub	sp, sp, #16
 490              	.LCFI5:
 491              		.cfi_def_cfa_offset 24
 492              	.LVL55:
 493              	.LBB83:
 119:/home/jonas/warwick/3dProfilometer/xpcc/src/xpcc/io/iostream.cpp **** 	*ptr = '\0';
 494              		.loc 1 119 0
 495 0004 04AC     		add	r4, sp, #16
 496 0006 0023     		movs	r3, #0
 497 0008 04F8023D 		strb	r3, [r4, #-2]!
 498              	.LBE83:
 106:/home/jonas/warwick/3dProfilometer/xpcc/src/xpcc/io/iostream.cpp **** {
 499              		.loc 1 106 0
 500 000c 0B46     		mov	r3, r1
 501              	.LVL56:
 502              	.L46:
 503              	.LBB85:
 504              	.LBB84:
 123:/home/jonas/warwick/3dProfilometer/xpcc/src/xpcc/io/iostream.cpp **** 		uint32_t quot = value / 10;
 505              		.loc 1 123 0 discriminator 1
 506 000e 0A4A     		ldr	r2, .L48
 507 0010 A2FB0312 		umull	r1, r2, r2, r3
 508 0014 D208     		lsrs	r2, r2, #3
 509              	.LVL57:
 124:/home/jonas/warwick/3dProfilometer/xpcc/src/xpcc/io/iostream.cpp **** 		uint8_t rem = value - quot*10;
 510              		.loc 1 124 0 discriminator 1
 511 0016 3033     		adds	r3, r3, #48
 512              	.LVL58:
 513 0018 02EB8201 		add	r1, r2, r2, lsl #2
 125:/home/jonas/warwick/3dProfilometer/xpcc/src/xpcc/io/iostream.cpp **** 		*(--ptr) = static_cast<char>(rem) + '0';
 514              		.loc 1 125 0 discriminator 1
 515 001c A3EB4101 		sub	r1, r3, r1, lsl #1
 516 0020 04F8011D 		strb	r1, [r4, #-1]!
 517              	.LVL59:
 518              	.LBE84:
 122:/home/jonas/warwick/3dProfilometer/xpcc/src/xpcc/io/iostream.cpp **** 	do{
 519              		.loc 1 122 0 discriminator 1
 520 0024 1346     		mov	r3, r2
 521              	.LVL60:
 522 0026 002A     		cmp	r2, #0
 523 0028 F1D1     		bne	.L46
 130:/home/jonas/warwick/3dProfilometer/xpcc/src/xpcc/io/iostream.cpp **** 	this->device->write(ptr);
 524              		.loc 1 130 0
 525 002a 0068     		ldr	r0, [r0, #0]
 526              	.LVL61:
 527 002c 0368     		ldr	r3, [r0, #0]
 528 002e 2146     		mov	r1, r4
 529 0030 DB68     		ldr	r3, [r3, #12]
 530 0032 9847     		blx	r3
 531              	.LVL62:
 532              	.LBE85:
 132:/home/jonas/warwick/3dProfilometer/xpcc/src/xpcc/io/iostream.cpp **** }
 533              		.loc 1 132 0
 534 0034 04B0     		add	sp, sp, #16
 535 0036 10BD     		pop	{r4, pc}
 536              	.L49:
 537              		.align	2
 538              	.L48:
 539 0038 CDCCCCCC 		.word	-858993459
 540              		.cfi_endproc
 541              	.LFE97:
 543              		.global	__aeabi_uldivmod
 544              		.section	.text._ZN4xpcc8IOStream12writeIntegerEx,"ax",%progbits
 545              		.align	2
 546              		.global	_ZN4xpcc8IOStream12writeIntegerEx
 547              		.thumb
 548              		.thumb_func
 550              	_ZN4xpcc8IOStream12writeIntegerEx:
 551              	.LFB98:
 137:/home/jonas/warwick/3dProfilometer/xpcc/src/xpcc/io/iostream.cpp **** {
 552              		.loc 1 137 0
 553              		.cfi_startproc
 554              		@ args = 0, pretend = 0, frame = 24
 555              		@ frame_needed = 0, uses_anonymous_args = 0
 556              	.LVL63:
 557 0000 2DE9F041 		push	{r4, r5, r6, r7, r8, lr}
 558              	.LCFI6:
 559              		.cfi_def_cfa_offset 24
 560              		.cfi_offset 4, -24
 561              		.cfi_offset 5, -20
 562              		.cfi_offset 6, -16
 563              		.cfi_offset 7, -12
 564              		.cfi_offset 8, -8
 565              		.cfi_offset 14, -4
 566 0004 1446     		mov	r4, r2
 567 0006 1D46     		mov	r5, r3
 138:/home/jonas/warwick/3dProfilometer/xpcc/src/xpcc/io/iostream.cpp **** 	if (value < 0) {
 568              		.loc 1 138 0
 569 0008 002C     		cmp	r4, #0
 570 000a 75F10003 		sbcs	r3, r5, #0
 137:/home/jonas/warwick/3dProfilometer/xpcc/src/xpcc/io/iostream.cpp **** {
 571              		.loc 1 137 0
 572 000e 86B0     		sub	sp, sp, #24
 573              	.LCFI7:
 574              		.cfi_def_cfa_offset 48
 137:/home/jonas/warwick/3dProfilometer/xpcc/src/xpcc/io/iostream.cpp **** {
 575              		.loc 1 137 0
 576 0010 0746     		mov	r7, r0
 138:/home/jonas/warwick/3dProfilometer/xpcc/src/xpcc/io/iostream.cpp **** 	if (value < 0) {
 577              		.loc 1 138 0
 578 0012 1EDB     		blt	.L58
 579              	.LBB94:
 580              	.LBB95:
 155:/home/jonas/warwick/3dProfilometer/xpcc/src/xpcc/io/iostream.cpp **** 	*ptr = '\0';
 581              		.loc 1 155 0
 582 0014 0DF11808 		add	r8, sp, #24
 583 0018 0023     		movs	r3, #0
 584 001a 08F8043D 		strb	r3, [r8, #-4]!
 585 001e 1D4E     		ldr	r6, .L59
 586              	.LVL64:
 587              	.L54:
 588              	.LBB96:
 159:/home/jonas/warwick/3dProfilometer/xpcc/src/xpcc/io/iostream.cpp **** 		uint64_t quot = value / 10;
 589              		.loc 1 159 0
 590 0020 0023     		movs	r3, #0
 591 0022 2046     		mov	r0, r4
 592 0024 2946     		mov	r1, r5
 593 0026 0A22     		movs	r2, #10
 594 0028 B047     		blx	r6
 595              	.LVL65:
 160:/home/jonas/warwick/3dProfilometer/xpcc/src/xpcc/io/iostream.cpp **** 		uint8_t rem = value - quot*10;
 596              		.loc 1 160 0
 597 002a 3034     		adds	r4, r4, #48
 598              	.LVL66:
 599 002c 00EB8003 		add	r3, r0, r0, lsl #2
 161:/home/jonas/warwick/3dProfilometer/xpcc/src/xpcc/io/iostream.cpp **** 		*(--ptr) = static_cast<char>(rem) + '0';
 600              		.loc 1 161 0
 601 0030 A4EB4303 		sub	r3, r4, r3, lsl #1
 162:/home/jonas/warwick/3dProfilometer/xpcc/src/xpcc/io/iostream.cpp **** 		value = quot;
 602              		.loc 1 162 0
 603 0034 0D46     		mov	r5, r1
 604 0036 0446     		mov	r4, r0
 161:/home/jonas/warwick/3dProfilometer/xpcc/src/xpcc/io/iostream.cpp **** 		*(--ptr) = static_cast<char>(rem) + '0';
 605              		.loc 1 161 0
 606 0038 08F8013D 		strb	r3, [r8, #-1]!
 607              	.LVL67:
 608              	.LBE96:
 158:/home/jonas/warwick/3dProfilometer/xpcc/src/xpcc/io/iostream.cpp **** 	do{
 609              		.loc 1 158 0
 610 003c 54EA0503 		orrs	r3, r4, r5
 611 0040 EED1     		bne	.L54
 612              	.LVL68:
 613              	.L57:
 166:/home/jonas/warwick/3dProfilometer/xpcc/src/xpcc/io/iostream.cpp **** 	this->device->write(ptr);
 614              		.loc 1 166 0
 615 0042 3868     		ldr	r0, [r7, #0]
 616 0044 0368     		ldr	r3, [r0, #0]
 617 0046 4146     		mov	r1, r8
 618 0048 DB68     		ldr	r3, [r3, #12]
 619 004a 9847     		blx	r3
 620              	.LVL69:
 621              	.LBE95:
 622              	.LBE94:
 145:/home/jonas/warwick/3dProfilometer/xpcc/src/xpcc/io/iostream.cpp **** }
 623              		.loc 1 145 0
 624 004c 06B0     		add	sp, sp, #24
 625 004e BDE8F081 		pop	{r4, r5, r6, r7, r8, pc}
 626              	.LVL70:
 627              	.L58:
 139:/home/jonas/warwick/3dProfilometer/xpcc/src/xpcc/io/iostream.cpp **** 		this->device->write('-');
 628              		.loc 1 139 0
 629 0052 0068     		ldr	r0, [r0, #0]
 630              	.LVL71:
 631 0054 0F4E     		ldr	r6, .L59
 632 0056 0368     		ldr	r3, [r0, #0]
 633 0058 2D21     		movs	r1, #45
 634 005a 9B68     		ldr	r3, [r3, #8]
 635              	.LBB97:
 636              	.LBB98:
 155:/home/jonas/warwick/3dProfilometer/xpcc/src/xpcc/io/iostream.cpp **** 	*ptr = '\0';
 637              		.loc 1 155 0
 638 005c 0DF11808 		add	r8, sp, #24
 639              	.LBE98:
 640              	.LBE97:
 139:/home/jonas/warwick/3dProfilometer/xpcc/src/xpcc/io/iostream.cpp **** 		this->device->write('-');
 641              		.loc 1 139 0
 642 0060 9847     		blx	r3
 643              	.LVL72:
 644              	.LBB102:
 645              	.LBB100:
 155:/home/jonas/warwick/3dProfilometer/xpcc/src/xpcc/io/iostream.cpp **** 	*ptr = '\0';
 646              		.loc 1 155 0
 647 0062 0023     		movs	r3, #0
 648 0064 08F8043D 		strb	r3, [r8, #-4]!
 649              	.LBE100:
 650              	.LBE102:
 140:/home/jonas/warwick/3dProfilometer/xpcc/src/xpcc/io/iostream.cpp **** 		this->writeInteger(static_cast<uint64_t>(-value));
 651              		.loc 1 140 0
 652 0068 6442     		negs	r4, r4
 653 006a 65EB4505 		sbc	r5, r5, r5, lsl #1
 654              	.LVL73:
 655              	.L52:
 656              	.LBB103:
 657              	.LBB101:
 658              	.LBB99:
 159:/home/jonas/warwick/3dProfilometer/xpcc/src/xpcc/io/iostream.cpp **** 		uint64_t quot = value / 10;
 659              		.loc 1 159 0
 660 006e 0023     		movs	r3, #0
 661 0070 2046     		mov	r0, r4
 662 0072 2946     		mov	r1, r5
 663 0074 0A22     		movs	r2, #10
 664 0076 B047     		blx	r6
 665              	.LVL74:
 160:/home/jonas/warwick/3dProfilometer/xpcc/src/xpcc/io/iostream.cpp **** 		uint8_t rem = value - quot*10;
 666              		.loc 1 160 0
 667 0078 3034     		adds	r4, r4, #48
 668              	.LVL75:
 669 007a 00EB8003 		add	r3, r0, r0, lsl #2
 161:/home/jonas/warwick/3dProfilometer/xpcc/src/xpcc/io/iostream.cpp **** 		*(--ptr) = static_cast<char>(rem) + '0';
 670              		.loc 1 161 0
 671 007e A4EB4303 		sub	r3, r4, r3, lsl #1
 162:/home/jonas/warwick/3dProfilometer/xpcc/src/xpcc/io/iostream.cpp **** 		value = quot;
 672              		.loc 1 162 0
 673 0082 0D46     		mov	r5, r1
 674 0084 0446     		mov	r4, r0
 161:/home/jonas/warwick/3dProfilometer/xpcc/src/xpcc/io/iostream.cpp **** 		*(--ptr) = static_cast<char>(rem) + '0';
 675              		.loc 1 161 0
 676 0086 08F8013D 		strb	r3, [r8, #-1]!
 677              	.LVL76:
 678              	.LBE99:
 158:/home/jonas/warwick/3dProfilometer/xpcc/src/xpcc/io/iostream.cpp **** 	do{
 679              		.loc 1 158 0
 680 008a 54EA0503 		orrs	r3, r4, r5
 681 008e EED1     		bne	.L52
 682 0090 D7E7     		b	.L57
 683              	.L60:
 684 0092 00BF     		.align	2
 685              	.L59:
 686 0094 00000000 		.word	__aeabi_uldivmod
 687              	.LBE101:
 688              	.LBE103:
 689              		.cfi_endproc
 690              	.LFE98:
 692              		.section	.text._ZN4xpcc8IOStream12writeIntegerEy,"ax",%progbits
 693              		.align	2
 694              		.global	_ZN4xpcc8IOStream12writeIntegerEy
 695              		.thumb
 696              		.thumb_func
 698              	_ZN4xpcc8IOStream12writeIntegerEy:
 699              	.LFB99:
 149:/home/jonas/warwick/3dProfilometer/xpcc/src/xpcc/io/iostream.cpp **** {
 700              		.loc 1 149 0
 701              		.cfi_startproc
 702              		@ args = 0, pretend = 0, frame = 24
 703              		@ frame_needed = 0, uses_anonymous_args = 0
 704              	.LVL77:
 705 0000 2DE9F041 		push	{r4, r5, r6, r7, r8, lr}
 706              	.LCFI8:
 707              		.cfi_def_cfa_offset 24
 708              		.cfi_offset 4, -24
 709              		.cfi_offset 5, -20
 710              		.cfi_offset 6, -16
 711              		.cfi_offset 7, -12
 712              		.cfi_offset 8, -8
 713              		.cfi_offset 14, -4
 714 0004 86B0     		sub	sp, sp, #24
 715              	.LCFI9:
 716              		.cfi_def_cfa_offset 48
 717              	.LVL78:
 718              	.LBB104:
 155:/home/jonas/warwick/3dProfilometer/xpcc/src/xpcc/io/iostream.cpp **** 	*ptr = '\0';
 719              		.loc 1 155 0
 720 0006 06AE     		add	r6, sp, #24
 721 0008 0021     		movs	r1, #0
 722 000a 06F8041D 		strb	r1, [r6, #-4]!
 723 000e 0F4F     		ldr	r7, .L64
 724              	.LBE104:
 149:/home/jonas/warwick/3dProfilometer/xpcc/src/xpcc/io/iostream.cpp **** {
 725              		.loc 1 149 0
 726 0010 8046     		mov	r8, r0
 727 0012 1446     		mov	r4, r2
 728 0014 1D46     		mov	r5, r3
 729              	.LVL79:
 730              	.L62:
 731              	.LBB106:
 732              	.LBB105:
 159:/home/jonas/warwick/3dProfilometer/xpcc/src/xpcc/io/iostream.cpp **** 		uint64_t quot = value / 10;
 733              		.loc 1 159 0 discriminator 1
 734 0016 0023     		movs	r3, #0
 735 0018 2046     		mov	r0, r4
 736 001a 2946     		mov	r1, r5
 737 001c 0A22     		movs	r2, #10
 738 001e B847     		blx	r7
 739              	.LVL80:
 160:/home/jonas/warwick/3dProfilometer/xpcc/src/xpcc/io/iostream.cpp **** 		uint8_t rem = value - quot*10;
 740              		.loc 1 160 0 discriminator 1
 741 0020 3034     		adds	r4, r4, #48
 742              	.LVL81:
 743 0022 00EB8003 		add	r3, r0, r0, lsl #2
 161:/home/jonas/warwick/3dProfilometer/xpcc/src/xpcc/io/iostream.cpp **** 		*(--ptr) = static_cast<char>(rem) + '0';
 744              		.loc 1 161 0 discriminator 1
 745 0026 A4EB4303 		sub	r3, r4, r3, lsl #1
 162:/home/jonas/warwick/3dProfilometer/xpcc/src/xpcc/io/iostream.cpp **** 		value = quot;
 746              		.loc 1 162 0 discriminator 1
 747 002a 0D46     		mov	r5, r1
 748 002c 0446     		mov	r4, r0
 161:/home/jonas/warwick/3dProfilometer/xpcc/src/xpcc/io/iostream.cpp **** 		*(--ptr) = static_cast<char>(rem) + '0';
 749              		.loc 1 161 0 discriminator 1
 750 002e 06F8013D 		strb	r3, [r6, #-1]!
 751              	.LVL82:
 752              	.LBE105:
 158:/home/jonas/warwick/3dProfilometer/xpcc/src/xpcc/io/iostream.cpp **** 	do{
 753              		.loc 1 158 0 discriminator 1
 754 0032 54EA0503 		orrs	r3, r4, r5
 755 0036 EED1     		bne	.L62
 166:/home/jonas/warwick/3dProfilometer/xpcc/src/xpcc/io/iostream.cpp **** 	this->device->write(ptr);
 756              		.loc 1 166 0
 757 0038 D8F80000 		ldr	r0, [r8, #0]
 758              	.LVL83:
 759 003c 0368     		ldr	r3, [r0, #0]
 760 003e 3146     		mov	r1, r6
 761 0040 DB68     		ldr	r3, [r3, #12]
 762 0042 9847     		blx	r3
 763              	.LVL84:
 764              	.LBE106:
 167:/home/jonas/warwick/3dProfilometer/xpcc/src/xpcc/io/iostream.cpp **** }
 765              		.loc 1 167 0
 766 0044 06B0     		add	sp, sp, #24
 767 0046 BDE8F081 		pop	{r4, r5, r6, r7, r8, pc}
 768              	.L65:
 769 004a 00BF     		.align	2
 770              	.L64:
 771 004c 00000000 		.word	__aeabi_uldivmod
 772              		.cfi_endproc
 773              	.LFE99:
 775              		.section	.text._ZN4xpcc8IOStream8writeHexEPKc,"ax",%progbits
 776              		.align	2
 777              		.global	_ZN4xpcc8IOStream8writeHexEPKc
 778              		.thumb
 779              		.thumb_func
 781              	_ZN4xpcc8IOStream8writeHexEPKc:
 782              	.LFB100:
 173:/home/jonas/warwick/3dProfilometer/xpcc/src/xpcc/io/iostream.cpp **** {
 783              		.loc 1 173 0
 784              		.cfi_startproc
 785              		@ args = 0, pretend = 0, frame = 0
 786              		@ frame_needed = 0, uses_anonymous_args = 0
 787              	.LVL85:
 788 0000 70B5     		push	{r4, r5, r6, lr}
 789              	.LCFI10:
 790              		.cfi_def_cfa_offset 16
 791              		.cfi_offset 4, -16
 792              		.cfi_offset 5, -12
 793              		.cfi_offset 6, -8
 794              		.cfi_offset 14, -4
 174:/home/jonas/warwick/3dProfilometer/xpcc/src/xpcc/io/iostream.cpp **** 	while (*s != '\0') {
 795              		.loc 1 174 0
 796 0002 0C78     		ldrb	r4, [r1, #0]	@ zero_extendqisi2
 173:/home/jonas/warwick/3dProfilometer/xpcc/src/xpcc/io/iostream.cpp **** {
 797              		.loc 1 173 0
 798 0004 0D46     		mov	r5, r1
 799 0006 0646     		mov	r6, r0
 174:/home/jonas/warwick/3dProfilometer/xpcc/src/xpcc/io/iostream.cpp **** 	while (*s != '\0') {
 800              		.loc 1 174 0
 801 0008 D4B1     		cbz	r4, .L66
 802              	.LVL86:
 803              	.L74:
 804              	.LBB113:
 805              	.LBB114:
 806              	.LBB115:
 807              	.LBB116:
 200:/home/jonas/warwick/3dProfilometer/xpcc/src/xpcc/io/iostream.cpp **** 	this->device->write(character);
 808              		.loc 1 200 0
 809 000a 3068     		ldr	r0, [r6, #0]
 810              	.LBE116:
 811              	.LBE115:
 207:/home/jonas/warwick/3dProfilometer/xpcc/src/xpcc/io/iostream.cpp **** 	writeHexNibble(value >> 4);
 812              		.loc 1 207 0
 813 000c 2309     		lsrs	r3, r4, #4
 814              	.LVL87:
 815              	.LBB118:
 816              	.LBB117:
 200:/home/jonas/warwick/3dProfilometer/xpcc/src/xpcc/io/iostream.cpp **** 	this->device->write(character);
 817              		.loc 1 200 0
 818 000e 0268     		ldr	r2, [r0, #0]
 194:/home/jonas/warwick/3dProfilometer/xpcc/src/xpcc/io/iostream.cpp **** 	if (nibble > 9) {
 819              		.loc 1 194 0
 820 0010 092B     		cmp	r3, #9
 195:/home/jonas/warwick/3dProfilometer/xpcc/src/xpcc/io/iostream.cpp **** 		character = nibble + 'A' - 10;
 821              		.loc 1 195 0
 822 0012 8CBF     		ite	hi
 823 0014 03F13701 		addhi	r1, r3, #55
 824              	.LVL88:
 198:/home/jonas/warwick/3dProfilometer/xpcc/src/xpcc/io/iostream.cpp **** 		character = nibble + '0';
 825              		.loc 1 198 0
 826 0018 03F13001 		addls	r1, r3, #48
 827              	.LVL89:
 200:/home/jonas/warwick/3dProfilometer/xpcc/src/xpcc/io/iostream.cpp **** 	this->device->write(character);
 828              		.loc 1 200 0
 829 001c 9368     		ldr	r3, [r2, #8]
 830              	.LVL90:
 831 001e 9847     		blx	r3
 832              	.LVL91:
 833              	.LBE117:
 834              	.LBE118:
 835              	.LBB119:
 836              	.LBB120:
 837 0020 3068     		ldr	r0, [r6, #0]
 838              	.LBE120:
 839              	.LBE119:
 208:/home/jonas/warwick/3dProfilometer/xpcc/src/xpcc/io/iostream.cpp **** 	writeHexNibble(value & 0xF);
 840              		.loc 1 208 0
 841 0022 04F00F04 		and	r4, r4, #15
 842              	.LVL92:
 843              	.LBB122:
 844              	.LBB121:
 200:/home/jonas/warwick/3dProfilometer/xpcc/src/xpcc/io/iostream.cpp **** 	this->device->write(character);
 845              		.loc 1 200 0
 846 0026 0368     		ldr	r3, [r0, #0]
 194:/home/jonas/warwick/3dProfilometer/xpcc/src/xpcc/io/iostream.cpp **** 	if (nibble > 9) {
 847              		.loc 1 194 0
 848 0028 092C     		cmp	r4, #9
 195:/home/jonas/warwick/3dProfilometer/xpcc/src/xpcc/io/iostream.cpp **** 		character = nibble + 'A' - 10;
 849              		.loc 1 195 0
 850 002a 8CBF     		ite	hi
 851 002c 04F13701 		addhi	r1, r4, #55
 852              	.LVL93:
 198:/home/jonas/warwick/3dProfilometer/xpcc/src/xpcc/io/iostream.cpp **** 		character = nibble + '0';
 853              		.loc 1 198 0
 854 0030 04F13001 		addls	r1, r4, #48
 855              	.LVL94:
 200:/home/jonas/warwick/3dProfilometer/xpcc/src/xpcc/io/iostream.cpp **** 	this->device->write(character);
 856              		.loc 1 200 0
 857 0034 9B68     		ldr	r3, [r3, #8]
 858 0036 9847     		blx	r3
 859              	.LVL95:
 860              	.LBE121:
 861              	.LBE122:
 862              	.LBE114:
 863              	.LBE113:
 174:/home/jonas/warwick/3dProfilometer/xpcc/src/xpcc/io/iostream.cpp **** 	while (*s != '\0') {
 864              		.loc 1 174 0
 865 0038 15F8014F 		ldrb	r4, [r5, #1]!	@ zero_extendqisi2
 866              	.LVL96:
 867 003c 002C     		cmp	r4, #0
 868 003e E4D1     		bne	.L74
 869              	.LVL97:
 870              	.L66:
 871 0040 70BD     		pop	{r4, r5, r6, pc}
 872              		.cfi_endproc
 873              	.LFE100:
 875 0042 00BF     		.section	.text._ZN4xpcc8IOStream8writeBinEPKc,"ax",%progbits
 876              		.align	2
 877              		.global	_ZN4xpcc8IOStream8writeBinEPKc
 878              		.thumb
 879              		.thumb_func
 881              	_ZN4xpcc8IOStream8writeBinEPKc:
 882              	.LFB101:
 182:/home/jonas/warwick/3dProfilometer/xpcc/src/xpcc/io/iostream.cpp **** {
 883              		.loc 1 182 0
 884              		.cfi_startproc
 885              		@ args = 0, pretend = 0, frame = 0
 886              		@ frame_needed = 0, uses_anonymous_args = 0
 887              	.LVL98:
 888 0000 70B5     		push	{r4, r5, r6, lr}
 889              	.LCFI11:
 890              		.cfi_def_cfa_offset 16
 891              		.cfi_offset 4, -16
 892              		.cfi_offset 5, -12
 893              		.cfi_offset 6, -8
 894              		.cfi_offset 14, -4
 183:/home/jonas/warwick/3dProfilometer/xpcc/src/xpcc/io/iostream.cpp **** 	while (*s != '\0') {
 895              		.loc 1 183 0
 896 0002 0D78     		ldrb	r5, [r1, #0]	@ zero_extendqisi2
 182:/home/jonas/warwick/3dProfilometer/xpcc/src/xpcc/io/iostream.cpp **** {
 897              		.loc 1 182 0
 898 0004 0E46     		mov	r6, r1
 899 0006 0446     		mov	r4, r0
 183:/home/jonas/warwick/3dProfilometer/xpcc/src/xpcc/io/iostream.cpp **** 	while (*s != '\0') {
 900              		.loc 1 183 0
 901 0008 002D     		cmp	r5, #0
 902 000a 42D1     		bne	.L96
 903 000c 4FE0     		b	.L76
 904              	.LVL99:
 905              	.L98:
 906              	.LBB126:
 907              	.LBB127:
 220:/home/jonas/warwick/3dProfilometer/xpcc/src/xpcc/io/iostream.cpp **** 			this->device->write('0');
 908              		.loc 1 220 0
 909 000e 3021     		movs	r1, #48
 910 0010 9847     		blx	r3
 911              	.LVL100:
 912              	.L79:
 217:/home/jonas/warwick/3dProfilometer/xpcc/src/xpcc/io/iostream.cpp **** 			this->device->write('1');
 913              		.loc 1 217 0
 914 0012 2068     		ldr	r0, [r4, #0]
 222:/home/jonas/warwick/3dProfilometer/xpcc/src/xpcc/io/iostream.cpp **** 		value <<= 1;
 915              		.loc 1 222 0
 916 0014 6D00     		lsls	r5, r5, #1
 917              	.LVL101:
 918 0016 EDB2     		uxtb	r5, r5
 919              	.LVL102:
 217:/home/jonas/warwick/3dProfilometer/xpcc/src/xpcc/io/iostream.cpp **** 			this->device->write('1');
 920              		.loc 1 217 0
 921 0018 0368     		ldr	r3, [r0, #0]
 216:/home/jonas/warwick/3dProfilometer/xpcc/src/xpcc/io/iostream.cpp **** 		if (value & 0x80) {
 922              		.loc 1 216 0
 923 001a 2A06     		lsls	r2, r5, #24
 217:/home/jonas/warwick/3dProfilometer/xpcc/src/xpcc/io/iostream.cpp **** 			this->device->write('1');
 924              		.loc 1 217 0
 925 001c 9B68     		ldr	r3, [r3, #8]
 216:/home/jonas/warwick/3dProfilometer/xpcc/src/xpcc/io/iostream.cpp **** 		if (value & 0x80) {
 926              		.loc 1 216 0
 927 001e 56D4     		bmi	.L80
 220:/home/jonas/warwick/3dProfilometer/xpcc/src/xpcc/io/iostream.cpp **** 			this->device->write('0');
 928              		.loc 1 220 0
 929 0020 3021     		movs	r1, #48
 930 0022 9847     		blx	r3
 931              	.LVL103:
 932              	.L81:
 217:/home/jonas/warwick/3dProfilometer/xpcc/src/xpcc/io/iostream.cpp **** 			this->device->write('1');
 933              		.loc 1 217 0
 934 0024 2068     		ldr	r0, [r4, #0]
 222:/home/jonas/warwick/3dProfilometer/xpcc/src/xpcc/io/iostream.cpp **** 		value <<= 1;
 935              		.loc 1 222 0
 936 0026 6D00     		lsls	r5, r5, #1
 937              	.LVL104:
 938 0028 EDB2     		uxtb	r5, r5
 939              	.LVL105:
 217:/home/jonas/warwick/3dProfilometer/xpcc/src/xpcc/io/iostream.cpp **** 			this->device->write('1');
 940              		.loc 1 217 0
 941 002a 0368     		ldr	r3, [r0, #0]
 216:/home/jonas/warwick/3dProfilometer/xpcc/src/xpcc/io/iostream.cpp **** 		if (value & 0x80) {
 942              		.loc 1 216 0
 943 002c 2906     		lsls	r1, r5, #24
 217:/home/jonas/warwick/3dProfilometer/xpcc/src/xpcc/io/iostream.cpp **** 			this->device->write('1');
 944              		.loc 1 217 0
 945 002e 9B68     		ldr	r3, [r3, #8]
 216:/home/jonas/warwick/3dProfilometer/xpcc/src/xpcc/io/iostream.cpp **** 		if (value & 0x80) {
 946              		.loc 1 216 0
 947 0030 4AD4     		bmi	.L82
 220:/home/jonas/warwick/3dProfilometer/xpcc/src/xpcc/io/iostream.cpp **** 			this->device->write('0');
 948              		.loc 1 220 0
 949 0032 3021     		movs	r1, #48
 950 0034 9847     		blx	r3
 951              	.LVL106:
 952              	.L83:
 217:/home/jonas/warwick/3dProfilometer/xpcc/src/xpcc/io/iostream.cpp **** 			this->device->write('1');
 953              		.loc 1 217 0
 954 0036 2068     		ldr	r0, [r4, #0]
 222:/home/jonas/warwick/3dProfilometer/xpcc/src/xpcc/io/iostream.cpp **** 		value <<= 1;
 955              		.loc 1 222 0
 956 0038 6D00     		lsls	r5, r5, #1
 957              	.LVL107:
 958 003a EDB2     		uxtb	r5, r5
 959              	.LVL108:
 217:/home/jonas/warwick/3dProfilometer/xpcc/src/xpcc/io/iostream.cpp **** 			this->device->write('1');
 960              		.loc 1 217 0
 961 003c 0368     		ldr	r3, [r0, #0]
 216:/home/jonas/warwick/3dProfilometer/xpcc/src/xpcc/io/iostream.cpp **** 		if (value & 0x80) {
 962              		.loc 1 216 0
 963 003e 2A06     		lsls	r2, r5, #24
 217:/home/jonas/warwick/3dProfilometer/xpcc/src/xpcc/io/iostream.cpp **** 			this->device->write('1');
 964              		.loc 1 217 0
 965 0040 9B68     		ldr	r3, [r3, #8]
 216:/home/jonas/warwick/3dProfilometer/xpcc/src/xpcc/io/iostream.cpp **** 		if (value & 0x80) {
 966              		.loc 1 216 0
 967 0042 3ED4     		bmi	.L84
 220:/home/jonas/warwick/3dProfilometer/xpcc/src/xpcc/io/iostream.cpp **** 			this->device->write('0');
 968              		.loc 1 220 0
 969 0044 3021     		movs	r1, #48
 970 0046 9847     		blx	r3
 971              	.LVL109:
 972              	.L85:
 217:/home/jonas/warwick/3dProfilometer/xpcc/src/xpcc/io/iostream.cpp **** 			this->device->write('1');
 973              		.loc 1 217 0
 974 0048 2068     		ldr	r0, [r4, #0]
 222:/home/jonas/warwick/3dProfilometer/xpcc/src/xpcc/io/iostream.cpp **** 		value <<= 1;
 975              		.loc 1 222 0
 976 004a 6D00     		lsls	r5, r5, #1
 977              	.LVL110:
 978 004c EDB2     		uxtb	r5, r5
 979              	.LVL111:
 217:/home/jonas/warwick/3dProfilometer/xpcc/src/xpcc/io/iostream.cpp **** 			this->device->write('1');
 980              		.loc 1 217 0
 981 004e 0368     		ldr	r3, [r0, #0]
 216:/home/jonas/warwick/3dProfilometer/xpcc/src/xpcc/io/iostream.cpp **** 		if (value & 0x80) {
 982              		.loc 1 216 0
 983 0050 2906     		lsls	r1, r5, #24
 217:/home/jonas/warwick/3dProfilometer/xpcc/src/xpcc/io/iostream.cpp **** 			this->device->write('1');
 984              		.loc 1 217 0
 985 0052 9B68     		ldr	r3, [r3, #8]
 216:/home/jonas/warwick/3dProfilometer/xpcc/src/xpcc/io/iostream.cpp **** 		if (value & 0x80) {
 986              		.loc 1 216 0
 987 0054 32D4     		bmi	.L86
 220:/home/jonas/warwick/3dProfilometer/xpcc/src/xpcc/io/iostream.cpp **** 			this->device->write('0');
 988              		.loc 1 220 0
 989 0056 3021     		movs	r1, #48
 990 0058 9847     		blx	r3
 991              	.LVL112:
 992              	.L87:
 217:/home/jonas/warwick/3dProfilometer/xpcc/src/xpcc/io/iostream.cpp **** 			this->device->write('1');
 993              		.loc 1 217 0
 994 005a 2068     		ldr	r0, [r4, #0]
 222:/home/jonas/warwick/3dProfilometer/xpcc/src/xpcc/io/iostream.cpp **** 		value <<= 1;
 995              		.loc 1 222 0
 996 005c 6D00     		lsls	r5, r5, #1
 997              	.LVL113:
 998 005e EDB2     		uxtb	r5, r5
 999              	.LVL114:
 217:/home/jonas/warwick/3dProfilometer/xpcc/src/xpcc/io/iostream.cpp **** 			this->device->write('1');
 1000              		.loc 1 217 0
 1001 0060 0368     		ldr	r3, [r0, #0]
 216:/home/jonas/warwick/3dProfilometer/xpcc/src/xpcc/io/iostream.cpp **** 		if (value & 0x80) {
 1002              		.loc 1 216 0
 1003 0062 2A06     		lsls	r2, r5, #24
 217:/home/jonas/warwick/3dProfilometer/xpcc/src/xpcc/io/iostream.cpp **** 			this->device->write('1');
 1004              		.loc 1 217 0
 1005 0064 9B68     		ldr	r3, [r3, #8]
 216:/home/jonas/warwick/3dProfilometer/xpcc/src/xpcc/io/iostream.cpp **** 		if (value & 0x80) {
 1006              		.loc 1 216 0
 1007 0066 26D4     		bmi	.L88
 220:/home/jonas/warwick/3dProfilometer/xpcc/src/xpcc/io/iostream.cpp **** 			this->device->write('0');
 1008              		.loc 1 220 0
 1009 0068 3021     		movs	r1, #48
 1010 006a 9847     		blx	r3
 1011              	.LVL115:
 1012              	.L89:
 217:/home/jonas/warwick/3dProfilometer/xpcc/src/xpcc/io/iostream.cpp **** 			this->device->write('1');
 1013              		.loc 1 217 0
 1014 006c 2068     		ldr	r0, [r4, #0]
 222:/home/jonas/warwick/3dProfilometer/xpcc/src/xpcc/io/iostream.cpp **** 		value <<= 1;
 1015              		.loc 1 222 0
 1016 006e 6D00     		lsls	r5, r5, #1
 1017              	.LVL116:
 1018 0070 EDB2     		uxtb	r5, r5
 1019              	.LVL117:
 217:/home/jonas/warwick/3dProfilometer/xpcc/src/xpcc/io/iostream.cpp **** 			this->device->write('1');
 1020              		.loc 1 217 0
 1021 0072 0368     		ldr	r3, [r0, #0]
 216:/home/jonas/warwick/3dProfilometer/xpcc/src/xpcc/io/iostream.cpp **** 		if (value & 0x80) {
 1022              		.loc 1 216 0
 1023 0074 2906     		lsls	r1, r5, #24
 217:/home/jonas/warwick/3dProfilometer/xpcc/src/xpcc/io/iostream.cpp **** 			this->device->write('1');
 1024              		.loc 1 217 0
 1025 0076 9B68     		ldr	r3, [r3, #8]
 216:/home/jonas/warwick/3dProfilometer/xpcc/src/xpcc/io/iostream.cpp **** 		if (value & 0x80) {
 1026              		.loc 1 216 0
 1027 0078 1AD4     		bmi	.L90
 220:/home/jonas/warwick/3dProfilometer/xpcc/src/xpcc/io/iostream.cpp **** 			this->device->write('0');
 1028              		.loc 1 220 0
 1029 007a 3021     		movs	r1, #48
 1030 007c 9847     		blx	r3
 1031              	.LVL118:
 1032              	.L91:
 217:/home/jonas/warwick/3dProfilometer/xpcc/src/xpcc/io/iostream.cpp **** 			this->device->write('1');
 1033              		.loc 1 217 0
 1034 007e 2068     		ldr	r0, [r4, #0]
 1035 0080 0368     		ldr	r3, [r0, #0]
 216:/home/jonas/warwick/3dProfilometer/xpcc/src/xpcc/io/iostream.cpp **** 		if (value & 0x80) {
 1036              		.loc 1 216 0
 1037 0082 6A06     		lsls	r2, r5, #25
 217:/home/jonas/warwick/3dProfilometer/xpcc/src/xpcc/io/iostream.cpp **** 			this->device->write('1');
 1038              		.loc 1 217 0
 1039 0084 9B68     		ldr	r3, [r3, #8]
 216:/home/jonas/warwick/3dProfilometer/xpcc/src/xpcc/io/iostream.cpp **** 		if (value & 0x80) {
 1040              		.loc 1 216 0
 1041 0086 0CD4     		bmi	.L92
 220:/home/jonas/warwick/3dProfilometer/xpcc/src/xpcc/io/iostream.cpp **** 			this->device->write('0');
 1042              		.loc 1 220 0
 1043 0088 3021     		movs	r1, #48
 1044 008a 9847     		blx	r3
 1045              	.LVL119:
 1046              	.LBE127:
 1047              	.LBE126:
 183:/home/jonas/warwick/3dProfilometer/xpcc/src/xpcc/io/iostream.cpp **** 	while (*s != '\0') {
 1048              		.loc 1 183 0
 1049 008c 16F8015F 		ldrb	r5, [r6, #1]!	@ zero_extendqisi2
 1050              	.LVL120:
 1051 0090 6DB1     		cbz	r5, .L76
 1052              	.LVL121:
 1053              	.L96:
 1054              	.LBB130:
 1055              	.LBB128:
 217:/home/jonas/warwick/3dProfilometer/xpcc/src/xpcc/io/iostream.cpp **** 			this->device->write('1');
 1056              		.loc 1 217 0
 1057 0092 2068     		ldr	r0, [r4, #0]
 1058 0094 0368     		ldr	r3, [r0, #0]
 216:/home/jonas/warwick/3dProfilometer/xpcc/src/xpcc/io/iostream.cpp **** 		if (value & 0x80) {
 1059              		.loc 1 216 0
 1060 0096 2906     		lsls	r1, r5, #24
 217:/home/jonas/warwick/3dProfilometer/xpcc/src/xpcc/io/iostream.cpp **** 			this->device->write('1');
 1061              		.loc 1 217 0
 1062 0098 9B68     		ldr	r3, [r3, #8]
 216:/home/jonas/warwick/3dProfilometer/xpcc/src/xpcc/io/iostream.cpp **** 		if (value & 0x80) {
 1063              		.loc 1 216 0
 1064 009a B8D5     		bpl	.L98
 217:/home/jonas/warwick/3dProfilometer/xpcc/src/xpcc/io/iostream.cpp **** 			this->device->write('1');
 1065              		.loc 1 217 0
 1066 009c 3121     		movs	r1, #49
 1067 009e 9847     		blx	r3
 1068              	.LVL122:
 1069 00a0 B7E7     		b	.L79
 1070              	.LVL123:
 1071              	.L92:
 1072 00a2 3121     		movs	r1, #49
 1073 00a4 9847     		blx	r3
 1074              	.LVL124:
 1075              	.LBE128:
 1076              	.LBE130:
 183:/home/jonas/warwick/3dProfilometer/xpcc/src/xpcc/io/iostream.cpp **** 	while (*s != '\0') {
 1077              		.loc 1 183 0
 1078 00a6 16F8015F 		ldrb	r5, [r6, #1]!	@ zero_extendqisi2
 1079              	.LVL125:
 1080 00aa 002D     		cmp	r5, #0
 1081 00ac F1D1     		bne	.L96
 1082              	.LVL126:
 1083              	.L76:
 1084 00ae 70BD     		pop	{r4, r5, r6, pc}
 1085              	.LVL127:
 1086              	.L90:
 1087              	.LBB131:
 1088              	.LBB129:
 217:/home/jonas/warwick/3dProfilometer/xpcc/src/xpcc/io/iostream.cpp **** 			this->device->write('1');
 1089              		.loc 1 217 0
 1090 00b0 3121     		movs	r1, #49
 1091 00b2 9847     		blx	r3
 1092              	.LVL128:
 1093 00b4 E3E7     		b	.L91
 1094              	.LVL129:
 1095              	.L88:
 1096 00b6 3121     		movs	r1, #49
 1097 00b8 9847     		blx	r3
 1098              	.LVL130:
 1099 00ba D7E7     		b	.L89
 1100              	.LVL131:
 1101              	.L86:
 1102 00bc 3121     		movs	r1, #49
 1103 00be 9847     		blx	r3
 1104              	.LVL132:
 1105 00c0 CBE7     		b	.L87
 1106              	.LVL133:
 1107              	.L84:
 1108 00c2 3121     		movs	r1, #49
 1109 00c4 9847     		blx	r3
 1110              	.LVL134:
 1111 00c6 BFE7     		b	.L85
 1112              	.LVL135:
 1113              	.L82:
 1114 00c8 3121     		movs	r1, #49
 1115 00ca 9847     		blx	r3
 1116              	.LVL136:
 1117 00cc B3E7     		b	.L83
 1118              	.LVL137:
 1119              	.L80:
 1120 00ce 3121     		movs	r1, #49
 1121 00d0 9847     		blx	r3
 1122              	.LVL138:
 1123 00d2 A7E7     		b	.L81
 1124              	.LBE129:
 1125              	.LBE131:
 1126              		.cfi_endproc
 1127              	.LFE101:
 1129              		.section	.text._ZN4xpcc8IOStream14writeHexNibbleEh,"ax",%progbits
 1130              		.align	2
 1131              		.global	_ZN4xpcc8IOStream14writeHexNibbleEh
 1132              		.thumb
 1133              		.thumb_func
 1135              	_ZN4xpcc8IOStream14writeHexNibbleEh:
 1136              	.LFB102:
 192:/home/jonas/warwick/3dProfilometer/xpcc/src/xpcc/io/iostream.cpp **** {
 1137              		.loc 1 192 0
 1138              		.cfi_startproc
 1139              		@ args = 0, pretend = 0, frame = 0
 1140              		@ frame_needed = 0, uses_anonymous_args = 0
 1141              	.LVL139:
 1142              	.LBB132:
 194:/home/jonas/warwick/3dProfilometer/xpcc/src/xpcc/io/iostream.cpp **** 	if (nibble > 9) {
 1143              		.loc 1 194 0
 1144 0000 0929     		cmp	r1, #9
 1145              	.LBE132:
 192:/home/jonas/warwick/3dProfilometer/xpcc/src/xpcc/io/iostream.cpp **** {
 1146              		.loc 1 192 0
 1147 0002 08B5     		push	{r3, lr}
 1148              	.LCFI12:
 1149              		.cfi_def_cfa_offset 8
 1150              		.cfi_offset 3, -8
 1151              		.cfi_offset 14, -4
 1152              	.LBB133:
 194:/home/jonas/warwick/3dProfilometer/xpcc/src/xpcc/io/iostream.cpp **** 	if (nibble > 9) {
 1153              		.loc 1 194 0
 1154 0004 06D8     		bhi	.L102
 198:/home/jonas/warwick/3dProfilometer/xpcc/src/xpcc/io/iostream.cpp **** 		character = nibble + '0';
 1155              		.loc 1 198 0
 1156 0006 3031     		adds	r1, r1, #48
 1157              	.LVL140:
 1158 0008 C9B2     		uxtb	r1, r1
 1159              	.LVL141:
 1160              	.L101:
 200:/home/jonas/warwick/3dProfilometer/xpcc/src/xpcc/io/iostream.cpp **** 	this->device->write(character);
 1161              		.loc 1 200 0
 1162 000a 0068     		ldr	r0, [r0, #0]
 1163              	.LVL142:
 1164 000c 0368     		ldr	r3, [r0, #0]
 1165 000e 9B68     		ldr	r3, [r3, #8]
 1166 0010 9847     		blx	r3
 1167              	.LVL143:
 1168 0012 08BD     		pop	{r3, pc}
 1169              	.LVL144:
 1170              	.L102:
 195:/home/jonas/warwick/3dProfilometer/xpcc/src/xpcc/io/iostream.cpp **** 		character = nibble + 'A' - 10;
 1171              		.loc 1 195 0
 1172 0014 3731     		adds	r1, r1, #55
 1173              	.LVL145:
 1174 0016 C9B2     		uxtb	r1, r1
 1175              	.LVL146:
 1176 0018 F7E7     		b	.L101
 1177              	.LBE133:
 1178              		.cfi_endproc
 1179              	.LFE102:
 1181 001a 00BF     		.section	.text._ZN4xpcc8IOStream8writeHexEh,"ax",%progbits
 1182              		.align	2
 1183              		.global	_ZN4xpcc8IOStream8writeHexEh
 1184              		.thumb
 1185              		.thumb_func
 1187              	_ZN4xpcc8IOStream8writeHexEh:
 1188              	.LFB103:
 206:/home/jonas/warwick/3dProfilometer/xpcc/src/xpcc/io/iostream.cpp **** {
 1189              		.loc 1 206 0
 1190              		.cfi_startproc
 1191              		@ args = 0, pretend = 0, frame = 0
 1192              		@ frame_needed = 0, uses_anonymous_args = 0
 1193              	.LVL147:
 1194 0000 38B5     		push	{r3, r4, r5, lr}
 1195              	.LCFI13:
 1196              		.cfi_def_cfa_offset 16
 1197              		.cfi_offset 3, -16
 1198              		.cfi_offset 4, -12
 1199              		.cfi_offset 5, -8
 1200              		.cfi_offset 14, -4
 206:/home/jonas/warwick/3dProfilometer/xpcc/src/xpcc/io/iostream.cpp **** {
 1201              		.loc 1 206 0
 1202 0002 0D46     		mov	r5, r1
 207:/home/jonas/warwick/3dProfilometer/xpcc/src/xpcc/io/iostream.cpp **** 	writeHexNibble(value >> 4);
 1203              		.loc 1 207 0
 1204 0004 0909     		lsrs	r1, r1, #4
 1205              	.LVL148:
 1206              	.LBB138:
 1207              	.LBB139:
 194:/home/jonas/warwick/3dProfilometer/xpcc/src/xpcc/io/iostream.cpp **** 	if (nibble > 9) {
 1208              		.loc 1 194 0
 1209 0006 0929     		cmp	r1, #9
 1210              	.LBE139:
 1211              	.LBE138:
 206:/home/jonas/warwick/3dProfilometer/xpcc/src/xpcc/io/iostream.cpp **** {
 1212              		.loc 1 206 0
 1213 0008 0446     		mov	r4, r0
 1214              	.LVL149:
 1215              	.LBB142:
 1216              	.LBB140:
 194:/home/jonas/warwick/3dProfilometer/xpcc/src/xpcc/io/iostream.cpp **** 	if (nibble > 9) {
 1217              		.loc 1 194 0
 1218 000a 11D9     		bls	.L104
 195:/home/jonas/warwick/3dProfilometer/xpcc/src/xpcc/io/iostream.cpp **** 		character = nibble + 'A' - 10;
 1219              		.loc 1 195 0
 1220 000c 3731     		adds	r1, r1, #55
 1221              	.LVL150:
 1222              	.L105:
 200:/home/jonas/warwick/3dProfilometer/xpcc/src/xpcc/io/iostream.cpp **** 	this->device->write(character);
 1223              		.loc 1 200 0
 1224 000e 2068     		ldr	r0, [r4, #0]
 1225              	.LVL151:
 1226 0010 0368     		ldr	r3, [r0, #0]
 1227 0012 9B68     		ldr	r3, [r3, #8]
 1228 0014 9847     		blx	r3
 1229              	.LVL152:
 1230              	.LBE140:
 1231              	.LBE142:
 1232              	.LBB143:
 1233              	.LBB144:
 1234 0016 2068     		ldr	r0, [r4, #0]
 1235              	.LBE144:
 1236              	.LBE143:
 208:/home/jonas/warwick/3dProfilometer/xpcc/src/xpcc/io/iostream.cpp **** 	writeHexNibble(value & 0xF);
 1237              		.loc 1 208 0
 1238 0018 05F00F05 		and	r5, r5, #15
 1239              	.LVL153:
 1240              	.LBB146:
 1241              	.LBB145:
 200:/home/jonas/warwick/3dProfilometer/xpcc/src/xpcc/io/iostream.cpp **** 	this->device->write(character);
 1242              		.loc 1 200 0
 1243 001c 0368     		ldr	r3, [r0, #0]
 194:/home/jonas/warwick/3dProfilometer/xpcc/src/xpcc/io/iostream.cpp **** 	if (nibble > 9) {
 1244              		.loc 1 194 0
 1245 001e 092D     		cmp	r5, #9
 195:/home/jonas/warwick/3dProfilometer/xpcc/src/xpcc/io/iostream.cpp **** 		character = nibble + 'A' - 10;
 1246              		.loc 1 195 0
 1247 0020 8CBF     		ite	hi
 1248 0022 05F13701 		addhi	r1, r5, #55
 1249              	.LVL154:
 198:/home/jonas/warwick/3dProfilometer/xpcc/src/xpcc/io/iostream.cpp **** 		character = nibble + '0';
 1250              		.loc 1 198 0
 1251 0026 05F13001 		addls	r1, r5, #48
 1252              	.LVL155:
 200:/home/jonas/warwick/3dProfilometer/xpcc/src/xpcc/io/iostream.cpp **** 	this->device->write(character);
 1253              		.loc 1 200 0
 1254 002a 9B68     		ldr	r3, [r3, #8]
 1255 002c 9847     		blx	r3
 1256              	.LVL156:
 1257 002e 38BD     		pop	{r3, r4, r5, pc}
 1258              	.LVL157:
 1259              	.L104:
 1260              	.LBE145:
 1261              	.LBE146:
 1262              	.LBB147:
 1263              	.LBB141:
 198:/home/jonas/warwick/3dProfilometer/xpcc/src/xpcc/io/iostream.cpp **** 		character = nibble + '0';
 1264              		.loc 1 198 0
 1265 0030 3031     		adds	r1, r1, #48
 1266              	.LVL158:
 1267 0032 ECE7     		b	.L105
 1268              	.LBE141:
 1269              	.LBE147:
 1270              		.cfi_endproc
 1271              	.LFE103:
 1273              		.section	.text._ZN4xpcc8IOStream8writeBinEh,"ax",%progbits
 1274              		.align	2
 1275              		.global	_ZN4xpcc8IOStream8writeBinEh
 1276              		.thumb
 1277              		.thumb_func
 1279              	_ZN4xpcc8IOStream8writeBinEh:
 1280              	.LFB104:
 213:/home/jonas/warwick/3dProfilometer/xpcc/src/xpcc/io/iostream.cpp **** {
 1281              		.loc 1 213 0
 1282              		.cfi_startproc
 1283              		@ args = 0, pretend = 0, frame = 0
 1284              		@ frame_needed = 0, uses_anonymous_args = 0
 1285              	.LVL159:
 1286 0000 70B5     		push	{r4, r5, r6, lr}
 1287              	.LCFI14:
 1288              		.cfi_def_cfa_offset 16
 1289              		.cfi_offset 4, -16
 1290              		.cfi_offset 5, -12
 1291              		.cfi_offset 6, -8
 1292              		.cfi_offset 14, -4
 213:/home/jonas/warwick/3dProfilometer/xpcc/src/xpcc/io/iostream.cpp **** {
 1293              		.loc 1 213 0
 1294 0002 0646     		mov	r6, r0
 1295 0004 0D46     		mov	r5, r1
 214:/home/jonas/warwick/3dProfilometer/xpcc/src/xpcc/io/iostream.cpp **** 	for (uint_fast8_t ii = 0; ii < 8; ii++)
 1296              		.loc 1 214 0
 1297 0006 0024     		movs	r4, #0
 1298 0008 05E0     		b	.L111
 1299              	.LVL160:
 1300              	.L109:
 1301              	.LBB148:
 1302 000a 0134     		adds	r4, r4, #1
 222:/home/jonas/warwick/3dProfilometer/xpcc/src/xpcc/io/iostream.cpp **** 		value <<= 1;
 1303              		.loc 1 222 0
 1304 000c 6D00     		lsls	r5, r5, #1
 220:/home/jonas/warwick/3dProfilometer/xpcc/src/xpcc/io/iostream.cpp **** 			this->device->write('0');
 1305              		.loc 1 220 0
 1306 000e 9847     		blx	r3
 1307              	.LVL161:
 214:/home/jonas/warwick/3dProfilometer/xpcc/src/xpcc/io/iostream.cpp **** 	for (uint_fast8_t ii = 0; ii < 8; ii++)
 1308              		.loc 1 214 0
 1309 0010 082C     		cmp	r4, #8
 222:/home/jonas/warwick/3dProfilometer/xpcc/src/xpcc/io/iostream.cpp **** 		value <<= 1;
 1310              		.loc 1 222 0
 1311 0012 EDB2     		uxtb	r5, r5
 1312              	.LVL162:
 214:/home/jonas/warwick/3dProfilometer/xpcc/src/xpcc/io/iostream.cpp **** 	for (uint_fast8_t ii = 0; ii < 8; ii++)
 1313              		.loc 1 214 0
 1314 0014 0ED0     		beq	.L113
 1315              	.LVL163:
 1316              	.L111:
 217:/home/jonas/warwick/3dProfilometer/xpcc/src/xpcc/io/iostream.cpp **** 			this->device->write('1');
 1317              		.loc 1 217 0
 1318 0016 3068     		ldr	r0, [r6, #0]
 1319 0018 0368     		ldr	r3, [r0, #0]
 216:/home/jonas/warwick/3dProfilometer/xpcc/src/xpcc/io/iostream.cpp **** 		if (value & 0x80) {
 1320              		.loc 1 216 0
 1321 001a 15F0800F 		tst	r5, #128
 217:/home/jonas/warwick/3dProfilometer/xpcc/src/xpcc/io/iostream.cpp **** 			this->device->write('1');
 1322              		.loc 1 217 0
 1323 001e 9B68     		ldr	r3, [r3, #8]
 220:/home/jonas/warwick/3dProfilometer/xpcc/src/xpcc/io/iostream.cpp **** 			this->device->write('0');
 1324              		.loc 1 220 0
 1325 0020 4FF03001 		mov	r1, #48
 216:/home/jonas/warwick/3dProfilometer/xpcc/src/xpcc/io/iostream.cpp **** 		if (value & 0x80) {
 1326              		.loc 1 216 0
 1327 0024 F1D0     		beq	.L109
 217:/home/jonas/warwick/3dProfilometer/xpcc/src/xpcc/io/iostream.cpp **** 			this->device->write('1');
 1328              		.loc 1 217 0
 1329 0026 3121     		movs	r1, #49
 214:/home/jonas/warwick/3dProfilometer/xpcc/src/xpcc/io/iostream.cpp **** 	for (uint_fast8_t ii = 0; ii < 8; ii++)
 1330              		.loc 1 214 0
 1331 0028 0134     		adds	r4, r4, #1
 222:/home/jonas/warwick/3dProfilometer/xpcc/src/xpcc/io/iostream.cpp **** 		value <<= 1;
 1332              		.loc 1 222 0
 1333 002a 6D00     		lsls	r5, r5, #1
 217:/home/jonas/warwick/3dProfilometer/xpcc/src/xpcc/io/iostream.cpp **** 			this->device->write('1');
 1334              		.loc 1 217 0
 1335 002c 9847     		blx	r3
 1336              	.LVL164:
 214:/home/jonas/warwick/3dProfilometer/xpcc/src/xpcc/io/iostream.cpp **** 	for (uint_fast8_t ii = 0; ii < 8; ii++)
 1337              		.loc 1 214 0
 1338 002e 082C     		cmp	r4, #8
 222:/home/jonas/warwick/3dProfilometer/xpcc/src/xpcc/io/iostream.cpp **** 		value <<= 1;
 1339              		.loc 1 222 0
 1340 0030 EDB2     		uxtb	r5, r5
 1341              	.LVL165:
 214:/home/jonas/warwick/3dProfilometer/xpcc/src/xpcc/io/iostream.cpp **** 	for (uint_fast8_t ii = 0; ii < 8; ii++)
 1342              		.loc 1 214 0
 1343 0032 F0D1     		bne	.L111
 1344              	.LVL166:
 1345              	.L113:
 1346              	.LBE148:
 225:/home/jonas/warwick/3dProfilometer/xpcc/src/xpcc/io/iostream.cpp **** }
 1347              		.loc 1 225 0
 1348 0034 70BD     		pop	{r4, r5, r6, pc}
 1349              		.cfi_endproc
 1350              	.LFE104:
 1352 0036 00BF     		.section	.text._ZN4xpcc8IOStreamlsEPKv,"ax",%progbits
 1353              		.align	2
 1354              		.global	_ZN4xpcc8IOStreamlsEPKv
 1355              		.thumb
 1356              		.thumb_func
 1358              	_ZN4xpcc8IOStreamlsEPKv:
 1359              	.LFB105:
 230:/home/jonas/warwick/3dProfilometer/xpcc/src/xpcc/io/iostream.cpp **** {
 1360              		.loc 1 230 0
 1361              		.cfi_startproc
 1362              		@ args = 0, pretend = 0, frame = 0
 1363              		@ frame_needed = 0, uses_anonymous_args = 0
 1364              	.LVL167:
 1365 0000 70B5     		push	{r4, r5, r6, lr}
 1366              	.LCFI15:
 1367              		.cfi_def_cfa_offset 16
 1368              		.cfi_offset 4, -16
 1369              		.cfi_offset 5, -12
 1370              		.cfi_offset 6, -8
 1371              		.cfi_offset 14, -4
 230:/home/jonas/warwick/3dProfilometer/xpcc/src/xpcc/io/iostream.cpp **** {
 1372              		.loc 1 230 0
 1373 0002 0446     		mov	r4, r0
 1374              	.LBB174:
 243:/home/jonas/warwick/3dProfilometer/xpcc/src/xpcc/io/iostream.cpp **** 	this->device->write('0');
 1375              		.loc 1 243 0
 1376 0004 0068     		ldr	r0, [r0, #0]
 1377              	.LVL168:
 1378 0006 0368     		ldr	r3, [r0, #0]
 1379              	.LBE174:
 230:/home/jonas/warwick/3dProfilometer/xpcc/src/xpcc/io/iostream.cpp **** {
 1380              		.loc 1 230 0
 1381 0008 0D46     		mov	r5, r1
 1382              	.LBB231:
 243:/home/jonas/warwick/3dProfilometer/xpcc/src/xpcc/io/iostream.cpp **** 	this->device->write('0');
 1383              		.loc 1 243 0
 1384 000a 9B68     		ldr	r3, [r3, #8]
 1385 000c 3021     		movs	r1, #48
 1386              	.LVL169:
 1387 000e 9847     		blx	r3
 1388              	.LVL170:
 244:/home/jonas/warwick/3dProfilometer/xpcc/src/xpcc/io/iostream.cpp **** 	this->device->write('x');
 1389              		.loc 1 244 0
 1390 0010 2068     		ldr	r0, [r4, #0]
 1391 0012 0368     		ldr	r3, [r0, #0]
 1392 0014 7821     		movs	r1, #120
 248:/home/jonas/warwick/3dProfilometer/xpcc/src/xpcc/io/iostream.cpp **** 	writeHex(value >> 24);
 1393              		.loc 1 248 0
 1394 0016 2E0E     		lsrs	r6, r5, #24
 244:/home/jonas/warwick/3dProfilometer/xpcc/src/xpcc/io/iostream.cpp **** 	this->device->write('x');
 1395              		.loc 1 244 0
 1396 0018 9B68     		ldr	r3, [r3, #8]
 1397 001a 9847     		blx	r3
 1398              	.LVL171:
 1399              	.LBB175:
 1400              	.LBB176:
 207:/home/jonas/warwick/3dProfilometer/xpcc/src/xpcc/io/iostream.cpp **** 	writeHexNibble(value >> 4);
 1401              		.loc 1 207 0
 1402 001c 3109     		lsrs	r1, r6, #4
 1403              	.LVL172:
 1404              	.LBB177:
 1405              	.LBB178:
 194:/home/jonas/warwick/3dProfilometer/xpcc/src/xpcc/io/iostream.cpp **** 	if (nibble > 9) {
 1406              		.loc 1 194 0
 1407 001e 0929     		cmp	r1, #9
 1408 0020 53D9     		bls	.L115
 195:/home/jonas/warwick/3dProfilometer/xpcc/src/xpcc/io/iostream.cpp **** 		character = nibble + 'A' - 10;
 1409              		.loc 1 195 0
 1410 0022 3731     		adds	r1, r1, #55
 1411              	.LVL173:
 1412              	.L116:
 200:/home/jonas/warwick/3dProfilometer/xpcc/src/xpcc/io/iostream.cpp **** 	this->device->write(character);
 1413              		.loc 1 200 0
 1414 0024 2068     		ldr	r0, [r4, #0]
 1415 0026 0368     		ldr	r3, [r0, #0]
 1416 0028 9B68     		ldr	r3, [r3, #8]
 1417 002a 9847     		blx	r3
 1418              	.LVL174:
 1419              	.LBE178:
 1420              	.LBE177:
 1421              	.LBB180:
 1422              	.LBB181:
 1423 002c 2068     		ldr	r0, [r4, #0]
 1424              	.LBE181:
 1425              	.LBE180:
 208:/home/jonas/warwick/3dProfilometer/xpcc/src/xpcc/io/iostream.cpp **** 	writeHexNibble(value & 0xF);
 1426              		.loc 1 208 0
 1427 002e 06F00F06 		and	r6, r6, #15
 1428              	.LVL175:
 1429              	.LBB184:
 1430              	.LBB182:
 200:/home/jonas/warwick/3dProfilometer/xpcc/src/xpcc/io/iostream.cpp **** 	this->device->write(character);
 1431              		.loc 1 200 0
 1432 0032 0368     		ldr	r3, [r0, #0]
 194:/home/jonas/warwick/3dProfilometer/xpcc/src/xpcc/io/iostream.cpp **** 	if (nibble > 9) {
 1433              		.loc 1 194 0
 1434 0034 092E     		cmp	r6, #9
 195:/home/jonas/warwick/3dProfilometer/xpcc/src/xpcc/io/iostream.cpp **** 		character = nibble + 'A' - 10;
 1435              		.loc 1 195 0
 1436 0036 8CBF     		ite	hi
 1437 0038 06F13701 		addhi	r1, r6, #55
 1438              	.LVL176:
 198:/home/jonas/warwick/3dProfilometer/xpcc/src/xpcc/io/iostream.cpp **** 		character = nibble + '0';
 1439              		.loc 1 198 0
 1440 003c 06F13001 		addls	r1, r6, #48
 1441              	.LVL177:
 200:/home/jonas/warwick/3dProfilometer/xpcc/src/xpcc/io/iostream.cpp **** 	this->device->write(character);
 1442              		.loc 1 200 0
 1443 0040 9B68     		ldr	r3, [r3, #8]
 1444              	.LBE182:
 1445              	.LBE184:
 1446              	.LBE176:
 1447              	.LBE175:
 249:/home/jonas/warwick/3dProfilometer/xpcc/src/xpcc/io/iostream.cpp **** 	writeHex(value >> 16);
 1448              		.loc 1 249 0
 1449 0042 2E0C     		lsrs	r6, r5, #16
 1450              	.LVL178:
 1451              	.LBB189:
 1452              	.LBB187:
 1453              	.LBB185:
 1454              	.LBB183:
 200:/home/jonas/warwick/3dProfilometer/xpcc/src/xpcc/io/iostream.cpp **** 	this->device->write(character);
 1455              		.loc 1 200 0
 1456 0044 9847     		blx	r3
 1457              	.LVL179:
 1458              	.LBE183:
 1459              	.LBE185:
 1460              	.LBE187:
 1461              	.LBE189:
 1462              	.LBB190:
 1463              	.LBB191:
 207:/home/jonas/warwick/3dProfilometer/xpcc/src/xpcc/io/iostream.cpp **** 	writeHexNibble(value >> 4);
 1464              		.loc 1 207 0
 1465 0046 C6F30311 		ubfx	r1, r6, #4, #4
 1466              	.LVL180:
 1467              	.LBB192:
 1468              	.LBB193:
 194:/home/jonas/warwick/3dProfilometer/xpcc/src/xpcc/io/iostream.cpp **** 	if (nibble > 9) {
 1469              		.loc 1 194 0
 1470 004a 0929     		cmp	r1, #9
 1471 004c 43D9     		bls	.L119
 195:/home/jonas/warwick/3dProfilometer/xpcc/src/xpcc/io/iostream.cpp **** 		character = nibble + 'A' - 10;
 1472              		.loc 1 195 0
 1473 004e 3731     		adds	r1, r1, #55
 1474              	.LVL181:
 1475              	.L120:
 200:/home/jonas/warwick/3dProfilometer/xpcc/src/xpcc/io/iostream.cpp **** 	this->device->write(character);
 1476              		.loc 1 200 0
 1477 0050 2068     		ldr	r0, [r4, #0]
 1478 0052 0368     		ldr	r3, [r0, #0]
 1479 0054 9B68     		ldr	r3, [r3, #8]
 1480 0056 9847     		blx	r3
 1481              	.LVL182:
 1482              	.LBE193:
 1483              	.LBE192:
 1484              	.LBB195:
 1485              	.LBB196:
 1486 0058 2068     		ldr	r0, [r4, #0]
 1487              	.LBE196:
 1488              	.LBE195:
 208:/home/jonas/warwick/3dProfilometer/xpcc/src/xpcc/io/iostream.cpp **** 	writeHexNibble(value & 0xF);
 1489              		.loc 1 208 0
 1490 005a 06F00F06 		and	r6, r6, #15
 1491              	.LVL183:
 1492              	.LBB199:
 1493              	.LBB197:
 200:/home/jonas/warwick/3dProfilometer/xpcc/src/xpcc/io/iostream.cpp **** 	this->device->write(character);
 1494              		.loc 1 200 0
 1495 005e 0368     		ldr	r3, [r0, #0]
 194:/home/jonas/warwick/3dProfilometer/xpcc/src/xpcc/io/iostream.cpp **** 	if (nibble > 9) {
 1496              		.loc 1 194 0
 1497 0060 092E     		cmp	r6, #9
 195:/home/jonas/warwick/3dProfilometer/xpcc/src/xpcc/io/iostream.cpp **** 		character = nibble + 'A' - 10;
 1498              		.loc 1 195 0
 1499 0062 8CBF     		ite	hi
 1500 0064 06F13701 		addhi	r1, r6, #55
 1501              	.LVL184:
 198:/home/jonas/warwick/3dProfilometer/xpcc/src/xpcc/io/iostream.cpp **** 		character = nibble + '0';
 1502              		.loc 1 198 0
 1503 0068 06F13001 		addls	r1, r6, #48
 1504              	.LVL185:
 200:/home/jonas/warwick/3dProfilometer/xpcc/src/xpcc/io/iostream.cpp **** 	this->device->write(character);
 1505              		.loc 1 200 0
 1506 006c 9B68     		ldr	r3, [r3, #8]
 1507              	.LBE197:
 1508              	.LBE199:
 1509              	.LBE191:
 1510              	.LBE190:
 250:/home/jonas/warwick/3dProfilometer/xpcc/src/xpcc/io/iostream.cpp **** 	writeHex(value >> 8);
 1511              		.loc 1 250 0
 1512 006e 2E0A     		lsrs	r6, r5, #8
 1513              	.LVL186:
 1514              	.LBB204:
 1515              	.LBB202:
 1516              	.LBB200:
 1517              	.LBB198:
 200:/home/jonas/warwick/3dProfilometer/xpcc/src/xpcc/io/iostream.cpp **** 	this->device->write(character);
 1518              		.loc 1 200 0
 1519 0070 9847     		blx	r3
 1520              	.LVL187:
 1521              	.LBE198:
 1522              	.LBE200:
 1523              	.LBE202:
 1524              	.LBE204:
 1525              	.LBB205:
 1526              	.LBB206:
 207:/home/jonas/warwick/3dProfilometer/xpcc/src/xpcc/io/iostream.cpp **** 	writeHexNibble(value >> 4);
 1527              		.loc 1 207 0
 1528 0072 C6F30311 		ubfx	r1, r6, #4, #4
 1529              	.LVL188:
 1530              	.LBB207:
 1531              	.LBB208:
 194:/home/jonas/warwick/3dProfilometer/xpcc/src/xpcc/io/iostream.cpp **** 	if (nibble > 9) {
 1532              		.loc 1 194 0
 1533 0076 0929     		cmp	r1, #9
 1534 0078 2BD9     		bls	.L123
 195:/home/jonas/warwick/3dProfilometer/xpcc/src/xpcc/io/iostream.cpp **** 		character = nibble + 'A' - 10;
 1535              		.loc 1 195 0
 1536 007a 3731     		adds	r1, r1, #55
 1537              	.LVL189:
 1538              	.L124:
 200:/home/jonas/warwick/3dProfilometer/xpcc/src/xpcc/io/iostream.cpp **** 	this->device->write(character);
 1539              		.loc 1 200 0
 1540 007c 2068     		ldr	r0, [r4, #0]
 1541 007e 0368     		ldr	r3, [r0, #0]
 1542 0080 9B68     		ldr	r3, [r3, #8]
 1543 0082 9847     		blx	r3
 1544              	.LVL190:
 1545              	.LBE208:
 1546              	.LBE207:
 1547              	.LBB210:
 1548              	.LBB211:
 1549 0084 2068     		ldr	r0, [r4, #0]
 1550              	.LBE211:
 1551              	.LBE210:
 208:/home/jonas/warwick/3dProfilometer/xpcc/src/xpcc/io/iostream.cpp **** 	writeHexNibble(value & 0xF);
 1552              		.loc 1 208 0
 1553 0086 06F00F06 		and	r6, r6, #15
 1554              	.LVL191:
 1555              	.LBB213:
 1556              	.LBB212:
 200:/home/jonas/warwick/3dProfilometer/xpcc/src/xpcc/io/iostream.cpp **** 	this->device->write(character);
 1557              		.loc 1 200 0
 1558 008a 0368     		ldr	r3, [r0, #0]
 194:/home/jonas/warwick/3dProfilometer/xpcc/src/xpcc/io/iostream.cpp **** 	if (nibble > 9) {
 1559              		.loc 1 194 0
 1560 008c 092E     		cmp	r6, #9
 195:/home/jonas/warwick/3dProfilometer/xpcc/src/xpcc/io/iostream.cpp **** 		character = nibble + 'A' - 10;
 1561              		.loc 1 195 0
 1562 008e 8CBF     		ite	hi
 1563 0090 06F13701 		addhi	r1, r6, #55
 1564              	.LVL192:
 198:/home/jonas/warwick/3dProfilometer/xpcc/src/xpcc/io/iostream.cpp **** 		character = nibble + '0';
 1565              		.loc 1 198 0
 1566 0094 06F13001 		addls	r1, r6, #48
 1567              	.LVL193:
 200:/home/jonas/warwick/3dProfilometer/xpcc/src/xpcc/io/iostream.cpp **** 	this->device->write(character);
 1568              		.loc 1 200 0
 1569 0098 9B68     		ldr	r3, [r3, #8]
 1570 009a 9847     		blx	r3
 1571              	.LVL194:
 1572              	.LBE212:
 1573              	.LBE213:
 1574              	.LBE206:
 1575              	.LBE205:
 1576              	.LBB216:
 1577              	.LBB217:
 207:/home/jonas/warwick/3dProfilometer/xpcc/src/xpcc/io/iostream.cpp **** 	writeHexNibble(value >> 4);
 1578              		.loc 1 207 0
 1579 009c C5F30311 		ubfx	r1, r5, #4, #4
 1580              	.LVL195:
 1581              	.LBB218:
 1582              	.LBB219:
 194:/home/jonas/warwick/3dProfilometer/xpcc/src/xpcc/io/iostream.cpp **** 	if (nibble > 9) {
 1583              		.loc 1 194 0
 1584 00a0 0929     		cmp	r1, #9
 1585 00a2 14D9     		bls	.L127
 195:/home/jonas/warwick/3dProfilometer/xpcc/src/xpcc/io/iostream.cpp **** 		character = nibble + 'A' - 10;
 1586              		.loc 1 195 0
 1587 00a4 3731     		adds	r1, r1, #55
 1588              	.LVL196:
 1589              	.L128:
 200:/home/jonas/warwick/3dProfilometer/xpcc/src/xpcc/io/iostream.cpp **** 	this->device->write(character);
 1590              		.loc 1 200 0
 1591 00a6 2068     		ldr	r0, [r4, #0]
 1592 00a8 0368     		ldr	r3, [r0, #0]
 1593 00aa 9B68     		ldr	r3, [r3, #8]
 1594 00ac 9847     		blx	r3
 1595              	.LVL197:
 1596              	.LBE219:
 1597              	.LBE218:
 1598              	.LBB221:
 1599              	.LBB222:
 1600 00ae 2068     		ldr	r0, [r4, #0]
 1601              	.LBE222:
 1602              	.LBE221:
 208:/home/jonas/warwick/3dProfilometer/xpcc/src/xpcc/io/iostream.cpp **** 	writeHexNibble(value & 0xF);
 1603              		.loc 1 208 0
 1604 00b0 05F00F05 		and	r5, r5, #15
 1605              	.LVL198:
 1606              	.LBB224:
 1607              	.LBB223:
 200:/home/jonas/warwick/3dProfilometer/xpcc/src/xpcc/io/iostream.cpp **** 	this->device->write(character);
 1608              		.loc 1 200 0
 1609 00b4 0368     		ldr	r3, [r0, #0]
 194:/home/jonas/warwick/3dProfilometer/xpcc/src/xpcc/io/iostream.cpp **** 	if (nibble > 9) {
 1610              		.loc 1 194 0
 1611 00b6 092D     		cmp	r5, #9
 195:/home/jonas/warwick/3dProfilometer/xpcc/src/xpcc/io/iostream.cpp **** 		character = nibble + 'A' - 10;
 1612              		.loc 1 195 0
 1613 00b8 8CBF     		ite	hi
 1614 00ba 05F13701 		addhi	r1, r5, #55
 1615              	.LVL199:
 198:/home/jonas/warwick/3dProfilometer/xpcc/src/xpcc/io/iostream.cpp **** 		character = nibble + '0';
 1616              		.loc 1 198 0
 1617 00be 05F13001 		addls	r1, r5, #48
 1618              	.LVL200:
 200:/home/jonas/warwick/3dProfilometer/xpcc/src/xpcc/io/iostream.cpp **** 	this->device->write(character);
 1619              		.loc 1 200 0
 1620 00c2 9B68     		ldr	r3, [r3, #8]
 1621 00c4 9847     		blx	r3
 1622              	.LVL201:
 1623              	.LBE223:
 1624              	.LBE224:
 1625              	.LBE217:
 1626              	.LBE216:
 1627              	.LBE231:
 1628              		.loc 1 271 0
 1629 00c6 2046     		mov	r0, r4
 1630 00c8 70BD     		pop	{r4, r5, r6, pc}
 1631              	.LVL202:
 1632              	.L115:
 1633              	.LBB232:
 1634              	.LBB227:
 1635              	.LBB188:
 1636              	.LBB186:
 1637              	.LBB179:
 198:/home/jonas/warwick/3dProfilometer/xpcc/src/xpcc/io/iostream.cpp **** 		character = nibble + '0';
 1638              		.loc 1 198 0
 1639 00ca 3031     		adds	r1, r1, #48
 1640              	.LVL203:
 1641 00cc AAE7     		b	.L116
 1642              	.LVL204:
 1643              	.L127:
 1644              	.LBE179:
 1645              	.LBE186:
 1646              	.LBE188:
 1647              	.LBE227:
 1648              	.LBB228:
 1649              	.LBB226:
 1650              	.LBB225:
 1651              	.LBB220:
 1652 00ce 3031     		adds	r1, r1, #48
 1653              	.LVL205:
 1654 00d0 E9E7     		b	.L128
 1655              	.LVL206:
 1656              	.L123:
 1657              	.LBE220:
 1658              	.LBE225:
 1659              	.LBE226:
 1660              	.LBE228:
 1661              	.LBB229:
 1662              	.LBB215:
 1663              	.LBB214:
 1664              	.LBB209:
 1665 00d2 3031     		adds	r1, r1, #48
 1666              	.LVL207:
 1667 00d4 D2E7     		b	.L124
 1668              	.LVL208:
 1669              	.L119:
 1670              	.LBE209:
 1671              	.LBE214:
 1672              	.LBE215:
 1673              	.LBE229:
 1674              	.LBB230:
 1675              	.LBB203:
 1676              	.LBB201:
 1677              	.LBB194:
 1678 00d6 3031     		adds	r1, r1, #48
 1679              	.LVL209:
 1680 00d8 BAE7     		b	.L120
 1681              	.LBE194:
 1682              	.LBE201:
 1683              	.LBE203:
 1684              	.LBE230:
 1685              	.LBE232:
 1686              		.cfi_endproc
 1687              	.LFE105:
 1689              		.global	base
 1690 00da 00BF     		.section	.rodata.base,"a",%progbits
 1691              		.align	2
 1692              		.set	.LANCHOR0,. + 0
 1695              	base:
 1696 0000 0A00     		.short	10
 1697 0002 6400     		.short	100
 1698 0004 E803     		.short	1000
 1699 0006 1027     		.short	10000
 1700              		.text
 1701              	.Letext0:
 1702              		.file 2 "/opt/arm-2012.09/bin/../lib/gcc/arm-none-eabi/4.7.2/include/stddef.h"
 1703              		.file 3 "/opt/arm-2012.09/bin/../lib/gcc/arm-none-eabi/4.7.2/../../../../arm-none-eabi/include/std
 1704              		.file 4 "/home/jonas/warwick/3dProfilometer/xpcc/src/xpcc/io/iostream.hpp"
 1705              		.file 5 "/home/jonas/warwick/3dProfilometer/xpcc/src/xpcc/io/iodevice.hpp"
 1706              		.file 6 "/home/jonas/warwick/3dProfilometer/xpcc/src/xpcc/utils/template_metaprogramming.hpp"
 1707              		.file 7 "/home/jonas/warwick/3dProfilometer/xpcc/src/xpcc/architecture/driver/accessor/flash.hpp"
 1708              		.file 8 "/home/jonas/warwick/3dProfilometer/xpcc/src/xpcc/architecture/driver/accessor/flash_reade
 1709              		.file 9 "/opt/arm-2012.09/bin/../lib/gcc/arm-none-eabi/4.7.2/../../../../arm-none-eabi/include/c++
 1710              		.file 10 "/opt/arm-2012.09/bin/../lib/gcc/arm-none-eabi/4.7.2/../../../../arm-none-eabi/include/st
 1711              		.file 11 "<built-in>"