   1              		.syntax unified
   2              		.cpu cortex-m4
   3              		.eabi_attribute 27, 3
   4              		.fpu fpv4-sp-d16
   5              		.eabi_attribute 20, 1
   6              		.eabi_attribute 21, 1
   7              		.eabi_attribute 23, 3
   8              		.eabi_attribute 24, 1
   9              		.eabi_attribute 25, 1
  10              		.eabi_attribute 26, 1
  11              		.eabi_attribute 30, 2
  12              		.eabi_attribute 34, 1
  13              		.eabi_attribute 18, 4
  14              		.thumb
  15              		.file	"iostream_float.cpp"
  16              		.text
  17              	.Ltext0:
  18              		.cfi_sections	.debug_frame
  19              		.section	.text._ZN4xpcc8IOStream10writeFloatERKf,"ax",%progbits
  20              		.align	2
  21              		.global	_ZN4xpcc8IOStream10writeFloatERKf
  22              		.thumb
  23              		.thumb_func
  25              	_ZN4xpcc8IOStream10writeFloatERKf:
  26              	.LFB71:
  27              		.file 1 "/home/jonas/warwick/3dProfilometer/xpcc/src/xpcc/io/iostream_float.cpp"
   1:/home/jonas/warwick/3dProfilometer/xpcc/src/xpcc/io/iostream_float.cpp **** // coding: utf-8
   2:/home/jonas/warwick/3dProfilometer/xpcc/src/xpcc/io/iostream_float.cpp **** // ----------------------------------------------------------------------------
   3:/home/jonas/warwick/3dProfilometer/xpcc/src/xpcc/io/iostream_float.cpp **** /* Copyright (c) 2011, Roboterclub Aachen e.V.
   4:/home/jonas/warwick/3dProfilometer/xpcc/src/xpcc/io/iostream_float.cpp ****  * All rights reserved.
   5:/home/jonas/warwick/3dProfilometer/xpcc/src/xpcc/io/iostream_float.cpp ****  *
   6:/home/jonas/warwick/3dProfilometer/xpcc/src/xpcc/io/iostream_float.cpp ****  * Redistribution and use in source and binary forms, with or without
   7:/home/jonas/warwick/3dProfilometer/xpcc/src/xpcc/io/iostream_float.cpp ****  * modification, are permitted provided that the following conditions are met:
   8:/home/jonas/warwick/3dProfilometer/xpcc/src/xpcc/io/iostream_float.cpp ****  * 
   9:/home/jonas/warwick/3dProfilometer/xpcc/src/xpcc/io/iostream_float.cpp ****  *     * Redistributions of source code must retain the above copyright
  10:/home/jonas/warwick/3dProfilometer/xpcc/src/xpcc/io/iostream_float.cpp ****  *       notice, this list of conditions and the following disclaimer.
  11:/home/jonas/warwick/3dProfilometer/xpcc/src/xpcc/io/iostream_float.cpp ****  *     * Redistributions in binary form must reproduce the above copyright
  12:/home/jonas/warwick/3dProfilometer/xpcc/src/xpcc/io/iostream_float.cpp ****  *       notice, this list of conditions and the following disclaimer in the
  13:/home/jonas/warwick/3dProfilometer/xpcc/src/xpcc/io/iostream_float.cpp ****  *       documentation and/or other materials provided with the distribution.
  14:/home/jonas/warwick/3dProfilometer/xpcc/src/xpcc/io/iostream_float.cpp ****  *     * Neither the name of the Roboterclub Aachen e.V. nor the
  15:/home/jonas/warwick/3dProfilometer/xpcc/src/xpcc/io/iostream_float.cpp ****  *       names of its contributors may be used to endorse or promote products
  16:/home/jonas/warwick/3dProfilometer/xpcc/src/xpcc/io/iostream_float.cpp ****  *       derived from this software without specific prior written permission.
  17:/home/jonas/warwick/3dProfilometer/xpcc/src/xpcc/io/iostream_float.cpp ****  *
  18:/home/jonas/warwick/3dProfilometer/xpcc/src/xpcc/io/iostream_float.cpp ****  * THIS SOFTWARE IS PROVIDED BY ROBOTERCLUB AACHEN E.V. ''AS IS'' AND ANY
  19:/home/jonas/warwick/3dProfilometer/xpcc/src/xpcc/io/iostream_float.cpp ****  * EXPRESS OR IMPLIED WARRANTIES, INCLUDING, BUT NOT LIMITED TO, THE IMPLIED
  20:/home/jonas/warwick/3dProfilometer/xpcc/src/xpcc/io/iostream_float.cpp ****  * WARRANTIES OF MERCHANTABILITY AND FITNESS FOR A PARTICULAR PURPOSE ARE
  21:/home/jonas/warwick/3dProfilometer/xpcc/src/xpcc/io/iostream_float.cpp ****  * DISCLAIMED. IN NO EVENT SHALL ROBOTERCLUB AACHEN E.V. BE LIABLE FOR ANY
  22:/home/jonas/warwick/3dProfilometer/xpcc/src/xpcc/io/iostream_float.cpp ****  * DIRECT, INDIRECT, INCIDENTAL, SPECIAL, EXEMPLARY, OR CONSEQUENTIAL DAMAGES
  23:/home/jonas/warwick/3dProfilometer/xpcc/src/xpcc/io/iostream_float.cpp ****  * (INCLUDING, BUT NOT LIMITED TO, PROCUREMENT OF SUBSTITUTE GOODS OR SERVICES;
  24:/home/jonas/warwick/3dProfilometer/xpcc/src/xpcc/io/iostream_float.cpp ****  * LOSS OF USE, DATA, OR PROFITS; OR BUSINESS INTERRUPTION) HOWEVER CAUSED AND
  25:/home/jonas/warwick/3dProfilometer/xpcc/src/xpcc/io/iostream_float.cpp ****  * ON ANY THEORY OF LIABILITY, WHETHER IN CONTRACT, STRICT LIABILITY, OR TORT
  26:/home/jonas/warwick/3dProfilometer/xpcc/src/xpcc/io/iostream_float.cpp ****  * (INCLUDING NEGLIGENCE OR OTHERWISE) ARISING IN ANY WAY OUT OF THE USE OF
  27:/home/jonas/warwick/3dProfilometer/xpcc/src/xpcc/io/iostream_float.cpp ****  * THIS SOFTWARE, EVEN IF ADVISED OF THE POSSIBILITY OF SUCH DAMAGE.
  28:/home/jonas/warwick/3dProfilometer/xpcc/src/xpcc/io/iostream_float.cpp ****  */
  29:/home/jonas/warwick/3dProfilometer/xpcc/src/xpcc/io/iostream_float.cpp **** // ----------------------------------------------------------------------------
  30:/home/jonas/warwick/3dProfilometer/xpcc/src/xpcc/io/iostream_float.cpp **** 
  31:/home/jonas/warwick/3dProfilometer/xpcc/src/xpcc/io/iostream_float.cpp **** #include <stdio.h>		// snprintf()
  32:/home/jonas/warwick/3dProfilometer/xpcc/src/xpcc/io/iostream_float.cpp **** #include <stdlib.h>
  33:/home/jonas/warwick/3dProfilometer/xpcc/src/xpcc/io/iostream_float.cpp **** 
  34:/home/jonas/warwick/3dProfilometer/xpcc/src/xpcc/io/iostream_float.cpp **** #include <xpcc/utils/arithmetic_traits.hpp>
  35:/home/jonas/warwick/3dProfilometer/xpcc/src/xpcc/io/iostream_float.cpp **** #include <xpcc/utils/template_metaprogramming.hpp>
  36:/home/jonas/warwick/3dProfilometer/xpcc/src/xpcc/io/iostream_float.cpp **** 
  37:/home/jonas/warwick/3dProfilometer/xpcc/src/xpcc/io/iostream_float.cpp **** #include "iostream.hpp"
  38:/home/jonas/warwick/3dProfilometer/xpcc/src/xpcc/io/iostream_float.cpp **** 
  39:/home/jonas/warwick/3dProfilometer/xpcc/src/xpcc/io/iostream_float.cpp **** void
  40:/home/jonas/warwick/3dProfilometer/xpcc/src/xpcc/io/iostream_float.cpp **** xpcc::IOStream::writeFloat(const float& value)
  41:/home/jonas/warwick/3dProfilometer/xpcc/src/xpcc/io/iostream_float.cpp **** {
  28              		.loc 1 41 0
  29              		.cfi_startproc
  30              		@ args = 0, pretend = 0, frame = 16
  31              		@ frame_needed = 0, uses_anonymous_args = 0
  32              	.LVL0:
  33 0000 F0B5     		push	{r4, r5, r6, r7, lr}
  34              	.LCFI0:
  35              		.cfi_def_cfa_offset 20
  36              		.cfi_offset 4, -20
  37              		.cfi_offset 5, -16
  38              		.cfi_offset 6, -12
  39              		.cfi_offset 7, -8
  40              		.cfi_offset 14, -4
  41              	.LBB8:
  42:/home/jonas/warwick/3dProfilometer/xpcc/src/xpcc/io/iostream_float.cpp **** 	// hard coded for -2.22507e-308
  43:/home/jonas/warwick/3dProfilometer/xpcc/src/xpcc/io/iostream_float.cpp **** 	char str[13 + 1]; // +1 for '\0'
  44:/home/jonas/warwick/3dProfilometer/xpcc/src/xpcc/io/iostream_float.cpp **** 	
  45:/home/jonas/warwick/3dProfilometer/xpcc/src/xpcc/io/iostream_float.cpp **** #if defined(XPCC__CPU_AVR)
  46:/home/jonas/warwick/3dProfilometer/xpcc/src/xpcc/io/iostream_float.cpp **** 	dtostre(value, str, 5, 0);
  47:/home/jonas/warwick/3dProfilometer/xpcc/src/xpcc/io/iostream_float.cpp **** 	this->device->write(str);
  48:/home/jonas/warwick/3dProfilometer/xpcc/src/xpcc/io/iostream_float.cpp **** #elif defined(XPCC__CPU_CORTEX_M4)
  49:/home/jonas/warwick/3dProfilometer/xpcc/src/xpcc/io/iostream_float.cpp **** 	float v;
  50:/home/jonas/warwick/3dProfilometer/xpcc/src/xpcc/io/iostream_float.cpp **** 	char *ptr = &str[0];
  51:/home/jonas/warwick/3dProfilometer/xpcc/src/xpcc/io/iostream_float.cpp **** 	
  52:/home/jonas/warwick/3dProfilometer/xpcc/src/xpcc/io/iostream_float.cpp **** 	if (value < 0) {
  42              		.loc 1 52 0
  43 0002 D1ED007A 		flds	s15, [r1, #0]
  44 0006 F5EEC07A 		fcmpezs	s15
  45 000a F1EE10FA 		fmstat
  46              	.LBE8:
  41:/home/jonas/warwick/3dProfilometer/xpcc/src/xpcc/io/iostream_float.cpp **** {
  47              		.loc 1 41 0
  48 000e 85B0     		sub	sp, sp, #20
  49              	.LCFI1:
  50              		.cfi_def_cfa_offset 40
  51              	.LVL1:
  41:/home/jonas/warwick/3dProfilometer/xpcc/src/xpcc/io/iostream_float.cpp **** {
  52              		.loc 1 41 0
  53 0010 0746     		mov	r7, r0
  54              	.LBB14:
  55              		.loc 1 52 0
  56 0012 71D4     		bmi	.L29
  50:/home/jonas/warwick/3dProfilometer/xpcc/src/xpcc/io/iostream_float.cpp **** 	char *ptr = &str[0];
  57              		.loc 1 50 0
  58 0014 6B46     		mov	r3, sp
  59              	.LVL2:
  60              	.L2:
  53:/home/jonas/warwick/3dProfilometer/xpcc/src/xpcc/io/iostream_float.cpp **** 		v = -value;
  54:/home/jonas/warwick/3dProfilometer/xpcc/src/xpcc/io/iostream_float.cpp **** 		*ptr++ = '-';
  55:/home/jonas/warwick/3dProfilometer/xpcc/src/xpcc/io/iostream_float.cpp **** 	}
  56:/home/jonas/warwick/3dProfilometer/xpcc/src/xpcc/io/iostream_float.cpp **** 	else {
  57:/home/jonas/warwick/3dProfilometer/xpcc/src/xpcc/io/iostream_float.cpp **** 		v = value;
  58:/home/jonas/warwick/3dProfilometer/xpcc/src/xpcc/io/iostream_float.cpp **** 	}
  59:/home/jonas/warwick/3dProfilometer/xpcc/src/xpcc/io/iostream_float.cpp **** 	
  60:/home/jonas/warwick/3dProfilometer/xpcc/src/xpcc/io/iostream_float.cpp **** 	int32_t ep = 0;
  61:/home/jonas/warwick/3dProfilometer/xpcc/src/xpcc/io/iostream_float.cpp **** 	if (v != 0)
  61              		.loc 1 61 0
  62 0016 F5EE407A 		fcmpzs	s15
  63 001a F1EE10FA 		fmstat
  64 001e 69D0     		beq	.L18
  62:/home/jonas/warwick/3dProfilometer/xpcc/src/xpcc/io/iostream_float.cpp **** 	{
  63:/home/jonas/warwick/3dProfilometer/xpcc/src/xpcc/io/iostream_float.cpp **** 		while (v < 1.f) {
  65              		.loc 1 63 0 discriminator 1
  66 0020 B7EE007A 		fconsts	s14, #112
  67 0024 F4EEC77A 		fcmpes	s15, s14
  68 0028 F1EE10FA 		fmstat
  69 002c 4FF00004 		mov	r4, #0
  70 0030 0BD5     		bpl	.L5
  71              	.LVL3:
  72              	.L7:
  64:/home/jonas/warwick/3dProfilometer/xpcc/src/xpcc/io/iostream_float.cpp **** 			v *= 10;
  73              		.loc 1 64 0
  74 0032 B2EE047A 		fconsts	s14, #36
  75 0036 67EE877A 		fmuls	s15, s15, s14
  76              	.LVL4:
  63:/home/jonas/warwick/3dProfilometer/xpcc/src/xpcc/io/iostream_float.cpp **** 		while (v < 1.f) {
  77              		.loc 1 63 0
  78 003a B7EE007A 		fconsts	s14, #112
  79 003e F4EEC77A 		fcmpes	s15, s14
  65:/home/jonas/warwick/3dProfilometer/xpcc/src/xpcc/io/iostream_float.cpp **** 			ep -= 1;
  80              		.loc 1 65 0
  81 0042 013C     		subs	r4, r4, #1
  82              	.LVL5:
  63:/home/jonas/warwick/3dProfilometer/xpcc/src/xpcc/io/iostream_float.cpp **** 		while (v < 1.f) {
  83              		.loc 1 63 0
  84 0044 F1EE10FA 		fmstat
  85 0048 F3D4     		bmi	.L7
  86              	.LVL6:
  87              	.L5:
  66:/home/jonas/warwick/3dProfilometer/xpcc/src/xpcc/io/iostream_float.cpp **** 		}
  67:/home/jonas/warwick/3dProfilometer/xpcc/src/xpcc/io/iostream_float.cpp **** 
  68:/home/jonas/warwick/3dProfilometer/xpcc/src/xpcc/io/iostream_float.cpp **** 		while (v > 10) {
  88              		.loc 1 68 0 discriminator 1
  89 004a B2EE047A 		fconsts	s14, #36
  90 004e F4EEC77A 		fcmpes	s15, s14
  91 0052 F1EE10FA 		fmstat
  92 0056 0BDD     		ble	.L4
  93              	.L22:
  69:/home/jonas/warwick/3dProfilometer/xpcc/src/xpcc/io/iostream_float.cpp **** 			v *= 0.1f;
  94              		.loc 1 69 0
  95 0058 9FED2D7A 		flds	s14, .L31
  96 005c 67EE877A 		fmuls	s15, s15, s14
  97              	.LVL7:
  68:/home/jonas/warwick/3dProfilometer/xpcc/src/xpcc/io/iostream_float.cpp **** 		while (v > 10) {
  98              		.loc 1 68 0
  99 0060 B2EE047A 		fconsts	s14, #36
 100 0064 F4EEC77A 		fcmpes	s15, s14
  70:/home/jonas/warwick/3dProfilometer/xpcc/src/xpcc/io/iostream_float.cpp **** 			ep += 1;
 101              		.loc 1 70 0
 102 0068 0134     		adds	r4, r4, #1
 103              	.LVL8:
  68:/home/jonas/warwick/3dProfilometer/xpcc/src/xpcc/io/iostream_float.cpp **** 		while (v > 10) {
 104              		.loc 1 68 0
 105 006a F1EE10FA 		fmstat
 106 006e F3DC     		bgt	.L22
 107              	.LVL9:
 108              	.L4:
 109              	.LBB9:
 110              	.LBB10:
  71:/home/jonas/warwick/3dProfilometer/xpcc/src/xpcc/io/iostream_float.cpp **** 		}
  72:/home/jonas/warwick/3dProfilometer/xpcc/src/xpcc/io/iostream_float.cpp **** 	}
  73:/home/jonas/warwick/3dProfilometer/xpcc/src/xpcc/io/iostream_float.cpp **** 	
  74:/home/jonas/warwick/3dProfilometer/xpcc/src/xpcc/io/iostream_float.cpp **** 	for (uint32_t i = 0; i < 6; ++i)
 111              		.loc 1 74 0
 112 0070 0022     		movs	r2, #0
 113              	.LVL10:
 114              	.L27:
  75:/home/jonas/warwick/3dProfilometer/xpcc/src/xpcc/io/iostream_float.cpp **** 	{
  76:/home/jonas/warwick/3dProfilometer/xpcc/src/xpcc/io/iostream_float.cpp **** 		int8_t num = static_cast<int8_t>(v);
 115              		.loc 1 76 0
 116 0072 FDEEE76A 		ftosizs	s13, s15
 117 0076 16EE905A 		fmrs	r5, s13	@ int
  77:/home/jonas/warwick/3dProfilometer/xpcc/src/xpcc/io/iostream_float.cpp **** 		*ptr++ = (num + '0');
 118              		.loc 1 77 0
 119 007a 05F13006 		add	r6, r5, #48
 120 007e 1E70     		strb	r6, [r3, #0]
 121              	.LVL11:
  78:/home/jonas/warwick/3dProfilometer/xpcc/src/xpcc/io/iostream_float.cpp **** 		
  79:/home/jonas/warwick/3dProfilometer/xpcc/src/xpcc/io/iostream_float.cpp **** 		if (i == 0) {
  80:/home/jonas/warwick/3dProfilometer/xpcc/src/xpcc/io/iostream_float.cpp **** 			*ptr++ = '.';
  81:/home/jonas/warwick/3dProfilometer/xpcc/src/xpcc/io/iostream_float.cpp **** 		}
  82:/home/jonas/warwick/3dProfilometer/xpcc/src/xpcc/io/iostream_float.cpp **** 		
  83:/home/jonas/warwick/3dProfilometer/xpcc/src/xpcc/io/iostream_float.cpp **** 		// next digit
  84:/home/jonas/warwick/3dProfilometer/xpcc/src/xpcc/io/iostream_float.cpp **** 		v = (v - num) * 10;
 122              		.loc 1 84 0
 123 0080 6EB2     		sxtb	r6, r5
  79:/home/jonas/warwick/3dProfilometer/xpcc/src/xpcc/io/iostream_float.cpp **** 		if (i == 0) {
 124              		.loc 1 79 0
 125 0082 72B9     		cbnz	r2, .L11
 126              		.loc 1 84 0
 127 0084 06EE906A 		fmsr	s13, r6	@ int
 128 0088 B8EEE67A 		fsitos	s14, s13
  80:/home/jonas/warwick/3dProfilometer/xpcc/src/xpcc/io/iostream_float.cpp **** 			*ptr++ = '.';
 129              		.loc 1 80 0
 130 008c 2E22     		movs	r2, #46
 131              		.loc 1 84 0
 132 008e 77EEC77A 		fsubs	s15, s15, s14
 133 0092 B2EE047A 		fconsts	s14, #36
  80:/home/jonas/warwick/3dProfilometer/xpcc/src/xpcc/io/iostream_float.cpp **** 			*ptr++ = '.';
 134              		.loc 1 80 0
 135 0096 5A70     		strb	r2, [r3, #1]
 136              		.loc 1 84 0
 137 0098 67EE877A 		fmuls	s15, s15, s14
  80:/home/jonas/warwick/3dProfilometer/xpcc/src/xpcc/io/iostream_float.cpp **** 			*ptr++ = '.';
 138              		.loc 1 80 0
 139 009c 0233     		adds	r3, r3, #2
 140              	.LVL12:
  74:/home/jonas/warwick/3dProfilometer/xpcc/src/xpcc/io/iostream_float.cpp **** 	for (uint32_t i = 0; i < 6; ++i)
 141              		.loc 1 74 0
 142 009e 0122     		movs	r2, #1
 143 00a0 E7E7     		b	.L27
 144              	.LVL13:
 145              	.L11:
 146              	.LBE10:
 147 00a2 0132     		adds	r2, r2, #1
 148              	.LBB11:
  77:/home/jonas/warwick/3dProfilometer/xpcc/src/xpcc/io/iostream_float.cpp **** 		*ptr++ = (num + '0');
 149              		.loc 1 77 0
 150 00a4 0133     		adds	r3, r3, #1
 151              	.LVL14:
 152              	.LBE11:
  74:/home/jonas/warwick/3dProfilometer/xpcc/src/xpcc/io/iostream_float.cpp **** 	for (uint32_t i = 0; i < 6; ++i)
 153              		.loc 1 74 0
 154 00a6 062A     		cmp	r2, #6
 155              	.LBB12:
 156              		.loc 1 84 0
 157 00a8 6DB2     		sxtb	r5, r5
 158              	.LBE12:
  74:/home/jonas/warwick/3dProfilometer/xpcc/src/xpcc/io/iostream_float.cpp **** 	for (uint32_t i = 0; i < 6; ++i)
 159              		.loc 1 74 0
 160 00aa 0AD0     		beq	.L13
 161              	.LBB13:
 162              		.loc 1 84 0
 163 00ac 06EE905A 		fmsr	s13, r5	@ int
 164 00b0 B8EEE67A 		fsitos	s14, s13
 165 00b4 77EEC77A 		fsubs	s15, s15, s14
 166              	.LVL15:
 167 00b8 B2EE047A 		fconsts	s14, #36
 168 00bc 67EE877A 		fmuls	s15, s15, s14
 169 00c0 D7E7     		b	.L27
 170              	.LVL16:
 171              	.L13:
 172              	.LBE13:
 173              	.LBE9:
  85:/home/jonas/warwick/3dProfilometer/xpcc/src/xpcc/io/iostream_float.cpp **** 	}
  86:/home/jonas/warwick/3dProfilometer/xpcc/src/xpcc/io/iostream_float.cpp **** 	
  87:/home/jonas/warwick/3dProfilometer/xpcc/src/xpcc/io/iostream_float.cpp **** 	*ptr++ = 'e';
 174              		.loc 1 87 0
 175 00c2 6522     		movs	r2, #101
 176              	.LVL17:
  88:/home/jonas/warwick/3dProfilometer/xpcc/src/xpcc/io/iostream_float.cpp **** 	if (ep < 0) {
 177              		.loc 1 88 0
 178 00c4 002C     		cmp	r4, #0
  87:/home/jonas/warwick/3dProfilometer/xpcc/src/xpcc/io/iostream_float.cpp **** 	*ptr++ = 'e';
 179              		.loc 1 87 0
 180 00c6 1A70     		strb	r2, [r3, #0]
 181              	.LVL18:
 182              		.loc 1 88 0
 183 00c8 1EDB     		blt	.L30
  89:/home/jonas/warwick/3dProfilometer/xpcc/src/xpcc/io/iostream_float.cpp **** 		ep = -ep;
  90:/home/jonas/warwick/3dProfilometer/xpcc/src/xpcc/io/iostream_float.cpp **** 		*ptr++ = '-';
  91:/home/jonas/warwick/3dProfilometer/xpcc/src/xpcc/io/iostream_float.cpp **** 	}
  92:/home/jonas/warwick/3dProfilometer/xpcc/src/xpcc/io/iostream_float.cpp **** 	else {
  93:/home/jonas/warwick/3dProfilometer/xpcc/src/xpcc/io/iostream_float.cpp **** 		*ptr++ = '+';
 184              		.loc 1 93 0
 185 00ca 9A1C     		adds	r2, r3, #2
 186              	.LVL19:
 187 00cc 2B20     		movs	r0, #43
 188              	.LVL20:
 189              	.L15:
  94:/home/jonas/warwick/3dProfilometer/xpcc/src/xpcc/io/iostream_float.cpp **** 	}
  95:/home/jonas/warwick/3dProfilometer/xpcc/src/xpcc/io/iostream_float.cpp **** 	if (ep < 10) {
 190              		.loc 1 95 0
 191 00ce 092C     		cmp	r4, #9
 192 00d0 5870     		strb	r0, [r3, #1]
 193 00d2 02DC     		bgt	.L16
  96:/home/jonas/warwick/3dProfilometer/xpcc/src/xpcc/io/iostream_float.cpp **** 		*ptr++ = '0';
 194              		.loc 1 96 0
 195 00d4 3023     		movs	r3, #48
 196 00d6 02F8013B 		strb	r3, [r2], #1
 197              	.LVL21:
 198              	.L16:
  97:/home/jonas/warwick/3dProfilometer/xpcc/src/xpcc/io/iostream_float.cpp **** 	}
  98:/home/jonas/warwick/3dProfilometer/xpcc/src/xpcc/io/iostream_float.cpp **** 	*ptr++ = '\0';	// End of string
  99:/home/jonas/warwick/3dProfilometer/xpcc/src/xpcc/io/iostream_float.cpp **** 	this->device->write(str);
 199              		.loc 1 99 0
 200 00da 3868     		ldr	r0, [r7, #0]
  98:/home/jonas/warwick/3dProfilometer/xpcc/src/xpcc/io/iostream_float.cpp **** 	*ptr++ = '\0';	// End of string
 201              		.loc 1 98 0
 202 00dc 0023     		movs	r3, #0
 203 00de 1370     		strb	r3, [r2, #0]
 204              	.LVL22:
 205              		.loc 1 99 0
 206 00e0 0368     		ldr	r3, [r0, #0]
 207 00e2 6946     		mov	r1, sp
 208              	.LVL23:
 209 00e4 DB68     		ldr	r3, [r3, #12]
 210 00e6 9847     		blx	r3
 211              	.LVL24:
 100:/home/jonas/warwick/3dProfilometer/xpcc/src/xpcc/io/iostream_float.cpp **** 	
 101:/home/jonas/warwick/3dProfilometer/xpcc/src/xpcc/io/iostream_float.cpp **** 	this->writeInteger(ep);
 212              		.loc 1 101 0
 213 00e8 3846     		mov	r0, r7
 214 00ea 2146     		mov	r1, r4
 215 00ec 094B     		ldr	r3, .L31+4
 216 00ee 9847     		blx	r3
 217              	.LVL25:
 218              	.LBE14:
 102:/home/jonas/warwick/3dProfilometer/xpcc/src/xpcc/io/iostream_float.cpp **** #else
 103:/home/jonas/warwick/3dProfilometer/xpcc/src/xpcc/io/iostream_float.cpp **** 	snprintf(str, sizeof(str), "%.5e", (double) value);
 104:/home/jonas/warwick/3dProfilometer/xpcc/src/xpcc/io/iostream_float.cpp **** 	this->device->write(str);
 105:/home/jonas/warwick/3dProfilometer/xpcc/src/xpcc/io/iostream_float.cpp **** #endif
 106:/home/jonas/warwick/3dProfilometer/xpcc/src/xpcc/io/iostream_float.cpp **** }
 219              		.loc 1 106 0
 220 00f0 05B0     		add	sp, sp, #20
 221 00f2 F0BD     		pop	{r4, r5, r6, r7, pc}
 222              	.LVL26:
 223              	.L18:
 224              	.LBB15:
  60:/home/jonas/warwick/3dProfilometer/xpcc/src/xpcc/io/iostream_float.cpp **** 	int32_t ep = 0;
 225              		.loc 1 60 0
 226 00f4 0024     		movs	r4, #0
 227 00f6 BBE7     		b	.L4
 228              	.LVL27:
 229              	.L29:
  54:/home/jonas/warwick/3dProfilometer/xpcc/src/xpcc/io/iostream_float.cpp **** 		*ptr++ = '-';
 230              		.loc 1 54 0
 231 00f8 2D23     		movs	r3, #45
 232 00fa 8DF80030 		strb	r3, [sp, #0]
  53:/home/jonas/warwick/3dProfilometer/xpcc/src/xpcc/io/iostream_float.cpp **** 		v = -value;
 233              		.loc 1 53 0
 234 00fe F1EE677A 		fnegs	s15, s15
 235              	.LVL28:
  54:/home/jonas/warwick/3dProfilometer/xpcc/src/xpcc/io/iostream_float.cpp **** 		*ptr++ = '-';
 236              		.loc 1 54 0
 237 0102 0DF10103 		add	r3, sp, #1
 238              	.LVL29:
 239 0106 86E7     		b	.L2
 240              	.LVL30:
 241              	.L30:
  89:/home/jonas/warwick/3dProfilometer/xpcc/src/xpcc/io/iostream_float.cpp **** 		ep = -ep;
 242              		.loc 1 89 0
 243 0108 6442     		negs	r4, r4
 244              	.LVL31:
  90:/home/jonas/warwick/3dProfilometer/xpcc/src/xpcc/io/iostream_float.cpp **** 		*ptr++ = '-';
 245              		.loc 1 90 0
 246 010a 9A1C     		adds	r2, r3, #2
 247              	.LVL32:
 248 010c 2D20     		movs	r0, #45
 249              	.LVL33:
 250 010e DEE7     		b	.L15
 251              	.L32:
 252              		.align	2
 253              	.L31:
 254 0110 CDCCCC3D 		.word	1036831949
 255 0114 00000000 		.word	_ZN4xpcc8IOStream12writeIntegerEl
 256              	.LBE15:
 257              		.cfi_endproc
 258              	.LFE71:
 260              		.global	__aeabi_d2f
 261              		.section	.text._ZN4xpcc8IOStream11writeDoubleERKd,"ax",%progbits
 262              		.align	2
 263              		.global	_ZN4xpcc8IOStream11writeDoubleERKd
 264              		.thumb
 265              		.thumb_func
 267              	_ZN4xpcc8IOStream11writeDoubleERKd:
 268              	.LFB72:
 107:/home/jonas/warwick/3dProfilometer/xpcc/src/xpcc/io/iostream_float.cpp **** 
 108:/home/jonas/warwick/3dProfilometer/xpcc/src/xpcc/io/iostream_float.cpp **** // ----------------------------------------------------------------------------
 109:/home/jonas/warwick/3dProfilometer/xpcc/src/xpcc/io/iostream_float.cpp **** #if !defined(XPCC__CPU_AVR)
 110:/home/jonas/warwick/3dProfilometer/xpcc/src/xpcc/io/iostream_float.cpp **** void
 111:/home/jonas/warwick/3dProfilometer/xpcc/src/xpcc/io/iostream_float.cpp **** xpcc::IOStream::writeDouble(const double& value)
 112:/home/jonas/warwick/3dProfilometer/xpcc/src/xpcc/io/iostream_float.cpp **** {
 269              		.loc 1 112 0
 270              		.cfi_startproc
 271              		@ args = 0, pretend = 0, frame = 16
 272              		@ frame_needed = 0, uses_anonymous_args = 0
 273              	.LVL34:
 274 0000 F0B5     		push	{r4, r5, r6, r7, lr}
 275              	.LCFI2:
 276              		.cfi_def_cfa_offset 20
 277              		.cfi_offset 4, -20
 278              		.cfi_offset 5, -16
 279              		.cfi_offset 6, -12
 280              		.cfi_offset 7, -8
 281              		.cfi_offset 14, -4
 113:/home/jonas/warwick/3dProfilometer/xpcc/src/xpcc/io/iostream_float.cpp **** #if defined(XPCC__CPU_CORTEX_M4)
 114:/home/jonas/warwick/3dProfilometer/xpcc/src/xpcc/io/iostream_float.cpp **** 	// TODO do this better
 115:/home/jonas/warwick/3dProfilometer/xpcc/src/xpcc/io/iostream_float.cpp **** 	writeFloat(static_cast<float>(value));
 282              		.loc 1 115 0
 283 0002 454B     		ldr	r3, .L62
 112:/home/jonas/warwick/3dProfilometer/xpcc/src/xpcc/io/iostream_float.cpp **** {
 284              		.loc 1 112 0
 285 0004 85B0     		sub	sp, sp, #20
 286              	.LCFI3:
 287              		.cfi_def_cfa_offset 40
 112:/home/jonas/warwick/3dProfilometer/xpcc/src/xpcc/io/iostream_float.cpp **** {
 288              		.loc 1 112 0
 289 0006 0746     		mov	r7, r0
 290              		.loc 1 115 0
 291 0008 D1E90001 		ldrd	r0, [r1]
 292              	.LVL35:
 293 000c 9847     		blx	r3
 294              	.LVL36:
 295 000e 07EE900A 		fmsr	s15, r0
 296              	.LVL37:
 297              	.LBB21:
 298              	.LBB22:
  52:/home/jonas/warwick/3dProfilometer/xpcc/src/xpcc/io/iostream_float.cpp **** 	if (value < 0) {
 299              		.loc 1 52 0
 300 0012 F5EEC07A 		fcmpezs	s15
 301 0016 F1EE10FA 		fmstat
 302 001a 71D4     		bmi	.L60
  50:/home/jonas/warwick/3dProfilometer/xpcc/src/xpcc/io/iostream_float.cpp **** 	char *ptr = &str[0];
 303              		.loc 1 50 0
 304 001c 6B46     		mov	r3, sp
 305              	.LVL38:
 306              	.L34:
  61:/home/jonas/warwick/3dProfilometer/xpcc/src/xpcc/io/iostream_float.cpp **** 	if (v != 0)
 307              		.loc 1 61 0
 308 001e F5EE407A 		fcmpzs	s15
 309 0022 F1EE10FA 		fmstat
 310 0026 69D0     		beq	.L50
  63:/home/jonas/warwick/3dProfilometer/xpcc/src/xpcc/io/iostream_float.cpp **** 		while (v < 1.f) {
 311              		.loc 1 63 0
 312 0028 B7EE007A 		fconsts	s14, #112
 313 002c F4EEC77A 		fcmpes	s15, s14
 314 0030 F1EE10FA 		fmstat
 315 0034 4FF00004 		mov	r4, #0
 316 0038 0BD5     		bpl	.L37
 317              	.LVL39:
 318              	.L39:
  64:/home/jonas/warwick/3dProfilometer/xpcc/src/xpcc/io/iostream_float.cpp **** 			v *= 10;
 319              		.loc 1 64 0
 320 003a B2EE047A 		fconsts	s14, #36
 321 003e 67EE877A 		fmuls	s15, s15, s14
 322              	.LVL40:
  63:/home/jonas/warwick/3dProfilometer/xpcc/src/xpcc/io/iostream_float.cpp **** 		while (v < 1.f) {
 323              		.loc 1 63 0
 324 0042 B7EE007A 		fconsts	s14, #112
 325 0046 F4EEC77A 		fcmpes	s15, s14
  65:/home/jonas/warwick/3dProfilometer/xpcc/src/xpcc/io/iostream_float.cpp **** 			ep -= 1;
 326              		.loc 1 65 0
 327 004a 013C     		subs	r4, r4, #1
 328              	.LVL41:
  63:/home/jonas/warwick/3dProfilometer/xpcc/src/xpcc/io/iostream_float.cpp **** 		while (v < 1.f) {
 329              		.loc 1 63 0
 330 004c F1EE10FA 		fmstat
 331 0050 F3D4     		bmi	.L39
 332              	.LVL42:
 333              	.L37:
  68:/home/jonas/warwick/3dProfilometer/xpcc/src/xpcc/io/iostream_float.cpp **** 		while (v > 10) {
 334              		.loc 1 68 0
 335 0052 B2EE047A 		fconsts	s14, #36
 336 0056 F4EEC77A 		fcmpes	s15, s14
 337 005a F1EE10FA 		fmstat
 338 005e 0BDD     		ble	.L36
 339              	.L54:
  69:/home/jonas/warwick/3dProfilometer/xpcc/src/xpcc/io/iostream_float.cpp **** 			v *= 0.1f;
 340              		.loc 1 69 0
 341 0060 9FED2E7A 		flds	s14, .L62+4
 342 0064 67EE877A 		fmuls	s15, s15, s14
 343              	.LVL43:
  68:/home/jonas/warwick/3dProfilometer/xpcc/src/xpcc/io/iostream_float.cpp **** 		while (v > 10) {
 344              		.loc 1 68 0
 345 0068 B2EE047A 		fconsts	s14, #36
 346 006c F4EEC77A 		fcmpes	s15, s14
  70:/home/jonas/warwick/3dProfilometer/xpcc/src/xpcc/io/iostream_float.cpp **** 			ep += 1;
 347              		.loc 1 70 0
 348 0070 0134     		adds	r4, r4, #1
 349              	.LVL44:
  68:/home/jonas/warwick/3dProfilometer/xpcc/src/xpcc/io/iostream_float.cpp **** 		while (v > 10) {
 350              		.loc 1 68 0
 351 0072 F1EE10FA 		fmstat
 352 0076 F3DC     		bgt	.L54
 353              	.LVL45:
 354              	.L36:
 355              	.LBB23:
 356              	.LBB24:
  74:/home/jonas/warwick/3dProfilometer/xpcc/src/xpcc/io/iostream_float.cpp **** 	for (uint32_t i = 0; i < 6; ++i)
 357              		.loc 1 74 0
 358 0078 0022     		movs	r2, #0
 359              	.LVL46:
 360              	.L59:
  76:/home/jonas/warwick/3dProfilometer/xpcc/src/xpcc/io/iostream_float.cpp **** 		int8_t num = static_cast<int8_t>(v);
 361              		.loc 1 76 0
 362 007a FDEEE76A 		ftosizs	s13, s15
 363 007e 16EE905A 		fmrs	r5, s13	@ int
  77:/home/jonas/warwick/3dProfilometer/xpcc/src/xpcc/io/iostream_float.cpp **** 		*ptr++ = (num + '0');
 364              		.loc 1 77 0
 365 0082 05F13006 		add	r6, r5, #48
 366 0086 1E70     		strb	r6, [r3, #0]
 367              	.LVL47:
  84:/home/jonas/warwick/3dProfilometer/xpcc/src/xpcc/io/iostream_float.cpp **** 		v = (v - num) * 10;
 368              		.loc 1 84 0
 369 0088 6EB2     		sxtb	r6, r5
  79:/home/jonas/warwick/3dProfilometer/xpcc/src/xpcc/io/iostream_float.cpp **** 		if (i == 0) {
 370              		.loc 1 79 0
 371 008a 72B9     		cbnz	r2, .L43
  84:/home/jonas/warwick/3dProfilometer/xpcc/src/xpcc/io/iostream_float.cpp **** 		v = (v - num) * 10;
 372              		.loc 1 84 0
 373 008c 06EE906A 		fmsr	s13, r6	@ int
 374 0090 B8EEE67A 		fsitos	s14, s13
  80:/home/jonas/warwick/3dProfilometer/xpcc/src/xpcc/io/iostream_float.cpp **** 			*ptr++ = '.';
 375              		.loc 1 80 0
 376 0094 2E22     		movs	r2, #46
  84:/home/jonas/warwick/3dProfilometer/xpcc/src/xpcc/io/iostream_float.cpp **** 		v = (v - num) * 10;
 377              		.loc 1 84 0
 378 0096 77EEC77A 		fsubs	s15, s15, s14
 379 009a B2EE047A 		fconsts	s14, #36
  80:/home/jonas/warwick/3dProfilometer/xpcc/src/xpcc/io/iostream_float.cpp **** 			*ptr++ = '.';
 380              		.loc 1 80 0
 381 009e 5A70     		strb	r2, [r3, #1]
  84:/home/jonas/warwick/3dProfilometer/xpcc/src/xpcc/io/iostream_float.cpp **** 		v = (v - num) * 10;
 382              		.loc 1 84 0
 383 00a0 67EE877A 		fmuls	s15, s15, s14
  80:/home/jonas/warwick/3dProfilometer/xpcc/src/xpcc/io/iostream_float.cpp **** 			*ptr++ = '.';
 384              		.loc 1 80 0
 385 00a4 0233     		adds	r3, r3, #2
 386              	.LVL48:
  74:/home/jonas/warwick/3dProfilometer/xpcc/src/xpcc/io/iostream_float.cpp **** 	for (uint32_t i = 0; i < 6; ++i)
 387              		.loc 1 74 0
 388 00a6 0122     		movs	r2, #1
 389 00a8 E7E7     		b	.L59
 390              	.LVL49:
 391              	.L43:
 392              	.LBE24:
 393 00aa 0132     		adds	r2, r2, #1
 394              	.LBB25:
  77:/home/jonas/warwick/3dProfilometer/xpcc/src/xpcc/io/iostream_float.cpp **** 		*ptr++ = (num + '0');
 395              		.loc 1 77 0
 396 00ac 0133     		adds	r3, r3, #1
 397              	.LVL50:
 398              	.LBE25:
  74:/home/jonas/warwick/3dProfilometer/xpcc/src/xpcc/io/iostream_float.cpp **** 	for (uint32_t i = 0; i < 6; ++i)
 399              		.loc 1 74 0
 400 00ae 062A     		cmp	r2, #6
 401              	.LBB26:
  84:/home/jonas/warwick/3dProfilometer/xpcc/src/xpcc/io/iostream_float.cpp **** 		v = (v - num) * 10;
 402              		.loc 1 84 0
 403 00b0 6DB2     		sxtb	r5, r5
 404              	.LVL51:
 405              	.LBE26:
  74:/home/jonas/warwick/3dProfilometer/xpcc/src/xpcc/io/iostream_float.cpp **** 	for (uint32_t i = 0; i < 6; ++i)
 406              		.loc 1 74 0
 407 00b2 0AD0     		beq	.L45
 408              	.LBB27:
  84:/home/jonas/warwick/3dProfilometer/xpcc/src/xpcc/io/iostream_float.cpp **** 		v = (v - num) * 10;
 409              		.loc 1 84 0
 410 00b4 06EE905A 		fmsr	s13, r5	@ int
 411 00b8 B8EEE67A 		fsitos	s14, s13
 412 00bc 77EEC77A 		fsubs	s15, s15, s14
 413              	.LVL52:
 414 00c0 B2EE047A 		fconsts	s14, #36
 415 00c4 67EE877A 		fmuls	s15, s15, s14
 416 00c8 D7E7     		b	.L59
 417              	.LVL53:
 418              	.L45:
 419              	.LBE27:
 420              	.LBE23:
  87:/home/jonas/warwick/3dProfilometer/xpcc/src/xpcc/io/iostream_float.cpp **** 	*ptr++ = 'e';
 421              		.loc 1 87 0
 422 00ca 6522     		movs	r2, #101
 423              	.LVL54:
  88:/home/jonas/warwick/3dProfilometer/xpcc/src/xpcc/io/iostream_float.cpp **** 	if (ep < 0) {
 424              		.loc 1 88 0
 425 00cc 002C     		cmp	r4, #0
  87:/home/jonas/warwick/3dProfilometer/xpcc/src/xpcc/io/iostream_float.cpp **** 	*ptr++ = 'e';
 426              		.loc 1 87 0
 427 00ce 1A70     		strb	r2, [r3, #0]
 428              	.LVL55:
  88:/home/jonas/warwick/3dProfilometer/xpcc/src/xpcc/io/iostream_float.cpp **** 	if (ep < 0) {
 429              		.loc 1 88 0
 430 00d0 1EDB     		blt	.L61
  93:/home/jonas/warwick/3dProfilometer/xpcc/src/xpcc/io/iostream_float.cpp **** 		*ptr++ = '+';
 431              		.loc 1 93 0
 432 00d2 9A1C     		adds	r2, r3, #2
 433              	.LVL56:
 434 00d4 2B20     		movs	r0, #43
 435              	.L47:
  95:/home/jonas/warwick/3dProfilometer/xpcc/src/xpcc/io/iostream_float.cpp **** 	if (ep < 10) {
 436              		.loc 1 95 0
 437 00d6 092C     		cmp	r4, #9
 438 00d8 5870     		strb	r0, [r3, #1]
 439 00da 02DC     		bgt	.L48
  96:/home/jonas/warwick/3dProfilometer/xpcc/src/xpcc/io/iostream_float.cpp **** 		*ptr++ = '0';
 440              		.loc 1 96 0
 441 00dc 3023     		movs	r3, #48
 442 00de 02F8013B 		strb	r3, [r2], #1
 443              	.LVL57:
 444              	.L48:
  99:/home/jonas/warwick/3dProfilometer/xpcc/src/xpcc/io/iostream_float.cpp **** 	this->device->write(str);
 445              		.loc 1 99 0
 446 00e2 3868     		ldr	r0, [r7, #0]
  98:/home/jonas/warwick/3dProfilometer/xpcc/src/xpcc/io/iostream_float.cpp **** 	*ptr++ = '\0';	// End of string
 447              		.loc 1 98 0
 448 00e4 0023     		movs	r3, #0
 449 00e6 1370     		strb	r3, [r2, #0]
 450              	.LVL58:
  99:/home/jonas/warwick/3dProfilometer/xpcc/src/xpcc/io/iostream_float.cpp **** 	this->device->write(str);
 451              		.loc 1 99 0
 452 00e8 0368     		ldr	r3, [r0, #0]
 453 00ea 6946     		mov	r1, sp
 454 00ec DB68     		ldr	r3, [r3, #12]
 455 00ee 9847     		blx	r3
 456              	.LVL59:
 101:/home/jonas/warwick/3dProfilometer/xpcc/src/xpcc/io/iostream_float.cpp **** 	this->writeInteger(ep);
 457              		.loc 1 101 0
 458 00f0 3846     		mov	r0, r7
 459 00f2 2146     		mov	r1, r4
 460 00f4 0A4B     		ldr	r3, .L62+8
 461 00f6 9847     		blx	r3
 462              	.LVL60:
 463              	.LBE22:
 464              	.LBE21:
 116:/home/jonas/warwick/3dProfilometer/xpcc/src/xpcc/io/iostream_float.cpp **** #else
 117:/home/jonas/warwick/3dProfilometer/xpcc/src/xpcc/io/iostream_float.cpp **** 	// hard coded for 2.22507e-308
 118:/home/jonas/warwick/3dProfilometer/xpcc/src/xpcc/io/iostream_float.cpp **** 	char str[13 + 1]; // +1 for '\0'
 119:/home/jonas/warwick/3dProfilometer/xpcc/src/xpcc/io/iostream_float.cpp **** 	snprintf(str, sizeof(str), "%.5e", value);
 120:/home/jonas/warwick/3dProfilometer/xpcc/src/xpcc/io/iostream_float.cpp **** 	this->device->write(str);
 121:/home/jonas/warwick/3dProfilometer/xpcc/src/xpcc/io/iostream_float.cpp **** #endif
 122:/home/jonas/warwick/3dProfilometer/xpcc/src/xpcc/io/iostream_float.cpp **** }
 465              		.loc 1 122 0
 466 00f8 05B0     		add	sp, sp, #20
 467 00fa F0BD     		pop	{r4, r5, r6, r7, pc}
 468              	.LVL61:
 469              	.L50:
 470              	.LBB29:
 471              	.LBB28:
  60:/home/jonas/warwick/3dProfilometer/xpcc/src/xpcc/io/iostream_float.cpp **** 	int32_t ep = 0;
 472              		.loc 1 60 0
 473 00fc 0024     		movs	r4, #0
 474 00fe BBE7     		b	.L36
 475              	.LVL62:
 476              	.L60:
  54:/home/jonas/warwick/3dProfilometer/xpcc/src/xpcc/io/iostream_float.cpp **** 		*ptr++ = '-';
 477              		.loc 1 54 0
 478 0100 2D23     		movs	r3, #45
 479 0102 8DF80030 		strb	r3, [sp, #0]
  53:/home/jonas/warwick/3dProfilometer/xpcc/src/xpcc/io/iostream_float.cpp **** 		v = -value;
 480              		.loc 1 53 0
 481 0106 F1EE677A 		fnegs	s15, s15
 482              	.LVL63:
  54:/home/jonas/warwick/3dProfilometer/xpcc/src/xpcc/io/iostream_float.cpp **** 		*ptr++ = '-';
 483              		.loc 1 54 0
 484 010a 0DF10103 		add	r3, sp, #1
 485              	.LVL64:
 486 010e 86E7     		b	.L34
 487              	.LVL65:
 488              	.L61:
  89:/home/jonas/warwick/3dProfilometer/xpcc/src/xpcc/io/iostream_float.cpp **** 		ep = -ep;
 489              		.loc 1 89 0
 490 0110 6442     		negs	r4, r4
 491              	.LVL66:
  90:/home/jonas/warwick/3dProfilometer/xpcc/src/xpcc/io/iostream_float.cpp **** 		*ptr++ = '-';
 492              		.loc 1 90 0
 493 0112 9A1C     		adds	r2, r3, #2
 494              	.LVL67:
 495 0114 2D20     		movs	r0, #45
 496 0116 DEE7     		b	.L47
 497              	.L63:
 498              		.align	2
 499              	.L62:
 500 0118 00000000 		.word	__aeabi_d2f
 501 011c CDCCCC3D 		.word	1036831949
 502 0120 00000000 		.word	_ZN4xpcc8IOStream12writeIntegerEl
 503              	.LBE28:
 504              	.LBE29:
 505              		.cfi_endproc
 506              	.LFE72:
 508              		.text
 509              	.Letext0:
 510              		.file 2 "/opt/arm-2012.09/bin/../lib/gcc/arm-none-eabi/4.7.2/../../../../arm-none-eabi/include/std
 511              		.file 3 "/home/jonas/warwick/3dProfilometer/xpcc/src/xpcc/io/iostream.hpp"
 512              		.file 4 "/home/jonas/warwick/3dProfilometer/xpcc/src/xpcc/io/iodevice.hpp"
 513              		.file 5 "/home/jonas/warwick/3dProfilometer/xpcc/src/xpcc/utils/template_metaprogramming.hpp"