   1              		.syntax unified
   2              		.cpu cortex-m4
   3              		.eabi_attribute 27, 3
   4              		.fpu fpv4-sp-d16
   5              		.eabi_attribute 20, 1
   6              		.eabi_attribute 21, 1
   7              		.eabi_attribute 23, 3
   8              		.eabi_attribute 24, 1
   9              		.eabi_attribute 25, 1
  10              		.eabi_attribute 26, 1
  11              		.eabi_attribute 30, 2
  12              		.eabi_attribute 34, 1
  13              		.eabi_attribute 18, 4
  14              		.thumb
  15              		.file	"iostream_printf.cpp"
  16              		.text
  17              	.Ltext0:
  18              		.cfi_sections	.debug_frame
  19              		.section	.text._ZN4xpcc8IOStream6printfEPKcz,"ax",%progbits
  20              		.align	2
  21              		.global	_ZN4xpcc8IOStream6printfEPKcz
  22              		.thumb
  23              		.thumb_func
  25              	_ZN4xpcc8IOStream6printfEPKcz:
  26              	.LFB45:
  27              		.file 1 "/home/jonas/warwick/3dProfilometer/xpcc/src/xpcc/io/iostream_printf.cpp"
   1:/home/jonas/warwick/3dProfilometer/xpcc/src/xpcc/io/iostream_printf.cpp **** // coding: utf-8
   2:/home/jonas/warwick/3dProfilometer/xpcc/src/xpcc/io/iostream_printf.cpp **** // ----------------------------------------------------------------------------
   3:/home/jonas/warwick/3dProfilometer/xpcc/src/xpcc/io/iostream_printf.cpp **** /* Copyright (c) 2009, Roboterclub Aachen e.V.
   4:/home/jonas/warwick/3dProfilometer/xpcc/src/xpcc/io/iostream_printf.cpp ****  * All rights reserved.
   5:/home/jonas/warwick/3dProfilometer/xpcc/src/xpcc/io/iostream_printf.cpp ****  *
   6:/home/jonas/warwick/3dProfilometer/xpcc/src/xpcc/io/iostream_printf.cpp ****  * Redistribution and use in source and binary forms, with or without
   7:/home/jonas/warwick/3dProfilometer/xpcc/src/xpcc/io/iostream_printf.cpp ****  * modification, are permitted provided that the following conditions are met:
   8:/home/jonas/warwick/3dProfilometer/xpcc/src/xpcc/io/iostream_printf.cpp ****  * 
   9:/home/jonas/warwick/3dProfilometer/xpcc/src/xpcc/io/iostream_printf.cpp ****  *     * Redistributions of source code must retain the above copyright
  10:/home/jonas/warwick/3dProfilometer/xpcc/src/xpcc/io/iostream_printf.cpp ****  *       notice, this list of conditions and the following disclaimer.
  11:/home/jonas/warwick/3dProfilometer/xpcc/src/xpcc/io/iostream_printf.cpp ****  *     * Redistributions in binary form must reproduce the above copyright
  12:/home/jonas/warwick/3dProfilometer/xpcc/src/xpcc/io/iostream_printf.cpp ****  *       notice, this list of conditions and the following disclaimer in the
  13:/home/jonas/warwick/3dProfilometer/xpcc/src/xpcc/io/iostream_printf.cpp ****  *       documentation and/or other materials provided with the distribution.
  14:/home/jonas/warwick/3dProfilometer/xpcc/src/xpcc/io/iostream_printf.cpp ****  *     * Neither the name of the Roboterclub Aachen e.V. nor the
  15:/home/jonas/warwick/3dProfilometer/xpcc/src/xpcc/io/iostream_printf.cpp ****  *       names of its contributors may be used to endorse or promote products
  16:/home/jonas/warwick/3dProfilometer/xpcc/src/xpcc/io/iostream_printf.cpp ****  *       derived from this software without specific prior written permission.
  17:/home/jonas/warwick/3dProfilometer/xpcc/src/xpcc/io/iostream_printf.cpp ****  *
  18:/home/jonas/warwick/3dProfilometer/xpcc/src/xpcc/io/iostream_printf.cpp ****  * THIS SOFTWARE IS PROVIDED BY ROBOTERCLUB AACHEN E.V. ''AS IS'' AND ANY
  19:/home/jonas/warwick/3dProfilometer/xpcc/src/xpcc/io/iostream_printf.cpp ****  * EXPRESS OR IMPLIED WARRANTIES, INCLUDING, BUT NOT LIMITED TO, THE IMPLIED
  20:/home/jonas/warwick/3dProfilometer/xpcc/src/xpcc/io/iostream_printf.cpp ****  * WARRANTIES OF MERCHANTABILITY AND FITNESS FOR A PARTICULAR PURPOSE ARE
  21:/home/jonas/warwick/3dProfilometer/xpcc/src/xpcc/io/iostream_printf.cpp ****  * DISCLAIMED. IN NO EVENT SHALL ROBOTERCLUB AACHEN E.V. BE LIABLE FOR ANY
  22:/home/jonas/warwick/3dProfilometer/xpcc/src/xpcc/io/iostream_printf.cpp ****  * DIRECT, INDIRECT, INCIDENTAL, SPECIAL, EXEMPLARY, OR CONSEQUENTIAL DAMAGES
  23:/home/jonas/warwick/3dProfilometer/xpcc/src/xpcc/io/iostream_printf.cpp ****  * (INCLUDING, BUT NOT LIMITED TO, PROCUREMENT OF SUBSTITUTE GOODS OR SERVICES;
  24:/home/jonas/warwick/3dProfilometer/xpcc/src/xpcc/io/iostream_printf.cpp ****  * LOSS OF USE, DATA, OR PROFITS; OR BUSINESS INTERRUPTION) HOWEVER CAUSED AND
  25:/home/jonas/warwick/3dProfilometer/xpcc/src/xpcc/io/iostream_printf.cpp ****  * ON ANY THEORY OF LIABILITY, WHETHER IN CONTRACT, STRICT LIABILITY, OR TORT
  26:/home/jonas/warwick/3dProfilometer/xpcc/src/xpcc/io/iostream_printf.cpp ****  * (INCLUDING NEGLIGENCE OR OTHERWISE) ARISING IN ANY WAY OUT OF THE USE OF
  27:/home/jonas/warwick/3dProfilometer/xpcc/src/xpcc/io/iostream_printf.cpp ****  * THIS SOFTWARE, EVEN IF ADVISED OF THE POSSIBILITY OF SUCH DAMAGE.
  28:/home/jonas/warwick/3dProfilometer/xpcc/src/xpcc/io/iostream_printf.cpp ****  */
  29:/home/jonas/warwick/3dProfilometer/xpcc/src/xpcc/io/iostream_printf.cpp **** // ----------------------------------------------------------------------------
  30:/home/jonas/warwick/3dProfilometer/xpcc/src/xpcc/io/iostream_printf.cpp **** 
  31:/home/jonas/warwick/3dProfilometer/xpcc/src/xpcc/io/iostream_printf.cpp **** #include <stdarg.h>
  32:/home/jonas/warwick/3dProfilometer/xpcc/src/xpcc/io/iostream_printf.cpp **** #include <stdio.h>		// snprintf()
  33:/home/jonas/warwick/3dProfilometer/xpcc/src/xpcc/io/iostream_printf.cpp **** #include <stdlib.h>
  34:/home/jonas/warwick/3dProfilometer/xpcc/src/xpcc/io/iostream_printf.cpp **** 
  35:/home/jonas/warwick/3dProfilometer/xpcc/src/xpcc/io/iostream_printf.cpp **** #include "iostream.hpp"
  36:/home/jonas/warwick/3dProfilometer/xpcc/src/xpcc/io/iostream_printf.cpp **** 
  37:/home/jonas/warwick/3dProfilometer/xpcc/src/xpcc/io/iostream_printf.cpp **** xpcc::IOStream&
  38:/home/jonas/warwick/3dProfilometer/xpcc/src/xpcc/io/iostream_printf.cpp **** xpcc::IOStream::printf(const char *fmt, ...)
  39:/home/jonas/warwick/3dProfilometer/xpcc/src/xpcc/io/iostream_printf.cpp **** {
  28              		.loc 1 39 0
  29              		.cfi_startproc
  30              		@ args = 4, pretend = 12, frame = 32
  31              		@ frame_needed = 0, uses_anonymous_args = 1
  32              	.LVL0:
  33 0000 0EB4     		push	{r1, r2, r3}
  34              	.LCFI0:
  35              		.cfi_def_cfa_offset 12
  36              		.cfi_offset 1, -12
  37              		.cfi_offset 2, -8
  38              		.cfi_offset 3, -4
  39 0002 2DE9F047 		push	{r4, r5, r6, r7, r8, r9, sl, lr}
  40              	.LCFI1:
  41              		.cfi_def_cfa_offset 44
  42              		.cfi_offset 4, -44
  43              		.cfi_offset 5, -40
  44              		.cfi_offset 6, -36
  45              		.cfi_offset 7, -32
  46              		.cfi_offset 8, -28
  47              		.cfi_offset 9, -24
  48              		.cfi_offset 10, -20
  49              		.cfi_offset 14, -16
  50 0006 89B0     		sub	sp, sp, #36
  51              	.LCFI2:
  52              		.cfi_def_cfa_offset 80
  53              		.loc 1 39 0
  54 0008 11AB     		add	r3, sp, #68
  55 000a 0746     		mov	r7, r0
  56 000c 53F8046B 		ldr	r6, [r3], #4
  57              	.LBB5:
  40:/home/jonas/warwick/3dProfilometer/xpcc/src/xpcc/io/iostream_printf.cpp **** 	va_list ap;
  41:/home/jonas/warwick/3dProfilometer/xpcc/src/xpcc/io/iostream_printf.cpp **** 	va_start(ap, fmt);
  58              		.loc 1 41 0
  59 0010 0093     		str	r3, [sp, #0]
  60              	.LVL1:
  61              	.L54:
  42:/home/jonas/warwick/3dProfilometer/xpcc/src/xpcc/io/iostream_printf.cpp **** 	
  43:/home/jonas/warwick/3dProfilometer/xpcc/src/xpcc/io/iostream_printf.cpp **** 	unsigned char c;
  44:/home/jonas/warwick/3dProfilometer/xpcc/src/xpcc/io/iostream_printf.cpp **** 	
  45:/home/jonas/warwick/3dProfilometer/xpcc/src/xpcc/io/iostream_printf.cpp **** 	// for all chars in format (fmt)
  46:/home/jonas/warwick/3dProfilometer/xpcc/src/xpcc/io/iostream_printf.cpp **** 	while ((c = *fmt++) != 0)
  62              		.loc 1 46 0 discriminator 1
  63 0012 3178     		ldrb	r1, [r6, #0]	@ zero_extendqisi2
  64              	.LVL2:
  65 0014 49B1     		cbz	r1, .L57
  66              	.LVL3:
  67              	.L30:
  68              	.LBB6:
  47:/home/jonas/warwick/3dProfilometer/xpcc/src/xpcc/io/iostream_printf.cpp **** 	{
  48:/home/jonas/warwick/3dProfilometer/xpcc/src/xpcc/io/iostream_printf.cpp **** 		bool isSigned = 0;
  49:/home/jonas/warwick/3dProfilometer/xpcc/src/xpcc/io/iostream_printf.cpp **** 		bool isLong = 0;
  50:/home/jonas/warwick/3dProfilometer/xpcc/src/xpcc/io/iostream_printf.cpp **** 		bool isLongLong = 0;
  51:/home/jonas/warwick/3dProfilometer/xpcc/src/xpcc/io/iostream_printf.cpp **** 		
  52:/home/jonas/warwick/3dProfilometer/xpcc/src/xpcc/io/iostream_printf.cpp **** 		if (c != '%')
  69              		.loc 1 52 0
  70 0016 2529     		cmp	r1, #37
  71 0018 0DD0     		beq	.L3
  53:/home/jonas/warwick/3dProfilometer/xpcc/src/xpcc/io/iostream_printf.cpp **** 		{
  54:/home/jonas/warwick/3dProfilometer/xpcc/src/xpcc/io/iostream_printf.cpp **** 			this->device->write(c);
  72              		.loc 1 54 0
  73 001a 3868     		ldr	r0, [r7, #0]
  74 001c 0368     		ldr	r3, [r0, #0]
  75              	.LBE6:
  46:/home/jonas/warwick/3dProfilometer/xpcc/src/xpcc/io/iostream_printf.cpp **** 	while ((c = *fmt++) != 0)
  76              		.loc 1 46 0
  77 001e 0136     		adds	r6, r6, #1
  78              	.LBB17:
  79              		.loc 1 54 0
  80 0020 9B68     		ldr	r3, [r3, #8]
  81 0022 9847     		blx	r3
  82              	.LVL4:
  83              	.LBE17:
  46:/home/jonas/warwick/3dProfilometer/xpcc/src/xpcc/io/iostream_printf.cpp **** 	while ((c = *fmt++) != 0)
  84              		.loc 1 46 0
  85 0024 3178     		ldrb	r1, [r6, #0]	@ zero_extendqisi2
  86              	.LVL5:
  87 0026 0029     		cmp	r1, #0
  88 0028 F5D1     		bne	.L30
  89              	.LVL6:
  90              	.L57:
  91              	.LBE5:
  55:/home/jonas/warwick/3dProfilometer/xpcc/src/xpcc/io/iostream_printf.cpp **** 			continue;
  56:/home/jonas/warwick/3dProfilometer/xpcc/src/xpcc/io/iostream_printf.cpp **** 		}
  57:/home/jonas/warwick/3dProfilometer/xpcc/src/xpcc/io/iostream_printf.cpp **** 		c = *fmt++;
  58:/home/jonas/warwick/3dProfilometer/xpcc/src/xpcc/io/iostream_printf.cpp **** 		
  59:/home/jonas/warwick/3dProfilometer/xpcc/src/xpcc/io/iostream_printf.cpp **** 		size_t width = 0;
  60:/home/jonas/warwick/3dProfilometer/xpcc/src/xpcc/io/iostream_printf.cpp **** 		char fill = ' ';
  61:/home/jonas/warwick/3dProfilometer/xpcc/src/xpcc/io/iostream_printf.cpp **** 		if (c == '0')
  62:/home/jonas/warwick/3dProfilometer/xpcc/src/xpcc/io/iostream_printf.cpp **** 		{
  63:/home/jonas/warwick/3dProfilometer/xpcc/src/xpcc/io/iostream_printf.cpp **** 			fill = c;
  64:/home/jonas/warwick/3dProfilometer/xpcc/src/xpcc/io/iostream_printf.cpp **** 			c = *fmt++;
  65:/home/jonas/warwick/3dProfilometer/xpcc/src/xpcc/io/iostream_printf.cpp **** 		}
  66:/home/jonas/warwick/3dProfilometer/xpcc/src/xpcc/io/iostream_printf.cpp **** 		if (c >= '0' && c <= '9')
  67:/home/jonas/warwick/3dProfilometer/xpcc/src/xpcc/io/iostream_printf.cpp **** 		{
  68:/home/jonas/warwick/3dProfilometer/xpcc/src/xpcc/io/iostream_printf.cpp **** 			width = c - '0';
  69:/home/jonas/warwick/3dProfilometer/xpcc/src/xpcc/io/iostream_printf.cpp **** 			c = *fmt++;
  70:/home/jonas/warwick/3dProfilometer/xpcc/src/xpcc/io/iostream_printf.cpp **** 		}
  71:/home/jonas/warwick/3dProfilometer/xpcc/src/xpcc/io/iostream_printf.cpp **** 
  72:/home/jonas/warwick/3dProfilometer/xpcc/src/xpcc/io/iostream_printf.cpp **** 		if (c == 'l')
  73:/home/jonas/warwick/3dProfilometer/xpcc/src/xpcc/io/iostream_printf.cpp **** 		{
  74:/home/jonas/warwick/3dProfilometer/xpcc/src/xpcc/io/iostream_printf.cpp **** 			isLong = true;
  75:/home/jonas/warwick/3dProfilometer/xpcc/src/xpcc/io/iostream_printf.cpp **** 			c = *fmt++;
  76:/home/jonas/warwick/3dProfilometer/xpcc/src/xpcc/io/iostream_printf.cpp **** 		}
  77:/home/jonas/warwick/3dProfilometer/xpcc/src/xpcc/io/iostream_printf.cpp **** 		if (c == 'l')
  78:/home/jonas/warwick/3dProfilometer/xpcc/src/xpcc/io/iostream_printf.cpp **** 		{
  79:/home/jonas/warwick/3dProfilometer/xpcc/src/xpcc/io/iostream_printf.cpp **** 			isLongLong = true;
  80:/home/jonas/warwick/3dProfilometer/xpcc/src/xpcc/io/iostream_printf.cpp **** 			c = *fmt++;
  81:/home/jonas/warwick/3dProfilometer/xpcc/src/xpcc/io/iostream_printf.cpp **** 		}
  82:/home/jonas/warwick/3dProfilometer/xpcc/src/xpcc/io/iostream_printf.cpp **** 		
  83:/home/jonas/warwick/3dProfilometer/xpcc/src/xpcc/io/iostream_printf.cpp **** 		uint_fast8_t base = 10;
  84:/home/jonas/warwick/3dProfilometer/xpcc/src/xpcc/io/iostream_printf.cpp **** 		char *ptr;
  85:/home/jonas/warwick/3dProfilometer/xpcc/src/xpcc/io/iostream_printf.cpp **** 		switch (c)
  86:/home/jonas/warwick/3dProfilometer/xpcc/src/xpcc/io/iostream_printf.cpp **** 		{
  87:/home/jonas/warwick/3dProfilometer/xpcc/src/xpcc/io/iostream_printf.cpp **** 			case 'c':
  88:/home/jonas/warwick/3dProfilometer/xpcc/src/xpcc/io/iostream_printf.cpp **** 				c = va_arg(ap, int); // char promoted to int
  89:/home/jonas/warwick/3dProfilometer/xpcc/src/xpcc/io/iostream_printf.cpp **** 				/* no break */
  90:/home/jonas/warwick/3dProfilometer/xpcc/src/xpcc/io/iostream_printf.cpp **** 
  91:/home/jonas/warwick/3dProfilometer/xpcc/src/xpcc/io/iostream_printf.cpp **** 			default:
  92:/home/jonas/warwick/3dProfilometer/xpcc/src/xpcc/io/iostream_printf.cpp **** 				this->device->write(c);
  93:/home/jonas/warwick/3dProfilometer/xpcc/src/xpcc/io/iostream_printf.cpp **** 				continue;
  94:/home/jonas/warwick/3dProfilometer/xpcc/src/xpcc/io/iostream_printf.cpp **** 				
  95:/home/jonas/warwick/3dProfilometer/xpcc/src/xpcc/io/iostream_printf.cpp **** 			case 's':
  96:/home/jonas/warwick/3dProfilometer/xpcc/src/xpcc/io/iostream_printf.cpp **** 				ptr = (char *) va_arg(ap, char *);
  97:/home/jonas/warwick/3dProfilometer/xpcc/src/xpcc/io/iostream_printf.cpp **** 				while ((c = *ptr++))
  98:/home/jonas/warwick/3dProfilometer/xpcc/src/xpcc/io/iostream_printf.cpp **** 				{
  99:/home/jonas/warwick/3dProfilometer/xpcc/src/xpcc/io/iostream_printf.cpp **** 					this->device->write(c);
 100:/home/jonas/warwick/3dProfilometer/xpcc/src/xpcc/io/iostream_printf.cpp **** 				}
 101:/home/jonas/warwick/3dProfilometer/xpcc/src/xpcc/io/iostream_printf.cpp **** 				continue;
 102:/home/jonas/warwick/3dProfilometer/xpcc/src/xpcc/io/iostream_printf.cpp **** 				
 103:/home/jonas/warwick/3dProfilometer/xpcc/src/xpcc/io/iostream_printf.cpp **** 			case 'd':
 104:/home/jonas/warwick/3dProfilometer/xpcc/src/xpcc/io/iostream_printf.cpp **** 				isSigned = true;
 105:/home/jonas/warwick/3dProfilometer/xpcc/src/xpcc/io/iostream_printf.cpp **** 				/* no break */
 106:/home/jonas/warwick/3dProfilometer/xpcc/src/xpcc/io/iostream_printf.cpp **** 
 107:/home/jonas/warwick/3dProfilometer/xpcc/src/xpcc/io/iostream_printf.cpp **** 			case 'u':
 108:/home/jonas/warwick/3dProfilometer/xpcc/src/xpcc/io/iostream_printf.cpp **** 				base = 10;
 109:/home/jonas/warwick/3dProfilometer/xpcc/src/xpcc/io/iostream_printf.cpp **** 				break;
 110:/home/jonas/warwick/3dProfilometer/xpcc/src/xpcc/io/iostream_printf.cpp **** 				
 111:/home/jonas/warwick/3dProfilometer/xpcc/src/xpcc/io/iostream_printf.cpp **** 			case 'x':
 112:/home/jonas/warwick/3dProfilometer/xpcc/src/xpcc/io/iostream_printf.cpp **** 				base = 16;
 113:/home/jonas/warwick/3dProfilometer/xpcc/src/xpcc/io/iostream_printf.cpp **** 				break;
 114:/home/jonas/warwick/3dProfilometer/xpcc/src/xpcc/io/iostream_printf.cpp **** 				
 115:/home/jonas/warwick/3dProfilometer/xpcc/src/xpcc/io/iostream_printf.cpp **** 			case 'b':
 116:/home/jonas/warwick/3dProfilometer/xpcc/src/xpcc/io/iostream_printf.cpp **** 				base = 2;
 117:/home/jonas/warwick/3dProfilometer/xpcc/src/xpcc/io/iostream_printf.cpp **** 				break;
 118:/home/jonas/warwick/3dProfilometer/xpcc/src/xpcc/io/iostream_printf.cpp **** 		}
 119:/home/jonas/warwick/3dProfilometer/xpcc/src/xpcc/io/iostream_printf.cpp **** 		
 120:/home/jonas/warwick/3dProfilometer/xpcc/src/xpcc/io/iostream_printf.cpp **** 		
 121:/home/jonas/warwick/3dProfilometer/xpcc/src/xpcc/io/iostream_printf.cpp **** 		// Number output
 122:/home/jonas/warwick/3dProfilometer/xpcc/src/xpcc/io/iostream_printf.cpp **** 		{
 123:/home/jonas/warwick/3dProfilometer/xpcc/src/xpcc/io/iostream_printf.cpp **** 			unsigned long unsignedValue;
 124:/home/jonas/warwick/3dProfilometer/xpcc/src/xpcc/io/iostream_printf.cpp **** 			
 125:/home/jonas/warwick/3dProfilometer/xpcc/src/xpcc/io/iostream_printf.cpp **** 			{
 126:/home/jonas/warwick/3dProfilometer/xpcc/src/xpcc/io/iostream_printf.cpp **** 				long signedValue = 0;
 127:/home/jonas/warwick/3dProfilometer/xpcc/src/xpcc/io/iostream_printf.cpp **** 				
 128:/home/jonas/warwick/3dProfilometer/xpcc/src/xpcc/io/iostream_printf.cpp **** 				if (isLongLong) {
 129:/home/jonas/warwick/3dProfilometer/xpcc/src/xpcc/io/iostream_printf.cpp **** 					signedValue = va_arg(ap, long long);
 130:/home/jonas/warwick/3dProfilometer/xpcc/src/xpcc/io/iostream_printf.cpp **** 				}
 131:/home/jonas/warwick/3dProfilometer/xpcc/src/xpcc/io/iostream_printf.cpp **** 				else if (isLong) {
 132:/home/jonas/warwick/3dProfilometer/xpcc/src/xpcc/io/iostream_printf.cpp **** 					signedValue = va_arg(ap, long);
 133:/home/jonas/warwick/3dProfilometer/xpcc/src/xpcc/io/iostream_printf.cpp **** 				}
 134:/home/jonas/warwick/3dProfilometer/xpcc/src/xpcc/io/iostream_printf.cpp **** 				else {
 135:/home/jonas/warwick/3dProfilometer/xpcc/src/xpcc/io/iostream_printf.cpp **** 					signedValue = va_arg(ap, int);
 136:/home/jonas/warwick/3dProfilometer/xpcc/src/xpcc/io/iostream_printf.cpp **** 				}
 137:/home/jonas/warwick/3dProfilometer/xpcc/src/xpcc/io/iostream_printf.cpp **** 
 138:/home/jonas/warwick/3dProfilometer/xpcc/src/xpcc/io/iostream_printf.cpp **** 				if (isSigned)
 139:/home/jonas/warwick/3dProfilometer/xpcc/src/xpcc/io/iostream_printf.cpp **** 				{
 140:/home/jonas/warwick/3dProfilometer/xpcc/src/xpcc/io/iostream_printf.cpp **** 					if (signedValue < 0)
 141:/home/jonas/warwick/3dProfilometer/xpcc/src/xpcc/io/iostream_printf.cpp **** 					{
 142:/home/jonas/warwick/3dProfilometer/xpcc/src/xpcc/io/iostream_printf.cpp **** 						signedValue = -signedValue; // make it positiv
 143:/home/jonas/warwick/3dProfilometer/xpcc/src/xpcc/io/iostream_printf.cpp **** 						this->device->write('-');
 144:/home/jonas/warwick/3dProfilometer/xpcc/src/xpcc/io/iostream_printf.cpp **** 						if (width) {
 145:/home/jonas/warwick/3dProfilometer/xpcc/src/xpcc/io/iostream_printf.cpp **** 							--width;
 146:/home/jonas/warwick/3dProfilometer/xpcc/src/xpcc/io/iostream_printf.cpp **** 						}
 147:/home/jonas/warwick/3dProfilometer/xpcc/src/xpcc/io/iostream_printf.cpp **** 					}
 148:/home/jonas/warwick/3dProfilometer/xpcc/src/xpcc/io/iostream_printf.cpp **** 				}
 149:/home/jonas/warwick/3dProfilometer/xpcc/src/xpcc/io/iostream_printf.cpp **** 				unsignedValue = (unsigned long) signedValue;
 150:/home/jonas/warwick/3dProfilometer/xpcc/src/xpcc/io/iostream_printf.cpp **** 			}
 151:/home/jonas/warwick/3dProfilometer/xpcc/src/xpcc/io/iostream_printf.cpp **** 			
 152:/home/jonas/warwick/3dProfilometer/xpcc/src/xpcc/io/iostream_printf.cpp **** 			{
 153:/home/jonas/warwick/3dProfilometer/xpcc/src/xpcc/io/iostream_printf.cpp **** 				char scratch[26];
 154:/home/jonas/warwick/3dProfilometer/xpcc/src/xpcc/io/iostream_printf.cpp **** 				
 155:/home/jonas/warwick/3dProfilometer/xpcc/src/xpcc/io/iostream_printf.cpp **** 				ptr = scratch + sizeof(scratch);
 156:/home/jonas/warwick/3dProfilometer/xpcc/src/xpcc/io/iostream_printf.cpp **** 				*--ptr = 0;
 157:/home/jonas/warwick/3dProfilometer/xpcc/src/xpcc/io/iostream_printf.cpp **** 				do
 158:/home/jonas/warwick/3dProfilometer/xpcc/src/xpcc/io/iostream_printf.cpp **** 				{
 159:/home/jonas/warwick/3dProfilometer/xpcc/src/xpcc/io/iostream_printf.cpp **** 					char ch = (unsignedValue % base) + '0';
 160:/home/jonas/warwick/3dProfilometer/xpcc/src/xpcc/io/iostream_printf.cpp **** 					
 161:/home/jonas/warwick/3dProfilometer/xpcc/src/xpcc/io/iostream_printf.cpp **** 					if (ch > '9') {
 162:/home/jonas/warwick/3dProfilometer/xpcc/src/xpcc/io/iostream_printf.cpp **** 						ch += 'A' - '9' - 1;
 163:/home/jonas/warwick/3dProfilometer/xpcc/src/xpcc/io/iostream_printf.cpp **** 					}
 164:/home/jonas/warwick/3dProfilometer/xpcc/src/xpcc/io/iostream_printf.cpp **** 					
 165:/home/jonas/warwick/3dProfilometer/xpcc/src/xpcc/io/iostream_printf.cpp **** 					*--ptr = ch;
 166:/home/jonas/warwick/3dProfilometer/xpcc/src/xpcc/io/iostream_printf.cpp **** 					unsignedValue /= base;
 167:/home/jonas/warwick/3dProfilometer/xpcc/src/xpcc/io/iostream_printf.cpp **** 					
 168:/home/jonas/warwick/3dProfilometer/xpcc/src/xpcc/io/iostream_printf.cpp **** 					if (width) {
 169:/home/jonas/warwick/3dProfilometer/xpcc/src/xpcc/io/iostream_printf.cpp **** 						--width;
 170:/home/jonas/warwick/3dProfilometer/xpcc/src/xpcc/io/iostream_printf.cpp **** 					}
 171:/home/jonas/warwick/3dProfilometer/xpcc/src/xpcc/io/iostream_printf.cpp **** 				} while (unsignedValue);
 172:/home/jonas/warwick/3dProfilometer/xpcc/src/xpcc/io/iostream_printf.cpp **** 				
 173:/home/jonas/warwick/3dProfilometer/xpcc/src/xpcc/io/iostream_printf.cpp **** 				// insert padding chars
 174:/home/jonas/warwick/3dProfilometer/xpcc/src/xpcc/io/iostream_printf.cpp **** 				while (width--) {
 175:/home/jonas/warwick/3dProfilometer/xpcc/src/xpcc/io/iostream_printf.cpp **** 					*--ptr = fill;
 176:/home/jonas/warwick/3dProfilometer/xpcc/src/xpcc/io/iostream_printf.cpp **** 				}
 177:/home/jonas/warwick/3dProfilometer/xpcc/src/xpcc/io/iostream_printf.cpp **** 				
 178:/home/jonas/warwick/3dProfilometer/xpcc/src/xpcc/io/iostream_printf.cpp **** 				// output result
 179:/home/jonas/warwick/3dProfilometer/xpcc/src/xpcc/io/iostream_printf.cpp **** 				while ((c = *ptr++)) {
 180:/home/jonas/warwick/3dProfilometer/xpcc/src/xpcc/io/iostream_printf.cpp **** 					this->device->write(c);
 181:/home/jonas/warwick/3dProfilometer/xpcc/src/xpcc/io/iostream_printf.cpp **** 				}
 182:/home/jonas/warwick/3dProfilometer/xpcc/src/xpcc/io/iostream_printf.cpp **** 			}
 183:/home/jonas/warwick/3dProfilometer/xpcc/src/xpcc/io/iostream_printf.cpp **** 		}
 184:/home/jonas/warwick/3dProfilometer/xpcc/src/xpcc/io/iostream_printf.cpp **** 	}
 185:/home/jonas/warwick/3dProfilometer/xpcc/src/xpcc/io/iostream_printf.cpp **** 	
 186:/home/jonas/warwick/3dProfilometer/xpcc/src/xpcc/io/iostream_printf.cpp **** 	va_end(ap);
 187:/home/jonas/warwick/3dProfilometer/xpcc/src/xpcc/io/iostream_printf.cpp **** 	return *this;
 188:/home/jonas/warwick/3dProfilometer/xpcc/src/xpcc/io/iostream_printf.cpp **** }
  92              		.loc 1 188 0
  93 002a 3846     		mov	r0, r7
  94 002c 09B0     		add	sp, sp, #36
  95 002e BDE8F047 		pop	{r4, r5, r6, r7, r8, r9, sl, lr}
  96 0032 03B0     		add	sp, sp, #12
  97 0034 7047     		bx	lr
  98              	.LVL7:
  99              	.L3:
 100              	.LBB19:
 101              	.LBB18:
  57:/home/jonas/warwick/3dProfilometer/xpcc/src/xpcc/io/iostream_printf.cpp **** 		c = *fmt++;
 102              		.loc 1 57 0
 103 0036 7178     		ldrb	r1, [r6, #1]	@ zero_extendqisi2
 104              	.LVL8:
  61:/home/jonas/warwick/3dProfilometer/xpcc/src/xpcc/io/iostream_printf.cpp **** 		if (c == '0')
 105              		.loc 1 61 0
 106 0038 3029     		cmp	r1, #48
 107 003a 00F09C80 		beq	.L5
  57:/home/jonas/warwick/3dProfilometer/xpcc/src/xpcc/io/iostream_printf.cpp **** 		c = *fmt++;
 108              		.loc 1 57 0
 109 003e 0236     		adds	r6, r6, #2
 110              	.LVL9:
  60:/home/jonas/warwick/3dProfilometer/xpcc/src/xpcc/io/iostream_printf.cpp **** 		char fill = ' ';
 111              		.loc 1 60 0
 112 0040 4FF02009 		mov	r9, #32
 113              	.LVL10:
 114              	.L6:
  66:/home/jonas/warwick/3dProfilometer/xpcc/src/xpcc/io/iostream_printf.cpp **** 		if (c >= '0' && c <= '9')
 115              		.loc 1 66 0
 116 0044 A1F13008 		sub	r8, r1, #48
 117 0048 5FFA88F3 		uxtb	r3, r8
 118 004c 092B     		cmp	r3, #9
 119              	.LVL11:
  69:/home/jonas/warwick/3dProfilometer/xpcc/src/xpcc/io/iostream_printf.cpp **** 			c = *fmt++;
 120              		.loc 1 69 0
 121 004e 94BF     		ite	ls
 122 0050 16F8011B 		ldrbls	r1, [r6], #1	@ zero_extendqisi2
 123              	.LVL12:
  59:/home/jonas/warwick/3dProfilometer/xpcc/src/xpcc/io/iostream_printf.cpp **** 		size_t width = 0;
 124              		.loc 1 59 0
 125 0054 4FF00008 		movhi	r8, #0
 126              	.LVL13:
  72:/home/jonas/warwick/3dProfilometer/xpcc/src/xpcc/io/iostream_printf.cpp **** 		if (c == 'l')
 127              		.loc 1 72 0
 128 0058 6C29     		cmp	r1, #108
 129 005a 00F08480 		beq	.L58
  49:/home/jonas/warwick/3dProfilometer/xpcc/src/xpcc/io/iostream_printf.cpp **** 		bool isLong = 0;
 130              		.loc 1 49 0
 131 005e 0022     		movs	r2, #0
  50:/home/jonas/warwick/3dProfilometer/xpcc/src/xpcc/io/iostream_printf.cpp **** 		bool isLongLong = 0;
 132              		.loc 1 50 0
 133 0060 1046     		mov	r0, r2
 134              	.LVL14:
 135              	.L8:
  85:/home/jonas/warwick/3dProfilometer/xpcc/src/xpcc/io/iostream_printf.cpp **** 		switch (c)
 136              		.loc 1 85 0
 137 0062 A1F16203 		sub	r3, r1, #98
 138 0066 162B     		cmp	r3, #22
 139 0068 11D8     		bhi	.L10
 140 006a DFE803F0 		tbb	[pc, r3]
 141              	.L17:
 142 006e 78       		.byte	(.L11-.L17)/2
 143 006f 0C       		.byte	(.L12-.L17)/2
 144 0070 74       		.byte	(.L13-.L17)/2
 145 0071 10       		.byte	(.L10-.L17)/2
 146 0072 10       		.byte	(.L10-.L17)/2
 147 0073 10       		.byte	(.L10-.L17)/2
 148 0074 10       		.byte	(.L10-.L17)/2
 149 0075 10       		.byte	(.L10-.L17)/2
 150 0076 10       		.byte	(.L10-.L17)/2
 151 0077 10       		.byte	(.L10-.L17)/2
 152 0078 10       		.byte	(.L10-.L17)/2
 153 0079 10       		.byte	(.L10-.L17)/2
 154 007a 10       		.byte	(.L10-.L17)/2
 155 007b 10       		.byte	(.L10-.L17)/2
 156 007c 10       		.byte	(.L10-.L17)/2
 157 007d 10       		.byte	(.L10-.L17)/2
 158 007e 10       		.byte	(.L10-.L17)/2
 159 007f 62       		.byte	(.L14-.L17)/2
 160 0080 10       		.byte	(.L10-.L17)/2
 161 0081 57       		.byte	(.L33-.L17)/2
 162 0082 10       		.byte	(.L10-.L17)/2
 163 0083 10       		.byte	(.L10-.L17)/2
 164 0084 15       		.byte	(.L16-.L17)/2
 165 0085 00       		.align	1
 166              	.L12:
  88:/home/jonas/warwick/3dProfilometer/xpcc/src/xpcc/io/iostream_printf.cpp **** 				c = va_arg(ap, int); // char promoted to int
 167              		.loc 1 88 0
 168 0086 009B     		ldr	r3, [sp, #0]
 169 0088 1A1D     		adds	r2, r3, #4
 170 008a 1978     		ldrb	r1, [r3, #0]	@ zero_extendqisi2
 171              	.LVL15:
 172 008c 0092     		str	r2, [sp, #0]
 173              	.LVL16:
 174              	.L10:
  92:/home/jonas/warwick/3dProfilometer/xpcc/src/xpcc/io/iostream_printf.cpp **** 				this->device->write(c);
 175              		.loc 1 92 0
 176 008e 3868     		ldr	r0, [r7, #0]
 177              	.LVL17:
 178 0090 0368     		ldr	r3, [r0, #0]
 179 0092 9B68     		ldr	r3, [r3, #8]
 180 0094 9847     		blx	r3
 181              	.LVL18:
  93:/home/jonas/warwick/3dProfilometer/xpcc/src/xpcc/io/iostream_printf.cpp **** 				continue;
 182              		.loc 1 93 0
 183 0096 BCE7     		b	.L54
 184              	.LVL19:
 185              	.L16:
 112:/home/jonas/warwick/3dProfilometer/xpcc/src/xpcc/io/iostream_printf.cpp **** 				base = 16;
 186              		.loc 1 112 0
 187 0098 4FF0100A 		mov	sl, #16
  48:/home/jonas/warwick/3dProfilometer/xpcc/src/xpcc/io/iostream_printf.cpp **** 		bool isSigned = 0;
 188              		.loc 1 48 0
 189 009c 0023     		movs	r3, #0
 190              	.LVL20:
 191              	.L15:
 192              	.LBB7:
 193              	.LBB8:
 128:/home/jonas/warwick/3dProfilometer/xpcc/src/xpcc/io/iostream_printf.cpp **** 				if (isLongLong) {
 194              		.loc 1 128 0
 195 009e 0028     		cmp	r0, #0
 196 00a0 41D0     		beq	.L19
 197              	.LVL21:
 198              	.L61:
 129:/home/jonas/warwick/3dProfilometer/xpcc/src/xpcc/io/iostream_printf.cpp **** 					signedValue = va_arg(ap, long long);
 199              		.loc 1 129 0
 200 00a2 009A     		ldr	r2, [sp, #0]
 201 00a4 0732     		adds	r2, r2, #7
 202 00a6 22F00702 		bic	r2, r2, #7
 203 00aa 02F10801 		add	r1, r2, #8
 204              	.LVL22:
 205 00ae 0091     		str	r1, [sp, #0]
 206 00b0 1568     		ldr	r5, [r2, #0]
 207              	.LVL23:
 208              	.L20:
 138:/home/jonas/warwick/3dProfilometer/xpcc/src/xpcc/io/iostream_printf.cpp **** 				if (isSigned)
 209              		.loc 1 138 0
 210 00b2 0BB1     		cbz	r3, .L22
 140:/home/jonas/warwick/3dProfilometer/xpcc/src/xpcc/io/iostream_printf.cpp **** 					if (signedValue < 0)
 211              		.loc 1 140 0
 212 00b4 002D     		cmp	r5, #0
 213 00b6 6ADB     		blt	.L59
 214              	.LVL24:
 215              	.L22:
 216              	.LBE8:
 217              	.LBB9:
 156:/home/jonas/warwick/3dProfilometer/xpcc/src/xpcc/io/iostream_printf.cpp **** 				*--ptr = 0;
 218              		.loc 1 156 0
 219 00b8 08AB     		add	r3, sp, #32
 220 00ba 0022     		movs	r2, #0
 221 00bc 03F8032D 		strb	r2, [r3, #-3]!
 222              	.LVL25:
 223              	.L25:
 224              	.LBB10:
 159:/home/jonas/warwick/3dProfilometer/xpcc/src/xpcc/io/iostream_printf.cpp **** 					char ch = (unsignedValue % base) + '0';
 225              		.loc 1 159 0
 226 00c0 B5FBFAF2 		udiv	r2, r5, sl
 227 00c4 0AFB1255 		mls	r5, sl, r2, r5
 228              	.LVL26:
 229 00c8 EDB2     		uxtb	r5, r5
 230 00ca 05F13004 		add	r4, r5, #48
 231 00ce E4B2     		uxtb	r4, r4
 232              	.LVL27:
 161:/home/jonas/warwick/3dProfilometer/xpcc/src/xpcc/io/iostream_printf.cpp **** 					if (ch > '9') {
 233              		.loc 1 161 0
 234 00d0 392C     		cmp	r4, #57
 162:/home/jonas/warwick/3dProfilometer/xpcc/src/xpcc/io/iostream_printf.cpp **** 						ch += 'A' - '9' - 1;
 235              		.loc 1 162 0
 236 00d2 84BF     		itt	hi
 237 00d4 05F13704 		addhi	r4, r5, #55
 238              	.LVL28:
 239 00d8 E4B2     		uxtbhi	r4, r4
 240              	.LVL29:
 165:/home/jonas/warwick/3dProfilometer/xpcc/src/xpcc/io/iostream_printf.cpp **** 					*--ptr = ch;
 241              		.loc 1 165 0
 242 00da 03F8014D 		strb	r4, [r3, #-1]!
 243              	.LVL30:
 166:/home/jonas/warwick/3dProfilometer/xpcc/src/xpcc/io/iostream_printf.cpp **** 					unsignedValue /= base;
 244              		.loc 1 166 0
 245 00de 1546     		mov	r5, r2
 246              	.LVL31:
 168:/home/jonas/warwick/3dProfilometer/xpcc/src/xpcc/io/iostream_printf.cpp **** 					if (width) {
 247              		.loc 1 168 0
 248 00e0 B8F1000F 		cmp	r8, #0
 249 00e4 01D0     		beq	.L24
 169:/home/jonas/warwick/3dProfilometer/xpcc/src/xpcc/io/iostream_printf.cpp **** 						--width;
 250              		.loc 1 169 0
 251 00e6 08F1FF38 		add	r8, r8, #-1
 252              	.LVL32:
 253              	.L24:
 254              	.LBE10:
 157:/home/jonas/warwick/3dProfilometer/xpcc/src/xpcc/io/iostream_printf.cpp **** 				do
 255              		.loc 1 157 0
 256 00ea 002A     		cmp	r2, #0
 257 00ec E8D1     		bne	.L25
 258              	.LVL33:
 174:/home/jonas/warwick/3dProfilometer/xpcc/src/xpcc/io/iostream_printf.cpp **** 				while (width--) {
 259              		.loc 1 174 0 discriminator 1
 260 00ee 08F1FF32 		add	r2, r8, #-1
 261              	.LVL34:
 262 00f2 B8F1000F 		cmp	r8, #0
 263 00f6 01D1     		bne	.L55
 264 00f8 47E0     		b	.L63
 265              	.LVL35:
 266              	.L35:
 174:/home/jonas/warwick/3dProfilometer/xpcc/src/xpcc/io/iostream_printf.cpp **** 				while (width--) {
 267              		.loc 1 174 0 is_stmt 0
 268 00fa 0246     		mov	r2, r0
 269              	.LVL36:
 270              	.L55:
 271 00fc 501E     		subs	r0, r2, #1
 175:/home/jonas/warwick/3dProfilometer/xpcc/src/xpcc/io/iostream_printf.cpp **** 					*--ptr = fill;
 272              		.loc 1 175 0 is_stmt 1
 273 00fe 03F8019D 		strb	r9, [r3, #-1]!
 274              	.LVL37:
 174:/home/jonas/warwick/3dProfilometer/xpcc/src/xpcc/io/iostream_printf.cpp **** 				while (width--) {
 275              		.loc 1 174 0
 276 0102 002A     		cmp	r2, #0
 277 0104 F9D1     		bne	.L35
 278              	.LVL38:
 279              	.L26:
 179:/home/jonas/warwick/3dProfilometer/xpcc/src/xpcc/io/iostream_printf.cpp **** 				while ((c = *ptr++)) {
 280              		.loc 1 179 0 discriminator 1
 281 0106 5C1C     		adds	r4, r3, #1
 282              	.LVL39:
 283 0108 4946     		mov	r1, r9
 284              	.LVL40:
 285              	.L28:
 180:/home/jonas/warwick/3dProfilometer/xpcc/src/xpcc/io/iostream_printf.cpp **** 					this->device->write(c);
 286              		.loc 1 180 0
 287 010a 3868     		ldr	r0, [r7, #0]
 288 010c 0368     		ldr	r3, [r0, #0]
 289 010e 9B68     		ldr	r3, [r3, #8]
 290 0110 9847     		blx	r3
 291              	.LVL41:
 179:/home/jonas/warwick/3dProfilometer/xpcc/src/xpcc/io/iostream_printf.cpp **** 				while ((c = *ptr++)) {
 292              		.loc 1 179 0
 293 0112 14F8011B 		ldrb	r1, [r4], #1	@ zero_extendqisi2
 294              	.LVL42:
 295 0116 0029     		cmp	r1, #0
 296 0118 F7D1     		bne	.L28
 297 011a 7AE7     		b	.L54
 298              	.LVL43:
 299              	.L33:
 300              	.LBE9:
 301              	.LBE7:
 108:/home/jonas/warwick/3dProfilometer/xpcc/src/xpcc/io/iostream_printf.cpp **** 				base = 10;
 302              		.loc 1 108 0
 303 011c 4FF00A0A 		mov	sl, #10
  48:/home/jonas/warwick/3dProfilometer/xpcc/src/xpcc/io/iostream_printf.cpp **** 		bool isSigned = 0;
 304              		.loc 1 48 0
 305 0120 0023     		movs	r3, #0
 306              	.LVL44:
 307              	.LBB15:
 308              	.LBB11:
 128:/home/jonas/warwick/3dProfilometer/xpcc/src/xpcc/io/iostream_printf.cpp **** 				if (isLongLong) {
 309              		.loc 1 128 0
 310 0122 0028     		cmp	r0, #0
 311 0124 BDD1     		bne	.L61
 312              	.LVL45:
 313              	.L19:
 131:/home/jonas/warwick/3dProfilometer/xpcc/src/xpcc/io/iostream_printf.cpp **** 				else if (isLong) {
 314              		.loc 1 131 0
 315 0126 5AB3     		cbz	r2, .L21
 132:/home/jonas/warwick/3dProfilometer/xpcc/src/xpcc/io/iostream_printf.cpp **** 					signedValue = va_arg(ap, long);
 316              		.loc 1 132 0
 317 0128 009A     		ldr	r2, [sp, #0]
 318 012a 111D     		adds	r1, r2, #4
 319              	.LVL46:
 320 012c 0091     		str	r1, [sp, #0]
 321 012e 1568     		ldr	r5, [r2, #0]
 322              	.LVL47:
 323 0130 BFE7     		b	.L20
 324              	.LVL48:
 325              	.L14:
 326              	.LBE11:
 327              	.LBE15:
  96:/home/jonas/warwick/3dProfilometer/xpcc/src/xpcc/io/iostream_printf.cpp **** 				ptr = (char *) va_arg(ap, char *);
 328              		.loc 1 96 0
 329 0132 009B     		ldr	r3, [sp, #0]
 330              	.LVL49:
  97:/home/jonas/warwick/3dProfilometer/xpcc/src/xpcc/io/iostream_printf.cpp **** 				while ((c = *ptr++))
 331              		.loc 1 97 0
 332 0134 1C68     		ldr	r4, [r3, #0]
 333 0136 14F8011B 		ldrb	r1, [r4], #1	@ zero_extendqisi2
 334              	.LVL50:
  96:/home/jonas/warwick/3dProfilometer/xpcc/src/xpcc/io/iostream_printf.cpp **** 				ptr = (char *) va_arg(ap, char *);
 335              		.loc 1 96 0
 336 013a 0433     		adds	r3, r3, #4
 337              	.LVL51:
 338 013c 0093     		str	r3, [sp, #0]
  97:/home/jonas/warwick/3dProfilometer/xpcc/src/xpcc/io/iostream_printf.cpp **** 				while ((c = *ptr++))
 339              		.loc 1 97 0
 340 013e 0029     		cmp	r1, #0
 341 0140 3FF467AF 		beq	.L54
 342              	.LVL52:
 343              	.L45:
  99:/home/jonas/warwick/3dProfilometer/xpcc/src/xpcc/io/iostream_printf.cpp **** 					this->device->write(c);
 344              		.loc 1 99 0
 345 0144 3868     		ldr	r0, [r7, #0]
 346 0146 0368     		ldr	r3, [r0, #0]
 347 0148 9B68     		ldr	r3, [r3, #8]
 348 014a 9847     		blx	r3
 349              	.LVL53:
  97:/home/jonas/warwick/3dProfilometer/xpcc/src/xpcc/io/iostream_printf.cpp **** 				while ((c = *ptr++))
 350              		.loc 1 97 0
 351 014c 14F8011B 		ldrb	r1, [r4], #1	@ zero_extendqisi2
 352              	.LVL54:
 353 0150 0029     		cmp	r1, #0
 354 0152 F7D1     		bne	.L45
 355 0154 5DE7     		b	.L54
 356              	.LVL55:
 357              	.L13:
 108:/home/jonas/warwick/3dProfilometer/xpcc/src/xpcc/io/iostream_printf.cpp **** 				base = 10;
 358              		.loc 1 108 0
 359 0156 4FF00A0A 		mov	sl, #10
 104:/home/jonas/warwick/3dProfilometer/xpcc/src/xpcc/io/iostream_printf.cpp **** 				isSigned = true;
 360              		.loc 1 104 0
 361 015a 0123     		movs	r3, #1
 362 015c 9FE7     		b	.L15
 363              	.LVL56:
 364              	.L11:
 116:/home/jonas/warwick/3dProfilometer/xpcc/src/xpcc/io/iostream_printf.cpp **** 				base = 2;
 365              		.loc 1 116 0
 366 015e 4FF0020A 		mov	sl, #2
  48:/home/jonas/warwick/3dProfilometer/xpcc/src/xpcc/io/iostream_printf.cpp **** 		bool isSigned = 0;
 367              		.loc 1 48 0
 368 0162 0023     		movs	r3, #0
 117:/home/jonas/warwick/3dProfilometer/xpcc/src/xpcc/io/iostream_printf.cpp **** 				break;
 369              		.loc 1 117 0
 370 0164 9BE7     		b	.L15
 371              	.LVL57:
 372              	.L58:
  75:/home/jonas/warwick/3dProfilometer/xpcc/src/xpcc/io/iostream_printf.cpp **** 			c = *fmt++;
 373              		.loc 1 75 0
 374 0166 3178     		ldrb	r1, [r6, #0]	@ zero_extendqisi2
 375              	.LVL58:
  77:/home/jonas/warwick/3dProfilometer/xpcc/src/xpcc/io/iostream_printf.cpp **** 		if (c == 'l')
 376              		.loc 1 77 0
 377 0168 6C29     		cmp	r1, #108
 378 016a 1CD1     		bne	.L62
 379              	.LVL59:
  74:/home/jonas/warwick/3dProfilometer/xpcc/src/xpcc/io/iostream_printf.cpp **** 			isLong = true;
 380              		.loc 1 74 0
 381 016c 0122     		movs	r2, #1
  80:/home/jonas/warwick/3dProfilometer/xpcc/src/xpcc/io/iostream_printf.cpp **** 			c = *fmt++;
 382              		.loc 1 80 0
 383 016e 7178     		ldrb	r1, [r6, #1]	@ zero_extendqisi2
 384              	.LVL60:
  79:/home/jonas/warwick/3dProfilometer/xpcc/src/xpcc/io/iostream_printf.cpp **** 			isLongLong = true;
 385              		.loc 1 79 0
 386 0170 1046     		mov	r0, r2
  80:/home/jonas/warwick/3dProfilometer/xpcc/src/xpcc/io/iostream_printf.cpp **** 			c = *fmt++;
 387              		.loc 1 80 0
 388 0172 0236     		adds	r6, r6, #2
 389              	.LVL61:
 390 0174 75E7     		b	.L8
 391              	.LVL62:
 392              	.L5:
  64:/home/jonas/warwick/3dProfilometer/xpcc/src/xpcc/io/iostream_printf.cpp **** 			c = *fmt++;
 393              		.loc 1 64 0
 394 0176 B178     		ldrb	r1, [r6, #2]	@ zero_extendqisi2
 395              	.LVL63:
 396 0178 4FF03009 		mov	r9, #48
 397 017c 0336     		adds	r6, r6, #3
 398              	.LVL64:
 399 017e 61E7     		b	.L6
 400              	.LVL65:
 401              	.L21:
 402              	.LBB16:
 403              	.LBB12:
 135:/home/jonas/warwick/3dProfilometer/xpcc/src/xpcc/io/iostream_printf.cpp **** 					signedValue = va_arg(ap, int);
 404              		.loc 1 135 0
 405 0180 009A     		ldr	r2, [sp, #0]
 406 0182 111D     		adds	r1, r2, #4
 407              	.LVL66:
 408 0184 1568     		ldr	r5, [r2, #0]
 409              	.LVL67:
 410 0186 0091     		str	r1, [sp, #0]
 411 0188 93E7     		b	.L20
 412              	.LVL68:
 413              	.L63:
 414              	.LBE12:
 415              	.LBB13:
 174:/home/jonas/warwick/3dProfilometer/xpcc/src/xpcc/io/iostream_printf.cpp **** 				while (width--) {
 416              		.loc 1 174 0
 417 018a A146     		mov	r9, r4
 418              	.LVL69:
 419 018c BBE7     		b	.L26
 420              	.LVL70:
 421              	.L59:
 422              	.LBE13:
 423              	.LBB14:
 143:/home/jonas/warwick/3dProfilometer/xpcc/src/xpcc/io/iostream_printf.cpp **** 						this->device->write('-');
 424              		.loc 1 143 0
 425 018e 3868     		ldr	r0, [r7, #0]
 426              	.LVL71:
 427 0190 0368     		ldr	r3, [r0, #0]
 428 0192 2D21     		movs	r1, #45
 429 0194 9B68     		ldr	r3, [r3, #8]
 142:/home/jonas/warwick/3dProfilometer/xpcc/src/xpcc/io/iostream_printf.cpp **** 						signedValue = -signedValue; // make it positiv
 430              		.loc 1 142 0
 431 0196 6D42     		negs	r5, r5
 432              	.LVL72:
 143:/home/jonas/warwick/3dProfilometer/xpcc/src/xpcc/io/iostream_printf.cpp **** 						this->device->write('-');
 433              		.loc 1 143 0
 434 0198 9847     		blx	r3
 435              	.LVL73:
 144:/home/jonas/warwick/3dProfilometer/xpcc/src/xpcc/io/iostream_printf.cpp **** 						if (width) {
 436              		.loc 1 144 0
 437 019a B8F1000F 		cmp	r8, #0
 438 019e 8BD0     		beq	.L22
 145:/home/jonas/warwick/3dProfilometer/xpcc/src/xpcc/io/iostream_printf.cpp **** 							--width;
 439              		.loc 1 145 0
 440 01a0 08F1FF38 		add	r8, r8, #-1
 441              	.LVL74:
 442 01a4 88E7     		b	.L22
 443              	.LVL75:
 444              	.L62:
 445              	.LBE14:
 446              	.LBE16:
  75:/home/jonas/warwick/3dProfilometer/xpcc/src/xpcc/io/iostream_printf.cpp **** 			c = *fmt++;
 447              		.loc 1 75 0
 448 01a6 0136     		adds	r6, r6, #1
 449              	.LVL76:
  74:/home/jonas/warwick/3dProfilometer/xpcc/src/xpcc/io/iostream_printf.cpp **** 			isLong = true;
 450              		.loc 1 74 0
 451 01a8 0122     		movs	r2, #1
  50:/home/jonas/warwick/3dProfilometer/xpcc/src/xpcc/io/iostream_printf.cpp **** 		bool isLongLong = 0;
 452              		.loc 1 50 0
 453 01aa 0020     		movs	r0, #0
 454 01ac 59E7     		b	.L8
 455              	.LBE18:
 456              	.LBE19:
 457              		.cfi_endproc
 458              	.LFE45:
 460 01ae 00BF     		.text
 461              	.Letext0:
 462              		.file 2 "/opt/arm-2012.09/bin/../lib/gcc/arm-none-eabi/4.7.2/include/stdarg.h"
 463              		.file 3 "/opt/arm-2012.09/bin/../lib/gcc/arm-none-eabi/4.7.2/include/stddef.h"
 464              		.file 4 "/opt/arm-2012.09/bin/../lib/gcc/arm-none-eabi/4.7.2/../../../../arm-none-eabi/include/std
 465              		.file 5 "/home/jonas/warwick/3dProfilometer/xpcc/src/xpcc/io/iostream.hpp"
 466              		.file 6 "/home/jonas/warwick/3dProfilometer/xpcc/src/xpcc/io/iodevice.hpp"
 467              		.file 7 "<built-in>"