   1              		.syntax unified
   2              		.cpu cortex-m4
   3              		.eabi_attribute 27, 3
   4              		.fpu fpv4-sp-d16
   5              		.eabi_attribute 20, 1
   6              		.eabi_attribute 21, 1
   7              		.eabi_attribute 23, 3
   8              		.eabi_attribute 24, 1
   9              		.eabi_attribute 25, 1
  10              		.eabi_attribute 26, 1
  11              		.eabi_attribute 30, 2
  12              		.eabi_attribute 34, 1
  13              		.eabi_attribute 18, 4
  14              		.thumb
  15              		.file	"dispatcher.cpp"
  16              		.text
  17              	.Ltext0:
  18              		.cfi_sections	.debug_frame
  19              		.section	.text._ZN4xpcc10DispatcherC2EPNS_16BackendInterfaceEPNS_7PostmanE,"ax",%progbits
  20              		.align	2
  21              		.global	_ZN4xpcc10DispatcherC2EPNS_16BackendInterfaceEPNS_7PostmanE
  22              		.thumb
  23              		.thumb_func
  25              	_ZN4xpcc10DispatcherC2EPNS_16BackendInterfaceEPNS_7PostmanE:
  26              	.LFB159:
  27              		.file 1 "/home/jonas/warwick/3dProfilometer/xpcc/src/xpcc/communication/dispatcher.cpp"
   1:/home/jonas/warwick/3dProfilometer/xpcc/src/xpcc/communication/dispatcher.cpp **** // coding: utf-8
   2:/home/jonas/warwick/3dProfilometer/xpcc/src/xpcc/communication/dispatcher.cpp **** // ----------------------------------------------------------------------------
   3:/home/jonas/warwick/3dProfilometer/xpcc/src/xpcc/communication/dispatcher.cpp **** /* Copyright (c) 2009, Roboterclub Aachen e.V.
   4:/home/jonas/warwick/3dProfilometer/xpcc/src/xpcc/communication/dispatcher.cpp ****  * All rights reserved.
   5:/home/jonas/warwick/3dProfilometer/xpcc/src/xpcc/communication/dispatcher.cpp ****  *
   6:/home/jonas/warwick/3dProfilometer/xpcc/src/xpcc/communication/dispatcher.cpp ****  * Redistribution and use in source and binary forms, with or without
   7:/home/jonas/warwick/3dProfilometer/xpcc/src/xpcc/communication/dispatcher.cpp ****  * modification, are permitted provided that the following conditions are met:
   8:/home/jonas/warwick/3dProfilometer/xpcc/src/xpcc/communication/dispatcher.cpp ****  * 
   9:/home/jonas/warwick/3dProfilometer/xpcc/src/xpcc/communication/dispatcher.cpp ****  *     * Redistributions of source code must retain the above copyright
  10:/home/jonas/warwick/3dProfilometer/xpcc/src/xpcc/communication/dispatcher.cpp ****  *       notice, this list of conditions and the following disclaimer.
  11:/home/jonas/warwick/3dProfilometer/xpcc/src/xpcc/communication/dispatcher.cpp ****  *     * Redistributions in binary form must reproduce the above copyright
  12:/home/jonas/warwick/3dProfilometer/xpcc/src/xpcc/communication/dispatcher.cpp ****  *       notice, this list of conditions and the following disclaimer in the
  13:/home/jonas/warwick/3dProfilometer/xpcc/src/xpcc/communication/dispatcher.cpp ****  *       documentation and/or other materials provided with the distribution.
  14:/home/jonas/warwick/3dProfilometer/xpcc/src/xpcc/communication/dispatcher.cpp ****  *     * Neither the name of the Roboterclub Aachen e.V. nor the
  15:/home/jonas/warwick/3dProfilometer/xpcc/src/xpcc/communication/dispatcher.cpp ****  *       names of its contributors may be used to endorse or promote products
  16:/home/jonas/warwick/3dProfilometer/xpcc/src/xpcc/communication/dispatcher.cpp ****  *       derived from this software without specific prior written permission.
  17:/home/jonas/warwick/3dProfilometer/xpcc/src/xpcc/communication/dispatcher.cpp ****  *
  18:/home/jonas/warwick/3dProfilometer/xpcc/src/xpcc/communication/dispatcher.cpp ****  * THIS SOFTWARE IS PROVIDED BY ROBOTERCLUB AACHEN E.V. ''AS IS'' AND ANY
  19:/home/jonas/warwick/3dProfilometer/xpcc/src/xpcc/communication/dispatcher.cpp ****  * EXPRESS OR IMPLIED WARRANTIES, INCLUDING, BUT NOT LIMITED TO, THE IMPLIED
  20:/home/jonas/warwick/3dProfilometer/xpcc/src/xpcc/communication/dispatcher.cpp ****  * WARRANTIES OF MERCHANTABILITY AND FITNESS FOR A PARTICULAR PURPOSE ARE
  21:/home/jonas/warwick/3dProfilometer/xpcc/src/xpcc/communication/dispatcher.cpp ****  * DISCLAIMED. IN NO EVENT SHALL ROBOTERCLUB AACHEN E.V. BE LIABLE FOR ANY
  22:/home/jonas/warwick/3dProfilometer/xpcc/src/xpcc/communication/dispatcher.cpp ****  * DIRECT, INDIRECT, INCIDENTAL, SPECIAL, EXEMPLARY, OR CONSEQUENTIAL DAMAGES
  23:/home/jonas/warwick/3dProfilometer/xpcc/src/xpcc/communication/dispatcher.cpp ****  * (INCLUDING, BUT NOT LIMITED TO, PROCUREMENT OF SUBSTITUTE GOODS OR SERVICES;
  24:/home/jonas/warwick/3dProfilometer/xpcc/src/xpcc/communication/dispatcher.cpp ****  * LOSS OF USE, DATA, OR PROFITS; OR BUSINESS INTERRUPTION) HOWEVER CAUSED AND
  25:/home/jonas/warwick/3dProfilometer/xpcc/src/xpcc/communication/dispatcher.cpp ****  * ON ANY THEORY OF LIABILITY, WHETHER IN CONTRACT, STRICT LIABILITY, OR TORT
  26:/home/jonas/warwick/3dProfilometer/xpcc/src/xpcc/communication/dispatcher.cpp ****  * (INCLUDING NEGLIGENCE OR OTHERWISE) ARISING IN ANY WAY OUT OF THE USE OF
  27:/home/jonas/warwick/3dProfilometer/xpcc/src/xpcc/communication/dispatcher.cpp ****  * THIS SOFTWARE, EVEN IF ADVISED OF THE POSSIBILITY OF SUCH DAMAGE.
  28:/home/jonas/warwick/3dProfilometer/xpcc/src/xpcc/communication/dispatcher.cpp ****  */
  29:/home/jonas/warwick/3dProfilometer/xpcc/src/xpcc/communication/dispatcher.cpp **** // ----------------------------------------------------------------------------
  30:/home/jonas/warwick/3dProfilometer/xpcc/src/xpcc/communication/dispatcher.cpp **** 
  31:/home/jonas/warwick/3dProfilometer/xpcc/src/xpcc/communication/dispatcher.cpp **** #include "dispatcher.hpp"
  32:/home/jonas/warwick/3dProfilometer/xpcc/src/xpcc/communication/dispatcher.cpp **** 
  33:/home/jonas/warwick/3dProfilometer/xpcc/src/xpcc/communication/dispatcher.cpp **** #include <xpcc/debug/logger/logger.hpp>
  34:/home/jonas/warwick/3dProfilometer/xpcc/src/xpcc/communication/dispatcher.cpp **** // set the Loglevel
  35:/home/jonas/warwick/3dProfilometer/xpcc/src/xpcc/communication/dispatcher.cpp **** #undef  XPCC_LOG_LEVEL
  36:/home/jonas/warwick/3dProfilometer/xpcc/src/xpcc/communication/dispatcher.cpp **** #define XPCC_LOG_LEVEL xpcc::log::INFO
  37:/home/jonas/warwick/3dProfilometer/xpcc/src/xpcc/communication/dispatcher.cpp **** 
  38:/home/jonas/warwick/3dProfilometer/xpcc/src/xpcc/communication/dispatcher.cpp **** xpcc::Dispatcher::Dispatcher(
  28              		.loc 1 38 0
  29              		.cfi_startproc
  30              		@ args = 0, pretend = 0, frame = 0
  31              		@ frame_needed = 0, uses_anonymous_args = 0
  32              	.LVL0:
  33 0000 38B5     		push	{r3, r4, r5, lr}
  34              	.LCFI0:
  35              		.cfi_def_cfa_offset 16
  36              		.cfi_offset 3, -16
  37              		.cfi_offset 4, -12
  38              		.cfi_offset 5, -8
  39              		.cfi_offset 14, -4
  40              	.LBB114:
  41              	.LBB115:
  42              	.LBB116:
  43              		.file 2 "/home/jonas/warwick/3dProfilometer/xpcc/src/xpcc/communication/dispatcher.hpp"
   1:/home/jonas/warwick/3dProfilometer/xpcc/src/xpcc/communication/dispatcher.hpp **** // coding: utf-8
   2:/home/jonas/warwick/3dProfilometer/xpcc/src/xpcc/communication/dispatcher.hpp **** // ----------------------------------------------------------------------------
   3:/home/jonas/warwick/3dProfilometer/xpcc/src/xpcc/communication/dispatcher.hpp **** /* Copyright (c) 2009, Roboterclub Aachen e.V.
   4:/home/jonas/warwick/3dProfilometer/xpcc/src/xpcc/communication/dispatcher.hpp ****  * All rights reserved.
   5:/home/jonas/warwick/3dProfilometer/xpcc/src/xpcc/communication/dispatcher.hpp ****  * 
   6:/home/jonas/warwick/3dProfilometer/xpcc/src/xpcc/communication/dispatcher.hpp ****  * Redistribution and use in source and binary forms, with or without
   7:/home/jonas/warwick/3dProfilometer/xpcc/src/xpcc/communication/dispatcher.hpp ****  * modification, are permitted provided that the following conditions are met:
   8:/home/jonas/warwick/3dProfilometer/xpcc/src/xpcc/communication/dispatcher.hpp ****  * 
   9:/home/jonas/warwick/3dProfilometer/xpcc/src/xpcc/communication/dispatcher.hpp ****  *     * Redistributions of source code must retain the above copyright
  10:/home/jonas/warwick/3dProfilometer/xpcc/src/xpcc/communication/dispatcher.hpp ****  *       notice, this list of conditions and the following disclaimer.
  11:/home/jonas/warwick/3dProfilometer/xpcc/src/xpcc/communication/dispatcher.hpp ****  *     * Redistributions in binary form must reproduce the above copyright
  12:/home/jonas/warwick/3dProfilometer/xpcc/src/xpcc/communication/dispatcher.hpp ****  *       notice, this list of conditions and the following disclaimer in the
  13:/home/jonas/warwick/3dProfilometer/xpcc/src/xpcc/communication/dispatcher.hpp ****  *       documentation and/or other materials provided with the distribution.
  14:/home/jonas/warwick/3dProfilometer/xpcc/src/xpcc/communication/dispatcher.hpp ****  *     * Neither the name of the Roboterclub Aachen e.V. nor the
  15:/home/jonas/warwick/3dProfilometer/xpcc/src/xpcc/communication/dispatcher.hpp ****  *       names of its contributors may be used to endorse or promote products
  16:/home/jonas/warwick/3dProfilometer/xpcc/src/xpcc/communication/dispatcher.hpp ****  *       derived from this software without specific prior written permission.
  17:/home/jonas/warwick/3dProfilometer/xpcc/src/xpcc/communication/dispatcher.hpp ****  * 
  18:/home/jonas/warwick/3dProfilometer/xpcc/src/xpcc/communication/dispatcher.hpp ****  * THIS SOFTWARE IS PROVIDED BY ROBOTERCLUB AACHEN E.V. ''AS IS'' AND ANY
  19:/home/jonas/warwick/3dProfilometer/xpcc/src/xpcc/communication/dispatcher.hpp ****  * EXPRESS OR IMPLIED WARRANTIES, INCLUDING, BUT NOT LIMITED TO, THE IMPLIED
  20:/home/jonas/warwick/3dProfilometer/xpcc/src/xpcc/communication/dispatcher.hpp ****  * WARRANTIES OF MERCHANTABILITY AND FITNESS FOR A PARTICULAR PURPOSE ARE
  21:/home/jonas/warwick/3dProfilometer/xpcc/src/xpcc/communication/dispatcher.hpp ****  * DISCLAIMED. IN NO EVENT SHALL ROBOTERCLUB AACHEN E.V. BE LIABLE FOR ANY
  22:/home/jonas/warwick/3dProfilometer/xpcc/src/xpcc/communication/dispatcher.hpp ****  * DIRECT, INDIRECT, INCIDENTAL, SPECIAL, EXEMPLARY, OR CONSEQUENTIAL DAMAGES
  23:/home/jonas/warwick/3dProfilometer/xpcc/src/xpcc/communication/dispatcher.hpp ****  * (INCLUDING, BUT NOT LIMITED TO, PROCUREMENT OF SUBSTITUTE GOODS OR SERVICES;
  24:/home/jonas/warwick/3dProfilometer/xpcc/src/xpcc/communication/dispatcher.hpp ****  * LOSS OF USE, DATA, OR PROFITS; OR BUSINESS INTERRUPTION) HOWEVER CAUSED AND
  25:/home/jonas/warwick/3dProfilometer/xpcc/src/xpcc/communication/dispatcher.hpp ****  * ON ANY THEORY OF LIABILITY, WHETHER IN CONTRACT, STRICT LIABILITY, OR TORT
  26:/home/jonas/warwick/3dProfilometer/xpcc/src/xpcc/communication/dispatcher.hpp ****  * (INCLUDING NEGLIGENCE OR OTHERWISE) ARISING IN ANY WAY OUT OF THE USE OF
  27:/home/jonas/warwick/3dProfilometer/xpcc/src/xpcc/communication/dispatcher.hpp ****  * THIS SOFTWARE, EVEN IF ADVISED OF THE POSSIBILITY OF SUCH DAMAGE.
  28:/home/jonas/warwick/3dProfilometer/xpcc/src/xpcc/communication/dispatcher.hpp ****  */
  29:/home/jonas/warwick/3dProfilometer/xpcc/src/xpcc/communication/dispatcher.hpp **** // ----------------------------------------------------------------------------
  30:/home/jonas/warwick/3dProfilometer/xpcc/src/xpcc/communication/dispatcher.hpp **** 
  31:/home/jonas/warwick/3dProfilometer/xpcc/src/xpcc/communication/dispatcher.hpp **** #ifndef	XPCC__DISPATCHER_HPP
  32:/home/jonas/warwick/3dProfilometer/xpcc/src/xpcc/communication/dispatcher.hpp **** #define	XPCC__DISPATCHER_HPP
  33:/home/jonas/warwick/3dProfilometer/xpcc/src/xpcc/communication/dispatcher.hpp **** 
  34:/home/jonas/warwick/3dProfilometer/xpcc/src/xpcc/communication/dispatcher.hpp **** #include <xpcc/workflow/timeout.hpp>
  35:/home/jonas/warwick/3dProfilometer/xpcc/src/xpcc/communication/dispatcher.hpp **** 
  36:/home/jonas/warwick/3dProfilometer/xpcc/src/xpcc/communication/dispatcher.hpp **** #include "backend/backend_interface.hpp"
  37:/home/jonas/warwick/3dProfilometer/xpcc/src/xpcc/communication/dispatcher.hpp **** #include "postman/postman.hpp"
  38:/home/jonas/warwick/3dProfilometer/xpcc/src/xpcc/communication/dispatcher.hpp **** 
  39:/home/jonas/warwick/3dProfilometer/xpcc/src/xpcc/communication/dispatcher.hpp **** #include "response_callback.hpp"
  40:/home/jonas/warwick/3dProfilometer/xpcc/src/xpcc/communication/dispatcher.hpp **** 
  41:/home/jonas/warwick/3dProfilometer/xpcc/src/xpcc/communication/dispatcher.hpp **** namespace xpcc
  42:/home/jonas/warwick/3dProfilometer/xpcc/src/xpcc/communication/dispatcher.hpp **** {
  43:/home/jonas/warwick/3dProfilometer/xpcc/src/xpcc/communication/dispatcher.hpp **** 	/**
  44:/home/jonas/warwick/3dProfilometer/xpcc/src/xpcc/communication/dispatcher.hpp **** 	 * \brief	
  45:/home/jonas/warwick/3dProfilometer/xpcc/src/xpcc/communication/dispatcher.hpp **** 	 * 
  46:/home/jonas/warwick/3dProfilometer/xpcc/src/xpcc/communication/dispatcher.hpp **** 	 * \todo	Documentation
  47:/home/jonas/warwick/3dProfilometer/xpcc/src/xpcc/communication/dispatcher.hpp **** 	 * 
  48:/home/jonas/warwick/3dProfilometer/xpcc/src/xpcc/communication/dispatcher.hpp **** 	 * \author	Georgi Grinshpun
  49:/home/jonas/warwick/3dProfilometer/xpcc/src/xpcc/communication/dispatcher.hpp **** 	 * \ingroup	communication
  50:/home/jonas/warwick/3dProfilometer/xpcc/src/xpcc/communication/dispatcher.hpp **** 	 */
  51:/home/jonas/warwick/3dProfilometer/xpcc/src/xpcc/communication/dispatcher.hpp **** 	class Dispatcher
  52:/home/jonas/warwick/3dProfilometer/xpcc/src/xpcc/communication/dispatcher.hpp **** 	{
  53:/home/jonas/warwick/3dProfilometer/xpcc/src/xpcc/communication/dispatcher.hpp **** 	public:
  54:/home/jonas/warwick/3dProfilometer/xpcc/src/xpcc/communication/dispatcher.hpp **** 		static const uint16_t acknowledgeTimeout = 100;
  55:/home/jonas/warwick/3dProfilometer/xpcc/src/xpcc/communication/dispatcher.hpp **** 		static const uint16_t responseTimeout = 100;
  56:/home/jonas/warwick/3dProfilometer/xpcc/src/xpcc/communication/dispatcher.hpp **** 		
  57:/home/jonas/warwick/3dProfilometer/xpcc/src/xpcc/communication/dispatcher.hpp **** 	public:
  58:/home/jonas/warwick/3dProfilometer/xpcc/src/xpcc/communication/dispatcher.hpp **** 		Dispatcher(BackendInterface *backend, Postman* postman);
  59:/home/jonas/warwick/3dProfilometer/xpcc/src/xpcc/communication/dispatcher.hpp **** 		
  60:/home/jonas/warwick/3dProfilometer/xpcc/src/xpcc/communication/dispatcher.hpp **** 		void
  61:/home/jonas/warwick/3dProfilometer/xpcc/src/xpcc/communication/dispatcher.hpp **** 		update();
  62:/home/jonas/warwick/3dProfilometer/xpcc/src/xpcc/communication/dispatcher.hpp **** 		
  63:/home/jonas/warwick/3dProfilometer/xpcc/src/xpcc/communication/dispatcher.hpp **** 	private:
  64:/home/jonas/warwick/3dProfilometer/xpcc/src/xpcc/communication/dispatcher.hpp **** 		/// Does not handle requests which are not acknowledge.
  65:/home/jonas/warwick/3dProfilometer/xpcc/src/xpcc/communication/dispatcher.hpp **** 		void
  66:/home/jonas/warwick/3dProfilometer/xpcc/src/xpcc/communication/dispatcher.hpp **** 		handlePacket(const Header& header, const SmartPointer& payload);
  67:/home/jonas/warwick/3dProfilometer/xpcc/src/xpcc/communication/dispatcher.hpp **** 		
  68:/home/jonas/warwick/3dProfilometer/xpcc/src/xpcc/communication/dispatcher.hpp **** 		/// Sends messages which are waiting in the list.
  69:/home/jonas/warwick/3dProfilometer/xpcc/src/xpcc/communication/dispatcher.hpp **** 		void
  70:/home/jonas/warwick/3dProfilometer/xpcc/src/xpcc/communication/dispatcher.hpp **** 		handleWaitingMessages();
  71:/home/jonas/warwick/3dProfilometer/xpcc/src/xpcc/communication/dispatcher.hpp **** 		
  72:/home/jonas/warwick/3dProfilometer/xpcc/src/xpcc/communication/dispatcher.hpp **** 		/**
  73:/home/jonas/warwick/3dProfilometer/xpcc/src/xpcc/communication/dispatcher.hpp **** 		 * \brief 	This class holds information about a Message being send.
  74:/home/jonas/warwick/3dProfilometer/xpcc/src/xpcc/communication/dispatcher.hpp **** 		 * 			This is the superclass of all entries.
  75:/home/jonas/warwick/3dProfilometer/xpcc/src/xpcc/communication/dispatcher.hpp **** 		 */
  76:/home/jonas/warwick/3dProfilometer/xpcc/src/xpcc/communication/dispatcher.hpp **** 		class Entry
  77:/home/jonas/warwick/3dProfilometer/xpcc/src/xpcc/communication/dispatcher.hpp **** 		{
  78:/home/jonas/warwick/3dProfilometer/xpcc/src/xpcc/communication/dispatcher.hpp **** 		public:
  79:/home/jonas/warwick/3dProfilometer/xpcc/src/xpcc/communication/dispatcher.hpp **** 			enum Type
  80:/home/jonas/warwick/3dProfilometer/xpcc/src/xpcc/communication/dispatcher.hpp **** 			{
  81:/home/jonas/warwick/3dProfilometer/xpcc/src/xpcc/communication/dispatcher.hpp **** 				DEFAULT,
  82:/home/jonas/warwick/3dProfilometer/xpcc/src/xpcc/communication/dispatcher.hpp **** 				CALLBACK,
  83:/home/jonas/warwick/3dProfilometer/xpcc/src/xpcc/communication/dispatcher.hpp **** 			};
  84:/home/jonas/warwick/3dProfilometer/xpcc/src/xpcc/communication/dispatcher.hpp **** 			
  85:/home/jonas/warwick/3dProfilometer/xpcc/src/xpcc/communication/dispatcher.hpp **** 			/**
  86:/home/jonas/warwick/3dProfilometer/xpcc/src/xpcc/communication/dispatcher.hpp **** 			 * \brief 	Communication info, state of sending and
  87:/home/jonas/warwick/3dProfilometer/xpcc/src/xpcc/communication/dispatcher.hpp **** 			 * 			retrieving messages and acks.
  88:/home/jonas/warwick/3dProfilometer/xpcc/src/xpcc/communication/dispatcher.hpp **** 			 */
  89:/home/jonas/warwick/3dProfilometer/xpcc/src/xpcc/communication/dispatcher.hpp **** 			enum State
  90:/home/jonas/warwick/3dProfilometer/xpcc/src/xpcc/communication/dispatcher.hpp **** 			{
  91:/home/jonas/warwick/3dProfilometer/xpcc/src/xpcc/communication/dispatcher.hpp **** 				TRANSMISSION_PENDING,
  92:/home/jonas/warwick/3dProfilometer/xpcc/src/xpcc/communication/dispatcher.hpp **** 				WAIT_FOR_ACK,
  93:/home/jonas/warwick/3dProfilometer/xpcc/src/xpcc/communication/dispatcher.hpp **** 				WAIT_FOR_RESPONSE,
  94:/home/jonas/warwick/3dProfilometer/xpcc/src/xpcc/communication/dispatcher.hpp **** 			};
  95:/home/jonas/warwick/3dProfilometer/xpcc/src/xpcc/communication/dispatcher.hpp **** 			
  96:/home/jonas/warwick/3dProfilometer/xpcc/src/xpcc/communication/dispatcher.hpp **** 		public:
  97:/home/jonas/warwick/3dProfilometer/xpcc/src/xpcc/communication/dispatcher.hpp **** 			/**
  98:/home/jonas/warwick/3dProfilometer/xpcc/src/xpcc/communication/dispatcher.hpp **** 			 * \brief 	Creates one Entry with given header.
  99:/home/jonas/warwick/3dProfilometer/xpcc/src/xpcc/communication/dispatcher.hpp **** 			 * 			this->next is initially set Null
 100:/home/jonas/warwick/3dProfilometer/xpcc/src/xpcc/communication/dispatcher.hpp **** 			 *
 101:/home/jonas/warwick/3dProfilometer/xpcc/src/xpcc/communication/dispatcher.hpp **** 			 * Creates one Entry with given header. this->next is initially
 102:/home/jonas/warwick/3dProfilometer/xpcc/src/xpcc/communication/dispatcher.hpp **** 			 * set Null. The const member this->typeInfo is set to typeInfo
 103:/home/jonas/warwick/3dProfilometer/xpcc/src/xpcc/communication/dispatcher.hpp **** 			 * and never else changed. this->typeInfo replaces runtime
 104:/home/jonas/warwick/3dProfilometer/xpcc/src/xpcc/communication/dispatcher.hpp **** 			 * information needed by handling of messages.
 105:/home/jonas/warwick/3dProfilometer/xpcc/src/xpcc/communication/dispatcher.hpp **** 			 */
 106:/home/jonas/warwick/3dProfilometer/xpcc/src/xpcc/communication/dispatcher.hpp **** 			Entry(Type type, const Header& inHeader, SmartPointer& inPayload) :
 107:/home/jonas/warwick/3dProfilometer/xpcc/src/xpcc/communication/dispatcher.hpp **** 				type(type), next(0),
 108:/home/jonas/warwick/3dProfilometer/xpcc/src/xpcc/communication/dispatcher.hpp **** 				header(inHeader), payload(inPayload),
 109:/home/jonas/warwick/3dProfilometer/xpcc/src/xpcc/communication/dispatcher.hpp **** 				time(), tries(0)
 110:/home/jonas/warwick/3dProfilometer/xpcc/src/xpcc/communication/dispatcher.hpp **** 			{
 111:/home/jonas/warwick/3dProfilometer/xpcc/src/xpcc/communication/dispatcher.hpp **** 			}
 112:/home/jonas/warwick/3dProfilometer/xpcc/src/xpcc/communication/dispatcher.hpp **** 			
 113:/home/jonas/warwick/3dProfilometer/xpcc/src/xpcc/communication/dispatcher.hpp **** 			Entry(const Header& inHeader, SmartPointer& inPayload) :
 114:/home/jonas/warwick/3dProfilometer/xpcc/src/xpcc/communication/dispatcher.hpp **** 				type(DEFAULT), next(0),
 115:/home/jonas/warwick/3dProfilometer/xpcc/src/xpcc/communication/dispatcher.hpp **** 				header(inHeader), payload(inPayload),
 116:/home/jonas/warwick/3dProfilometer/xpcc/src/xpcc/communication/dispatcher.hpp **** 				time(), tries(0)
 117:/home/jonas/warwick/3dProfilometer/xpcc/src/xpcc/communication/dispatcher.hpp **** 			{
 118:/home/jonas/warwick/3dProfilometer/xpcc/src/xpcc/communication/dispatcher.hpp **** 			}
 119:/home/jonas/warwick/3dProfilometer/xpcc/src/xpcc/communication/dispatcher.hpp **** 			
 120:/home/jonas/warwick/3dProfilometer/xpcc/src/xpcc/communication/dispatcher.hpp **** 			Entry(const Header& inHeader) :
 121:/home/jonas/warwick/3dProfilometer/xpcc/src/xpcc/communication/dispatcher.hpp **** 				type(DEFAULT), next(0),
 122:/home/jonas/warwick/3dProfilometer/xpcc/src/xpcc/communication/dispatcher.hpp **** 				header(inHeader), payload(),
 123:/home/jonas/warwick/3dProfilometer/xpcc/src/xpcc/communication/dispatcher.hpp **** 				time(), tries(0)
  44              		.loc 2 123 0
  45 0002 0025     		movs	r5, #0
  46              	.LBE116:
  47              	.LBE115:
  48              	.LBE114:
  49              		.loc 1 38 0
  50 0004 0446     		mov	r4, r0
  51              	.LBB125:
  39:/home/jonas/warwick/3dProfilometer/xpcc/src/xpcc/communication/dispatcher.cpp **** 		BackendInterface *backend_,
  40:/home/jonas/warwick/3dProfilometer/xpcc/src/xpcc/communication/dispatcher.cpp **** 		Postman* postman_) :
  41:/home/jonas/warwick/3dProfilometer/xpcc/src/xpcc/communication/dispatcher.cpp **** 	backend(backend_),
  42:/home/jonas/warwick/3dProfilometer/xpcc/src/xpcc/communication/dispatcher.cpp **** 	postman(postman_),
  43:/home/jonas/warwick/3dProfilometer/xpcc/src/xpcc/communication/dispatcher.cpp **** 	dummyFirst(Header()),
  44:/home/jonas/warwick/3dProfilometer/xpcc/src/xpcc/communication/dispatcher.cpp **** 	first(&dummyFirst),
  45:/home/jonas/warwick/3dProfilometer/xpcc/src/xpcc/communication/dispatcher.cpp **** 	last(&dummyFirst)
  52              		.loc 1 45 0
  53 0006 80E80600 		stmia	r0, {r1, r2}
  54              	.LBB123:
  55              	.LBB121:
  56              		.loc 2 123 0
  57 000a 0572     		strb	r5, [r0, #8]
  58 000c C560     		str	r5, [r0, #12]
  59 000e 0574     		strb	r5, [r0, #16]
  60 0010 4574     		strb	r5, [r0, #17]
  61 0012 8574     		strb	r5, [r0, #18]
  62 0014 C574     		strb	r5, [r0, #19]
  63 0016 0575     		strb	r5, [r0, #20]
  64 0018 074B     		ldr	r3, .L2
  65 001a 1830     		adds	r0, r0, #24
  66              	.LVL1:
  67 001c 9847     		blx	r3
  68              	.LVL2:
  69              	.LBE121:
  70              	.LBE123:
  71              		.loc 1 45 0
  72 001e 04F10803 		add	r3, r4, #8
  73              	.LVL3:
  74              	.LBB124:
  75              	.LBB122:
  76              	.LBB117:
  77              	.LBB118:
  78              		.file 3 "/home/jonas/warwick/3dProfilometer/xpcc/src/xpcc/workflow/timeout_impl.hpp"
   1:/home/jonas/warwick/3dProfilometer/xpcc/src/xpcc/workflow/timeout_impl.hpp **** // coding: utf-8
   2:/home/jonas/warwick/3dProfilometer/xpcc/src/xpcc/workflow/timeout_impl.hpp **** // ----------------------------------------------------------------------------
   3:/home/jonas/warwick/3dProfilometer/xpcc/src/xpcc/workflow/timeout_impl.hpp **** /* Copyright (c) 2009, Roboterclub Aachen e.V.
   4:/home/jonas/warwick/3dProfilometer/xpcc/src/xpcc/workflow/timeout_impl.hpp ****  * All rights reserved.
   5:/home/jonas/warwick/3dProfilometer/xpcc/src/xpcc/workflow/timeout_impl.hpp ****  *
   6:/home/jonas/warwick/3dProfilometer/xpcc/src/xpcc/workflow/timeout_impl.hpp ****  * Redistribution and use in source and binary forms, with or without
   7:/home/jonas/warwick/3dProfilometer/xpcc/src/xpcc/workflow/timeout_impl.hpp ****  * modification, are permitted provided that the following conditions are met:
   8:/home/jonas/warwick/3dProfilometer/xpcc/src/xpcc/workflow/timeout_impl.hpp ****  *
   9:/home/jonas/warwick/3dProfilometer/xpcc/src/xpcc/workflow/timeout_impl.hpp ****  *     * Redistributions of source code must retain the above copyright
  10:/home/jonas/warwick/3dProfilometer/xpcc/src/xpcc/workflow/timeout_impl.hpp ****  *       notice, this list of conditions and the following disclaimer.
  11:/home/jonas/warwick/3dProfilometer/xpcc/src/xpcc/workflow/timeout_impl.hpp ****  *     * Redistributions in binary form must reproduce the above copyright
  12:/home/jonas/warwick/3dProfilometer/xpcc/src/xpcc/workflow/timeout_impl.hpp ****  *       notice, this list of conditions and the following disclaimer in the
  13:/home/jonas/warwick/3dProfilometer/xpcc/src/xpcc/workflow/timeout_impl.hpp ****  *       documentation and/or other materials provided with the distribution.
  14:/home/jonas/warwick/3dProfilometer/xpcc/src/xpcc/workflow/timeout_impl.hpp ****  *     * Neither the name of the Roboterclub Aachen e.V. nor the
  15:/home/jonas/warwick/3dProfilometer/xpcc/src/xpcc/workflow/timeout_impl.hpp ****  *       names of its contributors may be used to endorse or promote products
  16:/home/jonas/warwick/3dProfilometer/xpcc/src/xpcc/workflow/timeout_impl.hpp ****  *       derived from this software without specific prior written permission.
  17:/home/jonas/warwick/3dProfilometer/xpcc/src/xpcc/workflow/timeout_impl.hpp ****  *
  18:/home/jonas/warwick/3dProfilometer/xpcc/src/xpcc/workflow/timeout_impl.hpp ****  * THIS SOFTWARE IS PROVIDED BY ROBOTERCLUB AACHEN E.V. ''AS IS'' AND ANY
  19:/home/jonas/warwick/3dProfilometer/xpcc/src/xpcc/workflow/timeout_impl.hpp ****  * EXPRESS OR IMPLIED WARRANTIES, INCLUDING, BUT NOT LIMITED TO, THE IMPLIED
  20:/home/jonas/warwick/3dProfilometer/xpcc/src/xpcc/workflow/timeout_impl.hpp ****  * WARRANTIES OF MERCHANTABILITY AND FITNESS FOR A PARTICULAR PURPOSE ARE
  21:/home/jonas/warwick/3dProfilometer/xpcc/src/xpcc/workflow/timeout_impl.hpp ****  * DISCLAIMED. IN NO EVENT SHALL ROBOTERCLUB AACHEN E.V. BE LIABLE FOR ANY
  22:/home/jonas/warwick/3dProfilometer/xpcc/src/xpcc/workflow/timeout_impl.hpp ****  * DIRECT, INDIRECT, INCIDENTAL, SPECIAL, EXEMPLARY, OR CONSEQUENTIAL DAMAGES
  23:/home/jonas/warwick/3dProfilometer/xpcc/src/xpcc/workflow/timeout_impl.hpp ****  * (INCLUDING, BUT NOT LIMITED TO, PROCUREMENT OF SUBSTITUTE GOODS OR SERVICES;
  24:/home/jonas/warwick/3dProfilometer/xpcc/src/xpcc/workflow/timeout_impl.hpp ****  * LOSS OF USE, DATA, OR PROFITS; OR BUSINESS INTERRUPTION) HOWEVER CAUSED AND
  25:/home/jonas/warwick/3dProfilometer/xpcc/src/xpcc/workflow/timeout_impl.hpp ****  * ON ANY THEORY OF LIABILITY, WHETHER IN CONTRACT, STRICT LIABILITY, OR TORT
  26:/home/jonas/warwick/3dProfilometer/xpcc/src/xpcc/workflow/timeout_impl.hpp ****  * (INCLUDING NEGLIGENCE OR OTHERWISE) ARISING IN ANY WAY OUT OF THE USE OF
  27:/home/jonas/warwick/3dProfilometer/xpcc/src/xpcc/workflow/timeout_impl.hpp ****  * THIS SOFTWARE, EVEN IF ADVISED OF THE POSSIBILITY OF SUCH DAMAGE.
  28:/home/jonas/warwick/3dProfilometer/xpcc/src/xpcc/workflow/timeout_impl.hpp ****  */
  29:/home/jonas/warwick/3dProfilometer/xpcc/src/xpcc/workflow/timeout_impl.hpp **** // ----------------------------------------------------------------------------
  30:/home/jonas/warwick/3dProfilometer/xpcc/src/xpcc/workflow/timeout_impl.hpp **** 
  31:/home/jonas/warwick/3dProfilometer/xpcc/src/xpcc/workflow/timeout_impl.hpp **** #ifndef	XPCC__TIMEOUT_HPP
  32:/home/jonas/warwick/3dProfilometer/xpcc/src/xpcc/workflow/timeout_impl.hpp **** 	#error	"Don't include this file directly, use 'timeout.hpp' instead!"
  33:/home/jonas/warwick/3dProfilometer/xpcc/src/xpcc/workflow/timeout_impl.hpp **** #endif
  34:/home/jonas/warwick/3dProfilometer/xpcc/src/xpcc/workflow/timeout_impl.hpp **** 
  35:/home/jonas/warwick/3dProfilometer/xpcc/src/xpcc/workflow/timeout_impl.hpp **** template<typename T>
  36:/home/jonas/warwick/3dProfilometer/xpcc/src/xpcc/workflow/timeout_impl.hpp **** xpcc::Timeout<T>::Timeout() :
  37:/home/jonas/warwick/3dProfilometer/xpcc/src/xpcc/workflow/timeout_impl.hpp **** 	endTime(0), state(EXPIRED)
  79              		.loc 3 37 0
  80 0022 0222     		movs	r2, #2
  81              	.LBB119:
  82              	.LBB120:
  83              		.file 4 "/home/jonas/warwick/3dProfilometer/xpcc/src/xpcc/workflow/timestamp.hpp"
   1:/home/jonas/warwick/3dProfilometer/xpcc/src/xpcc/workflow/timestamp.hpp **** // coding: utf-8
   2:/home/jonas/warwick/3dProfilometer/xpcc/src/xpcc/workflow/timestamp.hpp **** // ----------------------------------------------------------------------------
   3:/home/jonas/warwick/3dProfilometer/xpcc/src/xpcc/workflow/timestamp.hpp **** /* Copyright (c) 2009, Roboterclub Aachen e.V.
   4:/home/jonas/warwick/3dProfilometer/xpcc/src/xpcc/workflow/timestamp.hpp ****  * All rights reserved.
   5:/home/jonas/warwick/3dProfilometer/xpcc/src/xpcc/workflow/timestamp.hpp ****  *
   6:/home/jonas/warwick/3dProfilometer/xpcc/src/xpcc/workflow/timestamp.hpp ****  * Redistribution and use in source and binary forms, with or without
   7:/home/jonas/warwick/3dProfilometer/xpcc/src/xpcc/workflow/timestamp.hpp ****  * modification, are permitted provided that the following conditions are met:
   8:/home/jonas/warwick/3dProfilometer/xpcc/src/xpcc/workflow/timestamp.hpp ****  * 
   9:/home/jonas/warwick/3dProfilometer/xpcc/src/xpcc/workflow/timestamp.hpp ****  *     * Redistributions of source code must retain the above copyright
  10:/home/jonas/warwick/3dProfilometer/xpcc/src/xpcc/workflow/timestamp.hpp ****  *       notice, this list of conditions and the following disclaimer.
  11:/home/jonas/warwick/3dProfilometer/xpcc/src/xpcc/workflow/timestamp.hpp ****  *     * Redistributions in binary form must reproduce the above copyright
  12:/home/jonas/warwick/3dProfilometer/xpcc/src/xpcc/workflow/timestamp.hpp ****  *       notice, this list of conditions and the following disclaimer in the
  13:/home/jonas/warwick/3dProfilometer/xpcc/src/xpcc/workflow/timestamp.hpp ****  *       documentation and/or other materials provided with the distribution.
  14:/home/jonas/warwick/3dProfilometer/xpcc/src/xpcc/workflow/timestamp.hpp ****  *     * Neither the name of the Roboterclub Aachen e.V. nor the
  15:/home/jonas/warwick/3dProfilometer/xpcc/src/xpcc/workflow/timestamp.hpp ****  *       names of its contributors may be used to endorse or promote products
  16:/home/jonas/warwick/3dProfilometer/xpcc/src/xpcc/workflow/timestamp.hpp ****  *       derived from this software without specific prior written permission.
  17:/home/jonas/warwick/3dProfilometer/xpcc/src/xpcc/workflow/timestamp.hpp ****  *
  18:/home/jonas/warwick/3dProfilometer/xpcc/src/xpcc/workflow/timestamp.hpp ****  * THIS SOFTWARE IS PROVIDED BY ROBOTERCLUB AACHEN E.V. ''AS IS'' AND ANY
  19:/home/jonas/warwick/3dProfilometer/xpcc/src/xpcc/workflow/timestamp.hpp ****  * EXPRESS OR IMPLIED WARRANTIES, INCLUDING, BUT NOT LIMITED TO, THE IMPLIED
  20:/home/jonas/warwick/3dProfilometer/xpcc/src/xpcc/workflow/timestamp.hpp ****  * WARRANTIES OF MERCHANTABILITY AND FITNESS FOR A PARTICULAR PURPOSE ARE
  21:/home/jonas/warwick/3dProfilometer/xpcc/src/xpcc/workflow/timestamp.hpp ****  * DISCLAIMED. IN NO EVENT SHALL ROBOTERCLUB AACHEN E.V. BE LIABLE FOR ANY
  22:/home/jonas/warwick/3dProfilometer/xpcc/src/xpcc/workflow/timestamp.hpp ****  * DIRECT, INDIRECT, INCIDENTAL, SPECIAL, EXEMPLARY, OR CONSEQUENTIAL DAMAGES
  23:/home/jonas/warwick/3dProfilometer/xpcc/src/xpcc/workflow/timestamp.hpp ****  * (INCLUDING, BUT NOT LIMITED TO, PROCUREMENT OF SUBSTITUTE GOODS OR SERVICES;
  24:/home/jonas/warwick/3dProfilometer/xpcc/src/xpcc/workflow/timestamp.hpp ****  * LOSS OF USE, DATA, OR PROFITS; OR BUSINESS INTERRUPTION) HOWEVER CAUSED AND
  25:/home/jonas/warwick/3dProfilometer/xpcc/src/xpcc/workflow/timestamp.hpp ****  * ON ANY THEORY OF LIABILITY, WHETHER IN CONTRACT, STRICT LIABILITY, OR TORT
  26:/home/jonas/warwick/3dProfilometer/xpcc/src/xpcc/workflow/timestamp.hpp ****  * (INCLUDING NEGLIGENCE OR OTHERWISE) ARISING IN ANY WAY OUT OF THE USE OF
  27:/home/jonas/warwick/3dProfilometer/xpcc/src/xpcc/workflow/timestamp.hpp ****  * THIS SOFTWARE, EVEN IF ADVISED OF THE POSSIBILITY OF SUCH DAMAGE.
  28:/home/jonas/warwick/3dProfilometer/xpcc/src/xpcc/workflow/timestamp.hpp ****  */
  29:/home/jonas/warwick/3dProfilometer/xpcc/src/xpcc/workflow/timestamp.hpp **** // ----------------------------------------------------------------------------
  30:/home/jonas/warwick/3dProfilometer/xpcc/src/xpcc/workflow/timestamp.hpp **** 
  31:/home/jonas/warwick/3dProfilometer/xpcc/src/xpcc/workflow/timestamp.hpp **** #ifndef	XPCC__TIMESTAMP_HPP
  32:/home/jonas/warwick/3dProfilometer/xpcc/src/xpcc/workflow/timestamp.hpp **** #define	XPCC__TIMESTAMP_HPP
  33:/home/jonas/warwick/3dProfilometer/xpcc/src/xpcc/workflow/timestamp.hpp **** 
  34:/home/jonas/warwick/3dProfilometer/xpcc/src/xpcc/workflow/timestamp.hpp **** #include <stdint.h>
  35:/home/jonas/warwick/3dProfilometer/xpcc/src/xpcc/workflow/timestamp.hpp **** 
  36:/home/jonas/warwick/3dProfilometer/xpcc/src/xpcc/workflow/timestamp.hpp **** #include <xpcc/io/iostream.hpp>
  37:/home/jonas/warwick/3dProfilometer/xpcc/src/xpcc/workflow/timestamp.hpp **** #include <xpcc/utils/arithmetic_traits.hpp>
  38:/home/jonas/warwick/3dProfilometer/xpcc/src/xpcc/workflow/timestamp.hpp **** 
  39:/home/jonas/warwick/3dProfilometer/xpcc/src/xpcc/workflow/timestamp.hpp **** namespace xpcc
  40:/home/jonas/warwick/3dProfilometer/xpcc/src/xpcc/workflow/timestamp.hpp **** {
  41:/home/jonas/warwick/3dProfilometer/xpcc/src/xpcc/workflow/timestamp.hpp **** 	/**
  42:/home/jonas/warwick/3dProfilometer/xpcc/src/xpcc/workflow/timestamp.hpp **** 	 * \brief	Simple 16-bit timestamp
  43:/home/jonas/warwick/3dProfilometer/xpcc/src/xpcc/workflow/timestamp.hpp **** 	 * 
  44:/home/jonas/warwick/3dProfilometer/xpcc/src/xpcc/workflow/timestamp.hpp **** 	 * The timestamp is calculated in milliseconds.
  45:/home/jonas/warwick/3dProfilometer/xpcc/src/xpcc/workflow/timestamp.hpp **** 	 *
  46:/home/jonas/warwick/3dProfilometer/xpcc/src/xpcc/workflow/timestamp.hpp **** 	 * \author	Fabian Greif
  47:/home/jonas/warwick/3dProfilometer/xpcc/src/xpcc/workflow/timestamp.hpp **** 	 * \ingroup	workflow
  48:/home/jonas/warwick/3dProfilometer/xpcc/src/xpcc/workflow/timestamp.hpp **** 	 */ 
  49:/home/jonas/warwick/3dProfilometer/xpcc/src/xpcc/workflow/timestamp.hpp **** 	class Timestamp
  50:/home/jonas/warwick/3dProfilometer/xpcc/src/xpcc/workflow/timestamp.hpp **** 	{
  51:/home/jonas/warwick/3dProfilometer/xpcc/src/xpcc/workflow/timestamp.hpp **** 	public:
  52:/home/jonas/warwick/3dProfilometer/xpcc/src/xpcc/workflow/timestamp.hpp **** 		typedef uint_fast16_t Type;
  53:/home/jonas/warwick/3dProfilometer/xpcc/src/xpcc/workflow/timestamp.hpp **** 		
  54:/home/jonas/warwick/3dProfilometer/xpcc/src/xpcc/workflow/timestamp.hpp **** 	public:
  55:/home/jonas/warwick/3dProfilometer/xpcc/src/xpcc/workflow/timestamp.hpp **** 		///\param time in ms
  56:/home/jonas/warwick/3dProfilometer/xpcc/src/xpcc/workflow/timestamp.hpp **** 		Timestamp(const uint_fast16_t time = 0) : 
  57:/home/jonas/warwick/3dProfilometer/xpcc/src/xpcc/workflow/timestamp.hpp **** 			time(time)
  84              		.loc 4 57 0
  85 0024 2562     		str	r5, [r4, #32]
  86              	.LBE120:
  87              	.LBE119:
  88              		.loc 3 37 0
  89 0026 84F82420 		strb	r2, [r4, #36]
  90              	.LBE118:
  91              	.LBE117:
  92              		.loc 2 123 0
  93 002a 84F82850 		strb	r5, [r4, #40]
  94              	.LBE122:
  95              	.LBE124:
  96              		.loc 1 45 0
  97 002e E362     		str	r3, [r4, #44]
  98 0030 2363     		str	r3, [r4, #48]
  99              	.LBE125:
  46:/home/jonas/warwick/3dProfilometer/xpcc/src/xpcc/communication/dispatcher.cpp **** {
  47:/home/jonas/warwick/3dProfilometer/xpcc/src/xpcc/communication/dispatcher.cpp **** }
 100              		.loc 1 47 0
 101 0032 2046     		mov	r0, r4
 102 0034 38BD     		pop	{r3, r4, r5, pc}
 103              	.L3:
 104 0036 00BF     		.align	2
 105              	.L2:
 106 0038 00000000 		.word	_ZN4xpcc12SmartPointerC1Ev
 107              		.cfi_endproc
 108              	.LFE159:
 110              		.global	_ZN4xpcc10DispatcherC1EPNS_16BackendInterfaceEPNS_7PostmanE
 111              		.thumb_set _ZN4xpcc10DispatcherC1EPNS_16BackendInterfaceEPNS_7PostmanE,_ZN4xpcc10DispatcherC2EPNS_
 112              		.section	.text._ZN4xpcc10Dispatcher6updateEv,"ax",%progbits
 113              		.align	2
 114              		.global	_ZN4xpcc10Dispatcher6updateEv
 115              		.thumb
 116              		.thumb_func
 118              	_ZN4xpcc10Dispatcher6updateEv:
 119              	.LFB161:
  48:/home/jonas/warwick/3dProfilometer/xpcc/src/xpcc/communication/dispatcher.cpp **** 
  49:/home/jonas/warwick/3dProfilometer/xpcc/src/xpcc/communication/dispatcher.cpp **** // ----------------------------------------------------------------------------
  50:/home/jonas/warwick/3dProfilometer/xpcc/src/xpcc/communication/dispatcher.cpp **** void
  51:/home/jonas/warwick/3dProfilometer/xpcc/src/xpcc/communication/dispatcher.cpp **** xpcc::Dispatcher::update()
  52:/home/jonas/warwick/3dProfilometer/xpcc/src/xpcc/communication/dispatcher.cpp **** {
 120              		.loc 1 52 0
 121              		.cfi_startproc
 122              		@ args = 0, pretend = 0, frame = 24
 123              		@ frame_needed = 0, uses_anonymous_args = 0
 124              	.LVL4:
 125 0000 2DE9F04F 		push	{r4, r5, r6, r7, r8, r9, sl, fp, lr}
 126              	.LCFI1:
 127              		.cfi_def_cfa_offset 36
 128              		.cfi_offset 4, -36
 129              		.cfi_offset 5, -32
 130              		.cfi_offset 6, -28
 131              		.cfi_offset 7, -24
 132              		.cfi_offset 8, -20
 133              		.cfi_offset 9, -16
 134              		.cfi_offset 10, -12
 135              		.cfi_offset 11, -8
 136              		.cfi_offset 14, -4
 137 0004 0746     		mov	r7, r0
 138              	.LBB242:
  53:/home/jonas/warwick/3dProfilometer/xpcc/src/xpcc/communication/dispatcher.cpp **** 	this->backend->update();
 139              		.loc 1 53 0
 140 0006 0068     		ldr	r0, [r0, #0]
 141              	.LVL5:
 142 0008 0368     		ldr	r3, [r0, #0]
 143              	.LBE242:
  52:/home/jonas/warwick/3dProfilometer/xpcc/src/xpcc/communication/dispatcher.cpp **** {
 144              		.loc 1 52 0
 145 000a 87B0     		sub	sp, sp, #28
 146              	.LCFI2:
 147              		.cfi_def_cfa_offset 64
 148              	.LBB443:
 149              		.loc 1 53 0
 150 000c 9B68     		ldr	r3, [r3, #8]
 151 000e 9847     		blx	r3
 152              	.LVL6:
 153              	.L5:
  54:/home/jonas/warwick/3dProfilometer/xpcc/src/xpcc/communication/dispatcher.cpp **** 	
  55:/home/jonas/warwick/3dProfilometer/xpcc/src/xpcc/communication/dispatcher.cpp **** 	//Check if a new packet was received by the backend
  56:/home/jonas/warwick/3dProfilometer/xpcc/src/xpcc/communication/dispatcher.cpp **** 	while (this->backend->isPacketAvailable())
 154              		.loc 1 56 0 discriminator 1
 155 0010 3868     		ldr	r0, [r7, #0]
 156 0012 0368     		ldr	r3, [r0, #0]
 157 0014 1B69     		ldr	r3, [r3, #16]
 158 0016 9847     		blx	r3
 159              	.LVL7:
 160 0018 0028     		cmp	r0, #0
 161 001a 00F09280 		beq	.L91
 162              	.LBB243:
  57:/home/jonas/warwick/3dProfilometer/xpcc/src/xpcc/communication/dispatcher.cpp **** 	{
  58:/home/jonas/warwick/3dProfilometer/xpcc/src/xpcc/communication/dispatcher.cpp **** 		const Header& header = this->backend->getPacketHeader();
 163              		.loc 1 58 0
 164 001e 3868     		ldr	r0, [r7, #0]
 165 0020 0368     		ldr	r3, [r0, #0]
 166 0022 5B69     		ldr	r3, [r3, #20]
 167 0024 9847     		blx	r3
 168              	.LVL8:
  59:/home/jonas/warwick/3dProfilometer/xpcc/src/xpcc/communication/dispatcher.cpp **** 		const SmartPointer& payload = this->backend->getPacketPayload();
 169              		.loc 1 59 0
 170 0026 3968     		ldr	r1, [r7, #0]
 171 0028 0B68     		ldr	r3, [r1, #0]
  58:/home/jonas/warwick/3dProfilometer/xpcc/src/xpcc/communication/dispatcher.cpp **** 		const Header& header = this->backend->getPacketHeader();
 172              		.loc 1 58 0
 173 002a 0646     		mov	r6, r0
 174              	.LVL9:
 175              		.loc 1 59 0
 176 002c 9B69     		ldr	r3, [r3, #24]
 177 002e 02A8     		add	r0, sp, #8
 178              	.LVL10:
 179 0030 9847     		blx	r3
 180              	.LVL11:
  60:/home/jonas/warwick/3dProfilometer/xpcc/src/xpcc/communication/dispatcher.cpp **** 		
  61:/home/jonas/warwick/3dProfilometer/xpcc/src/xpcc/communication/dispatcher.cpp **** 		if (header.type == Header::REQUEST && !header.isAcknowledge)
 181              		.loc 1 61 0
 182 0032 3078     		ldrb	r0, [r6, #0]	@ zero_extendqisi2
 183 0034 10B9     		cbnz	r0, .L6
 184              		.loc 1 61 0 is_stmt 0 discriminator 1
 185 0036 7378     		ldrb	r3, [r6, #1]	@ zero_extendqisi2
 186 0038 002B     		cmp	r3, #0
 187 003a 52D0     		beq	.L92
 188              	.L6:
 189              	.LVL12:
 190              	.LBB244:
 191              	.LBB245:
  62:/home/jonas/warwick/3dProfilometer/xpcc/src/xpcc/communication/dispatcher.cpp **** 		{
  63:/home/jonas/warwick/3dProfilometer/xpcc/src/xpcc/communication/dispatcher.cpp **** 			this->handleActionCall(header, payload);
  64:/home/jonas/warwick/3dProfilometer/xpcc/src/xpcc/communication/dispatcher.cpp **** 		}
  65:/home/jonas/warwick/3dProfilometer/xpcc/src/xpcc/communication/dispatcher.cpp **** 		else
  66:/home/jonas/warwick/3dProfilometer/xpcc/src/xpcc/communication/dispatcher.cpp **** 		{
  67:/home/jonas/warwick/3dProfilometer/xpcc/src/xpcc/communication/dispatcher.cpp **** 			this->handlePacket(header, payload);
  68:/home/jonas/warwick/3dProfilometer/xpcc/src/xpcc/communication/dispatcher.cpp **** 			if (!header.isAcknowledge && header.destination != 0)
  69:/home/jonas/warwick/3dProfilometer/xpcc/src/xpcc/communication/dispatcher.cpp **** 			{
  70:/home/jonas/warwick/3dProfilometer/xpcc/src/xpcc/communication/dispatcher.cpp **** 				if (postman->isComponentAvaliable(header.destination)) {
  71:/home/jonas/warwick/3dProfilometer/xpcc/src/xpcc/communication/dispatcher.cpp **** 					this->sendAcknowledge(header);
  72:/home/jonas/warwick/3dProfilometer/xpcc/src/xpcc/communication/dispatcher.cpp **** 				}
  73:/home/jonas/warwick/3dProfilometer/xpcc/src/xpcc/communication/dispatcher.cpp **** 			}
  74:/home/jonas/warwick/3dProfilometer/xpcc/src/xpcc/communication/dispatcher.cpp **** 		}
  75:/home/jonas/warwick/3dProfilometer/xpcc/src/xpcc/communication/dispatcher.cpp **** 		
  76:/home/jonas/warwick/3dProfilometer/xpcc/src/xpcc/communication/dispatcher.cpp **** 		this->backend->dropPacket();
  77:/home/jonas/warwick/3dProfilometer/xpcc/src/xpcc/communication/dispatcher.cpp **** 	}
  78:/home/jonas/warwick/3dProfilometer/xpcc/src/xpcc/communication/dispatcher.cpp **** 	
  79:/home/jonas/warwick/3dProfilometer/xpcc/src/xpcc/communication/dispatcher.cpp **** 	// check if there are packets to send
  80:/home/jonas/warwick/3dProfilometer/xpcc/src/xpcc/communication/dispatcher.cpp **** 	this->handleWaitingMessages();
  81:/home/jonas/warwick/3dProfilometer/xpcc/src/xpcc/communication/dispatcher.cpp **** }
  82:/home/jonas/warwick/3dProfilometer/xpcc/src/xpcc/communication/dispatcher.cpp **** 
  83:/home/jonas/warwick/3dProfilometer/xpcc/src/xpcc/communication/dispatcher.cpp **** void
  84:/home/jonas/warwick/3dProfilometer/xpcc/src/xpcc/communication/dispatcher.cpp **** xpcc::Dispatcher::handleActionCall(const Header& header,
  85:/home/jonas/warwick/3dProfilometer/xpcc/src/xpcc/communication/dispatcher.cpp **** 		const SmartPointer& payload)
  86:/home/jonas/warwick/3dProfilometer/xpcc/src/xpcc/communication/dispatcher.cpp **** {
  87:/home/jonas/warwick/3dProfilometer/xpcc/src/xpcc/communication/dispatcher.cpp **** 	xpcc::Postman::DeliverInfo result = postman->deliverPacket(header, payload);
  88:/home/jonas/warwick/3dProfilometer/xpcc/src/xpcc/communication/dispatcher.cpp **** 	
  89:/home/jonas/warwick/3dProfilometer/xpcc/src/xpcc/communication/dispatcher.cpp **** 	if (result == Postman::OK && header.destination != 0)
  90:/home/jonas/warwick/3dProfilometer/xpcc/src/xpcc/communication/dispatcher.cpp **** 	{
  91:/home/jonas/warwick/3dProfilometer/xpcc/src/xpcc/communication/dispatcher.cpp **** 		// transmit ACK:
  92:/home/jonas/warwick/3dProfilometer/xpcc/src/xpcc/communication/dispatcher.cpp **** 		// Message is not an EVENT and the destination is outside
  93:/home/jonas/warwick/3dProfilometer/xpcc/src/xpcc/communication/dispatcher.cpp **** 		// this board because internal messages aren't received
  94:/home/jonas/warwick/3dProfilometer/xpcc/src/xpcc/communication/dispatcher.cpp **** 		// by the backend
  95:/home/jonas/warwick/3dProfilometer/xpcc/src/xpcc/communication/dispatcher.cpp **** 		this->sendAcknowledge(header);
  96:/home/jonas/warwick/3dProfilometer/xpcc/src/xpcc/communication/dispatcher.cpp **** 	}
  97:/home/jonas/warwick/3dProfilometer/xpcc/src/xpcc/communication/dispatcher.cpp **** 	
  98:/home/jonas/warwick/3dProfilometer/xpcc/src/xpcc/communication/dispatcher.cpp **** 	// TODO Error reporting
  99:/home/jonas/warwick/3dProfilometer/xpcc/src/xpcc/communication/dispatcher.cpp **** }
 100:/home/jonas/warwick/3dProfilometer/xpcc/src/xpcc/communication/dispatcher.cpp **** 
 101:/home/jonas/warwick/3dProfilometer/xpcc/src/xpcc/communication/dispatcher.cpp **** void
 102:/home/jonas/warwick/3dProfilometer/xpcc/src/xpcc/communication/dispatcher.cpp **** xpcc::Dispatcher::sendAcknowledge(const Header& header)
 103:/home/jonas/warwick/3dProfilometer/xpcc/src/xpcc/communication/dispatcher.cpp **** {
 104:/home/jonas/warwick/3dProfilometer/xpcc/src/xpcc/communication/dispatcher.cpp **** 	Header ackHeader(
 105:/home/jonas/warwick/3dProfilometer/xpcc/src/xpcc/communication/dispatcher.cpp **** 			header.type, true,
 106:/home/jonas/warwick/3dProfilometer/xpcc/src/xpcc/communication/dispatcher.cpp **** 			header.source, header.destination,
 107:/home/jonas/warwick/3dProfilometer/xpcc/src/xpcc/communication/dispatcher.cpp **** 			header.packetIdentifier);
 108:/home/jonas/warwick/3dProfilometer/xpcc/src/xpcc/communication/dispatcher.cpp **** 	
 109:/home/jonas/warwick/3dProfilometer/xpcc/src/xpcc/communication/dispatcher.cpp **** 	this->backend->sendPacket(ackHeader);
 110:/home/jonas/warwick/3dProfilometer/xpcc/src/xpcc/communication/dispatcher.cpp **** }
 111:/home/jonas/warwick/3dProfilometer/xpcc/src/xpcc/communication/dispatcher.cpp **** 
 112:/home/jonas/warwick/3dProfilometer/xpcc/src/xpcc/communication/dispatcher.cpp **** bool
 113:/home/jonas/warwick/3dProfilometer/xpcc/src/xpcc/communication/dispatcher.cpp **** xpcc::Dispatcher::Entry::headerFits(const Header& inHeader) const
 114:/home/jonas/warwick/3dProfilometer/xpcc/src/xpcc/communication/dispatcher.cpp **** {
 115:/home/jonas/warwick/3dProfilometer/xpcc/src/xpcc/communication/dispatcher.cpp **** 	return ((inHeader.source == this->header.destination) &&
 116:/home/jonas/warwick/3dProfilometer/xpcc/src/xpcc/communication/dispatcher.cpp **** 			(inHeader.destination	== this->header.source) &&
 117:/home/jonas/warwick/3dProfilometer/xpcc/src/xpcc/communication/dispatcher.cpp **** 			(inHeader.packetIdentifier == this->header.packetIdentifier));
 118:/home/jonas/warwick/3dProfilometer/xpcc/src/xpcc/communication/dispatcher.cpp **** }
 119:/home/jonas/warwick/3dProfilometer/xpcc/src/xpcc/communication/dispatcher.cpp **** 
 120:/home/jonas/warwick/3dProfilometer/xpcc/src/xpcc/communication/dispatcher.cpp **** // ----------------------------------------------------------------------------
 121:/home/jonas/warwick/3dProfilometer/xpcc/src/xpcc/communication/dispatcher.cpp **** void
 122:/home/jonas/warwick/3dProfilometer/xpcc/src/xpcc/communication/dispatcher.cpp **** xpcc::Dispatcher::append(Entry *next)
 123:/home/jonas/warwick/3dProfilometer/xpcc/src/xpcc/communication/dispatcher.cpp **** {
 124:/home/jonas/warwick/3dProfilometer/xpcc/src/xpcc/communication/dispatcher.cpp **** 	this->last->next = next;
 125:/home/jonas/warwick/3dProfilometer/xpcc/src/xpcc/communication/dispatcher.cpp **** 	
 126:/home/jonas/warwick/3dProfilometer/xpcc/src/xpcc/communication/dispatcher.cpp **** 	// find tail of next
 127:/home/jonas/warwick/3dProfilometer/xpcc/src/xpcc/communication/dispatcher.cpp **** 	while (next->next != 0) {
 128:/home/jonas/warwick/3dProfilometer/xpcc/src/xpcc/communication/dispatcher.cpp **** 		next = next->next;
 129:/home/jonas/warwick/3dProfilometer/xpcc/src/xpcc/communication/dispatcher.cpp **** 	}
 130:/home/jonas/warwick/3dProfilometer/xpcc/src/xpcc/communication/dispatcher.cpp **** 	
 131:/home/jonas/warwick/3dProfilometer/xpcc/src/xpcc/communication/dispatcher.cpp **** 	this->last = next;
 132:/home/jonas/warwick/3dProfilometer/xpcc/src/xpcc/communication/dispatcher.cpp **** }
 133:/home/jonas/warwick/3dProfilometer/xpcc/src/xpcc/communication/dispatcher.cpp **** 
 134:/home/jonas/warwick/3dProfilometer/xpcc/src/xpcc/communication/dispatcher.cpp **** void
 135:/home/jonas/warwick/3dProfilometer/xpcc/src/xpcc/communication/dispatcher.cpp **** xpcc::Dispatcher::insertAfter(Entry *fix, Entry *next)
 136:/home/jonas/warwick/3dProfilometer/xpcc/src/xpcc/communication/dispatcher.cpp **** {
 137:/home/jonas/warwick/3dProfilometer/xpcc/src/xpcc/communication/dispatcher.cpp **** 	Entry *tmp = fix->next;
 138:/home/jonas/warwick/3dProfilometer/xpcc/src/xpcc/communication/dispatcher.cpp **** 	fix->next = next;
 139:/home/jonas/warwick/3dProfilometer/xpcc/src/xpcc/communication/dispatcher.cpp **** 	
 140:/home/jonas/warwick/3dProfilometer/xpcc/src/xpcc/communication/dispatcher.cpp **** 	while (next->next)// find tail of next
 141:/home/jonas/warwick/3dProfilometer/xpcc/src/xpcc/communication/dispatcher.cpp **** 		next = next->next;
 142:/home/jonas/warwick/3dProfilometer/xpcc/src/xpcc/communication/dispatcher.cpp **** 	
 143:/home/jonas/warwick/3dProfilometer/xpcc/src/xpcc/communication/dispatcher.cpp **** 	if (tmp) {
 144:/home/jonas/warwick/3dProfilometer/xpcc/src/xpcc/communication/dispatcher.cpp **** 		next->next = tmp;
 145:/home/jonas/warwick/3dProfilometer/xpcc/src/xpcc/communication/dispatcher.cpp **** 	}
 146:/home/jonas/warwick/3dProfilometer/xpcc/src/xpcc/communication/dispatcher.cpp **** 	else
 147:/home/jonas/warwick/3dProfilometer/xpcc/src/xpcc/communication/dispatcher.cpp **** 	{// fix was the last element, so last has to be updated
 148:/home/jonas/warwick/3dProfilometer/xpcc/src/xpcc/communication/dispatcher.cpp **** 		last = next;
 149:/home/jonas/warwick/3dProfilometer/xpcc/src/xpcc/communication/dispatcher.cpp **** 	}
 150:/home/jonas/warwick/3dProfilometer/xpcc/src/xpcc/communication/dispatcher.cpp **** }
 151:/home/jonas/warwick/3dProfilometer/xpcc/src/xpcc/communication/dispatcher.cpp **** 
 152:/home/jonas/warwick/3dProfilometer/xpcc/src/xpcc/communication/dispatcher.cpp **** xpcc::Dispatcher::Entry *
 153:/home/jonas/warwick/3dProfilometer/xpcc/src/xpcc/communication/dispatcher.cpp **** xpcc::Dispatcher::removeNextEntryFromList(Entry *entry)
 154:/home/jonas/warwick/3dProfilometer/xpcc/src/xpcc/communication/dispatcher.cpp **** {
 155:/home/jonas/warwick/3dProfilometer/xpcc/src/xpcc/communication/dispatcher.cpp **** 	Entry *next = entry->next;
 156:/home/jonas/warwick/3dProfilometer/xpcc/src/xpcc/communication/dispatcher.cpp **** 	if (next)
 157:/home/jonas/warwick/3dProfilometer/xpcc/src/xpcc/communication/dispatcher.cpp **** 	{
 158:/home/jonas/warwick/3dProfilometer/xpcc/src/xpcc/communication/dispatcher.cpp **** 		entry->next = next->next;
 159:/home/jonas/warwick/3dProfilometer/xpcc/src/xpcc/communication/dispatcher.cpp **** 		
 160:/home/jonas/warwick/3dProfilometer/xpcc/src/xpcc/communication/dispatcher.cpp **** 		if (next == last) {
 161:/home/jonas/warwick/3dProfilometer/xpcc/src/xpcc/communication/dispatcher.cpp **** 			last = entry;
 162:/home/jonas/warwick/3dProfilometer/xpcc/src/xpcc/communication/dispatcher.cpp **** 		}
 163:/home/jonas/warwick/3dProfilometer/xpcc/src/xpcc/communication/dispatcher.cpp **** 		// next->next = 0; // is null already
 164:/home/jonas/warwick/3dProfilometer/xpcc/src/xpcc/communication/dispatcher.cpp **** 		else {
 165:/home/jonas/warwick/3dProfilometer/xpcc/src/xpcc/communication/dispatcher.cpp **** 			next->next = 0;
 166:/home/jonas/warwick/3dProfilometer/xpcc/src/xpcc/communication/dispatcher.cpp **** 		}
 167:/home/jonas/warwick/3dProfilometer/xpcc/src/xpcc/communication/dispatcher.cpp **** 	}
 168:/home/jonas/warwick/3dProfilometer/xpcc/src/xpcc/communication/dispatcher.cpp **** 	
 169:/home/jonas/warwick/3dProfilometer/xpcc/src/xpcc/communication/dispatcher.cpp **** 	return next;
 170:/home/jonas/warwick/3dProfilometer/xpcc/src/xpcc/communication/dispatcher.cpp **** }
 171:/home/jonas/warwick/3dProfilometer/xpcc/src/xpcc/communication/dispatcher.cpp **** 
 172:/home/jonas/warwick/3dProfilometer/xpcc/src/xpcc/communication/dispatcher.cpp **** void
 173:/home/jonas/warwick/3dProfilometer/xpcc/src/xpcc/communication/dispatcher.cpp **** xpcc::Dispatcher::handlePacket(const Header& header,
 174:/home/jonas/warwick/3dProfilometer/xpcc/src/xpcc/communication/dispatcher.cpp **** 		const SmartPointer& payload)
 175:/home/jonas/warwick/3dProfilometer/xpcc/src/xpcc/communication/dispatcher.cpp **** {
 176:/home/jonas/warwick/3dProfilometer/xpcc/src/xpcc/communication/dispatcher.cpp **** 	Entry *prev = first;// first is always a dummy entry
 192              		.loc 1 176 0 is_stmt 1
 193 003c FD6A     		ldr	r5, [r7, #44]
 194              	.LVL13:
 195 003e 04E0     		b	.L8
 196              	.LVL14:
 197              	.L95:
 198              	.LBB246:
 199              	.LBB247:
 200              	.LBB248:
 201              	.LBB249:
 117:/home/jonas/warwick/3dProfilometer/xpcc/src/xpcc/communication/dispatcher.cpp **** 			(inHeader.packetIdentifier == this->header.packetIdentifier));
 202              		.loc 1 117 0
 203 0040 F178     		ldrb	r1, [r6, #3]	@ zero_extendqisi2
 204 0042 A27A     		ldrb	r2, [r4, #10]	@ zero_extendqisi2
 205 0044 9142     		cmp	r1, r2
 206 0046 25D0     		beq	.L93
 207              	.L12:
 208              	.LBE249:
 209              	.LBE248:
 210              	.LBE247:
 211              	.LBE246:
 212              	.LBE245:
 213              	.LBE244:
 214              	.LBE243:
 215              	.LBE443:
  52:/home/jonas/warwick/3dProfilometer/xpcc/src/xpcc/communication/dispatcher.cpp **** {
 216              		.loc 1 52 0
 217 0048 2546     		mov	r5, r4
 218              	.LVL15:
 219              	.L8:
 220              	.LBB444:
 221              	.LBB314:
 222              	.LBB294:
 223              	.LBB290:
 224              	.LBB286:
 177:/home/jonas/warwick/3dProfilometer/xpcc/src/xpcc/communication/dispatcher.cpp **** 	while (Entry *entry = prev->next)
 225              		.loc 1 177 0
 226 004a 6C68     		ldr	r4, [r5, #4]
 227              	.LVL16:
 228 004c 002C     		cmp	r4, #0
 229 004e 44D0     		beq	.L94
 230              	.LBB282:
 178:/home/jonas/warwick/3dProfilometer/xpcc/src/xpcc/communication/dispatcher.cpp **** 	{
 179:/home/jonas/warwick/3dProfilometer/xpcc/src/xpcc/communication/dispatcher.cpp **** 		if (entry->type == Entry::DEFAULT)
 231              		.loc 1 179 0
 232 0050 2378     		ldrb	r3, [r4, #0]	@ zero_extendqisi2
 233 0052 002B     		cmp	r3, #0
 234 0054 F4D0     		beq	.L95
 235              	.LBB251:
 180:/home/jonas/warwick/3dProfilometer/xpcc/src/xpcc/communication/dispatcher.cpp **** 		{
 181:/home/jonas/warwick/3dProfilometer/xpcc/src/xpcc/communication/dispatcher.cpp **** 			// waiting for ack, no response can be handled
 182:/home/jonas/warwick/3dProfilometer/xpcc/src/xpcc/communication/dispatcher.cpp **** 			if (entry->headerFits(header))
 183:/home/jonas/warwick/3dProfilometer/xpcc/src/xpcc/communication/dispatcher.cpp **** 			{
 184:/home/jonas/warwick/3dProfilometer/xpcc/src/xpcc/communication/dispatcher.cpp **** 				// entry e->next has to be removed
 185:/home/jonas/warwick/3dProfilometer/xpcc/src/xpcc/communication/dispatcher.cpp **** 				this->removeNextEntryFromList(prev);
 186:/home/jonas/warwick/3dProfilometer/xpcc/src/xpcc/communication/dispatcher.cpp **** 				delete entry;
 187:/home/jonas/warwick/3dProfilometer/xpcc/src/xpcc/communication/dispatcher.cpp **** 				
 188:/home/jonas/warwick/3dProfilometer/xpcc/src/xpcc/communication/dispatcher.cpp **** 				return;
 189:/home/jonas/warwick/3dProfilometer/xpcc/src/xpcc/communication/dispatcher.cpp **** 			}
 190:/home/jonas/warwick/3dProfilometer/xpcc/src/xpcc/communication/dispatcher.cpp **** 		}
 191:/home/jonas/warwick/3dProfilometer/xpcc/src/xpcc/communication/dispatcher.cpp **** 		else if (entry->type == Entry::CALLBACK)
 236              		.loc 1 191 0
 237 0056 012B     		cmp	r3, #1
 238 0058 F6D1     		bne	.L12
 239              	.LVL17:
 240              	.LBB252:
 241              	.LBB253:
 242              	.LBB254:
 117:/home/jonas/warwick/3dProfilometer/xpcc/src/xpcc/communication/dispatcher.cpp **** 			(inHeader.packetIdentifier == this->header.packetIdentifier));
 243              		.loc 1 117 0
 244 005a F278     		ldrb	r2, [r6, #3]	@ zero_extendqisi2
 245 005c A37A     		ldrb	r3, [r4, #10]	@ zero_extendqisi2
 246 005e 9A42     		cmp	r2, r3
 247 0060 F2D1     		bne	.L12
 248 0062 B178     		ldrb	r1, [r6, #2]	@ zero_extendqisi2
 249 0064 E37A     		ldrb	r3, [r4, #11]	@ zero_extendqisi2
 250 0066 8B42     		cmp	r3, r1
 251 0068 EED1     		bne	.L12
 252 006a 3279     		ldrb	r2, [r6, #4]	@ zero_extendqisi2
 253 006c 237B     		ldrb	r3, [r4, #12]	@ zero_extendqisi2
 254 006e 9A42     		cmp	r2, r3
 255 0070 EAD1     		bne	.L12
 256              	.LBE254:
 257              	.LBE253:
 192:/home/jonas/warwick/3dProfilometer/xpcc/src/xpcc/communication/dispatcher.cpp **** 		{
 193:/home/jonas/warwick/3dProfilometer/xpcc/src/xpcc/communication/dispatcher.cpp **** 			CallbackEntry *callbackEntry = 
 194:/home/jonas/warwick/3dProfilometer/xpcc/src/xpcc/communication/dispatcher.cpp **** 					reinterpret_cast<CallbackEntry *>(entry);
 195:/home/jonas/warwick/3dProfilometer/xpcc/src/xpcc/communication/dispatcher.cpp **** 			
 196:/home/jonas/warwick/3dProfilometer/xpcc/src/xpcc/communication/dispatcher.cpp **** 			if (callbackEntry->headerFits(header))
 197:/home/jonas/warwick/3dProfilometer/xpcc/src/xpcc/communication/dispatcher.cpp **** 			{
 198:/home/jonas/warwick/3dProfilometer/xpcc/src/xpcc/communication/dispatcher.cpp **** 				// entry actual has to be marked acknowledged if acknowleded
 199:/home/jonas/warwick/3dProfilometer/xpcc/src/xpcc/communication/dispatcher.cpp **** 				// request
 200:/home/jonas/warwick/3dProfilometer/xpcc/src/xpcc/communication/dispatcher.cpp **** 				if (header.type == Header::REQUEST)
 201:/home/jonas/warwick/3dProfilometer/xpcc/src/xpcc/communication/dispatcher.cpp **** 				{
 202:/home/jonas/warwick/3dProfilometer/xpcc/src/xpcc/communication/dispatcher.cpp **** 					// Must be an acknowledge otherwise there is an error in
 203:/home/jonas/warwick/3dProfilometer/xpcc/src/xpcc/communication/dispatcher.cpp **** 					// communication, cause no requests can be handled here
 204:/home/jonas/warwick/3dProfilometer/xpcc/src/xpcc/communication/dispatcher.cpp **** 					if (header.isAcknowledge)
 258              		.loc 1 204 0
 259 0072 7378     		ldrb	r3, [r6, #1]	@ zero_extendqisi2
 200:/home/jonas/warwick/3dProfilometer/xpcc/src/xpcc/communication/dispatcher.cpp **** 				if (header.type == Header::REQUEST)
 260              		.loc 1 200 0
 261 0074 0028     		cmp	r0, #0
 262 0076 00F03D81 		beq	.L96
 205:/home/jonas/warwick/3dProfilometer/xpcc/src/xpcc/communication/dispatcher.cpp **** 					{
 206:/home/jonas/warwick/3dProfilometer/xpcc/src/xpcc/communication/dispatcher.cpp **** 						// make sure no requests passed here
 207:/home/jonas/warwick/3dProfilometer/xpcc/src/xpcc/communication/dispatcher.cpp **** 						callbackEntry->state = Entry::WAIT_FOR_RESPONSE;
 208:/home/jonas/warwick/3dProfilometer/xpcc/src/xpcc/communication/dispatcher.cpp **** 					}
 209:/home/jonas/warwick/3dProfilometer/xpcc/src/xpcc/communication/dispatcher.cpp **** 				}
 210:/home/jonas/warwick/3dProfilometer/xpcc/src/xpcc/communication/dispatcher.cpp **** 				else
 211:/home/jonas/warwick/3dProfilometer/xpcc/src/xpcc/communication/dispatcher.cpp **** 				{
 212:/home/jonas/warwick/3dProfilometer/xpcc/src/xpcc/communication/dispatcher.cpp **** 					// response or negative response
 213:/home/jonas/warwick/3dProfilometer/xpcc/src/xpcc/communication/dispatcher.cpp **** 					if (!header.isAcknowledge) {
 263              		.loc 1 213 0
 264 007a 002B     		cmp	r3, #0
 265 007c 00F0D081 		beq	.L97
 155:/home/jonas/warwick/3dProfilometer/xpcc/src/xpcc/communication/dispatcher.cpp **** 	Entry *next = entry->next;
 266              		.loc 1 155 0
 267 0080 2346     		mov	r3, r4
 268              	.L17:
 269              	.LBB255:
 270              	.LBB256:
 160:/home/jonas/warwick/3dProfilometer/xpcc/src/xpcc/communication/dispatcher.cpp **** 		if (next == last) {
 271              		.loc 1 160 0
 272 0082 3A6B     		ldr	r2, [r7, #48]
 158:/home/jonas/warwick/3dProfilometer/xpcc/src/xpcc/communication/dispatcher.cpp **** 		entry->next = next->next;
 273              		.loc 1 158 0
 274 0084 5968     		ldr	r1, [r3, #4]
 160:/home/jonas/warwick/3dProfilometer/xpcc/src/xpcc/communication/dispatcher.cpp **** 		if (next == last) {
 275              		.loc 1 160 0
 276 0086 9342     		cmp	r3, r2
 158:/home/jonas/warwick/3dProfilometer/xpcc/src/xpcc/communication/dispatcher.cpp **** 		entry->next = next->next;
 277              		.loc 1 158 0
 278 0088 6960     		str	r1, [r5, #4]
 160:/home/jonas/warwick/3dProfilometer/xpcc/src/xpcc/communication/dispatcher.cpp **** 		if (next == last) {
 279              		.loc 1 160 0
 280 008a 00F03881 		beq	.L89
 165:/home/jonas/warwick/3dProfilometer/xpcc/src/xpcc/communication/dispatcher.cpp **** 			next->next = 0;
 281              		.loc 1 165 0
 282 008e 0022     		movs	r2, #0
 283 0090 5A60     		str	r2, [r3, #4]
 284 0092 0EE0     		b	.L20
 285              	.LVL18:
 286              	.L93:
 287              	.LBE256:
 288              	.LBE255:
 289              	.LBE252:
 290              	.LBE251:
 291              	.LBB275:
 292              	.LBB250:
 117:/home/jonas/warwick/3dProfilometer/xpcc/src/xpcc/communication/dispatcher.cpp **** 			(inHeader.packetIdentifier == this->header.packetIdentifier));
 293              		.loc 1 117 0
 294 0094 B178     		ldrb	r1, [r6, #2]	@ zero_extendqisi2
 295 0096 E27A     		ldrb	r2, [r4, #11]	@ zero_extendqisi2
 296 0098 9142     		cmp	r1, r2
 297 009a D5D1     		bne	.L12
 298 009c 3179     		ldrb	r1, [r6, #4]	@ zero_extendqisi2
 299 009e 227B     		ldrb	r2, [r4, #12]	@ zero_extendqisi2
 300 00a0 9142     		cmp	r1, r2
 301 00a2 D1D1     		bne	.L12
 302              	.LVL19:
 303              	.LBE250:
 304              	.LBE275:
 305              	.LBB276:
 306              	.LBB277:
 160:/home/jonas/warwick/3dProfilometer/xpcc/src/xpcc/communication/dispatcher.cpp **** 		if (next == last) {
 307              		.loc 1 160 0
 308 00a4 3A6B     		ldr	r2, [r7, #48]
 158:/home/jonas/warwick/3dProfilometer/xpcc/src/xpcc/communication/dispatcher.cpp **** 		entry->next = next->next;
 309              		.loc 1 158 0
 310 00a6 6168     		ldr	r1, [r4, #4]
 160:/home/jonas/warwick/3dProfilometer/xpcc/src/xpcc/communication/dispatcher.cpp **** 		if (next == last) {
 311              		.loc 1 160 0
 312 00a8 9442     		cmp	r4, r2
 158:/home/jonas/warwick/3dProfilometer/xpcc/src/xpcc/communication/dispatcher.cpp **** 		entry->next = next->next;
 313              		.loc 1 158 0
 314 00aa 6960     		str	r1, [r5, #4]
 160:/home/jonas/warwick/3dProfilometer/xpcc/src/xpcc/communication/dispatcher.cpp **** 		if (next == last) {
 315              		.loc 1 160 0
 316 00ac 00F02781 		beq	.L89
 165:/home/jonas/warwick/3dProfilometer/xpcc/src/xpcc/communication/dispatcher.cpp **** 			next->next = 0;
 317              		.loc 1 165 0
 318 00b0 6360     		str	r3, [r4, #4]
 319              	.LVL20:
 320              	.L20:
 321              	.LBE277:
 322              	.LBE276:
 323              	.LBB278:
 324              	.LBB271:
 325              	.LBB259:
 326              	.LBB260:
 327              	.LBB261:
  76:/home/jonas/warwick/3dProfilometer/xpcc/src/xpcc/communication/dispatcher.hpp **** 		class Entry
 328              		.loc 2 76 0
 329 00b2 04F11000 		add	r0, r4, #16
 330 00b6 DFF8C882 		ldr	r8, .L115+8
 331              	.LBE261:
 332              	.LBE260:
 333              	.LBE259:
 214:/home/jonas/warwick/3dProfilometer/xpcc/src/xpcc/communication/dispatcher.cpp **** 						callbackEntry->callback.call(header, payload);
 215:/home/jonas/warwick/3dProfilometer/xpcc/src/xpcc/communication/dispatcher.cpp **** 					}
 216:/home/jonas/warwick/3dProfilometer/xpcc/src/xpcc/communication/dispatcher.cpp **** 					// else cannot happen, since responses with callbacks are
 217:/home/jonas/warwick/3dProfilometer/xpcc/src/xpcc/communication/dispatcher.cpp **** 					// not possible
 218:/home/jonas/warwick/3dProfilometer/xpcc/src/xpcc/communication/dispatcher.cpp **** 					
 219:/home/jonas/warwick/3dProfilometer/xpcc/src/xpcc/communication/dispatcher.cpp **** 					this->removeNextEntryFromList(prev);
 220:/home/jonas/warwick/3dProfilometer/xpcc/src/xpcc/communication/dispatcher.cpp **** 					delete callbackEntry;
 334              		.loc 1 220 0
 335 00ba DFF8CC92 		ldr	r9, .L115+16
 336              	.LBB264:
 337              	.LBB263:
 338              	.LBB262:
  76:/home/jonas/warwick/3dProfilometer/xpcc/src/xpcc/communication/dispatcher.hpp **** 		class Entry
 339              		.loc 2 76 0
 340 00be C047     		blx	r8
 341              	.LVL21:
 342              	.LBE262:
 343              	.LBE263:
 344              	.LBE264:
 345              		.loc 1 220 0
 346 00c0 2046     		mov	r0, r4
 347 00c2 C847     		blx	r9
 348              	.LVL22:
 349 00c4 7378     		ldrb	r3, [r6, #1]	@ zero_extendqisi2
 350              	.LVL23:
 351              	.L10:
 352              	.LBE271:
 353              	.LBE278:
 354              	.LBE282:
 355              	.LBE286:
 356              	.LBE290:
 357              	.LBE294:
  68:/home/jonas/warwick/3dProfilometer/xpcc/src/xpcc/communication/dispatcher.cpp **** 			if (!header.isAcknowledge && header.destination != 0)
 358              		.loc 1 68 0
 359 00c6 0BB9     		cbnz	r3, .L7
 360 00c8 B178     		ldrb	r1, [r6, #2]	@ zero_extendqisi2
 361              	.L16:
  68:/home/jonas/warwick/3dProfilometer/xpcc/src/xpcc/communication/dispatcher.cpp **** 			if (!header.isAcknowledge && header.destination != 0)
 362              		.loc 1 68 0 is_stmt 0 discriminator 1
 363 00ca C1B9     		cbnz	r1, .L98
 364              	.LVL24:
 365              	.L7:
  76:/home/jonas/warwick/3dProfilometer/xpcc/src/xpcc/communication/dispatcher.cpp **** 		this->backend->dropPacket();
 366              		.loc 1 76 0 is_stmt 1
 367 00cc 3868     		ldr	r0, [r7, #0]
 368 00ce 0368     		ldr	r3, [r0, #0]
 369 00d0 DB69     		ldr	r3, [r3, #28]
 370 00d2 9847     		blx	r3
 371              	.LVL25:
  77:/home/jonas/warwick/3dProfilometer/xpcc/src/xpcc/communication/dispatcher.cpp **** 	}
 372              		.loc 1 77 0
 373 00d4 02A8     		add	r0, sp, #8
 374              	.LVL26:
 375 00d6 C047     		blx	r8
 376              	.LVL27:
 377 00d8 9AE7     		b	.L5
 378              	.LVL28:
 379              	.L94:
 380 00da 7378     		ldrb	r3, [r6, #1]	@ zero_extendqisi2
 381 00dc DFF8A082 		ldr	r8, .L115+8
 382 00e0 F1E7     		b	.L10
 383              	.LVL29:
 384              	.L92:
 385              	.LBB295:
 386              	.LBB296:
  87:/home/jonas/warwick/3dProfilometer/xpcc/src/xpcc/communication/dispatcher.cpp **** 	xpcc::Postman::DeliverInfo result = postman->deliverPacket(header, payload);
 387              		.loc 1 87 0
 388 00e2 7868     		ldr	r0, [r7, #4]
 389 00e4 0368     		ldr	r3, [r0, #0]
 390 00e6 3146     		mov	r1, r6
 391 00e8 1B68     		ldr	r3, [r3, #0]
 392 00ea 02AA     		add	r2, sp, #8
 393              	.LVL30:
 394 00ec 9847     		blx	r3
 395              	.LVL31:
  89:/home/jonas/warwick/3dProfilometer/xpcc/src/xpcc/communication/dispatcher.cpp **** 	if (result == Postman::OK && header.destination != 0)
 396              		.loc 1 89 0
 397 00ee 18B9     		cbnz	r0, .L88
 398 00f0 B378     		ldrb	r3, [r6, #2]	@ zero_extendqisi2
 399 00f2 002B     		cmp	r3, #0
 400 00f4 40F0E180 		bne	.L82
 401              	.LVL32:
 402              	.L88:
 403 00f8 DFF88482 		ldr	r8, .L115+8
 404 00fc E6E7     		b	.L7
 405              	.LVL33:
 406              	.L98:
 407              	.LBE296:
 408              	.LBE295:
  70:/home/jonas/warwick/3dProfilometer/xpcc/src/xpcc/communication/dispatcher.cpp **** 				if (postman->isComponentAvaliable(header.destination)) {
 409              		.loc 1 70 0
 410 00fe 7868     		ldr	r0, [r7, #4]
 411 0100 0368     		ldr	r3, [r0, #0]
 412 0102 5B68     		ldr	r3, [r3, #4]
 413 0104 9847     		blx	r3
 414              	.LVL34:
 415 0106 0028     		cmp	r0, #0
 416 0108 E0D0     		beq	.L7
 417              	.LVL35:
 418              	.LBB304:
 419              	.LBB305:
 107:/home/jonas/warwick/3dProfilometer/xpcc/src/xpcc/communication/dispatcher.cpp **** 			header.packetIdentifier);
 420              		.loc 1 107 0
 421 010a F178     		ldrb	r1, [r6, #3]	@ zero_extendqisi2
 422 010c B278     		ldrb	r2, [r6, #2]	@ zero_extendqisi2
 423 010e 3379     		ldrb	r3, [r6, #4]	@ zero_extendqisi2
 424              	.LVL36:
 109:/home/jonas/warwick/3dProfilometer/xpcc/src/xpcc/communication/dispatcher.cpp **** 	this->backend->sendPacket(ackHeader);
 425              		.loc 1 109 0
 426 0110 3C68     		ldr	r4, [r7, #0]
 427              	.LVL37:
 428              	.LBB306:
 429              	.LBB307:
 430              		.file 5 "/home/jonas/warwick/3dProfilometer/xpcc/src/xpcc/communication/backend/header.hpp"
   1:/home/jonas/warwick/3dProfilometer/xpcc/src/xpcc/communication/backend/header.hpp **** // coding: utf-8
   2:/home/jonas/warwick/3dProfilometer/xpcc/src/xpcc/communication/backend/header.hpp **** // ----------------------------------------------------------------------------
   3:/home/jonas/warwick/3dProfilometer/xpcc/src/xpcc/communication/backend/header.hpp **** /* Copyright (c) 2009, Roboterclub Aachen e.V.
   4:/home/jonas/warwick/3dProfilometer/xpcc/src/xpcc/communication/backend/header.hpp ****  * All rights reserved.
   5:/home/jonas/warwick/3dProfilometer/xpcc/src/xpcc/communication/backend/header.hpp ****  * 
   6:/home/jonas/warwick/3dProfilometer/xpcc/src/xpcc/communication/backend/header.hpp ****  * Redistribution and use in source and binary forms, with or without
   7:/home/jonas/warwick/3dProfilometer/xpcc/src/xpcc/communication/backend/header.hpp ****  * modification, are permitted provided that the following conditions are met:
   8:/home/jonas/warwick/3dProfilometer/xpcc/src/xpcc/communication/backend/header.hpp ****  * 
   9:/home/jonas/warwick/3dProfilometer/xpcc/src/xpcc/communication/backend/header.hpp ****  *     * Redistributions of source code must retain the above copyright
  10:/home/jonas/warwick/3dProfilometer/xpcc/src/xpcc/communication/backend/header.hpp ****  *       notice, this list of conditions and the following disclaimer.
  11:/home/jonas/warwick/3dProfilometer/xpcc/src/xpcc/communication/backend/header.hpp ****  *     * Redistributions in binary form must reproduce the above copyright
  12:/home/jonas/warwick/3dProfilometer/xpcc/src/xpcc/communication/backend/header.hpp ****  *       notice, this list of conditions and the following disclaimer in the
  13:/home/jonas/warwick/3dProfilometer/xpcc/src/xpcc/communication/backend/header.hpp ****  *       documentation and/or other materials provided with the distribution.
  14:/home/jonas/warwick/3dProfilometer/xpcc/src/xpcc/communication/backend/header.hpp ****  *     * Neither the name of the Roboterclub Aachen e.V. nor the
  15:/home/jonas/warwick/3dProfilometer/xpcc/src/xpcc/communication/backend/header.hpp ****  *       names of its contributors may be used to endorse or promote products
  16:/home/jonas/warwick/3dProfilometer/xpcc/src/xpcc/communication/backend/header.hpp ****  *       derived from this software without specific prior written permission.
  17:/home/jonas/warwick/3dProfilometer/xpcc/src/xpcc/communication/backend/header.hpp ****  * 
  18:/home/jonas/warwick/3dProfilometer/xpcc/src/xpcc/communication/backend/header.hpp ****  * THIS SOFTWARE IS PROVIDED BY ROBOTERCLUB AACHEN E.V. ''AS IS'' AND ANY
  19:/home/jonas/warwick/3dProfilometer/xpcc/src/xpcc/communication/backend/header.hpp ****  * EXPRESS OR IMPLIED WARRANTIES, INCLUDING, BUT NOT LIMITED TO, THE IMPLIED
  20:/home/jonas/warwick/3dProfilometer/xpcc/src/xpcc/communication/backend/header.hpp ****  * WARRANTIES OF MERCHANTABILITY AND FITNESS FOR A PARTICULAR PURPOSE ARE
  21:/home/jonas/warwick/3dProfilometer/xpcc/src/xpcc/communication/backend/header.hpp ****  * DISCLAIMED. IN NO EVENT SHALL ROBOTERCLUB AACHEN E.V. BE LIABLE FOR ANY
  22:/home/jonas/warwick/3dProfilometer/xpcc/src/xpcc/communication/backend/header.hpp ****  * DIRECT, INDIRECT, INCIDENTAL, SPECIAL, EXEMPLARY, OR CONSEQUENTIAL DAMAGES
  23:/home/jonas/warwick/3dProfilometer/xpcc/src/xpcc/communication/backend/header.hpp ****  * (INCLUDING, BUT NOT LIMITED TO, PROCUREMENT OF SUBSTITUTE GOODS OR SERVICES;
  24:/home/jonas/warwick/3dProfilometer/xpcc/src/xpcc/communication/backend/header.hpp ****  * LOSS OF USE, DATA, OR PROFITS; OR BUSINESS INTERRUPTION) HOWEVER CAUSED AND
  25:/home/jonas/warwick/3dProfilometer/xpcc/src/xpcc/communication/backend/header.hpp ****  * ON ANY THEORY OF LIABILITY, WHETHER IN CONTRACT, STRICT LIABILITY, OR TORT
  26:/home/jonas/warwick/3dProfilometer/xpcc/src/xpcc/communication/backend/header.hpp ****  * (INCLUDING NEGLIGENCE OR OTHERWISE) ARISING IN ANY WAY OUT OF THE USE OF
  27:/home/jonas/warwick/3dProfilometer/xpcc/src/xpcc/communication/backend/header.hpp ****  * THIS SOFTWARE, EVEN IF ADVISED OF THE POSSIBILITY OF SUCH DAMAGE.
  28:/home/jonas/warwick/3dProfilometer/xpcc/src/xpcc/communication/backend/header.hpp ****  */
  29:/home/jonas/warwick/3dProfilometer/xpcc/src/xpcc/communication/backend/header.hpp **** // ----------------------------------------------------------------------------
  30:/home/jonas/warwick/3dProfilometer/xpcc/src/xpcc/communication/backend/header.hpp **** 
  31:/home/jonas/warwick/3dProfilometer/xpcc/src/xpcc/communication/backend/header.hpp **** #ifndef	XPCC__HEADER_HPP
  32:/home/jonas/warwick/3dProfilometer/xpcc/src/xpcc/communication/backend/header.hpp **** #define	XPCC__HEADER_HPP
  33:/home/jonas/warwick/3dProfilometer/xpcc/src/xpcc/communication/backend/header.hpp **** 
  34:/home/jonas/warwick/3dProfilometer/xpcc/src/xpcc/communication/backend/header.hpp **** #include <stdint.h>
  35:/home/jonas/warwick/3dProfilometer/xpcc/src/xpcc/communication/backend/header.hpp **** 
  36:/home/jonas/warwick/3dProfilometer/xpcc/src/xpcc/communication/backend/header.hpp **** #include <xpcc/container/smart_pointer.hpp>
  37:/home/jonas/warwick/3dProfilometer/xpcc/src/xpcc/communication/backend/header.hpp **** 
  38:/home/jonas/warwick/3dProfilometer/xpcc/src/xpcc/communication/backend/header.hpp **** namespace xpcc
  39:/home/jonas/warwick/3dProfilometer/xpcc/src/xpcc/communication/backend/header.hpp **** {
  40:/home/jonas/warwick/3dProfilometer/xpcc/src/xpcc/communication/backend/header.hpp **** 	/**
  41:/home/jonas/warwick/3dProfilometer/xpcc/src/xpcc/communication/backend/header.hpp **** 	 * \brief 	Header of a packet
  42:/home/jonas/warwick/3dProfilometer/xpcc/src/xpcc/communication/backend/header.hpp **** 	 * 
  43:/home/jonas/warwick/3dProfilometer/xpcc/src/xpcc/communication/backend/header.hpp **** 	 * \ingroup	backend
  44:/home/jonas/warwick/3dProfilometer/xpcc/src/xpcc/communication/backend/header.hpp **** 	 * \author	Martin Rosekeit
  45:/home/jonas/warwick/3dProfilometer/xpcc/src/xpcc/communication/backend/header.hpp **** 	 * \author	Fabian Greif
  46:/home/jonas/warwick/3dProfilometer/xpcc/src/xpcc/communication/backend/header.hpp **** 	 */
  47:/home/jonas/warwick/3dProfilometer/xpcc/src/xpcc/communication/backend/header.hpp **** 	struct Header
  48:/home/jonas/warwick/3dProfilometer/xpcc/src/xpcc/communication/backend/header.hpp **** 	{
  49:/home/jonas/warwick/3dProfilometer/xpcc/src/xpcc/communication/backend/header.hpp **** 	public:
  50:/home/jonas/warwick/3dProfilometer/xpcc/src/xpcc/communication/backend/header.hpp **** 		enum Type
  51:/home/jonas/warwick/3dProfilometer/xpcc/src/xpcc/communication/backend/header.hpp **** 		{
  52:/home/jonas/warwick/3dProfilometer/xpcc/src/xpcc/communication/backend/header.hpp **** 			REQUEST,
  53:/home/jonas/warwick/3dProfilometer/xpcc/src/xpcc/communication/backend/header.hpp **** 			RESPONSE,
  54:/home/jonas/warwick/3dProfilometer/xpcc/src/xpcc/communication/backend/header.hpp **** 			NEGATIVE_RESPONSE,
  55:/home/jonas/warwick/3dProfilometer/xpcc/src/xpcc/communication/backend/header.hpp **** 		};
  56:/home/jonas/warwick/3dProfilometer/xpcc/src/xpcc/communication/backend/header.hpp **** 		
  57:/home/jonas/warwick/3dProfilometer/xpcc/src/xpcc/communication/backend/header.hpp **** 	public:
  58:/home/jonas/warwick/3dProfilometer/xpcc/src/xpcc/communication/backend/header.hpp **** 		Header() :
  59:/home/jonas/warwick/3dProfilometer/xpcc/src/xpcc/communication/backend/header.hpp **** 			type(REQUEST),
  60:/home/jonas/warwick/3dProfilometer/xpcc/src/xpcc/communication/backend/header.hpp **** 			isAcknowledge(false),
  61:/home/jonas/warwick/3dProfilometer/xpcc/src/xpcc/communication/backend/header.hpp **** 			destination(0),
  62:/home/jonas/warwick/3dProfilometer/xpcc/src/xpcc/communication/backend/header.hpp **** 			source(0),
  63:/home/jonas/warwick/3dProfilometer/xpcc/src/xpcc/communication/backend/header.hpp **** 			packetIdentifier(0)
  64:/home/jonas/warwick/3dProfilometer/xpcc/src/xpcc/communication/backend/header.hpp **** 		{
  65:/home/jonas/warwick/3dProfilometer/xpcc/src/xpcc/communication/backend/header.hpp **** 		}
  66:/home/jonas/warwick/3dProfilometer/xpcc/src/xpcc/communication/backend/header.hpp **** 		
  67:/home/jonas/warwick/3dProfilometer/xpcc/src/xpcc/communication/backend/header.hpp **** 		Header(Type type, bool ack,
  68:/home/jonas/warwick/3dProfilometer/xpcc/src/xpcc/communication/backend/header.hpp **** 				uint8_t dest, uint8_t src,
  69:/home/jonas/warwick/3dProfilometer/xpcc/src/xpcc/communication/backend/header.hpp **** 				uint8_t id) :
  70:/home/jonas/warwick/3dProfilometer/xpcc/src/xpcc/communication/backend/header.hpp **** 			type(type),
  71:/home/jonas/warwick/3dProfilometer/xpcc/src/xpcc/communication/backend/header.hpp **** 			isAcknowledge(ack),
  72:/home/jonas/warwick/3dProfilometer/xpcc/src/xpcc/communication/backend/header.hpp **** 			destination(dest),
  73:/home/jonas/warwick/3dProfilometer/xpcc/src/xpcc/communication/backend/header.hpp **** 			source(src),
  74:/home/jonas/warwick/3dProfilometer/xpcc/src/xpcc/communication/backend/header.hpp **** 			packetIdentifier(id)
 431              		.loc 5 74 0
 432 0112 8DF81210 		strb	r1, [sp, #18]
 433 0116 8DF81320 		strb	r2, [sp, #19]
 434 011a 8DF81430 		strb	r3, [sp, #20]
 435              	.LBE307:
 436              	.LBE306:
 109:/home/jonas/warwick/3dProfilometer/xpcc/src/xpcc/communication/dispatcher.cpp **** 	this->backend->sendPacket(ackHeader);
 437              		.loc 1 109 0
 438 011e 2368     		ldr	r3, [r4, #0]
 107:/home/jonas/warwick/3dProfilometer/xpcc/src/xpcc/communication/dispatcher.cpp **** 			header.packetIdentifier);
 439              		.loc 1 107 0
 440 0120 3278     		ldrb	r2, [r6, #0]	@ zero_extendqisi2
 441              	.LVL38:
 109:/home/jonas/warwick/3dProfilometer/xpcc/src/xpcc/communication/dispatcher.cpp **** 	this->backend->sendPacket(ackHeader);
 442              		.loc 1 109 0
 443 0122 DD68     		ldr	r5, [r3, #12]
 444              	.LVL39:
 445              	.LBB309:
 446              	.LBB308:
 447              		.loc 5 74 0
 448 0124 8DF81020 		strb	r2, [sp, #16]
 449 0128 0123     		movs	r3, #1
 450 012a 8DF81130 		strb	r3, [sp, #17]
 451              	.LBE308:
 452              	.LBE309:
 109:/home/jonas/warwick/3dProfilometer/xpcc/src/xpcc/communication/dispatcher.cpp **** 	this->backend->sendPacket(ackHeader);
 453              		.loc 1 109 0
 454 012e 03A8     		add	r0, sp, #12
 455 0130 914B     		ldr	r3, .L115
 456 0132 9847     		blx	r3
 457              	.LVL40:
 458 0134 2046     		mov	r0, r4
 459 0136 04A9     		add	r1, sp, #16
 460              	.LVL41:
 461 0138 03AA     		add	r2, sp, #12
 462 013a A847     		blx	r5
 463              	.LVL42:
 464 013c 03A8     		add	r0, sp, #12
 465 013e C047     		blx	r8
 466              	.LVL43:
 467 0140 C4E7     		b	.L7
 468              	.LVL44:
 469              	.L91:
 470              	.LBE305:
 471              	.LBE304:
 472              	.LBE314:
 473              	.LBB315:
 474              	.LBB316:
 221:/home/jonas/warwick/3dProfilometer/xpcc/src/xpcc/communication/dispatcher.cpp **** 				}
 222:/home/jonas/warwick/3dProfilometer/xpcc/src/xpcc/communication/dispatcher.cpp **** 				return;
 223:/home/jonas/warwick/3dProfilometer/xpcc/src/xpcc/communication/dispatcher.cpp **** 			}
 224:/home/jonas/warwick/3dProfilometer/xpcc/src/xpcc/communication/dispatcher.cpp **** 		}
 225:/home/jonas/warwick/3dProfilometer/xpcc/src/xpcc/communication/dispatcher.cpp **** 		
 226:/home/jonas/warwick/3dProfilometer/xpcc/src/xpcc/communication/dispatcher.cpp **** 		prev = entry;
 227:/home/jonas/warwick/3dProfilometer/xpcc/src/xpcc/communication/dispatcher.cpp **** 	}
 228:/home/jonas/warwick/3dProfilometer/xpcc/src/xpcc/communication/dispatcher.cpp **** }
 229:/home/jonas/warwick/3dProfilometer/xpcc/src/xpcc/communication/dispatcher.cpp **** 
 230:/home/jonas/warwick/3dProfilometer/xpcc/src/xpcc/communication/dispatcher.cpp **** xpcc::Dispatcher::Entry *
 231:/home/jonas/warwick/3dProfilometer/xpcc/src/xpcc/communication/dispatcher.cpp **** xpcc::Dispatcher::deleteEntry(Entry *entry, Entry *prev)
 232:/home/jonas/warwick/3dProfilometer/xpcc/src/xpcc/communication/dispatcher.cpp **** {
 233:/home/jonas/warwick/3dProfilometer/xpcc/src/xpcc/communication/dispatcher.cpp **** 	while (prev->next != entry) {
 234:/home/jonas/warwick/3dProfilometer/xpcc/src/xpcc/communication/dispatcher.cpp **** 		prev = prev->next;
 235:/home/jonas/warwick/3dProfilometer/xpcc/src/xpcc/communication/dispatcher.cpp **** 	}
 236:/home/jonas/warwick/3dProfilometer/xpcc/src/xpcc/communication/dispatcher.cpp **** 	
 237:/home/jonas/warwick/3dProfilometer/xpcc/src/xpcc/communication/dispatcher.cpp **** 	this->removeNextEntryFromList(prev);
 238:/home/jonas/warwick/3dProfilometer/xpcc/src/xpcc/communication/dispatcher.cpp **** 	delete entry;
 239:/home/jonas/warwick/3dProfilometer/xpcc/src/xpcc/communication/dispatcher.cpp **** 	
 240:/home/jonas/warwick/3dProfilometer/xpcc/src/xpcc/communication/dispatcher.cpp **** 	return prev;
 241:/home/jonas/warwick/3dProfilometer/xpcc/src/xpcc/communication/dispatcher.cpp **** }
 242:/home/jonas/warwick/3dProfilometer/xpcc/src/xpcc/communication/dispatcher.cpp **** 
 243:/home/jonas/warwick/3dProfilometer/xpcc/src/xpcc/communication/dispatcher.cpp **** xpcc::Dispatcher::Entry *
 244:/home/jonas/warwick/3dProfilometer/xpcc/src/xpcc/communication/dispatcher.cpp **** xpcc::Dispatcher::sendMessageToInnerComponent(Entry *entry, Entry *prev)
 245:/home/jonas/warwick/3dProfilometer/xpcc/src/xpcc/communication/dispatcher.cpp **** {
 246:/home/jonas/warwick/3dProfilometer/xpcc/src/xpcc/communication/dispatcher.cpp **** 	// to one component on board inner component
 247:/home/jonas/warwick/3dProfilometer/xpcc/src/xpcc/communication/dispatcher.cpp **** 	// send message also out, so it is possible to log
 248:/home/jonas/warwick/3dProfilometer/xpcc/src/xpcc/communication/dispatcher.cpp **** 	// communication externally
 249:/home/jonas/warwick/3dProfilometer/xpcc/src/xpcc/communication/dispatcher.cpp **** 	backend->sendPacket(entry->header, entry->payload);
 250:/home/jonas/warwick/3dProfilometer/xpcc/src/xpcc/communication/dispatcher.cpp **** 	
 251:/home/jonas/warwick/3dProfilometer/xpcc/src/xpcc/communication/dispatcher.cpp **** 	if (entry->header.type == Header::REQUEST)
 252:/home/jonas/warwick/3dProfilometer/xpcc/src/xpcc/communication/dispatcher.cpp **** 	{
 253:/home/jonas/warwick/3dProfilometer/xpcc/src/xpcc/communication/dispatcher.cpp **** 		postman->deliverPacket(entry->header, entry->payload);
 254:/home/jonas/warwick/3dProfilometer/xpcc/src/xpcc/communication/dispatcher.cpp **** 		// TODO handle postman errors?
 255:/home/jonas/warwick/3dProfilometer/xpcc/src/xpcc/communication/dispatcher.cpp **** 		
 256:/home/jonas/warwick/3dProfilometer/xpcc/src/xpcc/communication/dispatcher.cpp **** 		if (entry->type == Entry::CALLBACK)
 257:/home/jonas/warwick/3dProfilometer/xpcc/src/xpcc/communication/dispatcher.cpp **** 		{
 258:/home/jonas/warwick/3dProfilometer/xpcc/src/xpcc/communication/dispatcher.cpp **** 			// TODO timer for RESPOMSES not handeled yet
 259:/home/jonas/warwick/3dProfilometer/xpcc/src/xpcc/communication/dispatcher.cpp **** 			entry->state = Entry::WAIT_FOR_RESPONSE;
 260:/home/jonas/warwick/3dProfilometer/xpcc/src/xpcc/communication/dispatcher.cpp **** 			entry->time.restart(responseTimeout);
 261:/home/jonas/warwick/3dProfilometer/xpcc/src/xpcc/communication/dispatcher.cpp **** 			prev = entry;
 262:/home/jonas/warwick/3dProfilometer/xpcc/src/xpcc/communication/dispatcher.cpp **** 		}
 263:/home/jonas/warwick/3dProfilometer/xpcc/src/xpcc/communication/dispatcher.cpp **** 		else {
 264:/home/jonas/warwick/3dProfilometer/xpcc/src/xpcc/communication/dispatcher.cpp **** 			prev = deleteEntry(entry, prev);
 265:/home/jonas/warwick/3dProfilometer/xpcc/src/xpcc/communication/dispatcher.cpp **** 		}
 266:/home/jonas/warwick/3dProfilometer/xpcc/src/xpcc/communication/dispatcher.cpp **** 	}
 267:/home/jonas/warwick/3dProfilometer/xpcc/src/xpcc/communication/dispatcher.cpp **** 	else
 268:/home/jonas/warwick/3dProfilometer/xpcc/src/xpcc/communication/dispatcher.cpp **** 	{
 269:/home/jonas/warwick/3dProfilometer/xpcc/src/xpcc/communication/dispatcher.cpp **** 		// (neg)response
 270:/home/jonas/warwick/3dProfilometer/xpcc/src/xpcc/communication/dispatcher.cpp **** 		// remove actual = e->next
 271:/home/jonas/warwick/3dProfilometer/xpcc/src/xpcc/communication/dispatcher.cpp **** 		// find one waiting request with callback and handle response
 272:/home/jonas/warwick/3dProfilometer/xpcc/src/xpcc/communication/dispatcher.cpp **** 		// responses are insertet at front, requests at end, 
 273:/home/jonas/warwick/3dProfilometer/xpcc/src/xpcc/communication/dispatcher.cpp **** 		// so search only after e (e->next is the first candidate)
 274:/home/jonas/warwick/3dProfilometer/xpcc/src/xpcc/communication/dispatcher.cpp **** 		//		handle found request and delete it
 275:/home/jonas/warwick/3dProfilometer/xpcc/src/xpcc/communication/dispatcher.cpp **** 		// delete actual
 276:/home/jonas/warwick/3dProfilometer/xpcc/src/xpcc/communication/dispatcher.cpp **** 		
 277:/home/jonas/warwick/3dProfilometer/xpcc/src/xpcc/communication/dispatcher.cpp **** 		this->removeNextEntryFromList(prev);
 278:/home/jonas/warwick/3dProfilometer/xpcc/src/xpcc/communication/dispatcher.cpp **** 		
 279:/home/jonas/warwick/3dProfilometer/xpcc/src/xpcc/communication/dispatcher.cpp **** 		Entry *tmp = prev;
 280:/home/jonas/warwick/3dProfilometer/xpcc/src/xpcc/communication/dispatcher.cpp **** 		while (Entry *s = tmp->next)
 281:/home/jonas/warwick/3dProfilometer/xpcc/src/xpcc/communication/dispatcher.cpp **** 		{
 282:/home/jonas/warwick/3dProfilometer/xpcc/src/xpcc/communication/dispatcher.cpp **** 			if (s->header.type == Header::REQUEST
 283:/home/jonas/warwick/3dProfilometer/xpcc/src/xpcc/communication/dispatcher.cpp **** 					&& s->state != Entry::TRANSMISSION_PENDING // must be WAIT_FOR_RESPONSE
 284:/home/jonas/warwick/3dProfilometer/xpcc/src/xpcc/communication/dispatcher.cpp **** 					&& s->headerFits(entry->header))
 285:/home/jonas/warwick/3dProfilometer/xpcc/src/xpcc/communication/dispatcher.cpp **** 			{
 286:/home/jonas/warwick/3dProfilometer/xpcc/src/xpcc/communication/dispatcher.cpp **** 				this->removeNextEntryFromList(tmp);
 287:/home/jonas/warwick/3dProfilometer/xpcc/src/xpcc/communication/dispatcher.cpp **** 				
 288:/home/jonas/warwick/3dProfilometer/xpcc/src/xpcc/communication/dispatcher.cpp **** 				if (s->type == Entry::CALLBACK)
 289:/home/jonas/warwick/3dProfilometer/xpcc/src/xpcc/communication/dispatcher.cpp **** 				{
 290:/home/jonas/warwick/3dProfilometer/xpcc/src/xpcc/communication/dispatcher.cpp **** 					CallbackEntry *c = reinterpret_cast<CallbackEntry *>(s);
 291:/home/jonas/warwick/3dProfilometer/xpcc/src/xpcc/communication/dispatcher.cpp **** 					
 292:/home/jonas/warwick/3dProfilometer/xpcc/src/xpcc/communication/dispatcher.cpp **** 					c->callback.call(entry->header, entry->payload);
 293:/home/jonas/warwick/3dProfilometer/xpcc/src/xpcc/communication/dispatcher.cpp **** 				}
 294:/home/jonas/warwick/3dProfilometer/xpcc/src/xpcc/communication/dispatcher.cpp **** 				
 295:/home/jonas/warwick/3dProfilometer/xpcc/src/xpcc/communication/dispatcher.cpp **** 				delete s;
 296:/home/jonas/warwick/3dProfilometer/xpcc/src/xpcc/communication/dispatcher.cpp **** 				break;
 297:/home/jonas/warwick/3dProfilometer/xpcc/src/xpcc/communication/dispatcher.cpp **** 			}
 298:/home/jonas/warwick/3dProfilometer/xpcc/src/xpcc/communication/dispatcher.cpp **** 			
 299:/home/jonas/warwick/3dProfilometer/xpcc/src/xpcc/communication/dispatcher.cpp **** 			tmp = s;
 300:/home/jonas/warwick/3dProfilometer/xpcc/src/xpcc/communication/dispatcher.cpp **** 		}
 301:/home/jonas/warwick/3dProfilometer/xpcc/src/xpcc/communication/dispatcher.cpp **** 		
 302:/home/jonas/warwick/3dProfilometer/xpcc/src/xpcc/communication/dispatcher.cpp **** 		delete entry;
 303:/home/jonas/warwick/3dProfilometer/xpcc/src/xpcc/communication/dispatcher.cpp **** 	}
 304:/home/jonas/warwick/3dProfilometer/xpcc/src/xpcc/communication/dispatcher.cpp **** 	
 305:/home/jonas/warwick/3dProfilometer/xpcc/src/xpcc/communication/dispatcher.cpp **** 	return prev;
 306:/home/jonas/warwick/3dProfilometer/xpcc/src/xpcc/communication/dispatcher.cpp **** }
 307:/home/jonas/warwick/3dProfilometer/xpcc/src/xpcc/communication/dispatcher.cpp **** 
 308:/home/jonas/warwick/3dProfilometer/xpcc/src/xpcc/communication/dispatcher.cpp **** void
 309:/home/jonas/warwick/3dProfilometer/xpcc/src/xpcc/communication/dispatcher.cpp **** xpcc::Dispatcher::handleWaitingMessages()
 310:/home/jonas/warwick/3dProfilometer/xpcc/src/xpcc/communication/dispatcher.cpp **** {
 311:/home/jonas/warwick/3dProfilometer/xpcc/src/xpcc/communication/dispatcher.cpp **** 	// first is always a dummy entry
 312:/home/jonas/warwick/3dProfilometer/xpcc/src/xpcc/communication/dispatcher.cpp **** 	Entry *prev = first;
 475              		.loc 1 312 0
 476 0142 FD6A     		ldr	r5, [r7, #44]
 477              	.LVL45:
 478              	.L84:
 479              	.LBB317:
 313:/home/jonas/warwick/3dProfilometer/xpcc/src/xpcc/communication/dispatcher.cpp **** 	while (Entry *entry = prev->next)
 480              		.loc 1 313 0
 481 0144 6C68     		ldr	r4, [r5, #4]
 482              	.LVL46:
 483 0146 002C     		cmp	r4, #0
 484 0148 37D0     		beq	.L4
 485              	.L100:
 314:/home/jonas/warwick/3dProfilometer/xpcc/src/xpcc/communication/dispatcher.cpp **** 	{
 315:/home/jonas/warwick/3dProfilometer/xpcc/src/xpcc/communication/dispatcher.cpp **** 		if (entry->state == Entry::TRANSMISSION_PENDING)
 486              		.loc 1 315 0
 487 014a 267D     		ldrb	r6, [r4, #20]	@ zero_extendqisi2
 488 014c 002E     		cmp	r6, #0
 489 014e 37D1     		bne	.L25
 316:/home/jonas/warwick/3dProfilometer/xpcc/src/xpcc/communication/dispatcher.cpp **** 		{
 317:/home/jonas/warwick/3dProfilometer/xpcc/src/xpcc/communication/dispatcher.cpp **** 			if (entry->header.destination == 0)
 490              		.loc 1 317 0
 491 0150 A17A     		ldrb	r1, [r4, #10]	@ zero_extendqisi2
 318:/home/jonas/warwick/3dProfilometer/xpcc/src/xpcc/communication/dispatcher.cpp **** 			{
 319:/home/jonas/warwick/3dProfilometer/xpcc/src/xpcc/communication/dispatcher.cpp **** 				// event
 320:/home/jonas/warwick/3dProfilometer/xpcc/src/xpcc/communication/dispatcher.cpp **** 				postman->deliverPacket(entry->header, entry->payload);
 492              		.loc 1 320 0
 493 0152 7868     		ldr	r0, [r7, #4]
 317:/home/jonas/warwick/3dProfilometer/xpcc/src/xpcc/communication/dispatcher.cpp **** 			if (entry->header.destination == 0)
 494              		.loc 1 317 0
 495 0154 0029     		cmp	r1, #0
 496 0156 37D1     		bne	.L26
 497              		.loc 1 320 0
 498 0158 0368     		ldr	r3, [r0, #0]
 321:/home/jonas/warwick/3dProfilometer/xpcc/src/xpcc/communication/dispatcher.cpp **** 				backend->sendPacket(entry->header, entry->payload);
 499              		.loc 1 321 0
 500 015a DFF82482 		ldr	r8, .L115+8
 320:/home/jonas/warwick/3dProfilometer/xpcc/src/xpcc/communication/dispatcher.cpp **** 				postman->deliverPacket(entry->header, entry->payload);
 501              		.loc 1 320 0
 502 015e 1B68     		ldr	r3, [r3, #0]
 503 0160 04F10809 		add	r9, r4, #8
 504 0164 04F11006 		add	r6, r4, #16
 505 0168 3246     		mov	r2, r6
 506 016a 4946     		mov	r1, r9
 507 016c 9847     		blx	r3
 508              	.LVL47:
 509              		.loc 1 321 0
 510 016e D7F800A0 		ldr	sl, [r7, #0]
 511 0172 DAF80030 		ldr	r3, [sl, #0]
 512 0176 3146     		mov	r1, r6
 513 0178 D3F80CB0 		ldr	fp, [r3, #12]
 514 017c 7F4B     		ldr	r3, .L115+4
 515 017e 03A8     		add	r0, sp, #12
 516 0180 9847     		blx	r3
 517              	.LVL48:
 518 0182 5046     		mov	r0, sl
 519 0184 4946     		mov	r1, r9
 520 0186 03AA     		add	r2, sp, #12
 521 0188 D847     		blx	fp
 522              	.LVL49:
 523 018a 03A8     		add	r0, sp, #12
 524 018c C047     		blx	r8
 525              	.LVL50:
 526 018e 00E0     		b	.L27
 527              	.LVL51:
 528              	.L54:
 529              	.LBB318:
 530              	.LBB319:
 233:/home/jonas/warwick/3dProfilometer/xpcc/src/xpcc/communication/dispatcher.cpp **** 	while (prev->next != entry) {
 531              		.loc 1 233 0
 532 0190 1D46     		mov	r5, r3
 533              	.LVL52:
 534              	.L27:
 535 0192 6B68     		ldr	r3, [r5, #4]
 536 0194 9C42     		cmp	r4, r3
 537 0196 FBD1     		bne	.L54
 538              	.LVL53:
 539              	.LBB320:
 540              	.LBB321:
 160:/home/jonas/warwick/3dProfilometer/xpcc/src/xpcc/communication/dispatcher.cpp **** 		if (next == last) {
 541              		.loc 1 160 0
 542 0198 3B6B     		ldr	r3, [r7, #48]
 158:/home/jonas/warwick/3dProfilometer/xpcc/src/xpcc/communication/dispatcher.cpp **** 		entry->next = next->next;
 543              		.loc 1 158 0
 544 019a 6268     		ldr	r2, [r4, #4]
 160:/home/jonas/warwick/3dProfilometer/xpcc/src/xpcc/communication/dispatcher.cpp **** 		if (next == last) {
 545              		.loc 1 160 0
 546 019c 9C42     		cmp	r4, r3
 158:/home/jonas/warwick/3dProfilometer/xpcc/src/xpcc/communication/dispatcher.cpp **** 		entry->next = next->next;
 547              		.loc 1 158 0
 548 019e 6A60     		str	r2, [r5, #4]
 160:/home/jonas/warwick/3dProfilometer/xpcc/src/xpcc/communication/dispatcher.cpp **** 		if (next == last) {
 549              		.loc 1 160 0
 550 01a0 00F0F480 		beq	.L99
 165:/home/jonas/warwick/3dProfilometer/xpcc/src/xpcc/communication/dispatcher.cpp **** 			next->next = 0;
 551              		.loc 1 165 0
 552 01a4 0023     		movs	r3, #0
 553 01a6 6360     		str	r3, [r4, #4]
 554              	.L29:
 555              	.LVL54:
 556              	.LBE321:
 557              	.LBE320:
 558              	.LBB323:
 559              	.LBB324:
  76:/home/jonas/warwick/3dProfilometer/xpcc/src/xpcc/communication/dispatcher.hpp **** 		class Entry
 560              		.loc 2 76 0
 561 01a8 3046     		mov	r0, r6
 562 01aa C047     		blx	r8
 563              	.LVL55:
 564              	.LBE324:
 565              	.LBE323:
 238:/home/jonas/warwick/3dProfilometer/xpcc/src/xpcc/communication/dispatcher.cpp **** 	delete entry;
 566              		.loc 1 238 0
 567 01ac DFF8D891 		ldr	r9, .L115+16
 568 01b0 2046     		mov	r0, r4
 569 01b2 C847     		blx	r9
 570              	.LVL56:
 571              	.LBE319:
 572              	.LBE318:
 313:/home/jonas/warwick/3dProfilometer/xpcc/src/xpcc/communication/dispatcher.cpp **** 	while (Entry *entry = prev->next)
 573              		.loc 1 313 0
 574 01b4 6C68     		ldr	r4, [r5, #4]
 575              	.LVL57:
 576 01b6 002C     		cmp	r4, #0
 577 01b8 C7D1     		bne	.L100
 578              	.LVL58:
 579              	.L4:
 580              	.LBE317:
 581              	.LBE316:
 582              	.LBE315:
 583              	.LBE444:
  81:/home/jonas/warwick/3dProfilometer/xpcc/src/xpcc/communication/dispatcher.cpp **** }
 584              		.loc 1 81 0
 585 01ba 07B0     		add	sp, sp, #28
 586 01bc BDE8F08F 		pop	{r4, r5, r6, r7, r8, r9, sl, fp, pc}
 587              	.L25:
 588              	.LBB445:
 589              	.LBB437:
 590              	.LBB434:
 591              	.LBB431:
 322:/home/jonas/warwick/3dProfilometer/xpcc/src/xpcc/communication/dispatcher.cpp **** 				
 323:/home/jonas/warwick/3dProfilometer/xpcc/src/xpcc/communication/dispatcher.cpp **** 				prev = deleteEntry(entry, prev);
 324:/home/jonas/warwick/3dProfilometer/xpcc/src/xpcc/communication/dispatcher.cpp **** 				continue;
 325:/home/jonas/warwick/3dProfilometer/xpcc/src/xpcc/communication/dispatcher.cpp **** 			}
 326:/home/jonas/warwick/3dProfilometer/xpcc/src/xpcc/communication/dispatcher.cpp **** 			else
 327:/home/jonas/warwick/3dProfilometer/xpcc/src/xpcc/communication/dispatcher.cpp **** 			{
 328:/home/jonas/warwick/3dProfilometer/xpcc/src/xpcc/communication/dispatcher.cpp **** 				// action or response
 329:/home/jonas/warwick/3dProfilometer/xpcc/src/xpcc/communication/dispatcher.cpp **** 				if (postman->isComponentAvaliable(entry->header.destination))
 330:/home/jonas/warwick/3dProfilometer/xpcc/src/xpcc/communication/dispatcher.cpp **** 				{
 331:/home/jonas/warwick/3dProfilometer/xpcc/src/xpcc/communication/dispatcher.cpp **** 					prev = sendMessageToInnerComponent(entry, prev);
 332:/home/jonas/warwick/3dProfilometer/xpcc/src/xpcc/communication/dispatcher.cpp **** 				}
 333:/home/jonas/warwick/3dProfilometer/xpcc/src/xpcc/communication/dispatcher.cpp **** 				else
 334:/home/jonas/warwick/3dProfilometer/xpcc/src/xpcc/communication/dispatcher.cpp **** 				{
 335:/home/jonas/warwick/3dProfilometer/xpcc/src/xpcc/communication/dispatcher.cpp **** 					// destination not on board, message has to be sent
 336:/home/jonas/warwick/3dProfilometer/xpcc/src/xpcc/communication/dispatcher.cpp **** 					// out to the backend
 337:/home/jonas/warwick/3dProfilometer/xpcc/src/xpcc/communication/dispatcher.cpp **** 					backend->sendPacket(entry->header, entry->payload);
 338:/home/jonas/warwick/3dProfilometer/xpcc/src/xpcc/communication/dispatcher.cpp **** 					
 339:/home/jonas/warwick/3dProfilometer/xpcc/src/xpcc/communication/dispatcher.cpp **** 					entry->state = Entry::WAIT_FOR_ACK;
 340:/home/jonas/warwick/3dProfilometer/xpcc/src/xpcc/communication/dispatcher.cpp **** 					entry->time.restart(acknowledgeTimeout);
 341:/home/jonas/warwick/3dProfilometer/xpcc/src/xpcc/communication/dispatcher.cpp **** 					
 342:/home/jonas/warwick/3dProfilometer/xpcc/src/xpcc/communication/dispatcher.cpp **** 					prev = entry;
 343:/home/jonas/warwick/3dProfilometer/xpcc/src/xpcc/communication/dispatcher.cpp **** 				}
 344:/home/jonas/warwick/3dProfilometer/xpcc/src/xpcc/communication/dispatcher.cpp **** 			}
 345:/home/jonas/warwick/3dProfilometer/xpcc/src/xpcc/communication/dispatcher.cpp **** 		}
 346:/home/jonas/warwick/3dProfilometer/xpcc/src/xpcc/communication/dispatcher.cpp **** 		else if (entry->state == Entry::WAIT_FOR_ACK)
 592              		.loc 1 346 0
 593 01c0 012E     		cmp	r6, #1
 594 01c2 5CD0     		beq	.L101
 595              	.L58:
 596              	.LBB327:
 597              	.LBB328:
  38:/home/jonas/warwick/3dProfilometer/xpcc/src/xpcc/workflow/timeout_impl.hpp **** {
  39:/home/jonas/warwick/3dProfilometer/xpcc/src/xpcc/workflow/timeout_impl.hpp **** }
  40:/home/jonas/warwick/3dProfilometer/xpcc/src/xpcc/workflow/timeout_impl.hpp **** 
  41:/home/jonas/warwick/3dProfilometer/xpcc/src/xpcc/workflow/timeout_impl.hpp **** template<typename T>
  42:/home/jonas/warwick/3dProfilometer/xpcc/src/xpcc/workflow/timeout_impl.hpp **** xpcc::Timeout<T>::Timeout(const Timestamp time) :
  43:/home/jonas/warwick/3dProfilometer/xpcc/src/xpcc/workflow/timeout_impl.hpp **** 	endTime(T::now() + time), state(ACTIVE)
  44:/home/jonas/warwick/3dProfilometer/xpcc/src/xpcc/workflow/timeout_impl.hpp **** {
  45:/home/jonas/warwick/3dProfilometer/xpcc/src/xpcc/workflow/timeout_impl.hpp **** }
  46:/home/jonas/warwick/3dProfilometer/xpcc/src/xpcc/workflow/timeout_impl.hpp **** 
  47:/home/jonas/warwick/3dProfilometer/xpcc/src/xpcc/workflow/timeout_impl.hpp **** template<typename T>
  48:/home/jonas/warwick/3dProfilometer/xpcc/src/xpcc/workflow/timeout_impl.hpp **** bool
  49:/home/jonas/warwick/3dProfilometer/xpcc/src/xpcc/workflow/timeout_impl.hpp **** xpcc::Timeout<T>::isExpired()
  50:/home/jonas/warwick/3dProfilometer/xpcc/src/xpcc/workflow/timeout_impl.hpp **** {
  51:/home/jonas/warwick/3dProfilometer/xpcc/src/xpcc/workflow/timeout_impl.hpp **** 	if (state == ACTIVE)
  52:/home/jonas/warwick/3dProfilometer/xpcc/src/xpcc/workflow/timeout_impl.hpp **** 	{
  53:/home/jonas/warwick/3dProfilometer/xpcc/src/xpcc/workflow/timeout_impl.hpp **** 		if (T::now() >= endTime)
 598              		.loc 3 53 0
 599 01c4 2546     		mov	r5, r4
 600              	.LVL59:
 601 01c6 BDE7     		b	.L84
 602              	.LVL60:
 603              	.L26:
 604              	.LBE328:
 605              	.LBE327:
 329:/home/jonas/warwick/3dProfilometer/xpcc/src/xpcc/communication/dispatcher.cpp **** 				if (postman->isComponentAvaliable(entry->header.destination))
 606              		.loc 1 329 0
 607 01c8 0368     		ldr	r3, [r0, #0]
 608 01ca 5B68     		ldr	r3, [r3, #4]
 609 01cc 9847     		blx	r3
 610              	.LVL61:
 611 01ce 0028     		cmp	r0, #0
 612 01d0 3CD0     		beq	.L31
 613              	.LVL62:
 614              	.LBB333:
 615              	.LBB334:
 249:/home/jonas/warwick/3dProfilometer/xpcc/src/xpcc/communication/dispatcher.cpp **** 	backend->sendPacket(entry->header, entry->payload);
 616              		.loc 1 249 0
 617 01d2 D7F800B0 		ldr	fp, [r7, #0]
 618 01d6 694A     		ldr	r2, .L115+4
 619 01d8 DBF80030 		ldr	r3, [fp, #0]
 620 01dc DFF8A081 		ldr	r8, .L115+8
 621 01e0 DB68     		ldr	r3, [r3, #12]
 622 01e2 04F1100A 		add	sl, r4, #16
 623 01e6 5146     		mov	r1, sl
 624 01e8 0193     		str	r3, [sp, #4]
 625 01ea 04F10809 		add	r9, r4, #8
 626 01ee 03A8     		add	r0, sp, #12
 627 01f0 9047     		blx	r2
 628              	.LVL63:
 629 01f2 019B     		ldr	r3, [sp, #4]
 630 01f4 5846     		mov	r0, fp
 631 01f6 4946     		mov	r1, r9
 632 01f8 03AA     		add	r2, sp, #12
 633 01fa 9847     		blx	r3
 634              	.LVL64:
 635 01fc 03A8     		add	r0, sp, #12
 636 01fe C047     		blx	r8
 637              	.LVL65:
 638              	.LBB335:
 251:/home/jonas/warwick/3dProfilometer/xpcc/src/xpcc/communication/dispatcher.cpp **** 	if (entry->header.type == Header::REQUEST)
 639              		.loc 1 251 0
 640 0200 237A     		ldrb	r3, [r4, #8]	@ zero_extendqisi2
 641 0202 002B     		cmp	r3, #0
 642 0204 7DD0     		beq	.L102
 643              	.LVL66:
 644              	.LBB336:
 645              	.LBB337:
 646              	.LBB338:
 155:/home/jonas/warwick/3dProfilometer/xpcc/src/xpcc/communication/dispatcher.cpp **** 	Entry *next = entry->next;
 647              		.loc 1 155 0
 648 0206 6B68     		ldr	r3, [r5, #4]
 649              	.LVL67:
 156:/home/jonas/warwick/3dProfilometer/xpcc/src/xpcc/communication/dispatcher.cpp **** 	if (next)
 650              		.loc 1 156 0
 651 0208 002B     		cmp	r3, #0
 652 020a 00F0EF80 		beq	.L56
 160:/home/jonas/warwick/3dProfilometer/xpcc/src/xpcc/communication/dispatcher.cpp **** 		if (next == last) {
 653              		.loc 1 160 0
 654 020e 396B     		ldr	r1, [r7, #48]
 158:/home/jonas/warwick/3dProfilometer/xpcc/src/xpcc/communication/dispatcher.cpp **** 		entry->next = next->next;
 655              		.loc 1 158 0
 656 0210 5A68     		ldr	r2, [r3, #4]
 160:/home/jonas/warwick/3dProfilometer/xpcc/src/xpcc/communication/dispatcher.cpp **** 		if (next == last) {
 657              		.loc 1 160 0
 658 0212 8B42     		cmp	r3, r1
 158:/home/jonas/warwick/3dProfilometer/xpcc/src/xpcc/communication/dispatcher.cpp **** 		entry->next = next->next;
 659              		.loc 1 158 0
 660 0214 6A60     		str	r2, [r5, #4]
 165:/home/jonas/warwick/3dProfilometer/xpcc/src/xpcc/communication/dispatcher.cpp **** 			next->next = 0;
 661              		.loc 1 165 0
 662 0216 19BF     		ittee	ne
 663 0218 5E60     		strne	r6, [r3, #4]
 664 021a 6E68     		ldrne	r6, [r5, #4]
 161:/home/jonas/warwick/3dProfilometer/xpcc/src/xpcc/communication/dispatcher.cpp **** 			last = entry;
 665              		.loc 1 161 0
 666 021c 3D63     		streq	r5, [r7, #48]
 667 021e 1646     		moveq	r6, r2
 668              	.L37:
 669              	.LVL68:
 156:/home/jonas/warwick/3dProfilometer/xpcc/src/xpcc/communication/dispatcher.cpp **** 	if (next)
 670              		.loc 1 156 0
 671 0220 2846     		mov	r0, r5
 672              	.LBE338:
 673              	.LBE337:
 674              	.LBB341:
 280:/home/jonas/warwick/3dProfilometer/xpcc/src/xpcc/communication/dispatcher.cpp **** 		while (Entry *s = tmp->next)
 675              		.loc 1 280 0
 676 0222 66B1     		cbz	r6, .L103
 677              	.LVL69:
 678              	.L85:
 679              	.LBB342:
 282:/home/jonas/warwick/3dProfilometer/xpcc/src/xpcc/communication/dispatcher.cpp **** 			if (s->header.type == Header::REQUEST
 680              		.loc 1 282 0
 681 0224 337A     		ldrb	r3, [r6, #8]	@ zero_extendqisi2
 682 0226 33B9     		cbnz	r3, .L41
 683              	.LVL70:
 684 0228 327D     		ldrb	r2, [r6, #20]	@ zero_extendqisi2
 685 022a 22B1     		cbz	r2, .L41
 686              	.LBB343:
 687              	.LBB344:
 117:/home/jonas/warwick/3dProfilometer/xpcc/src/xpcc/communication/dispatcher.cpp **** 			(inHeader.packetIdentifier == this->header.packetIdentifier));
 688              		.loc 1 117 0
 689 022c B27A     		ldrb	r2, [r6, #10]	@ zero_extendqisi2
 690 022e E17A     		ldrb	r1, [r4, #11]	@ zero_extendqisi2
 691 0230 9142     		cmp	r1, r2
 692 0232 00F08380 		beq	.L104
 693              	.LVL71:
 694              	.L41:
 695 0236 3046     		mov	r0, r6
 696              	.LBE344:
 697              	.LBE343:
 698              	.LBE342:
 699              	.LBE341:
 700              	.LBB370:
 701              	.LBB339:
 156:/home/jonas/warwick/3dProfilometer/xpcc/src/xpcc/communication/dispatcher.cpp **** 	if (next)
 702              		.loc 1 156 0
 703 0238 7668     		ldr	r6, [r6, #4]
 704              	.LVL72:
 705              	.LBE339:
 706              	.LBE370:
 707              	.LBB371:
 280:/home/jonas/warwick/3dProfilometer/xpcc/src/xpcc/communication/dispatcher.cpp **** 		while (Entry *s = tmp->next)
 708              		.loc 1 280 0
 709 023a 002E     		cmp	r6, #0
 710 023c F2D1     		bne	.L85
 711              	.L103:
 712 023e DFF84891 		ldr	r9, .L115+16
 713              	.LVL73:
 714              	.L40:
 715              	.LBE371:
 716              	.LBB372:
 717              	.LBB373:
  76:/home/jonas/warwick/3dProfilometer/xpcc/src/xpcc/communication/dispatcher.hpp **** 		class Entry
 718              		.loc 2 76 0
 719 0242 5046     		mov	r0, sl
 720 0244 C047     		blx	r8
 721              	.LVL74:
 722              	.LBE373:
 723              	.LBE372:
 302:/home/jonas/warwick/3dProfilometer/xpcc/src/xpcc/communication/dispatcher.cpp **** 		delete entry;
 724              		.loc 1 302 0
 725 0246 2046     		mov	r0, r4
 726 0248 C847     		blx	r9
 727              	.LVL75:
 728 024a 7BE7     		b	.L84
 729              	.LVL76:
 730              	.L31:
 731              	.LBE336:
 732              	.LBE335:
 733              	.LBE334:
 734              	.LBE333:
 337:/home/jonas/warwick/3dProfilometer/xpcc/src/xpcc/communication/dispatcher.cpp **** 					backend->sendPacket(entry->header, entry->payload);
 735              		.loc 1 337 0
 736 024c 3D68     		ldr	r5, [r7, #0]
 737              	.LVL77:
 738 024e 2B68     		ldr	r3, [r5, #0]
 739 0250 04F11001 		add	r1, r4, #16
 740 0254 DE68     		ldr	r6, [r3, #12]
 741 0256 494B     		ldr	r3, .L115+4
 742 0258 03A8     		add	r0, sp, #12
 743 025a 9847     		blx	r3
 744              	.LVL78:
 745 025c 2846     		mov	r0, r5
 746 025e 04F10801 		add	r1, r4, #8
 747 0262 03AA     		add	r2, sp, #12
 748 0264 B047     		blx	r6
 749              	.LVL79:
 339:/home/jonas/warwick/3dProfilometer/xpcc/src/xpcc/communication/dispatcher.cpp **** 					entry->state = Entry::WAIT_FOR_ACK;
 750              		.loc 1 339 0
 751 0266 0125     		movs	r5, #1
 337:/home/jonas/warwick/3dProfilometer/xpcc/src/xpcc/communication/dispatcher.cpp **** 					backend->sendPacket(entry->header, entry->payload);
 752              		.loc 1 337 0
 753 0268 454B     		ldr	r3, .L115+8
 754 026a 03A8     		add	r0, sp, #12
 755 026c 9847     		blx	r3
 756              	.LVL80:
 339:/home/jonas/warwick/3dProfilometer/xpcc/src/xpcc/communication/dispatcher.cpp **** 					entry->state = Entry::WAIT_FOR_ACK;
 757              		.loc 1 339 0
 758 026e 2575     		strb	r5, [r4, #20]
 759              	.LVL81:
 760              	.LBB403:
 761              	.LBB404:
  54:/home/jonas/warwick/3dProfilometer/xpcc/src/xpcc/workflow/timeout_impl.hpp **** 		{
  55:/home/jonas/warwick/3dProfilometer/xpcc/src/xpcc/workflow/timeout_impl.hpp **** 			state = EXPIRED;
  56:/home/jonas/warwick/3dProfilometer/xpcc/src/xpcc/workflow/timeout_impl.hpp **** 		}
  57:/home/jonas/warwick/3dProfilometer/xpcc/src/xpcc/workflow/timeout_impl.hpp **** 		else {
  58:/home/jonas/warwick/3dProfilometer/xpcc/src/xpcc/workflow/timeout_impl.hpp **** 			return false;
  59:/home/jonas/warwick/3dProfilometer/xpcc/src/xpcc/workflow/timeout_impl.hpp **** 		}
  60:/home/jonas/warwick/3dProfilometer/xpcc/src/xpcc/workflow/timeout_impl.hpp **** 	}
  61:/home/jonas/warwick/3dProfilometer/xpcc/src/xpcc/workflow/timeout_impl.hpp **** 	
  62:/home/jonas/warwick/3dProfilometer/xpcc/src/xpcc/workflow/timeout_impl.hpp **** 	return true;
  63:/home/jonas/warwick/3dProfilometer/xpcc/src/xpcc/workflow/timeout_impl.hpp **** }
  64:/home/jonas/warwick/3dProfilometer/xpcc/src/xpcc/workflow/timeout_impl.hpp **** 
  65:/home/jonas/warwick/3dProfilometer/xpcc/src/xpcc/workflow/timeout_impl.hpp **** template<typename T>
  66:/home/jonas/warwick/3dProfilometer/xpcc/src/xpcc/workflow/timeout_impl.hpp **** bool
  67:/home/jonas/warwick/3dProfilometer/xpcc/src/xpcc/workflow/timeout_impl.hpp **** xpcc::Timeout<T>::isActive() const
  68:/home/jonas/warwick/3dProfilometer/xpcc/src/xpcc/workflow/timeout_impl.hpp **** {
  69:/home/jonas/warwick/3dProfilometer/xpcc/src/xpcc/workflow/timeout_impl.hpp **** 	return (this->state != STOPPED);
  70:/home/jonas/warwick/3dProfilometer/xpcc/src/xpcc/workflow/timeout_impl.hpp **** }
  71:/home/jonas/warwick/3dProfilometer/xpcc/src/xpcc/workflow/timeout_impl.hpp **** 
  72:/home/jonas/warwick/3dProfilometer/xpcc/src/xpcc/workflow/timeout_impl.hpp **** template<typename T>
  73:/home/jonas/warwick/3dProfilometer/xpcc/src/xpcc/workflow/timeout_impl.hpp **** void
  74:/home/jonas/warwick/3dProfilometer/xpcc/src/xpcc/workflow/timeout_impl.hpp **** xpcc::Timeout<T>::stop()
  75:/home/jonas/warwick/3dProfilometer/xpcc/src/xpcc/workflow/timeout_impl.hpp **** {
  76:/home/jonas/warwick/3dProfilometer/xpcc/src/xpcc/workflow/timeout_impl.hpp **** 	this->state = STOPPED;
  77:/home/jonas/warwick/3dProfilometer/xpcc/src/xpcc/workflow/timeout_impl.hpp **** }
  78:/home/jonas/warwick/3dProfilometer/xpcc/src/xpcc/workflow/timeout_impl.hpp **** 
  79:/home/jonas/warwick/3dProfilometer/xpcc/src/xpcc/workflow/timeout_impl.hpp **** 
  80:/home/jonas/warwick/3dProfilometer/xpcc/src/xpcc/workflow/timeout_impl.hpp **** template<typename T>
  81:/home/jonas/warwick/3dProfilometer/xpcc/src/xpcc/workflow/timeout_impl.hpp **** void
  82:/home/jonas/warwick/3dProfilometer/xpcc/src/xpcc/workflow/timeout_impl.hpp **** xpcc::Timeout<T>::restart(Timestamp time)
  83:/home/jonas/warwick/3dProfilometer/xpcc/src/xpcc/workflow/timeout_impl.hpp **** {
  84:/home/jonas/warwick/3dProfilometer/xpcc/src/xpcc/workflow/timeout_impl.hpp **** 	endTime = T::now() + time;
 762              		.loc 3 84 0
 763 0270 444B     		ldr	r3, .L115+12
 764 0272 9847     		blx	r3
 765              	.LVL82:
 766              	.LBB405:
 767              	.LBB406:
  58:/home/jonas/warwick/3dProfilometer/xpcc/src/xpcc/workflow/timestamp.hpp **** 		{
  59:/home/jonas/warwick/3dProfilometer/xpcc/src/xpcc/workflow/timestamp.hpp **** 		}
  60:/home/jonas/warwick/3dProfilometer/xpcc/src/xpcc/workflow/timestamp.hpp **** 		
  61:/home/jonas/warwick/3dProfilometer/xpcc/src/xpcc/workflow/timestamp.hpp **** 		inline uint_fast16_t
  62:/home/jonas/warwick/3dProfilometer/xpcc/src/xpcc/workflow/timestamp.hpp **** 		getTime() const
  63:/home/jonas/warwick/3dProfilometer/xpcc/src/xpcc/workflow/timestamp.hpp **** 		{
  64:/home/jonas/warwick/3dProfilometer/xpcc/src/xpcc/workflow/timestamp.hpp **** 			return this->time;
  65:/home/jonas/warwick/3dProfilometer/xpcc/src/xpcc/workflow/timestamp.hpp **** 		}
  66:/home/jonas/warwick/3dProfilometer/xpcc/src/xpcc/workflow/timestamp.hpp **** 
  67:/home/jonas/warwick/3dProfilometer/xpcc/src/xpcc/workflow/timestamp.hpp **** 		inline Timestamp
  68:/home/jonas/warwick/3dProfilometer/xpcc/src/xpcc/workflow/timestamp.hpp **** 		operator + (const Timestamp& other) const
  69:/home/jonas/warwick/3dProfilometer/xpcc/src/xpcc/workflow/timestamp.hpp **** 		{
  70:/home/jonas/warwick/3dProfilometer/xpcc/src/xpcc/workflow/timestamp.hpp **** 			return Timestamp(time + other.time);
 768              		.loc 4 70 0
 769 0274 6430     		adds	r0, r0, #100
 770              	.LVL83:
 771              	.LBE406:
 772              	.LBE405:
  85:/home/jonas/warwick/3dProfilometer/xpcc/src/xpcc/workflow/timeout_impl.hpp **** 	state = ACTIVE;
 773              		.loc 3 85 0
 774 0276 2577     		strb	r5, [r4, #28]
 775              	.LVL84:
 776              	.LBE404:
  84:/home/jonas/warwick/3dProfilometer/xpcc/src/xpcc/workflow/timeout_impl.hpp **** 	endTime = T::now() + time;
 777              		.loc 3 84 0
 778 0278 A061     		str	r0, [r4, #24]
 779              	.LBB407:
 780              		.loc 3 85 0
 781 027a 2546     		mov	r5, r4
 782 027c 62E7     		b	.L84
 783              	.LVL85:
 784              	.L101:
 785              	.LBE407:
 786              	.LBE403:
 787              	.LBB408:
 788              	.LBB331:
  51:/home/jonas/warwick/3dProfilometer/xpcc/src/xpcc/workflow/timeout_impl.hpp **** 	if (state == ACTIVE)
 789              		.loc 3 51 0
 790 027e 237F     		ldrb	r3, [r4, #28]	@ zero_extendqisi2
 791 0280 012B     		cmp	r3, #1
 792 0282 00F08880 		beq	.L105
 793              	.LBE331:
 794              	.LBE408:
 347:/home/jonas/warwick/3dProfilometer/xpcc/src/xpcc/communication/dispatcher.cpp **** 		{
 348:/home/jonas/warwick/3dProfilometer/xpcc/src/xpcc/communication/dispatcher.cpp **** 			if (entry->time.isExpired())
 349:/home/jonas/warwick/3dProfilometer/xpcc/src/xpcc/communication/dispatcher.cpp **** 			{
 350:/home/jonas/warwick/3dProfilometer/xpcc/src/xpcc/communication/dispatcher.cpp **** 				if (entry->tries >= 2)
 795              		.loc 1 350 0
 796 0286 94F82030 		ldrb	r3, [r4, #32]	@ zero_extendqisi2
 797 028a 012B     		cmp	r3, #1
 798 028c 01D8     		bhi	.L76
 799 028e 90E0     		b	.L106
 800              	.LVL86:
 801              	.L59:
 802              	.LBB409:
 803              	.LBB410:
 233:/home/jonas/warwick/3dProfilometer/xpcc/src/xpcc/communication/dispatcher.cpp **** 	while (prev->next != entry) {
 804              		.loc 1 233 0
 805 0290 1D46     		mov	r5, r3
 806              	.LVL87:
 807              	.L76:
 808 0292 6B68     		ldr	r3, [r5, #4]
 809 0294 9C42     		cmp	r4, r3
 810 0296 FBD1     		bne	.L59
 811              	.LVL88:
 812              	.LBB411:
 813              	.LBB412:
 160:/home/jonas/warwick/3dProfilometer/xpcc/src/xpcc/communication/dispatcher.cpp **** 		if (next == last) {
 814              		.loc 1 160 0
 815 0298 3B6B     		ldr	r3, [r7, #48]
 158:/home/jonas/warwick/3dProfilometer/xpcc/src/xpcc/communication/dispatcher.cpp **** 		entry->next = next->next;
 816              		.loc 1 158 0
 817 029a 6268     		ldr	r2, [r4, #4]
 160:/home/jonas/warwick/3dProfilometer/xpcc/src/xpcc/communication/dispatcher.cpp **** 		if (next == last) {
 818              		.loc 1 160 0
 819 029c 9C42     		cmp	r4, r3
 158:/home/jonas/warwick/3dProfilometer/xpcc/src/xpcc/communication/dispatcher.cpp **** 		entry->next = next->next;
 820              		.loc 1 158 0
 821 029e 6A60     		str	r2, [r5, #4]
 160:/home/jonas/warwick/3dProfilometer/xpcc/src/xpcc/communication/dispatcher.cpp **** 		if (next == last) {
 822              		.loc 1 160 0
 823 02a0 00F0D880 		beq	.L107
 165:/home/jonas/warwick/3dProfilometer/xpcc/src/xpcc/communication/dispatcher.cpp **** 			next->next = 0;
 824              		.loc 1 165 0
 825 02a4 0023     		movs	r3, #0
 826 02a6 6360     		str	r3, [r4, #4]
 827              	.L50:
 828              	.LVL89:
 829              	.LBE412:
 830              	.LBE411:
 831              	.LBB414:
 832              	.LBB415:
  76:/home/jonas/warwick/3dProfilometer/xpcc/src/xpcc/communication/dispatcher.hpp **** 		class Entry
 833              		.loc 2 76 0
 834 02a8 04F11000 		add	r0, r4, #16
 835 02ac 344B     		ldr	r3, .L115+8
 836              	.LBE415:
 837              	.LBE414:
 238:/home/jonas/warwick/3dProfilometer/xpcc/src/xpcc/communication/dispatcher.cpp **** 	delete entry;
 838              		.loc 1 238 0
 839 02ae DFF8D890 		ldr	r9, .L115+16
 840              	.LBB417:
 841              	.LBB416:
  76:/home/jonas/warwick/3dProfilometer/xpcc/src/xpcc/communication/dispatcher.hpp **** 		class Entry
 842              		.loc 2 76 0
 843 02b2 9847     		blx	r3
 844              	.LVL90:
 845              	.LBE416:
 846              	.LBE417:
 238:/home/jonas/warwick/3dProfilometer/xpcc/src/xpcc/communication/dispatcher.cpp **** 	delete entry;
 847              		.loc 1 238 0
 848 02b4 2046     		mov	r0, r4
 849 02b6 C847     		blx	r9
 850              	.LVL91:
 851 02b8 44E7     		b	.L84
 852              	.LVL92:
 853              	.L82:
 854              	.LBE410:
 855              	.LBE409:
 856              	.LBE431:
 857              	.LBE434:
 858              	.LBE437:
 859              	.LBB438:
 860              	.LBB310:
 861              	.LBB303:
 862              	.LBB297:
 863              	.LBB298:
 107:/home/jonas/warwick/3dProfilometer/xpcc/src/xpcc/communication/dispatcher.cpp **** 			header.packetIdentifier);
 864              		.loc 1 107 0
 865 02ba F178     		ldrb	r1, [r6, #3]	@ zero_extendqisi2
 866 02bc 3279     		ldrb	r2, [r6, #4]	@ zero_extendqisi2
 867              	.LVL93:
 109:/home/jonas/warwick/3dProfilometer/xpcc/src/xpcc/communication/dispatcher.cpp **** 	this->backend->sendPacket(ackHeader);
 868              		.loc 1 109 0
 869 02be 3C68     		ldr	r4, [r7, #0]
 870              	.LBB299:
 871              	.LBB300:
 872              		.loc 5 74 0
 873 02c0 8DF81210 		strb	r1, [sp, #18]
 874 02c4 8DF81420 		strb	r2, [sp, #20]
 875 02c8 8DF81330 		strb	r3, [sp, #19]
 876              	.LBE300:
 877              	.LBE299:
 109:/home/jonas/warwick/3dProfilometer/xpcc/src/xpcc/communication/dispatcher.cpp **** 	this->backend->sendPacket(ackHeader);
 878              		.loc 1 109 0
 879 02cc 2368     		ldr	r3, [r4, #0]
 107:/home/jonas/warwick/3dProfilometer/xpcc/src/xpcc/communication/dispatcher.cpp **** 			header.packetIdentifier);
 880              		.loc 1 107 0
 881 02ce 3278     		ldrb	r2, [r6, #0]	@ zero_extendqisi2
 882              	.LVL94:
 109:/home/jonas/warwick/3dProfilometer/xpcc/src/xpcc/communication/dispatcher.cpp **** 	this->backend->sendPacket(ackHeader);
 883              		.loc 1 109 0
 884 02d0 DD68     		ldr	r5, [r3, #12]
 885              	.LBB302:
 886              	.LBB301:
 887              		.loc 5 74 0
 888 02d2 8DF81020 		strb	r2, [sp, #16]
 889 02d6 0123     		movs	r3, #1
 890 02d8 8DF81130 		strb	r3, [sp, #17]
 891              	.LBE301:
 892              	.LBE302:
 109:/home/jonas/warwick/3dProfilometer/xpcc/src/xpcc/communication/dispatcher.cpp **** 	this->backend->sendPacket(ackHeader);
 893              		.loc 1 109 0
 894 02dc 03A8     		add	r0, sp, #12
 895              	.LVL95:
 896 02de 264B     		ldr	r3, .L115
 897 02e0 DFF89C80 		ldr	r8, .L115+8
 898 02e4 9847     		blx	r3
 899              	.LVL96:
 900 02e6 2046     		mov	r0, r4
 901 02e8 04A9     		add	r1, sp, #16
 902              	.LVL97:
 903 02ea 03AA     		add	r2, sp, #12
 904 02ec A847     		blx	r5
 905              	.LVL98:
 906 02ee 03A8     		add	r0, sp, #12
 907 02f0 C047     		blx	r8
 908              	.LVL99:
 909 02f2 EBE6     		b	.L7
 910              	.LVL100:
 911              	.L96:
 912              	.LBE298:
 913              	.LBE297:
 914              	.LBE303:
 915              	.LBE310:
 916              	.LBB311:
 917              	.LBB291:
 918              	.LBB287:
 919              	.LBB283:
 920              	.LBB279:
 921              	.LBB272:
 204:/home/jonas/warwick/3dProfilometer/xpcc/src/xpcc/communication/dispatcher.cpp **** 					if (header.isAcknowledge)
 922              		.loc 1 204 0
 923 02f4 002B     		cmp	r3, #0
 924 02f6 4BD0     		beq	.L108
 207:/home/jonas/warwick/3dProfilometer/xpcc/src/xpcc/communication/dispatcher.cpp **** 						callbackEntry->state = Entry::WAIT_FOR_RESPONSE;
 925              		.loc 1 207 0
 926 02f8 0223     		movs	r3, #2
 927 02fa 2375     		strb	r3, [r4, #20]
 928 02fc FCE6     		b	.L88
 929              	.LVL101:
 930              	.L89:
 931              	.LBB265:
 932              	.LBB257:
 161:/home/jonas/warwick/3dProfilometer/xpcc/src/xpcc/communication/dispatcher.cpp **** 			last = entry;
 933              		.loc 1 161 0
 934 02fe 3D63     		str	r5, [r7, #48]
 935 0300 D7E6     		b	.L20
 936              	.LVL102:
 937              	.L102:
 938              	.LBE257:
 939              	.LBE265:
 940              	.LBE272:
 941              	.LBE279:
 942              	.LBE283:
 943              	.LBE287:
 944              	.LBE291:
 945              	.LBE311:
 946              	.LBE438:
 947              	.LBB439:
 948              	.LBB435:
 949              	.LBB432:
 950              	.LBB420:
 951              	.LBB400:
 952              	.LBB397:
 253:/home/jonas/warwick/3dProfilometer/xpcc/src/xpcc/communication/dispatcher.cpp **** 		postman->deliverPacket(entry->header, entry->payload);
 953              		.loc 1 253 0
 954 0302 7868     		ldr	r0, [r7, #4]
 955 0304 0368     		ldr	r3, [r0, #0]
 956 0306 4946     		mov	r1, r9
 957 0308 1B68     		ldr	r3, [r3, #0]
 958 030a 5246     		mov	r2, sl
 959 030c 9847     		blx	r3
 960              	.LVL103:
 256:/home/jonas/warwick/3dProfilometer/xpcc/src/xpcc/communication/dispatcher.cpp **** 		if (entry->type == Entry::CALLBACK)
 961              		.loc 1 256 0
 962 030e 2678     		ldrb	r6, [r4, #0]	@ zero_extendqisi2
 963 0310 012E     		cmp	r6, #1
 964 0312 01D1     		bne	.L75
 965 0314 6CE0     		b	.L114
 966              	.LVL104:
 967              	.L55:
 968              	.LBB378:
 969              	.LBB379:
 233:/home/jonas/warwick/3dProfilometer/xpcc/src/xpcc/communication/dispatcher.cpp **** 	while (prev->next != entry) {
 970              		.loc 1 233 0
 971 0316 1D46     		mov	r5, r3
 972              	.LVL105:
 973              	.L75:
 974 0318 6B68     		ldr	r3, [r5, #4]
 975 031a 9C42     		cmp	r4, r3
 976 031c FBD1     		bne	.L55
 977              	.LVL106:
 978              	.LBB380:
 979              	.LBB381:
 160:/home/jonas/warwick/3dProfilometer/xpcc/src/xpcc/communication/dispatcher.cpp **** 		if (next == last) {
 980              		.loc 1 160 0
 981 031e 3B6B     		ldr	r3, [r7, #48]
 158:/home/jonas/warwick/3dProfilometer/xpcc/src/xpcc/communication/dispatcher.cpp **** 		entry->next = next->next;
 982              		.loc 1 158 0
 983 0320 6268     		ldr	r2, [r4, #4]
 160:/home/jonas/warwick/3dProfilometer/xpcc/src/xpcc/communication/dispatcher.cpp **** 		if (next == last) {
 984              		.loc 1 160 0
 985 0322 9C42     		cmp	r4, r3
 158:/home/jonas/warwick/3dProfilometer/xpcc/src/xpcc/communication/dispatcher.cpp **** 		entry->next = next->next;
 986              		.loc 1 158 0
 987 0324 6A60     		str	r2, [r5, #4]
 160:/home/jonas/warwick/3dProfilometer/xpcc/src/xpcc/communication/dispatcher.cpp **** 		if (next == last) {
 988              		.loc 1 160 0
 989 0326 00F09380 		beq	.L110
 165:/home/jonas/warwick/3dProfilometer/xpcc/src/xpcc/communication/dispatcher.cpp **** 			next->next = 0;
 990              		.loc 1 165 0
 991 032a 0023     		movs	r3, #0
 992 032c 6360     		str	r3, [r4, #4]
 993              	.L36:
 994              	.LVL107:
 995              	.LBE381:
 996              	.LBE380:
 997              	.LBB383:
 998              	.LBB384:
  76:/home/jonas/warwick/3dProfilometer/xpcc/src/xpcc/communication/dispatcher.hpp **** 		class Entry
 999              		.loc 2 76 0
 1000 032e 5046     		mov	r0, sl
 1001 0330 C047     		blx	r8
 1002              	.LVL108:
 1003              	.LBE384:
 1004              	.LBE383:
 238:/home/jonas/warwick/3dProfilometer/xpcc/src/xpcc/communication/dispatcher.cpp **** 	delete entry;
 1005              		.loc 1 238 0
 1006 0332 DFF85490 		ldr	r9, .L115+16
 1007 0336 2046     		mov	r0, r4
 1008 0338 C847     		blx	r9
 1009              	.LVL109:
 1010 033a 03E7     		b	.L84
 1011              	.LVL110:
 1012              	.L104:
 1013              	.LBE379:
 1014              	.LBE378:
 1015              	.LBB387:
 1016              	.LBB374:
 1017              	.LBB367:
 1018              	.LBB346:
 1019              	.LBB345:
 117:/home/jonas/warwick/3dProfilometer/xpcc/src/xpcc/communication/dispatcher.cpp **** 			(inHeader.packetIdentifier == this->header.packetIdentifier));
 1020              		.loc 1 117 0
 1021 033c F27A     		ldrb	r2, [r6, #11]	@ zero_extendqisi2
 1022 033e A17A     		ldrb	r1, [r4, #10]	@ zero_extendqisi2
 1023 0340 9142     		cmp	r1, r2
 1024 0342 7FF478AF 		bne	.L41
 1025 0346 327B     		ldrb	r2, [r6, #12]	@ zero_extendqisi2
 1026 0348 217B     		ldrb	r1, [r4, #12]	@ zero_extendqisi2
 1027 034a 9142     		cmp	r1, r2
 1028 034c 7FF473AF 		bne	.L41
 1029              	.LVL111:
 1030              	.LBE345:
 1031              	.LBE346:
 1032              	.LBB347:
 1033              	.LBB348:
 1034              	.LBB349:
 160:/home/jonas/warwick/3dProfilometer/xpcc/src/xpcc/communication/dispatcher.cpp **** 		if (next == last) {
 1035              		.loc 1 160 0
 1036 0350 3A6B     		ldr	r2, [r7, #48]
 158:/home/jonas/warwick/3dProfilometer/xpcc/src/xpcc/communication/dispatcher.cpp **** 		entry->next = next->next;
 1037              		.loc 1 158 0
 1038 0352 7168     		ldr	r1, [r6, #4]
 160:/home/jonas/warwick/3dProfilometer/xpcc/src/xpcc/communication/dispatcher.cpp **** 		if (next == last) {
 1039              		.loc 1 160 0
 1040 0354 9642     		cmp	r6, r2
 158:/home/jonas/warwick/3dProfilometer/xpcc/src/xpcc/communication/dispatcher.cpp **** 		entry->next = next->next;
 1041              		.loc 1 158 0
 1042 0356 4160     		str	r1, [r0, #4]
 165:/home/jonas/warwick/3dProfilometer/xpcc/src/xpcc/communication/dispatcher.cpp **** 			next->next = 0;
 1043              		.loc 1 165 0
 1044 0358 18BF     		it	ne
 1045 035a 7360     		strne	r3, [r6, #4]
 1046              	.LBE349:
 1047              	.LBE348:
 1048              	.LBB351:
 288:/home/jonas/warwick/3dProfilometer/xpcc/src/xpcc/communication/dispatcher.cpp **** 				if (s->type == Entry::CALLBACK)
 1049              		.loc 1 288 0
 1050 035c 3378     		ldrb	r3, [r6, #0]	@ zero_extendqisi2
 1051              	.LBE351:
 1052              	.LBB359:
 1053              	.LBB350:
 161:/home/jonas/warwick/3dProfilometer/xpcc/src/xpcc/communication/dispatcher.cpp **** 			last = entry;
 1054              		.loc 1 161 0
 1055 035e 08BF     		it	eq
 1056 0360 3863     		streq	r0, [r7, #48]
 1057              	.LBE350:
 1058              	.LBE359:
 1059              	.LBB360:
 288:/home/jonas/warwick/3dProfilometer/xpcc/src/xpcc/communication/dispatcher.cpp **** 				if (s->type == Entry::CALLBACK)
 1060              		.loc 1 288 0
 1061 0362 012B     		cmp	r3, #1
 1062 0364 4DD0     		beq	.L111
 1063              	.LVL112:
 1064              	.L44:
 1065              	.LBE360:
 1066              	.LBB361:
 1067              	.LBB362:
  76:/home/jonas/warwick/3dProfilometer/xpcc/src/xpcc/communication/dispatcher.hpp **** 		class Entry
 1068              		.loc 2 76 0
 1069 0366 06F11000 		add	r0, r6, #16
 1070 036a C047     		blx	r8
 1071              	.LVL113:
 1072              	.LBE362:
 1073              	.LBE361:
 295:/home/jonas/warwick/3dProfilometer/xpcc/src/xpcc/communication/dispatcher.cpp **** 				delete s;
 1074              		.loc 1 295 0
 1075 036c DFF81890 		ldr	r9, .L115+16
 1076 0370 3046     		mov	r0, r6
 1077 0372 C847     		blx	r9
 1078              	.LVL114:
 1079 0374 65E7     		b	.L40
 1080              	.L116:
 1081 0376 00BF     		.align	2
 1082              	.L115:
 1083 0378 00000000 		.word	_ZN4xpcc12SmartPointerC1Ev
 1084 037c 00000000 		.word	_ZN4xpcc12SmartPointerC1ERKS0_
 1085 0380 00000000 		.word	_ZN4xpcc12SmartPointerD1Ev
 1086 0384 00000000 		.word	_ZN4xpcc5Clock3nowEv
 1087 0388 00000000 		.word	_ZdlPv
 1088              	.LVL115:
 1089              	.L99:
 1090              	.LBE347:
 1091              	.LBE367:
 1092              	.LBE374:
 1093              	.LBE387:
 1094              	.LBE397:
 1095              	.LBE400:
 1096              	.LBE420:
 1097              	.LBB421:
 1098              	.LBB326:
 1099              	.LBB325:
 1100              	.LBB322:
 161:/home/jonas/warwick/3dProfilometer/xpcc/src/xpcc/communication/dispatcher.cpp **** 			last = entry;
 1101              		.loc 1 161 0
 1102 038c 3D63     		str	r5, [r7, #48]
 1103 038e 0BE7     		b	.L29
 1104              	.LVL116:
 1105              	.L108:
 1106 0390 DFF8D880 		ldr	r8, .L117+8
 1107 0394 99E6     		b	.L16
 1108              	.LVL117:
 1109              	.L105:
 1110              	.LBE322:
 1111              	.LBE325:
 1112              	.LBE326:
 1113              	.LBE421:
 1114              	.LBB422:
 1115              	.LBB332:
  53:/home/jonas/warwick/3dProfilometer/xpcc/src/xpcc/workflow/timeout_impl.hpp **** 		if (T::now() >= endTime)
 1116              		.loc 3 53 0
 1117 0396 334B     		ldr	r3, .L117
 1118 0398 9847     		blx	r3
 1119              	.LVL118:
 1120              	.LBB329:
 1121              	.LBB330:
  71:/home/jonas/warwick/3dProfilometer/xpcc/src/xpcc/workflow/timestamp.hpp **** 		}
  72:/home/jonas/warwick/3dProfilometer/xpcc/src/xpcc/workflow/timestamp.hpp **** 		
  73:/home/jonas/warwick/3dProfilometer/xpcc/src/xpcc/workflow/timestamp.hpp **** 		inline Timestamp
  74:/home/jonas/warwick/3dProfilometer/xpcc/src/xpcc/workflow/timestamp.hpp **** 		operator - (const Timestamp& other) const
  75:/home/jonas/warwick/3dProfilometer/xpcc/src/xpcc/workflow/timestamp.hpp **** 		{
  76:/home/jonas/warwick/3dProfilometer/xpcc/src/xpcc/workflow/timestamp.hpp **** 			return Timestamp(time - other.time);
  77:/home/jonas/warwick/3dProfilometer/xpcc/src/xpcc/workflow/timestamp.hpp **** 		}
  78:/home/jonas/warwick/3dProfilometer/xpcc/src/xpcc/workflow/timestamp.hpp **** 		
  79:/home/jonas/warwick/3dProfilometer/xpcc/src/xpcc/workflow/timestamp.hpp **** 		inline bool
  80:/home/jonas/warwick/3dProfilometer/xpcc/src/xpcc/workflow/timestamp.hpp **** 		operator == (const Timestamp& other) const
  81:/home/jonas/warwick/3dProfilometer/xpcc/src/xpcc/workflow/timestamp.hpp **** 		{
  82:/home/jonas/warwick/3dProfilometer/xpcc/src/xpcc/workflow/timestamp.hpp **** 			return (time == other.time);
  83:/home/jonas/warwick/3dProfilometer/xpcc/src/xpcc/workflow/timestamp.hpp **** 		}
  84:/home/jonas/warwick/3dProfilometer/xpcc/src/xpcc/workflow/timestamp.hpp **** 		
  85:/home/jonas/warwick/3dProfilometer/xpcc/src/xpcc/workflow/timestamp.hpp **** 		inline bool
  86:/home/jonas/warwick/3dProfilometer/xpcc/src/xpcc/workflow/timestamp.hpp **** 		operator != (const Timestamp& other) const
  87:/home/jonas/warwick/3dProfilometer/xpcc/src/xpcc/workflow/timestamp.hpp **** 		{
  88:/home/jonas/warwick/3dProfilometer/xpcc/src/xpcc/workflow/timestamp.hpp **** 			return (time != other.time);
  89:/home/jonas/warwick/3dProfilometer/xpcc/src/xpcc/workflow/timestamp.hpp **** 		}
  90:/home/jonas/warwick/3dProfilometer/xpcc/src/xpcc/workflow/timestamp.hpp **** 		
  91:/home/jonas/warwick/3dProfilometer/xpcc/src/xpcc/workflow/timestamp.hpp **** 		inline bool
  92:/home/jonas/warwick/3dProfilometer/xpcc/src/xpcc/workflow/timestamp.hpp **** 		operator < (const Timestamp& other) const
  93:/home/jonas/warwick/3dProfilometer/xpcc/src/xpcc/workflow/timestamp.hpp **** 		{
  94:/home/jonas/warwick/3dProfilometer/xpcc/src/xpcc/workflow/timestamp.hpp **** 			return ((int_fast16_t) (time - other.time)) < 0;
  95:/home/jonas/warwick/3dProfilometer/xpcc/src/xpcc/workflow/timestamp.hpp **** 		}
  96:/home/jonas/warwick/3dProfilometer/xpcc/src/xpcc/workflow/timestamp.hpp **** 		
  97:/home/jonas/warwick/3dProfilometer/xpcc/src/xpcc/workflow/timestamp.hpp **** 		inline bool
  98:/home/jonas/warwick/3dProfilometer/xpcc/src/xpcc/workflow/timestamp.hpp **** 		operator > (const Timestamp& other) const
  99:/home/jonas/warwick/3dProfilometer/xpcc/src/xpcc/workflow/timestamp.hpp **** 		{
 100:/home/jonas/warwick/3dProfilometer/xpcc/src/xpcc/workflow/timestamp.hpp **** 			return ((int_fast16_t) (time - other.time)) > 0;
 101:/home/jonas/warwick/3dProfilometer/xpcc/src/xpcc/workflow/timestamp.hpp **** 		}
 102:/home/jonas/warwick/3dProfilometer/xpcc/src/xpcc/workflow/timestamp.hpp **** 		
 103:/home/jonas/warwick/3dProfilometer/xpcc/src/xpcc/workflow/timestamp.hpp **** 		inline bool
 104:/home/jonas/warwick/3dProfilometer/xpcc/src/xpcc/workflow/timestamp.hpp **** 		operator <= (const Timestamp& other) const
 105:/home/jonas/warwick/3dProfilometer/xpcc/src/xpcc/workflow/timestamp.hpp **** 		{
 106:/home/jonas/warwick/3dProfilometer/xpcc/src/xpcc/workflow/timestamp.hpp **** 			return ((int_fast16_t) (time - other.time)) <= 0;
 107:/home/jonas/warwick/3dProfilometer/xpcc/src/xpcc/workflow/timestamp.hpp **** 		}
 108:/home/jonas/warwick/3dProfilometer/xpcc/src/xpcc/workflow/timestamp.hpp **** 		
 109:/home/jonas/warwick/3dProfilometer/xpcc/src/xpcc/workflow/timestamp.hpp **** 		inline bool
 110:/home/jonas/warwick/3dProfilometer/xpcc/src/xpcc/workflow/timestamp.hpp **** 		operator >= (const Timestamp& other) const
 111:/home/jonas/warwick/3dProfilometer/xpcc/src/xpcc/workflow/timestamp.hpp **** 		{
 112:/home/jonas/warwick/3dProfilometer/xpcc/src/xpcc/workflow/timestamp.hpp **** 			return ((int_fast16_t) (time - other.time)) >= 0;
 1122              		.loc 4 112 0
 1123 039a A369     		ldr	r3, [r4, #24]
 1124 039c C01A     		subs	r0, r0, r3
 1125              	.LBE330:
 1126              	.LBE329:
  53:/home/jonas/warwick/3dProfilometer/xpcc/src/xpcc/workflow/timeout_impl.hpp **** 		if (T::now() >= endTime)
 1127              		.loc 3 53 0
 1128 039e 0028     		cmp	r0, #0
 1129 03a0 FFF610AF 		blt	.L58
  55:/home/jonas/warwick/3dProfilometer/xpcc/src/xpcc/workflow/timeout_impl.hpp **** 			state = EXPIRED;
 1130              		.loc 3 55 0
 1131 03a4 0223     		movs	r3, #2
 1132 03a6 2377     		strb	r3, [r4, #28]
 1133              	.LBE332:
 1134              	.LBE422:
 1135              		.loc 1 350 0
 1136 03a8 94F82030 		ldrb	r3, [r4, #32]	@ zero_extendqisi2
 1137 03ac 012B     		cmp	r3, #1
 1138 03ae 3FF670AF 		bhi	.L76
 1139              	.LVL119:
 1140              	.L106:
 351:/home/jonas/warwick/3dProfilometer/xpcc/src/xpcc/communication/dispatcher.cpp **** 				{
 352:/home/jonas/warwick/3dProfilometer/xpcc/src/xpcc/communication/dispatcher.cpp **** 					// TODO do sth to notify the user
 353:/home/jonas/warwick/3dProfilometer/xpcc/src/xpcc/communication/dispatcher.cpp **** 					prev = deleteEntry(entry, prev);
 354:/home/jonas/warwick/3dProfilometer/xpcc/src/xpcc/communication/dispatcher.cpp **** 					continue;
 355:/home/jonas/warwick/3dProfilometer/xpcc/src/xpcc/communication/dispatcher.cpp **** 				}
 356:/home/jonas/warwick/3dProfilometer/xpcc/src/xpcc/communication/dispatcher.cpp **** 				else
 357:/home/jonas/warwick/3dProfilometer/xpcc/src/xpcc/communication/dispatcher.cpp **** 				{
 358:/home/jonas/warwick/3dProfilometer/xpcc/src/xpcc/communication/dispatcher.cpp **** 					backend->sendPacket(entry->header, entry->payload);
 1141              		.loc 1 358 0
 1142 03b2 3D68     		ldr	r5, [r7, #0]
 1143              	.LVL120:
 1144 03b4 2B68     		ldr	r3, [r5, #0]
 1145 03b6 04F11001 		add	r1, r4, #16
 1146 03ba DE68     		ldr	r6, [r3, #12]
 1147 03bc 2A4B     		ldr	r3, .L117+4
 1148 03be 03A8     		add	r0, sp, #12
 1149 03c0 9847     		blx	r3
 1150              	.LVL121:
 1151 03c2 2846     		mov	r0, r5
 1152 03c4 04F10801 		add	r1, r4, #8
 1153 03c8 03AA     		add	r2, sp, #12
 1154 03ca B047     		blx	r6
 1155              	.LVL122:
 1156 03cc 274B     		ldr	r3, .L117+8
 1157 03ce 03A8     		add	r0, sp, #12
 1158 03d0 9847     		blx	r3
 1159              	.LVL123:
 359:/home/jonas/warwick/3dProfilometer/xpcc/src/xpcc/communication/dispatcher.cpp **** 					
 360:/home/jonas/warwick/3dProfilometer/xpcc/src/xpcc/communication/dispatcher.cpp **** 					entry->tries++;
 1160              		.loc 1 360 0
 1161 03d2 94F82030 		ldrb	r3, [r4, #32]	@ zero_extendqisi2
 1162 03d6 0133     		adds	r3, r3, #1
 1163 03d8 84F82030 		strb	r3, [r4, #32]
 1164              	.LVL124:
 1165              	.LBB423:
 1166              	.LBB424:
  84:/home/jonas/warwick/3dProfilometer/xpcc/src/xpcc/workflow/timeout_impl.hpp **** 	endTime = T::now() + time;
 1167              		.loc 3 84 0
 1168 03dc 214B     		ldr	r3, .L117
 1169 03de 9847     		blx	r3
 1170              	.LVL125:
 1171              		.loc 3 85 0
 1172 03e0 0123     		movs	r3, #1
 1173              	.LBB425:
 1174              	.LBB426:
  70:/home/jonas/warwick/3dProfilometer/xpcc/src/xpcc/workflow/timestamp.hpp **** 			return Timestamp(time + other.time);
 1175              		.loc 4 70 0
 1176 03e2 6430     		adds	r0, r0, #100
 1177              	.LVL126:
 1178              	.LBE426:
 1179              	.LBE425:
 1180              	.LBE424:
  84:/home/jonas/warwick/3dProfilometer/xpcc/src/xpcc/workflow/timeout_impl.hpp **** 	endTime = T::now() + time;
 1181              		.loc 3 84 0
 1182 03e4 A061     		str	r0, [r4, #24]
 1183              	.LBB427:
 1184              		.loc 3 85 0
 1185 03e6 2377     		strb	r3, [r4, #28]
 1186 03e8 2546     		mov	r5, r4
 1187 03ea ABE6     		b	.L84
 1188              	.LVL127:
 1189              	.L56:
 1190              	.LBE427:
 1191              	.LBE423:
 1192              	.LBB428:
 1193              	.LBB401:
 1194              	.LBB398:
 1195              	.LBB388:
 1196              	.LBB375:
 1197              	.LBB340:
 156:/home/jonas/warwick/3dProfilometer/xpcc/src/xpcc/communication/dispatcher.cpp **** 	if (next)
 1198              		.loc 1 156 0
 1199 03ec 1E46     		mov	r6, r3
 1200 03ee 17E7     		b	.L37
 1201              	.LVL128:
 1202              	.L114:
 1203              	.LBE340:
 1204              	.LBE375:
 1205              	.LBE388:
 259:/home/jonas/warwick/3dProfilometer/xpcc/src/xpcc/communication/dispatcher.cpp **** 			entry->state = Entry::WAIT_FOR_RESPONSE;
 1206              		.loc 1 259 0
 1207 03f0 0223     		movs	r3, #2
 1208 03f2 2375     		strb	r3, [r4, #20]
 1209              	.LVL129:
 1210              	.LBB389:
 1211              	.LBB390:
  84:/home/jonas/warwick/3dProfilometer/xpcc/src/xpcc/workflow/timeout_impl.hpp **** 	endTime = T::now() + time;
 1212              		.loc 3 84 0
 1213 03f4 1B4B     		ldr	r3, .L117
 1214 03f6 9847     		blx	r3
 1215              	.LVL130:
 1216              	.LBB391:
 1217              	.LBB392:
  70:/home/jonas/warwick/3dProfilometer/xpcc/src/xpcc/workflow/timestamp.hpp **** 			return Timestamp(time + other.time);
 1218              		.loc 4 70 0
 1219 03f8 6430     		adds	r0, r0, #100
 1220              	.LVL131:
 1221              	.LBE392:
 1222              	.LBE391:
 1223              	.LBE390:
  84:/home/jonas/warwick/3dProfilometer/xpcc/src/xpcc/workflow/timeout_impl.hpp **** 	endTime = T::now() + time;
 1224              		.loc 3 84 0
 1225 03fa A061     		str	r0, [r4, #24]
 1226              	.LBB393:
 1227              		.loc 3 85 0
 1228 03fc 2677     		strb	r6, [r4, #28]
 1229              	.LVL132:
 1230 03fe 2546     		mov	r5, r4
 1231              	.LVL133:
 1232 0400 A0E6     		b	.L84
 1233              	.LVL134:
 1234              	.L111:
 1235              	.LBE393:
 1236              	.LBE389:
 1237              	.LBB394:
 1238              	.LBB376:
 1239              	.LBB368:
 1240              	.LBB365:
 1241              	.LBB363:
 1242              	.LBB352:
 1243              	.LBB353:
 1244              	.LBB354:
 1245              		.file 6 "/home/jonas/warwick/3dProfilometer/xpcc/src/xpcc/communication/response_callback.hpp"
   1:/home/jonas/warwick/3dProfilometer/xpcc/src/xpcc/communication/response_callback.hpp **** // coding: utf-8
   2:/home/jonas/warwick/3dProfilometer/xpcc/src/xpcc/communication/response_callback.hpp **** // ----------------------------------------------------------------------------
   3:/home/jonas/warwick/3dProfilometer/xpcc/src/xpcc/communication/response_callback.hpp **** /* Copyright (c) 2009, Roboterclub Aachen e.V.
   4:/home/jonas/warwick/3dProfilometer/xpcc/src/xpcc/communication/response_callback.hpp ****  * All rights reserved.
   5:/home/jonas/warwick/3dProfilometer/xpcc/src/xpcc/communication/response_callback.hpp ****  * 
   6:/home/jonas/warwick/3dProfilometer/xpcc/src/xpcc/communication/response_callback.hpp ****  * Redistribution and use in source and binary forms, with or without
   7:/home/jonas/warwick/3dProfilometer/xpcc/src/xpcc/communication/response_callback.hpp ****  * modification, are permitted provided that the following conditions are met:
   8:/home/jonas/warwick/3dProfilometer/xpcc/src/xpcc/communication/response_callback.hpp ****  * 
   9:/home/jonas/warwick/3dProfilometer/xpcc/src/xpcc/communication/response_callback.hpp ****  *     * Redistributions of source code must retain the above copyright
  10:/home/jonas/warwick/3dProfilometer/xpcc/src/xpcc/communication/response_callback.hpp ****  *       notice, this list of conditions and the following disclaimer.
  11:/home/jonas/warwick/3dProfilometer/xpcc/src/xpcc/communication/response_callback.hpp ****  *     * Redistributions in binary form must reproduce the above copyright
  12:/home/jonas/warwick/3dProfilometer/xpcc/src/xpcc/communication/response_callback.hpp ****  *       notice, this list of conditions and the following disclaimer in the
  13:/home/jonas/warwick/3dProfilometer/xpcc/src/xpcc/communication/response_callback.hpp ****  *       documentation and/or other materials provided with the distribution.
  14:/home/jonas/warwick/3dProfilometer/xpcc/src/xpcc/communication/response_callback.hpp ****  *     * Neither the name of the Roboterclub Aachen e.V. nor the
  15:/home/jonas/warwick/3dProfilometer/xpcc/src/xpcc/communication/response_callback.hpp ****  *       names of its contributors may be used to endorse or promote products
  16:/home/jonas/warwick/3dProfilometer/xpcc/src/xpcc/communication/response_callback.hpp ****  *       derived from this software without specific prior written permission.
  17:/home/jonas/warwick/3dProfilometer/xpcc/src/xpcc/communication/response_callback.hpp ****  * 
  18:/home/jonas/warwick/3dProfilometer/xpcc/src/xpcc/communication/response_callback.hpp ****  * THIS SOFTWARE IS PROVIDED BY ROBOTERCLUB AACHEN E.V. ''AS IS'' AND ANY
  19:/home/jonas/warwick/3dProfilometer/xpcc/src/xpcc/communication/response_callback.hpp ****  * EXPRESS OR IMPLIED WARRANTIES, INCLUDING, BUT NOT LIMITED TO, THE IMPLIED
  20:/home/jonas/warwick/3dProfilometer/xpcc/src/xpcc/communication/response_callback.hpp ****  * WARRANTIES OF MERCHANTABILITY AND FITNESS FOR A PARTICULAR PURPOSE ARE
  21:/home/jonas/warwick/3dProfilometer/xpcc/src/xpcc/communication/response_callback.hpp ****  * DISCLAIMED. IN NO EVENT SHALL ROBOTERCLUB AACHEN E.V. BE LIABLE FOR ANY
  22:/home/jonas/warwick/3dProfilometer/xpcc/src/xpcc/communication/response_callback.hpp ****  * DIRECT, INDIRECT, INCIDENTAL, SPECIAL, EXEMPLARY, OR CONSEQUENTIAL DAMAGES
  23:/home/jonas/warwick/3dProfilometer/xpcc/src/xpcc/communication/response_callback.hpp ****  * (INCLUDING, BUT NOT LIMITED TO, PROCUREMENT OF SUBSTITUTE GOODS OR SERVICES;
  24:/home/jonas/warwick/3dProfilometer/xpcc/src/xpcc/communication/response_callback.hpp ****  * LOSS OF USE, DATA, OR PROFITS; OR BUSINESS INTERRUPTION) HOWEVER CAUSED AND
  25:/home/jonas/warwick/3dProfilometer/xpcc/src/xpcc/communication/response_callback.hpp ****  * ON ANY THEORY OF LIABILITY, WHETHER IN CONTRACT, STRICT LIABILITY, OR TORT
  26:/home/jonas/warwick/3dProfilometer/xpcc/src/xpcc/communication/response_callback.hpp ****  * (INCLUDING NEGLIGENCE OR OTHERWISE) ARISING IN ANY WAY OUT OF THE USE OF
  27:/home/jonas/warwick/3dProfilometer/xpcc/src/xpcc/communication/response_callback.hpp ****  * THIS SOFTWARE, EVEN IF ADVISED OF THE POSSIBILITY OF SUCH DAMAGE.
  28:/home/jonas/warwick/3dProfilometer/xpcc/src/xpcc/communication/response_callback.hpp ****  */
  29:/home/jonas/warwick/3dProfilometer/xpcc/src/xpcc/communication/response_callback.hpp **** // ----------------------------------------------------------------------------
  30:/home/jonas/warwick/3dProfilometer/xpcc/src/xpcc/communication/response_callback.hpp **** 
  31:/home/jonas/warwick/3dProfilometer/xpcc/src/xpcc/communication/response_callback.hpp **** #ifndef	XPCC__RESPONSE_CALLBACK_HPP
  32:/home/jonas/warwick/3dProfilometer/xpcc/src/xpcc/communication/response_callback.hpp **** #define	XPCC__RESPONSE_CALLBACK_HPP
  33:/home/jonas/warwick/3dProfilometer/xpcc/src/xpcc/communication/response_callback.hpp **** 
  34:/home/jonas/warwick/3dProfilometer/xpcc/src/xpcc/communication/response_callback.hpp **** #include <xpcc/container/smart_pointer.hpp>
  35:/home/jonas/warwick/3dProfilometer/xpcc/src/xpcc/communication/response_callback.hpp **** 
  36:/home/jonas/warwick/3dProfilometer/xpcc/src/xpcc/communication/response_callback.hpp **** #include "backend/backend_interface.hpp"
  37:/home/jonas/warwick/3dProfilometer/xpcc/src/xpcc/communication/response_callback.hpp **** #include "communicatable.hpp"
  38:/home/jonas/warwick/3dProfilometer/xpcc/src/xpcc/communication/response_callback.hpp **** 
  39:/home/jonas/warwick/3dProfilometer/xpcc/src/xpcc/communication/response_callback.hpp **** namespace xpcc
  40:/home/jonas/warwick/3dProfilometer/xpcc/src/xpcc/communication/response_callback.hpp **** {
  41:/home/jonas/warwick/3dProfilometer/xpcc/src/xpcc/communication/response_callback.hpp **** 	/**
  42:/home/jonas/warwick/3dProfilometer/xpcc/src/xpcc/communication/response_callback.hpp **** 	 * \brief 		Callback type, which has to be passed to communication during
  43:/home/jonas/warwick/3dProfilometer/xpcc/src/xpcc/communication/response_callback.hpp **** 	 *				actioncall in order to be able to receive a response.
  44:/home/jonas/warwick/3dProfilometer/xpcc/src/xpcc/communication/response_callback.hpp **** 	 * 
  45:/home/jonas/warwick/3dProfilometer/xpcc/src/xpcc/communication/response_callback.hpp **** 	 * Is a \b Functor.
  46:/home/jonas/warwick/3dProfilometer/xpcc/src/xpcc/communication/response_callback.hpp **** 	 * 
  47:/home/jonas/warwick/3dProfilometer/xpcc/src/xpcc/communication/response_callback.hpp **** 	 * \ingroup		communication
  48:/home/jonas/warwick/3dProfilometer/xpcc/src/xpcc/communication/response_callback.hpp **** 	 */
  49:/home/jonas/warwick/3dProfilometer/xpcc/src/xpcc/communication/response_callback.hpp **** 	class ResponseCallback
  50:/home/jonas/warwick/3dProfilometer/xpcc/src/xpcc/communication/response_callback.hpp **** 	{
  51:/home/jonas/warwick/3dProfilometer/xpcc/src/xpcc/communication/response_callback.hpp **** 	public:
  52:/home/jonas/warwick/3dProfilometer/xpcc/src/xpcc/communication/response_callback.hpp **** 		typedef void (Communicatable::*Function)(const Header& header, const uint8_t *type);
  53:/home/jonas/warwick/3dProfilometer/xpcc/src/xpcc/communication/response_callback.hpp **** 		
  54:/home/jonas/warwick/3dProfilometer/xpcc/src/xpcc/communication/response_callback.hpp **** 	public:
  55:/home/jonas/warwick/3dProfilometer/xpcc/src/xpcc/communication/response_callback.hpp **** 		/**
  56:/home/jonas/warwick/3dProfilometer/xpcc/src/xpcc/communication/response_callback.hpp **** 		 * Set the method that will be called when a response is received.
  57:/home/jonas/warwick/3dProfilometer/xpcc/src/xpcc/communication/response_callback.hpp **** 		 *
  58:/home/jonas/warwick/3dProfilometer/xpcc/src/xpcc/communication/response_callback.hpp **** 		 * \param	componentObject	Pointer to a component object
  59:/home/jonas/warwick/3dProfilometer/xpcc/src/xpcc/communication/response_callback.hpp **** 		 * \param	memberFunction	Pointer to a function of the component object
  60:/home/jonas/warwick/3dProfilometer/xpcc/src/xpcc/communication/response_callback.hpp **** 		 */
  61:/home/jonas/warwick/3dProfilometer/xpcc/src/xpcc/communication/response_callback.hpp **** 		template <typename C, typename P>
  62:/home/jonas/warwick/3dProfilometer/xpcc/src/xpcc/communication/response_callback.hpp **** 		ResponseCallback(C *componentObject, void (C::*memberFunction)(const Header& header, const P* pac
  63:/home/jonas/warwick/3dProfilometer/xpcc/src/xpcc/communication/response_callback.hpp **** 			component(reinterpret_cast<Communicatable *>(componentObject)),
  64:/home/jonas/warwick/3dProfilometer/xpcc/src/xpcc/communication/response_callback.hpp **** 			function(reinterpret_cast<Function>(memberFunction))/*,
  65:/home/jonas/warwick/3dProfilometer/xpcc/src/xpcc/communication/response_callback.hpp **** 			packetSize(sizeof(P))*/
  66:/home/jonas/warwick/3dProfilometer/xpcc/src/xpcc/communication/response_callback.hpp **** 		{
  67:/home/jonas/warwick/3dProfilometer/xpcc/src/xpcc/communication/response_callback.hpp **** 		}
  68:/home/jonas/warwick/3dProfilometer/xpcc/src/xpcc/communication/response_callback.hpp **** 		
  69:/home/jonas/warwick/3dProfilometer/xpcc/src/xpcc/communication/response_callback.hpp **** 		/**
  70:/home/jonas/warwick/3dProfilometer/xpcc/src/xpcc/communication/response_callback.hpp **** 		 * Set the method that will be called when a response is received.
  71:/home/jonas/warwick/3dProfilometer/xpcc/src/xpcc/communication/response_callback.hpp **** 		 *
  72:/home/jonas/warwick/3dProfilometer/xpcc/src/xpcc/communication/response_callback.hpp **** 		 * This specialization is to be used in case of no payload. The second
  73:/home/jonas/warwick/3dProfilometer/xpcc/src/xpcc/communication/response_callback.hpp **** 		 * parameter of the method has to be a void*.
  74:/home/jonas/warwick/3dProfilometer/xpcc/src/xpcc/communication/response_callback.hpp **** 		 *
  75:/home/jonas/warwick/3dProfilometer/xpcc/src/xpcc/communication/response_callback.hpp **** 		 * \param	componentObject	Pointer to a component object
  76:/home/jonas/warwick/3dProfilometer/xpcc/src/xpcc/communication/response_callback.hpp **** 		 * \param	memberFunction	Pointer to a function of the component object
  77:/home/jonas/warwick/3dProfilometer/xpcc/src/xpcc/communication/response_callback.hpp **** 		 */
  78:/home/jonas/warwick/3dProfilometer/xpcc/src/xpcc/communication/response_callback.hpp **** 		template <typename C>
  79:/home/jonas/warwick/3dProfilometer/xpcc/src/xpcc/communication/response_callback.hpp **** 		ResponseCallback(C *componentObject, void (C::*memberFunction)(const Header& header)) :
  80:/home/jonas/warwick/3dProfilometer/xpcc/src/xpcc/communication/response_callback.hpp **** 			component(reinterpret_cast<Communicatable *>(componentObject)),
  81:/home/jonas/warwick/3dProfilometer/xpcc/src/xpcc/communication/response_callback.hpp **** 			function(reinterpret_cast<Function>(memberFunction))/*,
  82:/home/jonas/warwick/3dProfilometer/xpcc/src/xpcc/communication/response_callback.hpp **** 			packetSize(0)*/
  83:/home/jonas/warwick/3dProfilometer/xpcc/src/xpcc/communication/response_callback.hpp **** 		{
  84:/home/jonas/warwick/3dProfilometer/xpcc/src/xpcc/communication/response_callback.hpp **** 		}
  85:/home/jonas/warwick/3dProfilometer/xpcc/src/xpcc/communication/response_callback.hpp **** 		
  86:/home/jonas/warwick/3dProfilometer/xpcc/src/xpcc/communication/response_callback.hpp **** 		/// \todo check packet size?
  87:/home/jonas/warwick/3dProfilometer/xpcc/src/xpcc/communication/response_callback.hpp **** 		inline void
  88:/home/jonas/warwick/3dProfilometer/xpcc/src/xpcc/communication/response_callback.hpp **** 		call(const Header& header, const SmartPointer &payload) const
  89:/home/jonas/warwick/3dProfilometer/xpcc/src/xpcc/communication/response_callback.hpp **** 		{
  90:/home/jonas/warwick/3dProfilometer/xpcc/src/xpcc/communication/response_callback.hpp **** 			(component->*function)(header, payload.getPointer());
 1246              		.loc 6 90 0
 1247 0402 F36A     		ldr	r3, [r6, #44]
 1248 0404 DA07     		lsls	r2, r3, #31
 1249 0406 1ED5     		bpl	.L112
 1250 0408 5B10     		asrs	r3, r3, #1
 1251 040a 706A     		ldr	r0, [r6, #36]
 1252              	.LVL135:
 1253 040c B26A     		ldr	r2, [r6, #40]
 1254 040e C158     		ldr	r1, [r0, r3]
 1255 0410 51F802C0 		ldr	ip, [r1, r2]
 1256              	.L46:
 1257              	.LVL136:
 1258              	.LBE354:
 1259 0414 2269     		ldr	r2, [r4, #16]
 1260              	.LBB355:
 1261 0416 C018     		adds	r0, r0, r3
 1262 0418 4946     		mov	r1, r9
 1263 041a 0232     		adds	r2, r2, #2
 1264 041c E047     		blx	ip
 1265              	.LVL137:
 1266 041e A2E7     		b	.L44
 1267              	.LVL138:
 1268              	.L97:
 1269              	.LBE355:
 1270              	.LBE353:
 1271              	.LBE352:
 1272              	.LBE363:
 1273              	.LBE365:
 1274              	.LBE368:
 1275              	.LBE376:
 1276              	.LBE394:
 1277              	.LBE398:
 1278              	.LBE401:
 1279              	.LBE428:
 1280              	.LBE432:
 1281              	.LBE435:
 1282              	.LBE439:
 1283              	.LBB440:
 1284              	.LBB312:
 1285              	.LBB292:
 1286              	.LBB288:
 1287              	.LBB284:
 1288              	.LBB280:
 1289              	.LBB273:
 1290              	.LBB266:
 1291              	.LBB267:
 1292 0420 E36A     		ldr	r3, [r4, #44]
 1293 0422 D907     		lsls	r1, r3, #31
 1294 0424 18D5     		bpl	.L113
 1295 0426 5B10     		asrs	r3, r3, #1
 1296 0428 606A     		ldr	r0, [r4, #36]
 1297 042a A26A     		ldr	r2, [r4, #40]
 1298 042c C158     		ldr	r1, [r0, r3]
 1299 042e 51F802C0 		ldr	ip, [r1, r2]
 1300 0432 C018     		adds	r0, r0, r3
 1301              	.L19:
 1302              	.LVL139:
 1303 0434 029A     		ldr	r2, [sp, #8]
 1304 0436 3146     		mov	r1, r6
 1305 0438 0232     		adds	r2, r2, #2
 1306 043a E047     		blx	ip
 1307              	.LVL140:
 1308              	.LBE267:
 1309              	.LBE266:
 1310              	.LBB269:
 1311              	.LBB258:
 155:/home/jonas/warwick/3dProfilometer/xpcc/src/xpcc/communication/dispatcher.cpp **** 	Entry *next = entry->next;
 1312              		.loc 1 155 0
 1313 043c 6B68     		ldr	r3, [r5, #4]
 1314              	.LVL141:
 156:/home/jonas/warwick/3dProfilometer/xpcc/src/xpcc/communication/dispatcher.cpp **** 	if (next)
 1315              		.loc 1 156 0
 1316 043e 002B     		cmp	r3, #0
 1317 0440 3FF437AE 		beq	.L20
 1318 0444 1DE6     		b	.L17
 1319              	.LVL142:
 1320              	.L112:
 1321              	.LBE258:
 1322              	.LBE269:
 1323              	.LBE273:
 1324              	.LBE280:
 1325              	.LBE284:
 1326              	.LBE288:
 1327              	.LBE292:
 1328              	.LBE312:
 1329              	.LBE440:
 1330              	.LBB441:
 1331              	.LBB436:
 1332              	.LBB433:
 1333              	.LBB429:
 1334              	.LBB402:
 1335              	.LBB399:
 1336              	.LBB395:
 1337              	.LBB377:
 1338              	.LBB369:
 1339              	.LBB366:
 1340              	.LBB364:
 1341              	.LBB358:
 1342              	.LBB357:
 1343              	.LBB356:
 1344              		.loc 6 90 0
 1345 0446 D6F828C0 		ldr	ip, [r6, #40]
 1346 044a 706A     		ldr	r0, [r6, #36]
 1347              	.LVL143:
 1348 044c 5B10     		asrs	r3, r3, #1
 1349 044e E1E7     		b	.L46
 1350              	.LVL144:
 1351              	.L110:
 1352              	.LBE356:
 1353              	.LBE357:
 1354              	.LBE358:
 1355              	.LBE364:
 1356              	.LBE366:
 1357              	.LBE369:
 1358              	.LBE377:
 1359              	.LBE395:
 1360              	.LBB396:
 1361              	.LBB386:
 1362              	.LBB385:
 1363              	.LBB382:
 161:/home/jonas/warwick/3dProfilometer/xpcc/src/xpcc/communication/dispatcher.cpp **** 			last = entry;
 1364              		.loc 1 161 0
 1365 0450 3D63     		str	r5, [r7, #48]
 1366 0452 6CE7     		b	.L36
 1367              	.LVL145:
 1368              	.L107:
 1369              	.LBE382:
 1370              	.LBE385:
 1371              	.LBE386:
 1372              	.LBE396:
 1373              	.LBE399:
 1374              	.LBE402:
 1375              	.LBE429:
 1376              	.LBB430:
 1377              	.LBB419:
 1378              	.LBB418:
 1379              	.LBB413:
 1380 0454 3D63     		str	r5, [r7, #48]
 1381 0456 27E7     		b	.L50
 1382              	.LVL146:
 1383              	.L113:
 1384 0458 606A     		ldr	r0, [r4, #36]
 1385              	.LBE413:
 1386              	.LBE418:
 1387              	.LBE419:
 1388              	.LBE430:
 1389              	.LBE433:
 1390              	.LBE436:
 1391              	.LBE441:
 1392              	.LBB442:
 1393              	.LBB313:
 1394              	.LBB293:
 1395              	.LBB289:
 1396              	.LBB285:
 1397              	.LBB281:
 1398              	.LBB274:
 1399              	.LBB270:
 1400              	.LBB268:
 1401              		.loc 6 90 0
 1402 045a D4F828C0 		ldr	ip, [r4, #40]
 1403 045e 00EB6300 		add	r0, r0, r3, asr #1
 1404 0462 E7E7     		b	.L19
 1405              	.L118:
 1406              		.align	2
 1407              	.L117:
 1408 0464 00000000 		.word	_ZN4xpcc5Clock3nowEv
 1409 0468 00000000 		.word	_ZN4xpcc12SmartPointerC1ERKS0_
 1410 046c 00000000 		.word	_ZN4xpcc12SmartPointerD1Ev
 1411              	.LBE268:
 1412              	.LBE270:
 1413              	.LBE274:
 1414              	.LBE281:
 1415              	.LBE285:
 1416              	.LBE289:
 1417              	.LBE293:
 1418              	.LBE313:
 1419              	.LBE442:
 1420              	.LBE445:
 1421              		.cfi_endproc
 1422              	.LFE161:
 1424              		.section	.text._ZN4xpcc10Dispatcher15sendAcknowledgeERKNS_6HeaderE,"ax",%progbits
 1425              		.align	2
 1426              		.global	_ZN4xpcc10Dispatcher15sendAcknowledgeERKNS_6HeaderE
 1427              		.thumb
 1428              		.thumb_func
 1430              	_ZN4xpcc10Dispatcher15sendAcknowledgeERKNS_6HeaderE:
 1431              	.LFB163:
 103:/home/jonas/warwick/3dProfilometer/xpcc/src/xpcc/communication/dispatcher.cpp **** {
 1432              		.loc 1 103 0
 1433              		.cfi_startproc
 1434              		@ args = 0, pretend = 0, frame = 16
 1435              		@ frame_needed = 0, uses_anonymous_args = 0
 1436              	.LVL147:
 1437 0000 30B5     		push	{r4, r5, lr}
 1438              	.LCFI3:
 1439              		.cfi_def_cfa_offset 12
 1440              		.cfi_offset 4, -12
 1441              		.cfi_offset 5, -8
 1442              		.cfi_offset 14, -4
 1443              	.LBB446:
 109:/home/jonas/warwick/3dProfilometer/xpcc/src/xpcc/communication/dispatcher.cpp **** 	this->backend->sendPacket(ackHeader);
 1444              		.loc 1 109 0
 1445 0002 0468     		ldr	r4, [r0, #0]
 107:/home/jonas/warwick/3dProfilometer/xpcc/src/xpcc/communication/dispatcher.cpp **** 			header.packetIdentifier);
 1446              		.loc 1 107 0
 1447 0004 8A78     		ldrb	r2, [r1, #2]	@ zero_extendqisi2
 1448 0006 C878     		ldrb	r0, [r1, #3]	@ zero_extendqisi2
 1449              	.LVL148:
 1450 0008 0B79     		ldrb	r3, [r1, #4]	@ zero_extendqisi2
 1451              	.LBE446:
 103:/home/jonas/warwick/3dProfilometer/xpcc/src/xpcc/communication/dispatcher.cpp **** {
 1452              		.loc 1 103 0
 1453 000a 85B0     		sub	sp, sp, #20
 1454              	.LCFI4:
 1455              		.cfi_def_cfa_offset 32
 1456              	.LVL149:
 1457              	.LBB453:
 1458              	.LBB447:
 1459              	.LBB448:
 1460              		.loc 5 74 0
 1461 000c 8DF80A00 		strb	r0, [sp, #10]
 1462 0010 8DF80B20 		strb	r2, [sp, #11]
 1463 0014 8DF80C30 		strb	r3, [sp, #12]
 1464              	.LBE448:
 1465              	.LBE447:
 109:/home/jonas/warwick/3dProfilometer/xpcc/src/xpcc/communication/dispatcher.cpp **** 	this->backend->sendPacket(ackHeader);
 1466              		.loc 1 109 0
 1467 0018 2368     		ldr	r3, [r4, #0]
 1468              	.LBB451:
 1469              	.LBB449:
 1470              		.loc 5 74 0
 1471 001a 0A78     		ldrb	r2, [r1, #0]	@ zero_extendqisi2
 1472              	.LBE449:
 1473              	.LBE451:
 109:/home/jonas/warwick/3dProfilometer/xpcc/src/xpcc/communication/dispatcher.cpp **** 	this->backend->sendPacket(ackHeader);
 1474              		.loc 1 109 0
 1475 001c DD68     		ldr	r5, [r3, #12]
 1476              	.LBB452:
 1477              	.LBB450:
 1478              		.loc 5 74 0
 1479 001e 8DF80820 		strb	r2, [sp, #8]
 1480 0022 0123     		movs	r3, #1
 1481 0024 8DF80930 		strb	r3, [sp, #9]
 1482              	.LBE450:
 1483              	.LBE452:
 109:/home/jonas/warwick/3dProfilometer/xpcc/src/xpcc/communication/dispatcher.cpp **** 	this->backend->sendPacket(ackHeader);
 1484              		.loc 1 109 0
 1485 0028 01A8     		add	r0, sp, #4
 1486 002a 054B     		ldr	r3, .L120
 1487 002c 9847     		blx	r3
 1488              	.LVL150:
 1489 002e 2046     		mov	r0, r4
 1490 0030 02A9     		add	r1, sp, #8
 1491              	.LVL151:
 1492 0032 01AA     		add	r2, sp, #4
 1493 0034 A847     		blx	r5
 1494              	.LVL152:
 1495 0036 01A8     		add	r0, sp, #4
 1496 0038 024B     		ldr	r3, .L120+4
 1497 003a 9847     		blx	r3
 1498              	.LVL153:
 1499              	.LBE453:
 110:/home/jonas/warwick/3dProfilometer/xpcc/src/xpcc/communication/dispatcher.cpp **** }
 1500              		.loc 1 110 0
 1501 003c 05B0     		add	sp, sp, #20
 1502 003e 30BD     		pop	{r4, r5, pc}
 1503              	.L121:
 1504              		.align	2
 1505              	.L120:
 1506 0040 00000000 		.word	_ZN4xpcc12SmartPointerC1Ev
 1507 0044 00000000 		.word	_ZN4xpcc12SmartPointerD1Ev
 1508              		.cfi_endproc
 1509              	.LFE163:
 1511              		.section	.text._ZNK4xpcc10Dispatcher5Entry10headerFitsERKNS_6HeaderE,"ax",%progbits
 1512              		.align	2
 1513              		.global	_ZNK4xpcc10Dispatcher5Entry10headerFitsERKNS_6HeaderE
 1514              		.thumb
 1515              		.thumb_func
 1517              	_ZNK4xpcc10Dispatcher5Entry10headerFitsERKNS_6HeaderE:
 1518              	.LFB164:
 114:/home/jonas/warwick/3dProfilometer/xpcc/src/xpcc/communication/dispatcher.cpp **** {
 1519              		.loc 1 114 0
 1520              		.cfi_startproc
 1521              		@ args = 0, pretend = 0, frame = 0
 1522              		@ frame_needed = 0, uses_anonymous_args = 0
 1523              		@ link register save eliminated.
 1524              	.LVL154:
 117:/home/jonas/warwick/3dProfilometer/xpcc/src/xpcc/communication/dispatcher.cpp **** 			(inHeader.packetIdentifier == this->header.packetIdentifier));
 1525              		.loc 1 117 0
 1526 0000 837A     		ldrb	r3, [r0, #10]	@ zero_extendqisi2
 1527 0002 CA78     		ldrb	r2, [r1, #3]	@ zero_extendqisi2
 1528 0004 9A42     		cmp	r2, r3
 1529 0006 01D0     		beq	.L126
 1530              	.L125:
 1531 0008 0020     		movs	r0, #0
 1532              	.LVL155:
 118:/home/jonas/warwick/3dProfilometer/xpcc/src/xpcc/communication/dispatcher.cpp **** }
 1533              		.loc 1 118 0
 1534 000a 7047     		bx	lr
 1535              	.LVL156:
 1536              	.L126:
 117:/home/jonas/warwick/3dProfilometer/xpcc/src/xpcc/communication/dispatcher.cpp **** 			(inHeader.packetIdentifier == this->header.packetIdentifier));
 1537              		.loc 1 117 0 discriminator 1
 1538 000c 8A78     		ldrb	r2, [r1, #2]	@ zero_extendqisi2
 1539 000e C37A     		ldrb	r3, [r0, #11]	@ zero_extendqisi2
 1540 0010 9A42     		cmp	r2, r3
 1541 0012 F9D1     		bne	.L125
 117:/home/jonas/warwick/3dProfilometer/xpcc/src/xpcc/communication/dispatcher.cpp **** 			(inHeader.packetIdentifier == this->header.packetIdentifier));
 1542              		.loc 1 117 0 is_stmt 0 discriminator 3
 1543 0014 037B     		ldrb	r3, [r0, #12]	@ zero_extendqisi2
 1544 0016 0A79     		ldrb	r2, [r1, #4]	@ zero_extendqisi2
 1545 0018 B2EB030C 		subs	ip, r2, r3
 1546 001c DCF10000 		rsbs	r0, ip, #0
 1547              	.LVL157:
 1548 0020 50EB0C00 		adcs	r0, r0, ip
 1549 0024 7047     		bx	lr
 1550              		.cfi_endproc
 1551              	.LFE164:
 1553 0026 00BF     		.section	.text._ZN4xpcc10Dispatcher6appendEPNS0_5EntryE,"ax",%progbits
 1554              		.align	2
 1555              		.global	_ZN4xpcc10Dispatcher6appendEPNS0_5EntryE
 1556              		.thumb
 1557              		.thumb_func
 1559              	_ZN4xpcc10Dispatcher6appendEPNS0_5EntryE:
 1560              	.LFB165:
 123:/home/jonas/warwick/3dProfilometer/xpcc/src/xpcc/communication/dispatcher.cpp **** {
 1561              		.loc 1 123 0 is_stmt 1
 1562              		.cfi_startproc
 1563              		@ args = 0, pretend = 0, frame = 0
 1564              		@ frame_needed = 0, uses_anonymous_args = 0
 1565              		@ link register save eliminated.
 1566              	.LVL158:
 124:/home/jonas/warwick/3dProfilometer/xpcc/src/xpcc/communication/dispatcher.cpp **** 	this->last->next = next;
 1567              		.loc 1 124 0
 1568 0000 036B     		ldr	r3, [r0, #48]
 1569 0002 5960     		str	r1, [r3, #4]
 127:/home/jonas/warwick/3dProfilometer/xpcc/src/xpcc/communication/dispatcher.cpp **** 	while (next->next != 0) {
 1570              		.loc 1 127 0
 1571 0004 00E0     		b	.L128
 1572              	.L129:
 128:/home/jonas/warwick/3dProfilometer/xpcc/src/xpcc/communication/dispatcher.cpp **** 		next = next->next;
 1573              		.loc 1 128 0
 1574 0006 1946     		mov	r1, r3
 1575              	.LVL159:
 1576              	.L128:
 127:/home/jonas/warwick/3dProfilometer/xpcc/src/xpcc/communication/dispatcher.cpp **** 	while (next->next != 0) {
 1577              		.loc 1 127 0 discriminator 1
 1578 0008 4B68     		ldr	r3, [r1, #4]
 1579 000a 002B     		cmp	r3, #0
 1580 000c FBD1     		bne	.L129
 131:/home/jonas/warwick/3dProfilometer/xpcc/src/xpcc/communication/dispatcher.cpp **** 	this->last = next;
 1581              		.loc 1 131 0
 1582 000e 0163     		str	r1, [r0, #48]
 1583 0010 7047     		bx	lr
 1584              		.cfi_endproc
 1585              	.LFE165:
 1587 0012 00BF     		.section	.text._ZN4xpcc10Dispatcher23removeNextEntryFromListEPNS0_5EntryE,"ax",%progbits
 1588              		.align	2
 1589              		.global	_ZN4xpcc10Dispatcher23removeNextEntryFromListEPNS0_5EntryE
 1590              		.thumb
 1591              		.thumb_func
 1593              	_ZN4xpcc10Dispatcher23removeNextEntryFromListEPNS0_5EntryE:
 1594              	.LFB167:
 154:/home/jonas/warwick/3dProfilometer/xpcc/src/xpcc/communication/dispatcher.cpp **** {
 1595              		.loc 1 154 0
 1596              		.cfi_startproc
 1597              		@ args = 0, pretend = 0, frame = 0
 1598              		@ frame_needed = 0, uses_anonymous_args = 0
 1599              		@ link register save eliminated.
 1600              	.LVL160:
 1601              	.LBB454:
 155:/home/jonas/warwick/3dProfilometer/xpcc/src/xpcc/communication/dispatcher.cpp **** 	Entry *next = entry->next;
 1602              		.loc 1 155 0
 1603 0000 4B68     		ldr	r3, [r1, #4]
 1604              	.LVL161:
 1605              	.LBE454:
 154:/home/jonas/warwick/3dProfilometer/xpcc/src/xpcc/communication/dispatcher.cpp **** {
 1606              		.loc 1 154 0
 1607 0002 10B4     		push	{r4}
 1608              	.LCFI5:
 1609              		.cfi_def_cfa_offset 4
 1610              		.cfi_offset 4, -4
 1611              	.LBB455:
 156:/home/jonas/warwick/3dProfilometer/xpcc/src/xpcc/communication/dispatcher.cpp **** 	if (next)
 1612              		.loc 1 156 0
 1613 0004 43B1     		cbz	r3, .L131
 160:/home/jonas/warwick/3dProfilometer/xpcc/src/xpcc/communication/dispatcher.cpp **** 		if (next == last) {
 1614              		.loc 1 160 0
 1615 0006 026B     		ldr	r2, [r0, #48]
 158:/home/jonas/warwick/3dProfilometer/xpcc/src/xpcc/communication/dispatcher.cpp **** 		entry->next = next->next;
 1616              		.loc 1 158 0
 1617 0008 5C68     		ldr	r4, [r3, #4]
 160:/home/jonas/warwick/3dProfilometer/xpcc/src/xpcc/communication/dispatcher.cpp **** 		if (next == last) {
 1618              		.loc 1 160 0
 1619 000a 9A42     		cmp	r2, r3
 158:/home/jonas/warwick/3dProfilometer/xpcc/src/xpcc/communication/dispatcher.cpp **** 		entry->next = next->next;
 1620              		.loc 1 158 0
 1621 000c 4C60     		str	r4, [r1, #4]
 161:/home/jonas/warwick/3dProfilometer/xpcc/src/xpcc/communication/dispatcher.cpp **** 			last = entry;
 1622              		.loc 1 161 0
 1623 000e 08BF     		it	eq
 1624 0010 0163     		streq	r1, [r0, #48]
 160:/home/jonas/warwick/3dProfilometer/xpcc/src/xpcc/communication/dispatcher.cpp **** 		if (next == last) {
 1625              		.loc 1 160 0
 1626 0012 01D0     		beq	.L131
 165:/home/jonas/warwick/3dProfilometer/xpcc/src/xpcc/communication/dispatcher.cpp **** 			next->next = 0;
 1627              		.loc 1 165 0
 1628 0014 0022     		movs	r2, #0
 1629 0016 5A60     		str	r2, [r3, #4]
 1630              	.L131:
 1631              	.LBE455:
 170:/home/jonas/warwick/3dProfilometer/xpcc/src/xpcc/communication/dispatcher.cpp **** }
 1632              		.loc 1 170 0
 1633 0018 1846     		mov	r0, r3
 1634              	.LVL162:
 1635 001a 10BC     		pop	{r4}
 1636 001c 7047     		bx	lr
 1637              		.cfi_endproc
 1638              	.LFE167:
 1640 001e 00BF     		.section	.text._ZN4xpcc10Dispatcher12handlePacketERKNS_6HeaderERKNS_12SmartPointerE,"ax",%progbits
 1641              		.align	2
 1642              		.global	_ZN4xpcc10Dispatcher12handlePacketERKNS_6HeaderERKNS_12SmartPointerE
 1643              		.thumb
 1644              		.thumb_func
 1646              	_ZN4xpcc10Dispatcher12handlePacketERKNS_6HeaderERKNS_12SmartPointerE:
 1647              	.LFB168:
 175:/home/jonas/warwick/3dProfilometer/xpcc/src/xpcc/communication/dispatcher.cpp **** {
 1648              		.loc 1 175 0
 1649              		.cfi_startproc
 1650              		@ args = 0, pretend = 0, frame = 0
 1651              		@ frame_needed = 0, uses_anonymous_args = 0
 1652              	.LVL163:
 1653 0000 2DE9F041 		push	{r4, r5, r6, r7, r8, lr}
 1654              	.LCFI6:
 1655              		.cfi_def_cfa_offset 24
 1656              		.cfi_offset 4, -24
 1657              		.cfi_offset 5, -20
 1658              		.cfi_offset 6, -16
 1659              		.cfi_offset 7, -12
 1660              		.cfi_offset 8, -8
 1661              		.cfi_offset 14, -4
 175:/home/jonas/warwick/3dProfilometer/xpcc/src/xpcc/communication/dispatcher.cpp **** {
 1662              		.loc 1 175 0
 1663 0004 8046     		mov	r8, r0
 1664              	.LBB482:
 176:/home/jonas/warwick/3dProfilometer/xpcc/src/xpcc/communication/dispatcher.cpp **** 	Entry *prev = first;// first is always a dummy entry
 1665              		.loc 1 176 0
 1666 0006 C56A     		ldr	r5, [r0, #44]
 1667              	.LVL164:
 1668 0008 04E0     		b	.L166
 1669              	.LVL165:
 1670              	.L169:
 1671              	.LBB483:
 1672              	.LBB484:
 1673              	.LBB485:
 1674              	.LBB486:
 117:/home/jonas/warwick/3dProfilometer/xpcc/src/xpcc/communication/dispatcher.cpp **** 			(inHeader.packetIdentifier == this->header.packetIdentifier));
 1675              		.loc 1 117 0
 1676 000a CF78     		ldrb	r7, [r1, #3]	@ zero_extendqisi2
 1677 000c A67A     		ldrb	r6, [r4, #10]	@ zero_extendqisi2
 1678 000e B742     		cmp	r7, r6
 1679 0010 23D0     		beq	.L168
 1680              	.LVL166:
 1681              	.L155:
 1682              	.LBE486:
 1683              	.LBE485:
 1684              	.LBB488:
 1685              	.LBB489:
 1686              	.LBB490:
 1687              	.LBB491:
 1688 0012 2546     		mov	r5, r4
 1689              	.LVL167:
 1690              	.L166:
 1691              	.LBE491:
 1692              	.LBE490:
 1693              	.LBE489:
 1694              	.LBE488:
 1695              	.LBE484:
 177:/home/jonas/warwick/3dProfilometer/xpcc/src/xpcc/communication/dispatcher.cpp **** 	while (Entry *entry = prev->next)
 1696              		.loc 1 177 0 discriminator 1
 1697 0014 6C68     		ldr	r4, [r5, #4]
 1698              	.LVL168:
 1699 0016 002C     		cmp	r4, #0
 1700 0018 35D0     		beq	.L136
 1701              	.LBB515:
 179:/home/jonas/warwick/3dProfilometer/xpcc/src/xpcc/communication/dispatcher.cpp **** 		if (entry->type == Entry::DEFAULT)
 1702              		.loc 1 179 0
 1703 001a 2378     		ldrb	r3, [r4, #0]	@ zero_extendqisi2
 1704 001c 002B     		cmp	r3, #0
 1705 001e F4D0     		beq	.L169
 1706              	.LBB510:
 191:/home/jonas/warwick/3dProfilometer/xpcc/src/xpcc/communication/dispatcher.cpp **** 		else if (entry->type == Entry::CALLBACK)
 1707              		.loc 1 191 0
 1708 0020 012B     		cmp	r3, #1
 1709 0022 F6D1     		bne	.L155
 1710              	.LVL169:
 1711              	.LBB508:
 1712              	.LBB493:
 1713              	.LBB492:
 117:/home/jonas/warwick/3dProfilometer/xpcc/src/xpcc/communication/dispatcher.cpp **** 			(inHeader.packetIdentifier == this->header.packetIdentifier));
 1714              		.loc 1 117 0
 1715 0024 CE78     		ldrb	r6, [r1, #3]	@ zero_extendqisi2
 1716 0026 A37A     		ldrb	r3, [r4, #10]	@ zero_extendqisi2
 1717 0028 9E42     		cmp	r6, r3
 1718 002a F2D1     		bne	.L155
 1719 002c 8878     		ldrb	r0, [r1, #2]	@ zero_extendqisi2
 1720 002e E37A     		ldrb	r3, [r4, #11]	@ zero_extendqisi2
 1721 0030 9842     		cmp	r0, r3
 1722 0032 EED1     		bne	.L155
 1723 0034 0879     		ldrb	r0, [r1, #4]	@ zero_extendqisi2
 1724 0036 237B     		ldrb	r3, [r4, #12]	@ zero_extendqisi2
 1725 0038 9842     		cmp	r0, r3
 1726 003a EAD1     		bne	.L155
 1727              	.LBE492:
 1728              	.LBE493:
 200:/home/jonas/warwick/3dProfilometer/xpcc/src/xpcc/communication/dispatcher.cpp **** 				if (header.type == Header::REQUEST)
 1729              		.loc 1 200 0
 1730 003c 0B78     		ldrb	r3, [r1, #0]	@ zero_extendqisi2
 1731 003e 23B3     		cbz	r3, .L170
 213:/home/jonas/warwick/3dProfilometer/xpcc/src/xpcc/communication/dispatcher.cpp **** 					if (!header.isAcknowledge) {
 1732              		.loc 1 213 0
 1733 0040 4B78     		ldrb	r3, [r1, #1]	@ zero_extendqisi2
 1734 0042 002B     		cmp	r3, #0
 1735 0044 2BD0     		beq	.L171
 155:/home/jonas/warwick/3dProfilometer/xpcc/src/xpcc/communication/dispatcher.cpp **** 	Entry *next = entry->next;
 1736              		.loc 1 155 0
 1737 0046 2346     		mov	r3, r4
 1738              	.LVL170:
 1739              	.L144:
 1740              	.LBB494:
 1741              	.LBB495:
 160:/home/jonas/warwick/3dProfilometer/xpcc/src/xpcc/communication/dispatcher.cpp **** 		if (next == last) {
 1742              		.loc 1 160 0
 1743 0048 D8F83020 		ldr	r2, [r8, #48]
 158:/home/jonas/warwick/3dProfilometer/xpcc/src/xpcc/communication/dispatcher.cpp **** 		entry->next = next->next;
 1744              		.loc 1 158 0
 1745 004c 5968     		ldr	r1, [r3, #4]
 160:/home/jonas/warwick/3dProfilometer/xpcc/src/xpcc/communication/dispatcher.cpp **** 		if (next == last) {
 1746              		.loc 1 160 0
 1747 004e 9342     		cmp	r3, r2
 158:/home/jonas/warwick/3dProfilometer/xpcc/src/xpcc/communication/dispatcher.cpp **** 		entry->next = next->next;
 1748              		.loc 1 158 0
 1749 0050 6960     		str	r1, [r5, #4]
 160:/home/jonas/warwick/3dProfilometer/xpcc/src/xpcc/communication/dispatcher.cpp **** 		if (next == last) {
 1750              		.loc 1 160 0
 1751 0052 21D0     		beq	.L167
 165:/home/jonas/warwick/3dProfilometer/xpcc/src/xpcc/communication/dispatcher.cpp **** 			next->next = 0;
 1752              		.loc 1 165 0
 1753 0054 0022     		movs	r2, #0
 1754 0056 5A60     		str	r2, [r3, #4]
 1755 0058 0EE0     		b	.L147
 1756              	.LVL171:
 1757              	.L168:
 1758              	.LBE495:
 1759              	.LBE494:
 1760              	.LBE508:
 1761              	.LBE510:
 1762              	.LBB511:
 1763              	.LBB487:
 117:/home/jonas/warwick/3dProfilometer/xpcc/src/xpcc/communication/dispatcher.cpp **** 			(inHeader.packetIdentifier == this->header.packetIdentifier));
 1764              		.loc 1 117 0
 1765 005a 8878     		ldrb	r0, [r1, #2]	@ zero_extendqisi2
 1766 005c E67A     		ldrb	r6, [r4, #11]	@ zero_extendqisi2
 1767 005e B042     		cmp	r0, r6
 1768 0060 D7D1     		bne	.L155
 1769 0062 0E79     		ldrb	r6, [r1, #4]	@ zero_extendqisi2
 1770 0064 207B     		ldrb	r0, [r4, #12]	@ zero_extendqisi2
 1771 0066 8642     		cmp	r6, r0
 1772 0068 D3D1     		bne	.L155
 1773              	.LVL172:
 1774              	.LBE487:
 1775              	.LBE511:
 1776              	.LBB512:
 1777              	.LBB513:
 160:/home/jonas/warwick/3dProfilometer/xpcc/src/xpcc/communication/dispatcher.cpp **** 		if (next == last) {
 1778              		.loc 1 160 0
 1779 006a D8F83020 		ldr	r2, [r8, #48]
 1780              	.LVL173:
 158:/home/jonas/warwick/3dProfilometer/xpcc/src/xpcc/communication/dispatcher.cpp **** 		entry->next = next->next;
 1781              		.loc 1 158 0
 1782 006e 6168     		ldr	r1, [r4, #4]
 1783              	.LVL174:
 160:/home/jonas/warwick/3dProfilometer/xpcc/src/xpcc/communication/dispatcher.cpp **** 		if (next == last) {
 1784              		.loc 1 160 0
 1785 0070 9442     		cmp	r4, r2
 158:/home/jonas/warwick/3dProfilometer/xpcc/src/xpcc/communication/dispatcher.cpp **** 		entry->next = next->next;
 1786              		.loc 1 158 0
 1787 0072 6960     		str	r1, [r5, #4]
 160:/home/jonas/warwick/3dProfilometer/xpcc/src/xpcc/communication/dispatcher.cpp **** 		if (next == last) {
 1788              		.loc 1 160 0
 1789 0074 10D0     		beq	.L167
 165:/home/jonas/warwick/3dProfilometer/xpcc/src/xpcc/communication/dispatcher.cpp **** 			next->next = 0;
 1790              		.loc 1 165 0
 1791 0076 6360     		str	r3, [r4, #4]
 1792              	.LVL175:
 1793              	.L147:
 1794              	.LBE513:
 1795              	.LBE512:
 1796              	.LBB514:
 1797              	.LBB509:
 1798              	.LBB498:
 1799              	.LBB499:
 1800              	.LBB500:
  76:/home/jonas/warwick/3dProfilometer/xpcc/src/xpcc/communication/dispatcher.hpp **** 		class Entry
 1801              		.loc 2 76 0
 1802 0078 134B     		ldr	r3, .L173
 1803 007a 04F11000 		add	r0, r4, #16
 1804 007e 9847     		blx	r3
 1805              	.LVL176:
 1806              	.LBE500:
 1807              	.LBE499:
 1808              	.LBE498:
 220:/home/jonas/warwick/3dProfilometer/xpcc/src/xpcc/communication/dispatcher.cpp **** 					delete callbackEntry;
 1809              		.loc 1 220 0
 1810 0080 2046     		mov	r0, r4
 1811 0082 124B     		ldr	r3, .L173+4
 1812 0084 9847     		blx	r3
 1813              	.LVL177:
 1814              	.L136:
 1815 0086 BDE8F081 		pop	{r4, r5, r6, r7, r8, pc}
 1816              	.LVL178:
 1817              	.L170:
 204:/home/jonas/warwick/3dProfilometer/xpcc/src/xpcc/communication/dispatcher.cpp **** 					if (header.isAcknowledge)
 1818              		.loc 1 204 0
 1819 008a 4B78     		ldrb	r3, [r1, #1]	@ zero_extendqisi2
 1820 008c 002B     		cmp	r3, #0
 1821 008e FAD0     		beq	.L136
 207:/home/jonas/warwick/3dProfilometer/xpcc/src/xpcc/communication/dispatcher.cpp **** 						callbackEntry->state = Entry::WAIT_FOR_RESPONSE;
 1822              		.loc 1 207 0
 1823 0090 0223     		movs	r3, #2
 1824 0092 2375     		strb	r3, [r4, #20]
 1825 0094 BDE8F081 		pop	{r4, r5, r6, r7, r8, pc}
 1826              	.LVL179:
 1827              	.L167:
 1828              	.LBB501:
 1829              	.LBB496:
 161:/home/jonas/warwick/3dProfilometer/xpcc/src/xpcc/communication/dispatcher.cpp **** 			last = entry;
 1830              		.loc 1 161 0
 1831 0098 C8F83050 		str	r5, [r8, #48]
 1832 009c ECE7     		b	.L147
 1833              	.LVL180:
 1834              	.L171:
 1835              	.LBE496:
 1836              	.LBE501:
 1837              	.LBB502:
 1838              	.LBB503:
 1839              		.loc 6 90 0
 1840 009e E36A     		ldr	r3, [r4, #44]
 1841 00a0 D807     		lsls	r0, r3, #31
 1842 00a2 0CD5     		bpl	.L172
 1843 00a4 5B10     		asrs	r3, r3, #1
 1844 00a6 606A     		ldr	r0, [r4, #36]
 1845 00a8 A66A     		ldr	r6, [r4, #40]
 1846 00aa C758     		ldr	r7, [r0, r3]
 1847 00ac BE59     		ldr	r6, [r7, r6]
 1848 00ae C018     		adds	r0, r0, r3
 1849              	.L146:
 1850              	.LVL181:
 1851              	.LBE503:
 1852 00b0 1268     		ldr	r2, [r2, #0]
 1853              	.LVL182:
 1854              	.LBB504:
 1855 00b2 0232     		adds	r2, r2, #2
 1856 00b4 B047     		blx	r6
 1857              	.LVL183:
 1858              	.LBE504:
 1859              	.LBE502:
 1860              	.LBB506:
 1861              	.LBB497:
 155:/home/jonas/warwick/3dProfilometer/xpcc/src/xpcc/communication/dispatcher.cpp **** 	Entry *next = entry->next;
 1862              		.loc 1 155 0
 1863 00b6 6B68     		ldr	r3, [r5, #4]
 1864              	.LVL184:
 156:/home/jonas/warwick/3dProfilometer/xpcc/src/xpcc/communication/dispatcher.cpp **** 	if (next)
 1865              		.loc 1 156 0
 1866 00b8 002B     		cmp	r3, #0
 1867 00ba DDD0     		beq	.L147
 1868 00bc C4E7     		b	.L144
 1869              	.LVL185:
 1870              	.L172:
 1871 00be 606A     		ldr	r0, [r4, #36]
 1872              	.LBE497:
 1873              	.LBE506:
 1874              	.LBB507:
 1875              	.LBB505:
 1876              		.loc 6 90 0
 1877 00c0 A66A     		ldr	r6, [r4, #40]
 1878 00c2 00EB6300 		add	r0, r0, r3, asr #1
 1879 00c6 F3E7     		b	.L146
 1880              	.L174:
 1881              		.align	2
 1882              	.L173:
 1883 00c8 00000000 		.word	_ZN4xpcc12SmartPointerD1Ev
 1884 00cc 00000000 		.word	_ZdlPv
 1885              	.LBE505:
 1886              	.LBE507:
 1887              	.LBE509:
 1888              	.LBE514:
 1889              	.LBE515:
 1890              	.LBE483:
 1891              	.LBE482:
 1892              		.cfi_endproc
 1893              	.LFE168:
 1895              		.section	.text._ZN4xpcc10Dispatcher11deleteEntryEPNS0_5EntryES2_,"ax",%progbits
 1896              		.align	2
 1897              		.global	_ZN4xpcc10Dispatcher11deleteEntryEPNS0_5EntryES2_
 1898              		.thumb
 1899              		.thumb_func
 1901              	_ZN4xpcc10Dispatcher11deleteEntryEPNS0_5EntryES2_:
 1902              	.LFB172:
 232:/home/jonas/warwick/3dProfilometer/xpcc/src/xpcc/communication/dispatcher.cpp **** {
 1903              		.loc 1 232 0
 1904              		.cfi_startproc
 1905              		@ args = 0, pretend = 0, frame = 0
 1906              		@ frame_needed = 0, uses_anonymous_args = 0
 1907              	.LVL186:
 1908 0000 38B5     		push	{r3, r4, r5, lr}
 1909              	.LCFI7:
 1910              		.cfi_def_cfa_offset 16
 1911              		.cfi_offset 3, -16
 1912              		.cfi_offset 4, -12
 1913              		.cfi_offset 5, -8
 1914              		.cfi_offset 14, -4
 232:/home/jonas/warwick/3dProfilometer/xpcc/src/xpcc/communication/dispatcher.cpp **** {
 1915              		.loc 1 232 0
 1916 0002 0D46     		mov	r5, r1
 1917 0004 1446     		mov	r4, r2
 233:/home/jonas/warwick/3dProfilometer/xpcc/src/xpcc/communication/dispatcher.cpp **** 	while (prev->next != entry) {
 1918              		.loc 1 233 0
 1919 0006 00E0     		b	.L176
 1920              	.LVL187:
 1921              	.L180:
 1922 0008 1C46     		mov	r4, r3
 1923              	.LVL188:
 1924              	.L176:
 233:/home/jonas/warwick/3dProfilometer/xpcc/src/xpcc/communication/dispatcher.cpp **** 	while (prev->next != entry) {
 1925              		.loc 1 233 0 is_stmt 0 discriminator 1
 1926 000a 6368     		ldr	r3, [r4, #4]
 1927 000c AB42     		cmp	r3, r5
 1928 000e FBD1     		bne	.L180
 1929              	.LVL189:
 1930              	.LBB523:
 1931              	.LBB524:
 156:/home/jonas/warwick/3dProfilometer/xpcc/src/xpcc/communication/dispatcher.cpp **** 	if (next)
 1932              		.loc 1 156 0 is_stmt 1
 1933 0010 75B1     		cbz	r5, .L179
 160:/home/jonas/warwick/3dProfilometer/xpcc/src/xpcc/communication/dispatcher.cpp **** 		if (next == last) {
 1934              		.loc 1 160 0
 1935 0012 036B     		ldr	r3, [r0, #48]
 158:/home/jonas/warwick/3dProfilometer/xpcc/src/xpcc/communication/dispatcher.cpp **** 		entry->next = next->next;
 1936              		.loc 1 158 0
 1937 0014 6A68     		ldr	r2, [r5, #4]
 160:/home/jonas/warwick/3dProfilometer/xpcc/src/xpcc/communication/dispatcher.cpp **** 		if (next == last) {
 1938              		.loc 1 160 0
 1939 0016 9D42     		cmp	r5, r3
 158:/home/jonas/warwick/3dProfilometer/xpcc/src/xpcc/communication/dispatcher.cpp **** 		entry->next = next->next;
 1940              		.loc 1 158 0
 1941 0018 6260     		str	r2, [r4, #4]
 160:/home/jonas/warwick/3dProfilometer/xpcc/src/xpcc/communication/dispatcher.cpp **** 		if (next == last) {
 1942              		.loc 1 160 0
 1943 001a 0BD0     		beq	.L186
 165:/home/jonas/warwick/3dProfilometer/xpcc/src/xpcc/communication/dispatcher.cpp **** 			next->next = 0;
 1944              		.loc 1 165 0
 1945 001c 0023     		movs	r3, #0
 1946 001e 6B60     		str	r3, [r5, #4]
 1947              	.L177:
 1948              	.LBE524:
 1949              	.LBE523:
 238:/home/jonas/warwick/3dProfilometer/xpcc/src/xpcc/communication/dispatcher.cpp **** 	delete entry;
 1950              		.loc 1 238 0
 1951 0020 35B1     		cbz	r5, .L179
 1952              	.LVL190:
 1953              	.LBB526:
 1954              	.LBB527:
  76:/home/jonas/warwick/3dProfilometer/xpcc/src/xpcc/communication/dispatcher.hpp **** 		class Entry
 1955              		.loc 2 76 0
 1956 0022 054B     		ldr	r3, .L187
 1957 0024 05F11000 		add	r0, r5, #16
 1958              	.LVL191:
 1959 0028 9847     		blx	r3
 1960              	.LVL192:
 1961              	.LBE527:
 1962              	.LBE526:
 238:/home/jonas/warwick/3dProfilometer/xpcc/src/xpcc/communication/dispatcher.cpp **** 	delete entry;
 1963              		.loc 1 238 0
 1964 002a 2846     		mov	r0, r5
 1965 002c 034B     		ldr	r3, .L187+4
 1966 002e 9847     		blx	r3
 1967              	.LVL193:
 1968              	.L179:
 241:/home/jonas/warwick/3dProfilometer/xpcc/src/xpcc/communication/dispatcher.cpp **** }
 1969              		.loc 1 241 0
 1970 0030 2046     		mov	r0, r4
 1971 0032 38BD     		pop	{r3, r4, r5, pc}
 1972              	.LVL194:
 1973              	.L186:
 1974              	.LBB528:
 1975              	.LBB525:
 161:/home/jonas/warwick/3dProfilometer/xpcc/src/xpcc/communication/dispatcher.cpp **** 			last = entry;
 1976              		.loc 1 161 0
 1977 0034 0463     		str	r4, [r0, #48]
 1978 0036 F3E7     		b	.L177
 1979              	.L188:
 1980              		.align	2
 1981              	.L187:
 1982 0038 00000000 		.word	_ZN4xpcc12SmartPointerD1Ev
 1983 003c 00000000 		.word	_ZdlPv
 1984              	.LBE525:
 1985              	.LBE528:
 1986              		.cfi_endproc
 1987              	.LFE172:
 1989              		.section	.text._ZN4xpcc10Dispatcher21handleWaitingMessagesEv,"ax",%progbits
 1990              		.align	2
 1991              		.global	_ZN4xpcc10Dispatcher21handleWaitingMessagesEv
 1992              		.thumb
 1993              		.thumb_func
 1995              	_ZN4xpcc10Dispatcher21handleWaitingMessagesEv:
 1996              	.LFB174:
 310:/home/jonas/warwick/3dProfilometer/xpcc/src/xpcc/communication/dispatcher.cpp **** {
 1997              		.loc 1 310 0
 1998              		.cfi_startproc
 1999              		@ args = 0, pretend = 0, frame = 16
 2000              		@ frame_needed = 0, uses_anonymous_args = 0
 2001              	.LVL195:
 2002 0000 2DE9F04F 		push	{r4, r5, r6, r7, r8, r9, sl, fp, lr}
 2003              	.LCFI8:
 2004              		.cfi_def_cfa_offset 36
 2005              		.cfi_offset 4, -36
 2006              		.cfi_offset 5, -32
 2007              		.cfi_offset 6, -28
 2008              		.cfi_offset 7, -24
 2009              		.cfi_offset 8, -20
 2010              		.cfi_offset 9, -16
 2011              		.cfi_offset 10, -12
 2012              		.cfi_offset 11, -8
 2013              		.cfi_offset 14, -4
 2014              	.LBB600:
 312:/home/jonas/warwick/3dProfilometer/xpcc/src/xpcc/communication/dispatcher.cpp **** 	Entry *prev = first;
 2015              		.loc 1 312 0
 2016 0004 C56A     		ldr	r5, [r0, #44]
 2017              	.LVL196:
 2018              	.LBE600:
 310:/home/jonas/warwick/3dProfilometer/xpcc/src/xpcc/communication/dispatcher.cpp **** {
 2019              		.loc 1 310 0
 2020 0006 85B0     		sub	sp, sp, #20
 2021              	.LCFI9:
 2022              		.cfi_def_cfa_offset 56
 310:/home/jonas/warwick/3dProfilometer/xpcc/src/xpcc/communication/dispatcher.cpp **** {
 2023              		.loc 1 310 0
 2024 0008 8046     		mov	r8, r0
 2025              	.LVL197:
 2026              	.L233:
 2027              	.LBB702:
 2028              	.LBB601:
 313:/home/jonas/warwick/3dProfilometer/xpcc/src/xpcc/communication/dispatcher.cpp **** 	while (Entry *entry = prev->next)
 2029              		.loc 1 313 0 discriminator 1
 2030 000a 6C68     		ldr	r4, [r5, #4]
 2031              	.LVL198:
 2032 000c 002C     		cmp	r4, #0
 2033 000e 38D0     		beq	.L189
 2034              	.L237:
 315:/home/jonas/warwick/3dProfilometer/xpcc/src/xpcc/communication/dispatcher.cpp **** 		if (entry->state == Entry::TRANSMISSION_PENDING)
 2035              		.loc 1 315 0
 2036 0010 277D     		ldrb	r7, [r4, #20]	@ zero_extendqisi2
 2037 0012 002F     		cmp	r7, #0
 2038 0014 38D1     		bne	.L192
 317:/home/jonas/warwick/3dProfilometer/xpcc/src/xpcc/communication/dispatcher.cpp **** 			if (entry->header.destination == 0)
 2039              		.loc 1 317 0
 2040 0016 A17A     		ldrb	r1, [r4, #10]	@ zero_extendqisi2
 320:/home/jonas/warwick/3dProfilometer/xpcc/src/xpcc/communication/dispatcher.cpp **** 				postman->deliverPacket(entry->header, entry->payload);
 2041              		.loc 1 320 0
 2042 0018 D8F80400 		ldr	r0, [r8, #4]
 317:/home/jonas/warwick/3dProfilometer/xpcc/src/xpcc/communication/dispatcher.cpp **** 			if (entry->header.destination == 0)
 2043              		.loc 1 317 0
 2044 001c 0029     		cmp	r1, #0
 2045 001e 37D1     		bne	.L193
 320:/home/jonas/warwick/3dProfilometer/xpcc/src/xpcc/communication/dispatcher.cpp **** 				postman->deliverPacket(entry->header, entry->payload);
 2046              		.loc 1 320 0
 2047 0020 0368     		ldr	r3, [r0, #0]
 321:/home/jonas/warwick/3dProfilometer/xpcc/src/xpcc/communication/dispatcher.cpp **** 				backend->sendPacket(entry->header, entry->payload);
 2048              		.loc 1 321 0
 2049 0022 DFF86892 		ldr	r9, .L249+8
 320:/home/jonas/warwick/3dProfilometer/xpcc/src/xpcc/communication/dispatcher.cpp **** 				postman->deliverPacket(entry->header, entry->payload);
 2050              		.loc 1 320 0
 2051 0026 1B68     		ldr	r3, [r3, #0]
 2052 0028 04F10807 		add	r7, r4, #8
 2053 002c 04F11006 		add	r6, r4, #16
 2054 0030 3246     		mov	r2, r6
 2055 0032 3946     		mov	r1, r7
 2056 0034 9847     		blx	r3
 2057              	.LVL199:
 321:/home/jonas/warwick/3dProfilometer/xpcc/src/xpcc/communication/dispatcher.cpp **** 				backend->sendPacket(entry->header, entry->payload);
 2058              		.loc 1 321 0
 2059 0036 D8F800A0 		ldr	sl, [r8, #0]
 2060 003a DAF80030 		ldr	r3, [sl, #0]
 2061 003e 3146     		mov	r1, r6
 2062 0040 D3F80CB0 		ldr	fp, [r3, #12]
 2063 0044 8F4B     		ldr	r3, .L249
 2064 0046 03A8     		add	r0, sp, #12
 2065 0048 9847     		blx	r3
 2066              	.LVL200:
 2067 004a 5046     		mov	r0, sl
 2068 004c 3946     		mov	r1, r7
 2069 004e 03AA     		add	r2, sp, #12
 2070 0050 D847     		blx	fp
 2071              	.LVL201:
 2072 0052 03A8     		add	r0, sp, #12
 2073 0054 C847     		blx	r9
 2074              	.LVL202:
 2075 0056 00E0     		b	.L194
 2076              	.LVL203:
 2077              	.L220:
 2078              	.LBB602:
 2079              	.LBB603:
 233:/home/jonas/warwick/3dProfilometer/xpcc/src/xpcc/communication/dispatcher.cpp **** 	while (prev->next != entry) {
 2080              		.loc 1 233 0
 2081 0058 1D46     		mov	r5, r3
 2082              	.LVL204:
 2083              	.L194:
 2084 005a 6B68     		ldr	r3, [r5, #4]
 2085 005c 9C42     		cmp	r4, r3
 2086 005e FBD1     		bne	.L220
 2087              	.LVL205:
 2088              	.LBB604:
 2089              	.LBB605:
 160:/home/jonas/warwick/3dProfilometer/xpcc/src/xpcc/communication/dispatcher.cpp **** 		if (next == last) {
 2090              		.loc 1 160 0
 2091 0060 D8F83030 		ldr	r3, [r8, #48]
 158:/home/jonas/warwick/3dProfilometer/xpcc/src/xpcc/communication/dispatcher.cpp **** 		entry->next = next->next;
 2092              		.loc 1 158 0
 2093 0064 6268     		ldr	r2, [r4, #4]
 160:/home/jonas/warwick/3dProfilometer/xpcc/src/xpcc/communication/dispatcher.cpp **** 		if (next == last) {
 2094              		.loc 1 160 0
 2095 0066 9C42     		cmp	r4, r3
 158:/home/jonas/warwick/3dProfilometer/xpcc/src/xpcc/communication/dispatcher.cpp **** 		entry->next = next->next;
 2096              		.loc 1 158 0
 2097 0068 6A60     		str	r2, [r5, #4]
 160:/home/jonas/warwick/3dProfilometer/xpcc/src/xpcc/communication/dispatcher.cpp **** 		if (next == last) {
 2098              		.loc 1 160 0
 2099 006a 00F0DD80 		beq	.L236
 165:/home/jonas/warwick/3dProfilometer/xpcc/src/xpcc/communication/dispatcher.cpp **** 			next->next = 0;
 2100              		.loc 1 165 0
 2101 006e 0023     		movs	r3, #0
 2102 0070 6360     		str	r3, [r4, #4]
 2103              	.L196:
 2104              	.LVL206:
 2105              	.LBE605:
 2106              	.LBE604:
 2107              	.LBB607:
 2108              	.LBB608:
  76:/home/jonas/warwick/3dProfilometer/xpcc/src/xpcc/communication/dispatcher.hpp **** 		class Entry
 2109              		.loc 2 76 0
 2110 0072 3046     		mov	r0, r6
 2111 0074 C847     		blx	r9
 2112              	.LVL207:
 2113              	.LBE608:
 2114              	.LBE607:
 238:/home/jonas/warwick/3dProfilometer/xpcc/src/xpcc/communication/dispatcher.cpp **** 	delete entry;
 2115              		.loc 1 238 0
 2116 0076 844E     		ldr	r6, .L249+4
 2117 0078 2046     		mov	r0, r4
 2118 007a B047     		blx	r6
 2119              	.LVL208:
 2120              	.LBE603:
 2121              	.LBE602:
 313:/home/jonas/warwick/3dProfilometer/xpcc/src/xpcc/communication/dispatcher.cpp **** 	while (Entry *entry = prev->next)
 2122              		.loc 1 313 0
 2123 007c 6C68     		ldr	r4, [r5, #4]
 2124              	.LVL209:
 2125 007e 002C     		cmp	r4, #0
 2126 0080 C6D1     		bne	.L237
 2127              	.LVL210:
 2128              	.L189:
 2129              	.LBE601:
 2130              	.LBE702:
 361:/home/jonas/warwick/3dProfilometer/xpcc/src/xpcc/communication/dispatcher.cpp **** 					entry->time.restart(acknowledgeTimeout);
 362:/home/jonas/warwick/3dProfilometer/xpcc/src/xpcc/communication/dispatcher.cpp **** 				}
 363:/home/jonas/warwick/3dProfilometer/xpcc/src/xpcc/communication/dispatcher.cpp **** 			}
 364:/home/jonas/warwick/3dProfilometer/xpcc/src/xpcc/communication/dispatcher.cpp **** 			
 365:/home/jonas/warwick/3dProfilometer/xpcc/src/xpcc/communication/dispatcher.cpp **** 			prev = entry;
 366:/home/jonas/warwick/3dProfilometer/xpcc/src/xpcc/communication/dispatcher.cpp **** 		}
 367:/home/jonas/warwick/3dProfilometer/xpcc/src/xpcc/communication/dispatcher.cpp **** 		else 
 368:/home/jonas/warwick/3dProfilometer/xpcc/src/xpcc/communication/dispatcher.cpp **** 		{
 369:/home/jonas/warwick/3dProfilometer/xpcc/src/xpcc/communication/dispatcher.cpp **** 			// WAIT_FOR_RESPONSE
 370:/home/jonas/warwick/3dProfilometer/xpcc/src/xpcc/communication/dispatcher.cpp **** 			// Responses stay in the queue for ever if no response ever
 371:/home/jonas/warwick/3dProfilometer/xpcc/src/xpcc/communication/dispatcher.cpp **** 			// comes. This may have to be changed.
 372:/home/jonas/warwick/3dProfilometer/xpcc/src/xpcc/communication/dispatcher.cpp **** 			prev = entry;
 373:/home/jonas/warwick/3dProfilometer/xpcc/src/xpcc/communication/dispatcher.cpp **** 		}
 374:/home/jonas/warwick/3dProfilometer/xpcc/src/xpcc/communication/dispatcher.cpp **** 	}
 375:/home/jonas/warwick/3dProfilometer/xpcc/src/xpcc/communication/dispatcher.cpp **** }
 2131              		.loc 1 375 0
 2132 0082 05B0     		add	sp, sp, #20
 2133 0084 BDE8F08F 		pop	{r4, r5, r6, r7, r8, r9, sl, fp, pc}
 2134              	.L192:
 2135              	.LBB703:
 2136              	.LBB701:
 346:/home/jonas/warwick/3dProfilometer/xpcc/src/xpcc/communication/dispatcher.cpp **** 		else if (entry->state == Entry::WAIT_FOR_ACK)
 2137              		.loc 1 346 0
 2138 0088 012F     		cmp	r7, #1
 2139 008a 5AD0     		beq	.L238
 2140              	.L224:
 2141              	.LBB611:
 2142              	.LBB612:
  53:/home/jonas/warwick/3dProfilometer/xpcc/src/xpcc/workflow/timeout_impl.hpp **** 		if (T::now() >= endTime)
 2143              		.loc 3 53 0
 2144 008c 2546     		mov	r5, r4
 2145              	.LVL211:
 2146 008e BCE7     		b	.L233
 2147              	.LVL212:
 2148              	.L193:
 2149              	.LBE612:
 2150              	.LBE611:
 329:/home/jonas/warwick/3dProfilometer/xpcc/src/xpcc/communication/dispatcher.cpp **** 				if (postman->isComponentAvaliable(entry->header.destination))
 2151              		.loc 1 329 0
 2152 0090 0368     		ldr	r3, [r0, #0]
 2153 0092 5B68     		ldr	r3, [r3, #4]
 2154 0094 9847     		blx	r3
 2155              	.LVL213:
 2156 0096 0028     		cmp	r0, #0
 2157 0098 39D0     		beq	.L198
 2158              	.LVL214:
 2159              	.LBB617:
 2160              	.LBB618:
 249:/home/jonas/warwick/3dProfilometer/xpcc/src/xpcc/communication/dispatcher.cpp **** 	backend->sendPacket(entry->header, entry->payload);
 2161              		.loc 1 249 0
 2162 009a D8F80060 		ldr	r6, [r8, #0]
 2163 009e 794A     		ldr	r2, .L249
 2164 00a0 3368     		ldr	r3, [r6, #0]
 2165 00a2 DFF8E891 		ldr	r9, .L249+8
 2166 00a6 DB68     		ldr	r3, [r3, #12]
 2167 00a8 04F1100A 		add	sl, r4, #16
 2168 00ac 5146     		mov	r1, sl
 2169 00ae 0193     		str	r3, [sp, #4]
 2170 00b0 04F1080B 		add	fp, r4, #8
 2171 00b4 03A8     		add	r0, sp, #12
 2172 00b6 9047     		blx	r2
 2173              	.LVL215:
 2174 00b8 019B     		ldr	r3, [sp, #4]
 2175 00ba 3046     		mov	r0, r6
 2176 00bc 5946     		mov	r1, fp
 2177 00be 03AA     		add	r2, sp, #12
 2178 00c0 9847     		blx	r3
 2179              	.LVL216:
 2180 00c2 03A8     		add	r0, sp, #12
 2181 00c4 C847     		blx	r9
 2182              	.LVL217:
 2183              	.LBB619:
 251:/home/jonas/warwick/3dProfilometer/xpcc/src/xpcc/communication/dispatcher.cpp **** 	if (entry->header.type == Header::REQUEST)
 2184              		.loc 1 251 0
 2185 00c6 237A     		ldrb	r3, [r4, #8]	@ zero_extendqisi2
 2186 00c8 002B     		cmp	r3, #0
 2187 00ca 73D0     		beq	.L239
 2188              	.LVL218:
 2189              	.LBB620:
 2190              	.LBB621:
 2191              	.LBB622:
 155:/home/jonas/warwick/3dProfilometer/xpcc/src/xpcc/communication/dispatcher.cpp **** 	Entry *next = entry->next;
 2192              		.loc 1 155 0
 2193 00cc 6E68     		ldr	r6, [r5, #4]
 2194              	.LVL219:
 156:/home/jonas/warwick/3dProfilometer/xpcc/src/xpcc/communication/dispatcher.cpp **** 	if (next)
 2195              		.loc 1 156 0
 2196 00ce 56B1     		cbz	r6, .L204
 160:/home/jonas/warwick/3dProfilometer/xpcc/src/xpcc/communication/dispatcher.cpp **** 		if (next == last) {
 2197              		.loc 1 160 0
 2198 00d0 D8F83020 		ldr	r2, [r8, #48]
 158:/home/jonas/warwick/3dProfilometer/xpcc/src/xpcc/communication/dispatcher.cpp **** 		entry->next = next->next;
 2199              		.loc 1 158 0
 2200 00d4 7368     		ldr	r3, [r6, #4]
 160:/home/jonas/warwick/3dProfilometer/xpcc/src/xpcc/communication/dispatcher.cpp **** 		if (next == last) {
 2201              		.loc 1 160 0
 2202 00d6 9642     		cmp	r6, r2
 158:/home/jonas/warwick/3dProfilometer/xpcc/src/xpcc/communication/dispatcher.cpp **** 		entry->next = next->next;
 2203              		.loc 1 158 0
 2204 00d8 6B60     		str	r3, [r5, #4]
 165:/home/jonas/warwick/3dProfilometer/xpcc/src/xpcc/communication/dispatcher.cpp **** 			next->next = 0;
 2205              		.loc 1 165 0
 2206 00da 19BF     		ittee	ne
 2207 00dc 7760     		strne	r7, [r6, #4]
 2208 00de 6E68     		ldrne	r6, [r5, #4]
 2209              	.LVL220:
 161:/home/jonas/warwick/3dProfilometer/xpcc/src/xpcc/communication/dispatcher.cpp **** 			last = entry;
 2210              		.loc 1 161 0
 2211 00e0 C8F83050 		streq	r5, [r8, #48]
 2212 00e4 1E46     		moveq	r6, r3
 2213              	.L204:
 2214              	.LVL221:
 156:/home/jonas/warwick/3dProfilometer/xpcc/src/xpcc/communication/dispatcher.cpp **** 	if (next)
 2215              		.loc 1 156 0
 2216 00e6 2846     		mov	r0, r5
 2217              	.LBE622:
 2218              	.LBE621:
 2219              	.LBB624:
 280:/home/jonas/warwick/3dProfilometer/xpcc/src/xpcc/communication/dispatcher.cpp **** 		while (Entry *s = tmp->next)
 2220              		.loc 1 280 0
 2221 00e8 5EB1     		cbz	r6, .L240
 2222              	.L234:
 2223              	.LBB625:
 282:/home/jonas/warwick/3dProfilometer/xpcc/src/xpcc/communication/dispatcher.cpp **** 			if (s->header.type == Header::REQUEST
 2224              		.loc 1 282 0
 2225 00ea 337A     		ldrb	r3, [r6, #8]	@ zero_extendqisi2
 2226 00ec 2BB9     		cbnz	r3, .L208
 2227              	.LVL222:
 2228 00ee 327D     		ldrb	r2, [r6, #20]	@ zero_extendqisi2
 2229 00f0 1AB1     		cbz	r2, .L208
 2230              	.LBB626:
 2231              	.LBB627:
 117:/home/jonas/warwick/3dProfilometer/xpcc/src/xpcc/communication/dispatcher.cpp **** 			(inHeader.packetIdentifier == this->header.packetIdentifier));
 2232              		.loc 1 117 0
 2233 00f2 B27A     		ldrb	r2, [r6, #10]	@ zero_extendqisi2
 2234 00f4 E17A     		ldrb	r1, [r4, #11]	@ zero_extendqisi2
 2235 00f6 9142     		cmp	r1, r2
 2236 00f8 79D0     		beq	.L241
 2237              	.LVL223:
 2238              	.L208:
 2239 00fa 3046     		mov	r0, r6
 2240              	.LBE627:
 2241              	.LBE626:
 2242              	.LBE625:
 2243              	.LBE624:
 2244              	.LBB647:
 2245              	.LBB623:
 156:/home/jonas/warwick/3dProfilometer/xpcc/src/xpcc/communication/dispatcher.cpp **** 	if (next)
 2246              		.loc 1 156 0
 2247 00fc 7668     		ldr	r6, [r6, #4]
 2248              	.LVL224:
 2249              	.LBE623:
 2250              	.LBE647:
 2251              	.LBB648:
 280:/home/jonas/warwick/3dProfilometer/xpcc/src/xpcc/communication/dispatcher.cpp **** 		while (Entry *s = tmp->next)
 2252              		.loc 1 280 0
 2253 00fe 002E     		cmp	r6, #0
 2254 0100 F3D1     		bne	.L234
 2255              	.L240:
 2256 0102 614E     		ldr	r6, .L249+4
 2257              	.LVL225:
 2258              	.L207:
 2259              	.LBE648:
 2260              	.LBB649:
 2261              	.LBB650:
  76:/home/jonas/warwick/3dProfilometer/xpcc/src/xpcc/communication/dispatcher.hpp **** 		class Entry
 2262              		.loc 2 76 0
 2263 0104 5046     		mov	r0, sl
 2264 0106 C847     		blx	r9
 2265              	.LVL226:
 2266              	.LBE650:
 2267              	.LBE649:
 302:/home/jonas/warwick/3dProfilometer/xpcc/src/xpcc/communication/dispatcher.cpp **** 		delete entry;
 2268              		.loc 1 302 0
 2269 0108 2046     		mov	r0, r4
 2270 010a B047     		blx	r6
 2271              	.LVL227:
 2272 010c 7DE7     		b	.L233
 2273              	.LVL228:
 2274              	.L198:
 2275              	.LBE620:
 2276              	.LBE619:
 2277              	.LBE618:
 2278              	.LBE617:
 337:/home/jonas/warwick/3dProfilometer/xpcc/src/xpcc/communication/dispatcher.cpp **** 					backend->sendPacket(entry->header, entry->payload);
 2279              		.loc 1 337 0
 2280 010e D8F80050 		ldr	r5, [r8, #0]
 2281              	.LVL229:
 2282 0112 2B68     		ldr	r3, [r5, #0]
 2283 0114 04F11001 		add	r1, r4, #16
 2284 0118 DE68     		ldr	r6, [r3, #12]
 2285 011a 5A4B     		ldr	r3, .L249
 2286 011c 03A8     		add	r0, sp, #12
 2287 011e 9847     		blx	r3
 2288              	.LVL230:
 2289 0120 2846     		mov	r0, r5
 2290 0122 04F10801 		add	r1, r4, #8
 2291 0126 03AA     		add	r2, sp, #12
 2292 0128 B047     		blx	r6
 2293              	.LVL231:
 339:/home/jonas/warwick/3dProfilometer/xpcc/src/xpcc/communication/dispatcher.cpp **** 					entry->state = Entry::WAIT_FOR_ACK;
 2294              		.loc 1 339 0
 2295 012a 0125     		movs	r5, #1
 337:/home/jonas/warwick/3dProfilometer/xpcc/src/xpcc/communication/dispatcher.cpp **** 					backend->sendPacket(entry->header, entry->payload);
 2296              		.loc 1 337 0
 2297 012c 574B     		ldr	r3, .L249+8
 2298 012e 03A8     		add	r0, sp, #12
 2299 0130 9847     		blx	r3
 2300              	.LVL232:
 339:/home/jonas/warwick/3dProfilometer/xpcc/src/xpcc/communication/dispatcher.cpp **** 					entry->state = Entry::WAIT_FOR_ACK;
 2301              		.loc 1 339 0
 2302 0132 2575     		strb	r5, [r4, #20]
 2303              	.LVL233:
 2304              	.LBB674:
 2305              	.LBB675:
  84:/home/jonas/warwick/3dProfilometer/xpcc/src/xpcc/workflow/timeout_impl.hpp **** 	endTime = T::now() + time;
 2306              		.loc 3 84 0
 2307 0134 564B     		ldr	r3, .L249+12
 2308 0136 9847     		blx	r3
 2309              	.LVL234:
 2310              	.LBB676:
 2311              	.LBB677:
  70:/home/jonas/warwick/3dProfilometer/xpcc/src/xpcc/workflow/timestamp.hpp **** 			return Timestamp(time + other.time);
 2312              		.loc 4 70 0
 2313 0138 6430     		adds	r0, r0, #100
 2314              	.LVL235:
 2315              	.LBE677:
 2316              	.LBE676:
 2317              		.loc 3 85 0
 2318 013a 2577     		strb	r5, [r4, #28]
 2319              	.LVL236:
 2320              	.LBE675:
  84:/home/jonas/warwick/3dProfilometer/xpcc/src/xpcc/workflow/timeout_impl.hpp **** 	endTime = T::now() + time;
 2321              		.loc 3 84 0
 2322 013c A061     		str	r0, [r4, #24]
 2323              	.LBB678:
 2324              		.loc 3 85 0
 2325 013e 2546     		mov	r5, r4
 2326 0140 63E7     		b	.L233
 2327              	.LVL237:
 2328              	.L238:
 2329              	.LBE678:
 2330              	.LBE674:
 2331              	.LBB679:
 2332              	.LBB615:
  51:/home/jonas/warwick/3dProfilometer/xpcc/src/xpcc/workflow/timeout_impl.hpp **** 	if (state == ACTIVE)
 2333              		.loc 3 51 0
 2334 0142 237F     		ldrb	r3, [r4, #28]	@ zero_extendqisi2
 2335 0144 012B     		cmp	r3, #1
 2336 0146 72D0     		beq	.L242
 2337              	.L214:
 2338              	.LBE615:
 2339              	.LBE679:
 350:/home/jonas/warwick/3dProfilometer/xpcc/src/xpcc/communication/dispatcher.cpp **** 				if (entry->tries >= 2)
 2340              		.loc 1 350 0
 2341 0148 94F82030 		ldrb	r3, [r4, #32]	@ zero_extendqisi2
 2342 014c 012B     		cmp	r3, #1
 2343 014e 1ED8     		bhi	.L231
 358:/home/jonas/warwick/3dProfilometer/xpcc/src/xpcc/communication/dispatcher.cpp **** 					backend->sendPacket(entry->header, entry->payload);
 2344              		.loc 1 358 0
 2345 0150 D8F80050 		ldr	r5, [r8, #0]
 2346              	.LVL238:
 2347 0154 2B68     		ldr	r3, [r5, #0]
 2348 0156 04F11001 		add	r1, r4, #16
 2349 015a DE68     		ldr	r6, [r3, #12]
 2350 015c 494B     		ldr	r3, .L249
 2351 015e 03A8     		add	r0, sp, #12
 2352 0160 9847     		blx	r3
 2353              	.LVL239:
 2354 0162 2846     		mov	r0, r5
 2355 0164 04F10801 		add	r1, r4, #8
 2356 0168 03AA     		add	r2, sp, #12
 2357 016a B047     		blx	r6
 2358              	.LVL240:
 2359 016c 474B     		ldr	r3, .L249+8
 2360 016e 03A8     		add	r0, sp, #12
 2361 0170 9847     		blx	r3
 2362              	.LVL241:
 360:/home/jonas/warwick/3dProfilometer/xpcc/src/xpcc/communication/dispatcher.cpp **** 					entry->tries++;
 2363              		.loc 1 360 0
 2364 0172 94F82030 		ldrb	r3, [r4, #32]	@ zero_extendqisi2
 2365 0176 0133     		adds	r3, r3, #1
 2366 0178 84F82030 		strb	r3, [r4, #32]
 2367              	.LVL242:
 2368              	.LBB680:
 2369              	.LBB681:
  84:/home/jonas/warwick/3dProfilometer/xpcc/src/xpcc/workflow/timeout_impl.hpp **** 	endTime = T::now() + time;
 2370              		.loc 3 84 0
 2371 017c 444B     		ldr	r3, .L249+12
 2372 017e 9847     		blx	r3
 2373              	.LVL243:
 2374              		.loc 3 85 0
 2375 0180 0123     		movs	r3, #1
 2376              	.LBB682:
 2377              	.LBB683:
  70:/home/jonas/warwick/3dProfilometer/xpcc/src/xpcc/workflow/timestamp.hpp **** 			return Timestamp(time + other.time);
 2378              		.loc 4 70 0
 2379 0182 6430     		adds	r0, r0, #100
 2380              	.LVL244:
 2381              	.LBE683:
 2382              	.LBE682:
 2383              	.LBE681:
  84:/home/jonas/warwick/3dProfilometer/xpcc/src/xpcc/workflow/timeout_impl.hpp **** 	endTime = T::now() + time;
 2384              		.loc 3 84 0
 2385 0184 A061     		str	r0, [r4, #24]
 2386              	.LBB684:
 2387              		.loc 3 85 0
 2388 0186 2377     		strb	r3, [r4, #28]
 2389 0188 2546     		mov	r5, r4
 2390 018a 3EE7     		b	.L233
 2391              	.LVL245:
 2392              	.L225:
 2393              	.LBE684:
 2394              	.LBE680:
 2395              	.LBB685:
 2396              	.LBB686:
 233:/home/jonas/warwick/3dProfilometer/xpcc/src/xpcc/communication/dispatcher.cpp **** 	while (prev->next != entry) {
 2397              		.loc 1 233 0
 2398 018c 1D46     		mov	r5, r3
 2399              	.LVL246:
 2400              	.L231:
 2401 018e 6B68     		ldr	r3, [r5, #4]
 2402 0190 9C42     		cmp	r4, r3
 2403 0192 FBD1     		bne	.L225
 2404              	.LVL247:
 2405              	.LBB687:
 2406              	.LBB688:
 160:/home/jonas/warwick/3dProfilometer/xpcc/src/xpcc/communication/dispatcher.cpp **** 		if (next == last) {
 2407              		.loc 1 160 0
 2408 0194 D8F83030 		ldr	r3, [r8, #48]
 158:/home/jonas/warwick/3dProfilometer/xpcc/src/xpcc/communication/dispatcher.cpp **** 		entry->next = next->next;
 2409              		.loc 1 158 0
 2410 0198 6268     		ldr	r2, [r4, #4]
 160:/home/jonas/warwick/3dProfilometer/xpcc/src/xpcc/communication/dispatcher.cpp **** 		if (next == last) {
 2411              		.loc 1 160 0
 2412 019a 9C42     		cmp	r4, r3
 158:/home/jonas/warwick/3dProfilometer/xpcc/src/xpcc/communication/dispatcher.cpp **** 		entry->next = next->next;
 2413              		.loc 1 158 0
 2414 019c 6A60     		str	r2, [r5, #4]
 160:/home/jonas/warwick/3dProfilometer/xpcc/src/xpcc/communication/dispatcher.cpp **** 		if (next == last) {
 2415              		.loc 1 160 0
 2416 019e 6ED0     		beq	.L243
 165:/home/jonas/warwick/3dProfilometer/xpcc/src/xpcc/communication/dispatcher.cpp **** 			next->next = 0;
 2417              		.loc 1 165 0
 2418 01a0 0023     		movs	r3, #0
 2419 01a2 6360     		str	r3, [r4, #4]
 2420              	.L217:
 2421              	.LVL248:
 2422              	.LBE688:
 2423              	.LBE687:
 2424              	.LBB690:
 2425              	.LBB691:
  76:/home/jonas/warwick/3dProfilometer/xpcc/src/xpcc/communication/dispatcher.hpp **** 		class Entry
 2426              		.loc 2 76 0
 2427 01a4 04F11000 		add	r0, r4, #16
 2428 01a8 384B     		ldr	r3, .L249+8
 2429              	.LBE691:
 2430              	.LBE690:
 238:/home/jonas/warwick/3dProfilometer/xpcc/src/xpcc/communication/dispatcher.cpp **** 	delete entry;
 2431              		.loc 1 238 0
 2432 01aa 374E     		ldr	r6, .L249+4
 2433              	.LBB693:
 2434              	.LBB692:
  76:/home/jonas/warwick/3dProfilometer/xpcc/src/xpcc/communication/dispatcher.hpp **** 		class Entry
 2435              		.loc 2 76 0
 2436 01ac 9847     		blx	r3
 2437              	.LVL249:
 2438              	.LBE692:
 2439              	.LBE693:
 238:/home/jonas/warwick/3dProfilometer/xpcc/src/xpcc/communication/dispatcher.cpp **** 	delete entry;
 2440              		.loc 1 238 0
 2441 01ae 2046     		mov	r0, r4
 2442 01b0 B047     		blx	r6
 2443              	.LVL250:
 2444              	.LBE686:
 2445              	.LBE685:
 354:/home/jonas/warwick/3dProfilometer/xpcc/src/xpcc/communication/dispatcher.cpp **** 					continue;
 2446              		.loc 1 354 0
 2447 01b2 2AE7     		b	.L233
 2448              	.LVL251:
 2449              	.L239:
 2450              	.LBB696:
 2451              	.LBB672:
 2452              	.LBB670:
 253:/home/jonas/warwick/3dProfilometer/xpcc/src/xpcc/communication/dispatcher.cpp **** 		postman->deliverPacket(entry->header, entry->payload);
 2453              		.loc 1 253 0
 2454 01b4 D8F80400 		ldr	r0, [r8, #4]
 2455 01b8 0368     		ldr	r3, [r0, #0]
 2456 01ba 5946     		mov	r1, fp
 2457 01bc 1B68     		ldr	r3, [r3, #0]
 2458 01be 5246     		mov	r2, sl
 2459 01c0 9847     		blx	r3
 2460              	.LVL252:
 256:/home/jonas/warwick/3dProfilometer/xpcc/src/xpcc/communication/dispatcher.cpp **** 		if (entry->type == Entry::CALLBACK)
 2461              		.loc 1 256 0
 2462 01c2 2678     		ldrb	r6, [r4, #0]	@ zero_extendqisi2
 2463 01c4 012E     		cmp	r6, #1
 2464 01c6 01D1     		bne	.L230
 2465 01c8 3BE0     		b	.L248
 2466              	.LVL253:
 2467              	.L221:
 2468              	.LBB653:
 2469              	.LBB654:
 233:/home/jonas/warwick/3dProfilometer/xpcc/src/xpcc/communication/dispatcher.cpp **** 	while (prev->next != entry) {
 2470              		.loc 1 233 0
 2471 01ca 1D46     		mov	r5, r3
 2472              	.LVL254:
 2473              	.L230:
 2474 01cc 6B68     		ldr	r3, [r5, #4]
 2475 01ce 9C42     		cmp	r4, r3
 2476 01d0 FBD1     		bne	.L221
 2477              	.LVL255:
 2478              	.LBB655:
 2479              	.LBB656:
 160:/home/jonas/warwick/3dProfilometer/xpcc/src/xpcc/communication/dispatcher.cpp **** 		if (next == last) {
 2480              		.loc 1 160 0
 2481 01d2 D8F83030 		ldr	r3, [r8, #48]
 158:/home/jonas/warwick/3dProfilometer/xpcc/src/xpcc/communication/dispatcher.cpp **** 		entry->next = next->next;
 2482              		.loc 1 158 0
 2483 01d6 6268     		ldr	r2, [r4, #4]
 160:/home/jonas/warwick/3dProfilometer/xpcc/src/xpcc/communication/dispatcher.cpp **** 		if (next == last) {
 2484              		.loc 1 160 0
 2485 01d8 9C42     		cmp	r4, r3
 158:/home/jonas/warwick/3dProfilometer/xpcc/src/xpcc/communication/dispatcher.cpp **** 		entry->next = next->next;
 2486              		.loc 1 158 0
 2487 01da 6A60     		str	r2, [r5, #4]
 160:/home/jonas/warwick/3dProfilometer/xpcc/src/xpcc/communication/dispatcher.cpp **** 		if (next == last) {
 2488              		.loc 1 160 0
 2489 01dc 4CD0     		beq	.L245
 165:/home/jonas/warwick/3dProfilometer/xpcc/src/xpcc/communication/dispatcher.cpp **** 			next->next = 0;
 2490              		.loc 1 165 0
 2491 01de 0023     		movs	r3, #0
 2492 01e0 6360     		str	r3, [r4, #4]
 2493              	.L203:
 2494              	.LVL256:
 2495              	.LBE656:
 2496              	.LBE655:
 2497              	.LBB658:
 2498              	.LBB659:
  76:/home/jonas/warwick/3dProfilometer/xpcc/src/xpcc/communication/dispatcher.hpp **** 		class Entry
 2499              		.loc 2 76 0
 2500 01e2 5046     		mov	r0, sl
 2501 01e4 C847     		blx	r9
 2502              	.LVL257:
 2503              	.LBE659:
 2504              	.LBE658:
 238:/home/jonas/warwick/3dProfilometer/xpcc/src/xpcc/communication/dispatcher.cpp **** 	delete entry;
 2505              		.loc 1 238 0
 2506 01e6 284E     		ldr	r6, .L249+4
 2507 01e8 2046     		mov	r0, r4
 2508 01ea B047     		blx	r6
 2509              	.LVL258:
 2510 01ec 0DE7     		b	.L233
 2511              	.LVL259:
 2512              	.L241:
 2513              	.LBE654:
 2514              	.LBE653:
 2515              	.LBB662:
 2516              	.LBB651:
 2517              	.LBB645:
 2518              	.LBB629:
 2519              	.LBB628:
 117:/home/jonas/warwick/3dProfilometer/xpcc/src/xpcc/communication/dispatcher.cpp **** 			(inHeader.packetIdentifier == this->header.packetIdentifier));
 2520              		.loc 1 117 0
 2521 01ee F27A     		ldrb	r2, [r6, #11]	@ zero_extendqisi2
 2522 01f0 A17A     		ldrb	r1, [r4, #10]	@ zero_extendqisi2
 2523 01f2 9142     		cmp	r1, r2
 2524 01f4 81D1     		bne	.L208
 2525 01f6 327B     		ldrb	r2, [r6, #12]	@ zero_extendqisi2
 2526 01f8 217B     		ldrb	r1, [r4, #12]	@ zero_extendqisi2
 2527 01fa 9142     		cmp	r1, r2
 2528 01fc 7FF47DAF 		bne	.L208
 2529              	.LVL260:
 2530              	.LBE628:
 2531              	.LBE629:
 2532              	.LBB630:
 2533              	.LBB631:
 2534              	.LBB632:
 160:/home/jonas/warwick/3dProfilometer/xpcc/src/xpcc/communication/dispatcher.cpp **** 		if (next == last) {
 2535              		.loc 1 160 0
 2536 0200 D8F83020 		ldr	r2, [r8, #48]
 158:/home/jonas/warwick/3dProfilometer/xpcc/src/xpcc/communication/dispatcher.cpp **** 		entry->next = next->next;
 2537              		.loc 1 158 0
 2538 0204 7168     		ldr	r1, [r6, #4]
 160:/home/jonas/warwick/3dProfilometer/xpcc/src/xpcc/communication/dispatcher.cpp **** 		if (next == last) {
 2539              		.loc 1 160 0
 2540 0206 9642     		cmp	r6, r2
 158:/home/jonas/warwick/3dProfilometer/xpcc/src/xpcc/communication/dispatcher.cpp **** 		entry->next = next->next;
 2541              		.loc 1 158 0
 2542 0208 4160     		str	r1, [r0, #4]
 165:/home/jonas/warwick/3dProfilometer/xpcc/src/xpcc/communication/dispatcher.cpp **** 			next->next = 0;
 2543              		.loc 1 165 0
 2544 020a 18BF     		it	ne
 2545 020c 7360     		strne	r3, [r6, #4]
 2546              	.LBE632:
 2547              	.LBE631:
 2548              	.LBB634:
 288:/home/jonas/warwick/3dProfilometer/xpcc/src/xpcc/communication/dispatcher.cpp **** 				if (s->type == Entry::CALLBACK)
 2549              		.loc 1 288 0
 2550 020e 3378     		ldrb	r3, [r6, #0]	@ zero_extendqisi2
 2551              	.LBE634:
 2552              	.LBB639:
 2553              	.LBB633:
 161:/home/jonas/warwick/3dProfilometer/xpcc/src/xpcc/communication/dispatcher.cpp **** 			last = entry;
 2554              		.loc 1 161 0
 2555 0210 08BF     		it	eq
 2556 0212 C8F83000 		streq	r0, [r8, #48]
 2557              	.LBE633:
 2558              	.LBE639:
 2559              	.LBB640:
 288:/home/jonas/warwick/3dProfilometer/xpcc/src/xpcc/communication/dispatcher.cpp **** 				if (s->type == Entry::CALLBACK)
 2560              		.loc 1 288 0
 2561 0216 012B     		cmp	r3, #1
 2562 0218 1CD0     		beq	.L246
 2563              	.LVL261:
 2564              	.L211:
 2565              	.LBE640:
 2566              	.LBB641:
 2567              	.LBB642:
  76:/home/jonas/warwick/3dProfilometer/xpcc/src/xpcc/communication/dispatcher.hpp **** 		class Entry
 2568              		.loc 2 76 0
 2569 021a 06F11000 		add	r0, r6, #16
 2570 021e C847     		blx	r9
 2571              	.LVL262:
 2572              	.LBE642:
 2573              	.LBE641:
 295:/home/jonas/warwick/3dProfilometer/xpcc/src/xpcc/communication/dispatcher.cpp **** 				delete s;
 2574              		.loc 1 295 0
 2575 0220 3046     		mov	r0, r6
 2576 0222 194E     		ldr	r6, .L249+4
 2577              	.LVL263:
 2578 0224 B047     		blx	r6
 2579              	.LVL264:
 2580 0226 6DE7     		b	.L207
 2581              	.LVL265:
 2582              	.L236:
 2583              	.LBE630:
 2584              	.LBE645:
 2585              	.LBE651:
 2586              	.LBE662:
 2587              	.LBE670:
 2588              	.LBE672:
 2589              	.LBE696:
 2590              	.LBB697:
 2591              	.LBB610:
 2592              	.LBB609:
 2593              	.LBB606:
 161:/home/jonas/warwick/3dProfilometer/xpcc/src/xpcc/communication/dispatcher.cpp **** 			last = entry;
 2594              		.loc 1 161 0
 2595 0228 C8F83050 		str	r5, [r8, #48]
 2596 022c 21E7     		b	.L196
 2597              	.LVL266:
 2598              	.L242:
 2599              	.LBE606:
 2600              	.LBE609:
 2601              	.LBE610:
 2602              	.LBE697:
 2603              	.LBB698:
 2604              	.LBB616:
  53:/home/jonas/warwick/3dProfilometer/xpcc/src/xpcc/workflow/timeout_impl.hpp **** 		if (T::now() >= endTime)
 2605              		.loc 3 53 0
 2606 022e 184B     		ldr	r3, .L249+12
 2607 0230 9847     		blx	r3
 2608              	.LVL267:
 2609              	.LBB613:
 2610              	.LBB614:
 2611              		.loc 4 112 0
 2612 0232 A369     		ldr	r3, [r4, #24]
 2613 0234 C01A     		subs	r0, r0, r3
 2614              	.LBE614:
 2615              	.LBE613:
  53:/home/jonas/warwick/3dProfilometer/xpcc/src/xpcc/workflow/timeout_impl.hpp **** 		if (T::now() >= endTime)
 2616              		.loc 3 53 0
 2617 0236 0028     		cmp	r0, #0
 2618 0238 FFF628AF 		blt	.L224
  55:/home/jonas/warwick/3dProfilometer/xpcc/src/xpcc/workflow/timeout_impl.hpp **** 			state = EXPIRED;
 2619              		.loc 3 55 0
 2620 023c 0223     		movs	r3, #2
 2621 023e 2377     		strb	r3, [r4, #28]
 2622 0240 82E7     		b	.L214
 2623              	.LVL268:
 2624              	.L248:
 2625              	.LBE616:
 2626              	.LBE698:
 2627              	.LBB699:
 2628              	.LBB673:
 2629              	.LBB671:
 259:/home/jonas/warwick/3dProfilometer/xpcc/src/xpcc/communication/dispatcher.cpp **** 			entry->state = Entry::WAIT_FOR_RESPONSE;
 2630              		.loc 1 259 0
 2631 0242 0223     		movs	r3, #2
 2632 0244 2375     		strb	r3, [r4, #20]
 2633              	.LVL269:
 2634              	.LBB663:
 2635              	.LBB664:
  84:/home/jonas/warwick/3dProfilometer/xpcc/src/xpcc/workflow/timeout_impl.hpp **** 	endTime = T::now() + time;
 2636              		.loc 3 84 0
 2637 0246 124B     		ldr	r3, .L249+12
 2638 0248 9847     		blx	r3
 2639              	.LVL270:
 2640              	.LBB665:
 2641              	.LBB666:
  70:/home/jonas/warwick/3dProfilometer/xpcc/src/xpcc/workflow/timestamp.hpp **** 			return Timestamp(time + other.time);
 2642              		.loc 4 70 0
 2643 024a 6430     		adds	r0, r0, #100
 2644              	.LVL271:
 2645              	.LBE666:
 2646              	.LBE665:
 2647              	.LBE664:
  84:/home/jonas/warwick/3dProfilometer/xpcc/src/xpcc/workflow/timeout_impl.hpp **** 	endTime = T::now() + time;
 2648              		.loc 3 84 0
 2649 024c A061     		str	r0, [r4, #24]
 2650              	.LBB667:
 2651              		.loc 3 85 0
 2652 024e 2677     		strb	r6, [r4, #28]
 2653              	.LVL272:
 2654 0250 2546     		mov	r5, r4
 2655              	.LVL273:
 2656 0252 DAE6     		b	.L233
 2657              	.LVL274:
 2658              	.L246:
 2659              	.LBE667:
 2660              	.LBE663:
 2661              	.LBB668:
 2662              	.LBB652:
 2663              	.LBB646:
 2664              	.LBB644:
 2665              	.LBB643:
 2666              	.LBB635:
 2667              	.LBB636:
 2668              	.LBB637:
 2669              		.loc 6 90 0
 2670 0254 F36A     		ldr	r3, [r6, #44]
 2671 0256 DF07     		lsls	r7, r3, #31
 2672 0258 0AD5     		bpl	.L247
 2673 025a 5B10     		asrs	r3, r3, #1
 2674 025c 706A     		ldr	r0, [r6, #36]
 2675              	.LVL275:
 2676 025e B26A     		ldr	r2, [r6, #40]
 2677 0260 C158     		ldr	r1, [r0, r3]
 2678 0262 8F58     		ldr	r7, [r1, r2]
 2679              	.L213:
 2680              	.LVL276:
 2681              	.LBE637:
 2682 0264 2269     		ldr	r2, [r4, #16]
 2683              	.LBB638:
 2684 0266 C018     		adds	r0, r0, r3
 2685 0268 5946     		mov	r1, fp
 2686 026a 0232     		adds	r2, r2, #2
 2687 026c B847     		blx	r7
 2688              	.LVL277:
 2689 026e D4E7     		b	.L211
 2690              	.LVL278:
 2691              	.L247:
 2692 0270 B76A     		ldr	r7, [r6, #40]
 2693 0272 706A     		ldr	r0, [r6, #36]
 2694              	.LVL279:
 2695 0274 5B10     		asrs	r3, r3, #1
 2696 0276 F5E7     		b	.L213
 2697              	.LVL280:
 2698              	.L245:
 2699              	.LBE638:
 2700              	.LBE636:
 2701              	.LBE635:
 2702              	.LBE643:
 2703              	.LBE644:
 2704              	.LBE646:
 2705              	.LBE652:
 2706              	.LBE668:
 2707              	.LBB669:
 2708              	.LBB661:
 2709              	.LBB660:
 2710              	.LBB657:
 161:/home/jonas/warwick/3dProfilometer/xpcc/src/xpcc/communication/dispatcher.cpp **** 			last = entry;
 2711              		.loc 1 161 0
 2712 0278 C8F83050 		str	r5, [r8, #48]
 2713 027c B1E7     		b	.L203
 2714              	.LVL281:
 2715              	.L243:
 2716              	.LBE657:
 2717              	.LBE660:
 2718              	.LBE661:
 2719              	.LBE669:
 2720              	.LBE671:
 2721              	.LBE673:
 2722              	.LBE699:
 2723              	.LBB700:
 2724              	.LBB695:
 2725              	.LBB694:
 2726              	.LBB689:
 2727 027e C8F83050 		str	r5, [r8, #48]
 2728 0282 8FE7     		b	.L217
 2729              	.L250:
 2730              		.align	2
 2731              	.L249:
 2732 0284 00000000 		.word	_ZN4xpcc12SmartPointerC1ERKS0_
 2733 0288 00000000 		.word	_ZdlPv
 2734 028c 00000000 		.word	_ZN4xpcc12SmartPointerD1Ev
 2735 0290 00000000 		.word	_ZN4xpcc5Clock3nowEv
 2736              	.LBE689:
 2737              	.LBE694:
 2738              	.LBE695:
 2739              	.LBE700:
 2740              	.LBE701:
 2741              	.LBE703:
 2742              		.cfi_endproc
 2743              	.LFE174:
 2745              		.section	.text._ZN4xpcc10Dispatcher10addMessageERKNS_6HeaderERNS_12SmartPointerE,"ax",%progbits
 2746              		.align	2
 2747              		.global	_ZN4xpcc10Dispatcher10addMessageERKNS_6HeaderERNS_12SmartPointerE
 2748              		.thumb
 2749              		.thumb_func
 2751              	_ZN4xpcc10Dispatcher10addMessageERKNS_6HeaderERNS_12SmartPointerE:
 2752              	.LFB175:
 376:/home/jonas/warwick/3dProfilometer/xpcc/src/xpcc/communication/dispatcher.cpp **** 
 377:/home/jonas/warwick/3dProfilometer/xpcc/src/xpcc/communication/dispatcher.cpp **** // ----------------------------------------------------------------------------
 378:/home/jonas/warwick/3dProfilometer/xpcc/src/xpcc/communication/dispatcher.cpp **** void
 379:/home/jonas/warwick/3dProfilometer/xpcc/src/xpcc/communication/dispatcher.cpp **** xpcc::Dispatcher::addMessage(const Header& header,
 380:/home/jonas/warwick/3dProfilometer/xpcc/src/xpcc/communication/dispatcher.cpp **** 		SmartPointer& smartPayload)
 381:/home/jonas/warwick/3dProfilometer/xpcc/src/xpcc/communication/dispatcher.cpp **** {
 2753              		.loc 1 381 0
 2754              		.cfi_startproc
 2755              		@ args = 0, pretend = 0, frame = 0
 2756              		@ frame_needed = 0, uses_anonymous_args = 0
 2757              	.LVL282:
 2758 0000 2DE9F041 		push	{r4, r5, r6, r7, r8, lr}
 2759              	.LCFI10:
 2760              		.cfi_def_cfa_offset 24
 2761              		.cfi_offset 4, -24
 2762              		.cfi_offset 5, -20
 2763              		.cfi_offset 6, -16
 2764              		.cfi_offset 7, -12
 2765              		.cfi_offset 8, -8
 2766              		.cfi_offset 14, -4
 2767              	.LBB714:
 382:/home/jonas/warwick/3dProfilometer/xpcc/src/xpcc/communication/dispatcher.cpp **** 	Entry *e = new Entry(header, smartPayload);
 2768              		.loc 1 382 0
 2769 0004 104B     		ldr	r3, .L254
 2770              	.LBE714:
 381:/home/jonas/warwick/3dProfilometer/xpcc/src/xpcc/communication/dispatcher.cpp **** {
 2771              		.loc 1 381 0
 2772 0006 0646     		mov	r6, r0
 2773              	.LBB729:
 2774              		.loc 1 382 0
 2775 0008 2420     		movs	r0, #36
 2776              	.LVL283:
 2777              	.LBE729:
 381:/home/jonas/warwick/3dProfilometer/xpcc/src/xpcc/communication/dispatcher.cpp **** {
 2778              		.loc 1 381 0
 2779 000a 0F46     		mov	r7, r1
 2780 000c 9046     		mov	r8, r2
 2781              	.LBB730:
 2782              		.loc 1 382 0
 2783 000e 9847     		blx	r3
 2784              	.LVL284:
 2785              	.LBB715:
 2786              	.LBB716:
 116:/home/jonas/warwick/3dProfilometer/xpcc/src/xpcc/communication/dispatcher.hpp **** 				time(), tries(0)
 2787              		.loc 2 116 0
 2788 0010 0025     		movs	r5, #0
 2789 0012 0570     		strb	r5, [r0, #0]
 2790 0014 4560     		str	r5, [r0, #4]
 2791 0016 3B68     		ldr	r3, [r7, #0]	@ unaligned
 2792 0018 8360     		str	r3, [r0, #8]	@ unaligned
 2793              	.LBE716:
 2794              	.LBE715:
 2795              		.loc 1 382 0
 2796 001a 0446     		mov	r4, r0
 2797              	.LVL285:
 2798              	.LBB723:
 2799              	.LBB721:
 116:/home/jonas/warwick/3dProfilometer/xpcc/src/xpcc/communication/dispatcher.hpp **** 				time(), tries(0)
 2800              		.loc 2 116 0
 2801 001c 3B79     		ldrb	r3, [r7, #4]	@ zero_extendqisi2
 2802 001e 1030     		adds	r0, r0, #16
 2803              	.LVL286:
 2804 0020 2373     		strb	r3, [r4, #12]
 2805 0022 4146     		mov	r1, r8
 2806 0024 094B     		ldr	r3, .L254+4
 2807 0026 9847     		blx	r3
 2808              	.LVL287:
 2809 0028 84F82050 		strb	r5, [r4, #32]
 2810              	.LBE721:
 2811              	.LBE723:
 2812              	.LBB724:
 2813              	.LBB725:
 124:/home/jonas/warwick/3dProfilometer/xpcc/src/xpcc/communication/dispatcher.cpp **** 	this->last->next = next;
 2814              		.loc 1 124 0
 2815 002c 336B     		ldr	r3, [r6, #48]
 2816              	.LBE725:
 2817              	.LBE724:
 2818              	.LBB727:
 2819              	.LBB722:
 2820              	.LBB717:
 2821              	.LBB718:
 2822              	.LBB719:
 2823              	.LBB720:
  57:/home/jonas/warwick/3dProfilometer/xpcc/src/xpcc/workflow/timestamp.hpp **** 			time(time)
 2824              		.loc 4 57 0
 2825 002e A561     		str	r5, [r4, #24]
 2826              	.LBE720:
 2827              	.LBE719:
  37:/home/jonas/warwick/3dProfilometer/xpcc/src/xpcc/workflow/timeout_impl.hpp **** 	endTime(0), state(EXPIRED)
 2828              		.loc 3 37 0
 2829 0030 0222     		movs	r2, #2
 2830 0032 2277     		strb	r2, [r4, #28]
 2831              	.LVL288:
 2832              	.LBE718:
 2833              	.LBE717:
 2834              	.LBE722:
 2835              	.LBE727:
 383:/home/jonas/warwick/3dProfilometer/xpcc/src/xpcc/communication/dispatcher.cpp **** 	e->state = Entry::TRANSMISSION_PENDING;
 2836              		.loc 1 383 0
 2837 0034 2575     		strb	r5, [r4, #20]
 2838              	.LVL289:
 2839              	.LBB728:
 2840              	.LBB726:
 124:/home/jonas/warwick/3dProfilometer/xpcc/src/xpcc/communication/dispatcher.cpp **** 	this->last->next = next;
 2841              		.loc 1 124 0
 2842 0036 5C60     		str	r4, [r3, #4]
 2843 0038 00E0     		b	.L252
 2844              	.LVL290:
 2845              	.L253:
 128:/home/jonas/warwick/3dProfilometer/xpcc/src/xpcc/communication/dispatcher.cpp **** 		next = next->next;
 2846              		.loc 1 128 0
 2847 003a 1C46     		mov	r4, r3
 2848              	.LVL291:
 2849              	.L252:
 127:/home/jonas/warwick/3dProfilometer/xpcc/src/xpcc/communication/dispatcher.cpp **** 	while (next->next != 0) {
 2850              		.loc 1 127 0
 2851 003c 6368     		ldr	r3, [r4, #4]
 2852 003e 002B     		cmp	r3, #0
 2853 0040 FBD1     		bne	.L253
 131:/home/jonas/warwick/3dProfilometer/xpcc/src/xpcc/communication/dispatcher.cpp **** 	this->last = next;
 2854              		.loc 1 131 0
 2855 0042 3463     		str	r4, [r6, #48]
 2856 0044 BDE8F081 		pop	{r4, r5, r6, r7, r8, pc}
 2857              	.L255:
 2858              		.align	2
 2859              	.L254:
 2860 0048 00000000 		.word	_Znwj
 2861 004c 00000000 		.word	_ZN4xpcc12SmartPointerC1ERKS0_
 2862              	.LBE726:
 2863              	.LBE728:
 2864              	.LBE730:
 2865              		.cfi_endproc
 2866              	.LFE175:
 2868              		.section	.text._ZN4xpcc10Dispatcher10addMessageERKNS_6HeaderERNS_12SmartPointerERNS_16ResponseCall
 2869              		.align	2
 2870              		.global	_ZN4xpcc10Dispatcher10addMessageERKNS_6HeaderERNS_12SmartPointerERNS_16ResponseCallbackE
 2871              		.thumb
 2872              		.thumb_func
 2874              	_ZN4xpcc10Dispatcher10addMessageERKNS_6HeaderERNS_12SmartPointerERNS_16ResponseCallbackE:
 2875              	.LFB176:
 384:/home/jonas/warwick/3dProfilometer/xpcc/src/xpcc/communication/dispatcher.cpp **** 	
 385:/home/jonas/warwick/3dProfilometer/xpcc/src/xpcc/communication/dispatcher.cpp **** 	this->append(e);
 386:/home/jonas/warwick/3dProfilometer/xpcc/src/xpcc/communication/dispatcher.cpp **** }
 387:/home/jonas/warwick/3dProfilometer/xpcc/src/xpcc/communication/dispatcher.cpp **** 
 388:/home/jonas/warwick/3dProfilometer/xpcc/src/xpcc/communication/dispatcher.cpp **** void
 389:/home/jonas/warwick/3dProfilometer/xpcc/src/xpcc/communication/dispatcher.cpp **** xpcc::Dispatcher::addMessage(const Header& header,
 390:/home/jonas/warwick/3dProfilometer/xpcc/src/xpcc/communication/dispatcher.cpp **** 		SmartPointer& smartPayload, ResponseCallback& responseCallback)
 391:/home/jonas/warwick/3dProfilometer/xpcc/src/xpcc/communication/dispatcher.cpp **** {
 2876              		.loc 1 391 0
 2877              		.cfi_startproc
 2878              		@ args = 0, pretend = 0, frame = 0
 2879              		@ frame_needed = 0, uses_anonymous_args = 0
 2880              	.LVL292:
 2881 0000 2DE9F843 		push	{r3, r4, r5, r6, r7, r8, r9, lr}
 2882              	.LCFI11:
 2883              		.cfi_def_cfa_offset 32
 2884              		.cfi_offset 3, -32
 2885              		.cfi_offset 4, -28
 2886              		.cfi_offset 5, -24
 2887              		.cfi_offset 6, -20
 2888              		.cfi_offset 7, -16
 2889              		.cfi_offset 8, -12
 2890              		.cfi_offset 9, -8
 2891              		.cfi_offset 14, -4
 2892              		.loc 1 391 0
 2893 0004 0746     		mov	r7, r0
 2894 0006 1E46     		mov	r6, r3
 2895              	.LBB744:
 392:/home/jonas/warwick/3dProfilometer/xpcc/src/xpcc/communication/dispatcher.cpp **** 	Entry *e = new CallbackEntry(header, smartPayload, responseCallback);
 2896              		.loc 1 392 0
 2897 0008 3020     		movs	r0, #48
 2898              	.LVL293:
 2899 000a 144B     		ldr	r3, .L259
 2900              	.LVL294:
 2901              	.LBE744:
 391:/home/jonas/warwick/3dProfilometer/xpcc/src/xpcc/communication/dispatcher.cpp **** {
 2902              		.loc 1 391 0
 2903 000c 8846     		mov	r8, r1
 2904 000e 9146     		mov	r9, r2
 2905              	.LBB761:
 2906              		.loc 1 392 0
 2907 0010 9847     		blx	r3
 2908              	.LVL295:
 2909              	.LBB745:
 2910              	.LBB746:
 2911              	.LBB747:
 2912              	.LBB748:
 109:/home/jonas/warwick/3dProfilometer/xpcc/src/xpcc/communication/dispatcher.hpp **** 				time(), tries(0)
 2913              		.loc 2 109 0
 2914 0012 0025     		movs	r5, #0
 2915 0014 0123     		movs	r3, #1
 2916 0016 0370     		strb	r3, [r0, #0]
 2917 0018 4560     		str	r5, [r0, #4]
 2918 001a D8F80030 		ldr	r3, [r8, #0]	@ unaligned
 2919 001e 8360     		str	r3, [r0, #8]	@ unaligned
 2920 0020 98F80430 		ldrb	r3, [r8, #4]	@ zero_extendqisi2
 2921              	.LBE748:
 2922              	.LBE747:
 2923              	.LBE746:
 2924              	.LBE745:
 2925              		.loc 1 392 0
 2926 0024 0446     		mov	r4, r0
 2927              	.LVL296:
 2928              	.LBB756:
 2929              	.LBB755:
 2930              	.LBB754:
 2931              	.LBB753:
 109:/home/jonas/warwick/3dProfilometer/xpcc/src/xpcc/communication/dispatcher.hpp **** 				time(), tries(0)
 2932              		.loc 2 109 0
 2933 0026 0373     		strb	r3, [r0, #12]
 2934 0028 4946     		mov	r1, r9
 2935 002a 0D4B     		ldr	r3, .L259+4
 2936 002c 1030     		adds	r0, r0, #16
 2937              	.LVL297:
 2938 002e 9847     		blx	r3
 2939              	.LVL298:
 2940              	.LBB749:
 2941              	.LBB750:
  37:/home/jonas/warwick/3dProfilometer/xpcc/src/xpcc/workflow/timeout_impl.hpp **** 	endTime(0), state(EXPIRED)
 2942              		.loc 3 37 0
 2943 0030 0223     		movs	r3, #2
 2944 0032 2377     		strb	r3, [r4, #28]
 2945              	.LBB751:
 2946              	.LBB752:
  57:/home/jonas/warwick/3dProfilometer/xpcc/src/xpcc/workflow/timestamp.hpp **** 			time(time)
 2947              		.loc 4 57 0
 2948 0034 A561     		str	r5, [r4, #24]
 2949              	.LBE752:
 2950              	.LBE751:
 2951              	.LBE750:
 2952              	.LBE749:
 109:/home/jonas/warwick/3dProfilometer/xpcc/src/xpcc/communication/dispatcher.hpp **** 				time(), tries(0)
 2953              		.loc 2 109 0
 2954 0036 84F82050 		strb	r5, [r4, #32]
 2955              	.LBE753:
 2956              	.LBE754:
 124:/home/jonas/warwick/3dProfilometer/xpcc/src/xpcc/communication/dispatcher.hpp **** 			{
 125:/home/jonas/warwick/3dProfilometer/xpcc/src/xpcc/communication/dispatcher.hpp **** 			}
 126:/home/jonas/warwick/3dProfilometer/xpcc/src/xpcc/communication/dispatcher.hpp **** 			
 127:/home/jonas/warwick/3dProfilometer/xpcc/src/xpcc/communication/dispatcher.hpp **** 			/**
 128:/home/jonas/warwick/3dProfilometer/xpcc/src/xpcc/communication/dispatcher.hpp **** 			 * \brief 	Checks if a Response or Acknowledge fits to the
 129:/home/jonas/warwick/3dProfilometer/xpcc/src/xpcc/communication/dispatcher.hpp **** 			 * 			Message represented by this Entry.
 130:/home/jonas/warwick/3dProfilometer/xpcc/src/xpcc/communication/dispatcher.hpp **** 			 */
 131:/home/jonas/warwick/3dProfilometer/xpcc/src/xpcc/communication/dispatcher.hpp **** 			bool
 132:/home/jonas/warwick/3dProfilometer/xpcc/src/xpcc/communication/dispatcher.hpp **** 			headerFits(const Header& header) const;
 133:/home/jonas/warwick/3dProfilometer/xpcc/src/xpcc/communication/dispatcher.hpp **** 			
 134:/home/jonas/warwick/3dProfilometer/xpcc/src/xpcc/communication/dispatcher.hpp **** 			/**
 135:/home/jonas/warwick/3dProfilometer/xpcc/src/xpcc/communication/dispatcher.hpp **** 			 * \brief 	List-handling, return pointer to the next entry.
 136:/home/jonas/warwick/3dProfilometer/xpcc/src/xpcc/communication/dispatcher.hpp **** 			 */
 137:/home/jonas/warwick/3dProfilometer/xpcc/src/xpcc/communication/dispatcher.hpp **** 			inline const Entry *
 138:/home/jonas/warwick/3dProfilometer/xpcc/src/xpcc/communication/dispatcher.hpp **** 			getNext() const
 139:/home/jonas/warwick/3dProfilometer/xpcc/src/xpcc/communication/dispatcher.hpp **** 			{
 140:/home/jonas/warwick/3dProfilometer/xpcc/src/xpcc/communication/dispatcher.hpp **** 				return next;
 141:/home/jonas/warwick/3dProfilometer/xpcc/src/xpcc/communication/dispatcher.hpp **** 			}
 142:/home/jonas/warwick/3dProfilometer/xpcc/src/xpcc/communication/dispatcher.hpp **** 			
 143:/home/jonas/warwick/3dProfilometer/xpcc/src/xpcc/communication/dispatcher.hpp **** 			const Type type;
 144:/home/jonas/warwick/3dProfilometer/xpcc/src/xpcc/communication/dispatcher.hpp **** 			Entry *next;			///< List-handling, holds pointer to the next entry.
 145:/home/jonas/warwick/3dProfilometer/xpcc/src/xpcc/communication/dispatcher.hpp **** 			const Header header;
 146:/home/jonas/warwick/3dProfilometer/xpcc/src/xpcc/communication/dispatcher.hpp **** 			const SmartPointer payload;
 147:/home/jonas/warwick/3dProfilometer/xpcc/src/xpcc/communication/dispatcher.hpp **** 			State state;
 148:/home/jonas/warwick/3dProfilometer/xpcc/src/xpcc/communication/dispatcher.hpp **** 			Timeout<> time;
 149:/home/jonas/warwick/3dProfilometer/xpcc/src/xpcc/communication/dispatcher.hpp **** 			uint8_t tries;
 150:/home/jonas/warwick/3dProfilometer/xpcc/src/xpcc/communication/dispatcher.hpp **** 		};
 151:/home/jonas/warwick/3dProfilometer/xpcc/src/xpcc/communication/dispatcher.hpp **** 
 152:/home/jonas/warwick/3dProfilometer/xpcc/src/xpcc/communication/dispatcher.hpp **** 		class CallbackEntry : public Entry
 153:/home/jonas/warwick/3dProfilometer/xpcc/src/xpcc/communication/dispatcher.hpp **** 		{
 154:/home/jonas/warwick/3dProfilometer/xpcc/src/xpcc/communication/dispatcher.hpp **** 		public:
 155:/home/jonas/warwick/3dProfilometer/xpcc/src/xpcc/communication/dispatcher.hpp **** 			CallbackEntry(const Header& header,
 156:/home/jonas/warwick/3dProfilometer/xpcc/src/xpcc/communication/dispatcher.hpp **** 					SmartPointer& payload, ResponseCallback& callback_) :
 157:/home/jonas/warwick/3dProfilometer/xpcc/src/xpcc/communication/dispatcher.hpp **** 				Entry(CALLBACK, header, payload),
 158:/home/jonas/warwick/3dProfilometer/xpcc/src/xpcc/communication/dispatcher.hpp **** 				callback(callback_)
 2957              		.loc 2 158 0
 2958 003a 96E80700 		ldmia	r6, {r0, r1, r2}
 2959 003e 04F12403 		add	r3, r4, #36
 2960 0042 83E80700 		stmia	r3, {r0, r1, r2}
 2961              	.LVL299:
 2962              	.LBE755:
 2963              	.LBE756:
 2964              	.LBB757:
 2965              	.LBB758:
 124:/home/jonas/warwick/3dProfilometer/xpcc/src/xpcc/communication/dispatcher.cpp **** 	this->last->next = next;
 2966              		.loc 1 124 0
 2967 0046 3B6B     		ldr	r3, [r7, #48]
 2968              	.LBE758:
 2969              	.LBE757:
 393:/home/jonas/warwick/3dProfilometer/xpcc/src/xpcc/communication/dispatcher.cpp **** 	e->state = Entry::TRANSMISSION_PENDING;
 2970              		.loc 1 393 0
 2971 0048 2575     		strb	r5, [r4, #20]
 2972              	.LVL300:
 2973              	.LBB760:
 2974              	.LBB759:
 124:/home/jonas/warwick/3dProfilometer/xpcc/src/xpcc/communication/dispatcher.cpp **** 	this->last->next = next;
 2975              		.loc 1 124 0
 2976 004a 5C60     		str	r4, [r3, #4]
 2977 004c 00E0     		b	.L257
 2978              	.LVL301:
 2979              	.L258:
 128:/home/jonas/warwick/3dProfilometer/xpcc/src/xpcc/communication/dispatcher.cpp **** 		next = next->next;
 2980              		.loc 1 128 0
 2981 004e 1C46     		mov	r4, r3
 2982              	.LVL302:
 2983              	.L257:
 127:/home/jonas/warwick/3dProfilometer/xpcc/src/xpcc/communication/dispatcher.cpp **** 	while (next->next != 0) {
 2984              		.loc 1 127 0
 2985 0050 6368     		ldr	r3, [r4, #4]
 2986 0052 002B     		cmp	r3, #0
 2987 0054 FBD1     		bne	.L258
 131:/home/jonas/warwick/3dProfilometer/xpcc/src/xpcc/communication/dispatcher.cpp **** 	this->last = next;
 2988              		.loc 1 131 0
 2989 0056 3C63     		str	r4, [r7, #48]
 2990 0058 BDE8F883 		pop	{r3, r4, r5, r6, r7, r8, r9, pc}
 2991              	.L260:
 2992              		.align	2
 2993              	.L259:
 2994 005c 00000000 		.word	_Znwj
 2995 0060 00000000 		.word	_ZN4xpcc12SmartPointerC1ERKS0_
 2996              	.LBE759:
 2997              	.LBE760:
 2998              	.LBE761:
 2999              		.cfi_endproc
 3000              	.LFE176:
 3002              		.section	.text._ZN4xpcc10Dispatcher11addResponseERKNS_6HeaderERNS_12SmartPointerE,"ax",%progbits
 3003              		.align	2
 3004              		.global	_ZN4xpcc10Dispatcher11addResponseERKNS_6HeaderERNS_12SmartPointerE
 3005              		.thumb
 3006              		.thumb_func
 3008              	_ZN4xpcc10Dispatcher11addResponseERKNS_6HeaderERNS_12SmartPointerE:
 3009              	.LFB177:
 394:/home/jonas/warwick/3dProfilometer/xpcc/src/xpcc/communication/dispatcher.cpp **** 	
 395:/home/jonas/warwick/3dProfilometer/xpcc/src/xpcc/communication/dispatcher.cpp **** 	this->append(e);
 396:/home/jonas/warwick/3dProfilometer/xpcc/src/xpcc/communication/dispatcher.cpp **** }
 397:/home/jonas/warwick/3dProfilometer/xpcc/src/xpcc/communication/dispatcher.cpp **** 
 398:/home/jonas/warwick/3dProfilometer/xpcc/src/xpcc/communication/dispatcher.cpp **** void
 399:/home/jonas/warwick/3dProfilometer/xpcc/src/xpcc/communication/dispatcher.cpp **** xpcc::Dispatcher::addResponse(const Header& header,
 400:/home/jonas/warwick/3dProfilometer/xpcc/src/xpcc/communication/dispatcher.cpp **** 		SmartPointer& smartPayload)
 401:/home/jonas/warwick/3dProfilometer/xpcc/src/xpcc/communication/dispatcher.cpp **** {
 3010              		.loc 1 401 0
 3011              		.cfi_startproc
 3012              		@ args = 0, pretend = 0, frame = 0
 3013              		@ frame_needed = 0, uses_anonymous_args = 0
 3014              	.LVL303:
 3015 0000 2DE9F041 		push	{r4, r5, r6, r7, r8, lr}
 3016              	.LCFI12:
 3017              		.cfi_def_cfa_offset 24
 3018              		.cfi_offset 4, -24
 3019              		.cfi_offset 5, -20
 3020              		.cfi_offset 6, -16
 3021              		.cfi_offset 7, -12
 3022              		.cfi_offset 8, -8
 3023              		.cfi_offset 14, -4
 3024              	.LBB772:
 402:/home/jonas/warwick/3dProfilometer/xpcc/src/xpcc/communication/dispatcher.cpp **** 	Entry *e = new Entry(header, smartPayload);
 3025              		.loc 1 402 0
 3026 0004 134B     		ldr	r3, .L266
 3027              	.LBE772:
 401:/home/jonas/warwick/3dProfilometer/xpcc/src/xpcc/communication/dispatcher.cpp **** {
 3028              		.loc 1 401 0
 3029 0006 0746     		mov	r7, r0
 3030              	.LBB785:
 3031              		.loc 1 402 0
 3032 0008 2420     		movs	r0, #36
 3033              	.LVL304:
 3034              	.LBE785:
 401:/home/jonas/warwick/3dProfilometer/xpcc/src/xpcc/communication/dispatcher.cpp **** {
 3035              		.loc 1 401 0
 3036 000a 0E46     		mov	r6, r1
 3037 000c 9046     		mov	r8, r2
 3038              	.LBB786:
 3039              		.loc 1 402 0
 3040 000e 9847     		blx	r3
 3041              	.LVL305:
 3042              	.LBB773:
 3043              	.LBB774:
 116:/home/jonas/warwick/3dProfilometer/xpcc/src/xpcc/communication/dispatcher.hpp **** 				time(), tries(0)
 3044              		.loc 2 116 0
 3045 0010 0025     		movs	r5, #0
 3046 0012 0570     		strb	r5, [r0, #0]
 3047 0014 4560     		str	r5, [r0, #4]
 3048 0016 3368     		ldr	r3, [r6, #0]	@ unaligned
 3049 0018 8360     		str	r3, [r0, #8]	@ unaligned
 3050              	.LBE774:
 3051              	.LBE773:
 3052              		.loc 1 402 0
 3053 001a 0446     		mov	r4, r0
 3054              	.LVL306:
 3055              	.LBB781:
 3056              	.LBB779:
 116:/home/jonas/warwick/3dProfilometer/xpcc/src/xpcc/communication/dispatcher.hpp **** 				time(), tries(0)
 3057              		.loc 2 116 0
 3058 001c 3379     		ldrb	r3, [r6, #4]	@ zero_extendqisi2
 3059 001e 1030     		adds	r0, r0, #16
 3060              	.LVL307:
 3061 0020 2373     		strb	r3, [r4, #12]
 3062 0022 4146     		mov	r1, r8
 3063 0024 0C4B     		ldr	r3, .L266+4
 3064 0026 9847     		blx	r3
 3065              	.LVL308:
 3066 0028 84F82050 		strb	r5, [r4, #32]
 3067              	.LBE779:
 3068              	.LBE781:
 403:/home/jonas/warwick/3dProfilometer/xpcc/src/xpcc/communication/dispatcher.cpp **** 	e->state = Entry::TRANSMISSION_PENDING;
 404:/home/jonas/warwick/3dProfilometer/xpcc/src/xpcc/communication/dispatcher.cpp **** 	
