   1              		.syntax unified
   2              		.cpu cortex-m4
   3              		.eabi_attribute 27, 3
   4              		.fpu fpv4-sp-d16
   5              		.eabi_attribute 20, 1
   6              		.eabi_attribute 21, 1
   7              		.eabi_attribute 23, 3
   8              		.eabi_attribute 24, 1
   9              		.eabi_attribute 25, 1
  10              		.eabi_attribute 26, 1
  11              		.eabi_attribute 30, 2
  12              		.eabi_attribute 34, 1
  13              		.eabi_attribute 18, 4
  14              		.thumb
  15              		.file	"slave.cpp"
  16              		.text
  17              	.Ltext0:
  18              		.cfi_sections	.debug_frame
  19              		.section	.text._ZN4xpcc3sab8ResponseC2EPNS0_11TransmitterE,"ax",%progbits
  20              		.align	2
  21              		.global	_ZN4xpcc3sab8ResponseC2EPNS0_11TransmitterE
  22              		.thumb
  23              		.thumb_func
  25              	_ZN4xpcc3sab8ResponseC2EPNS0_11TransmitterE:
  26              	.LFB84:
  27              		.file 1 "/home/jonas/warwick/3dProfilometer/xpcc/src/xpcc/driver/connectivity/sab/slave.cpp"
   1:/home/jonas/warwick/3dProfilometer/xpcc/src/xpcc/driver/connectivity/sab/slave.cpp **** // coding: utf-8
   2:/home/jonas/warwick/3dProfilometer/xpcc/src/xpcc/driver/connectivity/sab/slave.cpp **** // ----------------------------------------------------------------------------
   3:/home/jonas/warwick/3dProfilometer/xpcc/src/xpcc/driver/connectivity/sab/slave.cpp **** /* Copyright (c) 2009, Roboterclub Aachen e.V.
   4:/home/jonas/warwick/3dProfilometer/xpcc/src/xpcc/driver/connectivity/sab/slave.cpp ****  * All rights reserved.
   5:/home/jonas/warwick/3dProfilometer/xpcc/src/xpcc/driver/connectivity/sab/slave.cpp ****  * 
   6:/home/jonas/warwick/3dProfilometer/xpcc/src/xpcc/driver/connectivity/sab/slave.cpp ****  * Redistribution and use in source and binary forms, with or without
   7:/home/jonas/warwick/3dProfilometer/xpcc/src/xpcc/driver/connectivity/sab/slave.cpp ****  * modification, are permitted provided that the following conditions are met:
   8:/home/jonas/warwick/3dProfilometer/xpcc/src/xpcc/driver/connectivity/sab/slave.cpp ****  * 
   9:/home/jonas/warwick/3dProfilometer/xpcc/src/xpcc/driver/connectivity/sab/slave.cpp ****  *     * Redistributions of source code must retain the above copyright
  10:/home/jonas/warwick/3dProfilometer/xpcc/src/xpcc/driver/connectivity/sab/slave.cpp ****  *       notice, this list of conditions and the following disclaimer.
  11:/home/jonas/warwick/3dProfilometer/xpcc/src/xpcc/driver/connectivity/sab/slave.cpp ****  *     * Redistributions in binary form must reproduce the above copyright
  12:/home/jonas/warwick/3dProfilometer/xpcc/src/xpcc/driver/connectivity/sab/slave.cpp ****  *       notice, this list of conditions and the following disclaimer in the
  13:/home/jonas/warwick/3dProfilometer/xpcc/src/xpcc/driver/connectivity/sab/slave.cpp ****  *       documentation and/or other materials provided with the distribution.
  14:/home/jonas/warwick/3dProfilometer/xpcc/src/xpcc/driver/connectivity/sab/slave.cpp ****  *     * Neither the name of the Roboterclub Aachen e.V. nor the
  15:/home/jonas/warwick/3dProfilometer/xpcc/src/xpcc/driver/connectivity/sab/slave.cpp ****  *       names of its contributors may be used to endorse or promote products
  16:/home/jonas/warwick/3dProfilometer/xpcc/src/xpcc/driver/connectivity/sab/slave.cpp ****  *       derived from this software without specific prior written permission.
  17:/home/jonas/warwick/3dProfilometer/xpcc/src/xpcc/driver/connectivity/sab/slave.cpp ****  * 
  18:/home/jonas/warwick/3dProfilometer/xpcc/src/xpcc/driver/connectivity/sab/slave.cpp ****  * THIS SOFTWARE IS PROVIDED BY ROBOTERCLUB AACHEN E.V. ''AS IS'' AND ANY
  19:/home/jonas/warwick/3dProfilometer/xpcc/src/xpcc/driver/connectivity/sab/slave.cpp ****  * EXPRESS OR IMPLIED WARRANTIES, INCLUDING, BUT NOT LIMITED TO, THE IMPLIED
  20:/home/jonas/warwick/3dProfilometer/xpcc/src/xpcc/driver/connectivity/sab/slave.cpp ****  * WARRANTIES OF MERCHANTABILITY AND FITNESS FOR A PARTICULAR PURPOSE ARE
  21:/home/jonas/warwick/3dProfilometer/xpcc/src/xpcc/driver/connectivity/sab/slave.cpp ****  * DISCLAIMED. IN NO EVENT SHALL ROBOTERCLUB AACHEN E.V. BE LIABLE FOR ANY
  22:/home/jonas/warwick/3dProfilometer/xpcc/src/xpcc/driver/connectivity/sab/slave.cpp ****  * DIRECT, INDIRECT, INCIDENTAL, SPECIAL, EXEMPLARY, OR CONSEQUENTIAL DAMAGES
  23:/home/jonas/warwick/3dProfilometer/xpcc/src/xpcc/driver/connectivity/sab/slave.cpp ****  * (INCLUDING, BUT NOT LIMITED TO, PROCUREMENT OF SUBSTITUTE GOODS OR SERVICES;
  24:/home/jonas/warwick/3dProfilometer/xpcc/src/xpcc/driver/connectivity/sab/slave.cpp ****  * LOSS OF USE, DATA, OR PROFITS; OR BUSINESS INTERRUPTION) HOWEVER CAUSED AND
  25:/home/jonas/warwick/3dProfilometer/xpcc/src/xpcc/driver/connectivity/sab/slave.cpp ****  * ON ANY THEORY OF LIABILITY, WHETHER IN CONTRACT, STRICT LIABILITY, OR TORT
  26:/home/jonas/warwick/3dProfilometer/xpcc/src/xpcc/driver/connectivity/sab/slave.cpp ****  * (INCLUDING NEGLIGENCE OR OTHERWISE) ARISING IN ANY WAY OUT OF THE USE OF
  27:/home/jonas/warwick/3dProfilometer/xpcc/src/xpcc/driver/connectivity/sab/slave.cpp ****  * THIS SOFTWARE, EVEN IF ADVISED OF THE POSSIBILITY OF SUCH DAMAGE.
  28:/home/jonas/warwick/3dProfilometer/xpcc/src/xpcc/driver/connectivity/sab/slave.cpp ****  */
  29:/home/jonas/warwick/3dProfilometer/xpcc/src/xpcc/driver/connectivity/sab/slave.cpp **** // ----------------------------------------------------------------------------
  30:/home/jonas/warwick/3dProfilometer/xpcc/src/xpcc/driver/connectivity/sab/slave.cpp **** 
  31:/home/jonas/warwick/3dProfilometer/xpcc/src/xpcc/driver/connectivity/sab/slave.cpp **** #include "slave.hpp"
  32:/home/jonas/warwick/3dProfilometer/xpcc/src/xpcc/driver/connectivity/sab/slave.cpp **** 
  33:/home/jonas/warwick/3dProfilometer/xpcc/src/xpcc/driver/connectivity/sab/slave.cpp **** xpcc::sab::Response::Response(Transmitter *parent) :
  28              		.loc 1 33 0
  29              		.cfi_startproc
  30              		@ args = 0, pretend = 0, frame = 0
  31              		@ frame_needed = 0, uses_anonymous_args = 0
  32              		@ link register save eliminated.
  33              	.LVL0:
  34              	.LBB5:
  34:/home/jonas/warwick/3dProfilometer/xpcc/src/xpcc/driver/connectivity/sab/slave.cpp **** 	transmitter(parent), triggered(false)
  35              		.loc 1 34 0
  36 0000 0022     		movs	r2, #0
  37 0002 0160     		str	r1, [r0, #0]
  38 0004 0271     		strb	r2, [r0, #4]
  39              	.LBE5:
  35:/home/jonas/warwick/3dProfilometer/xpcc/src/xpcc/driver/connectivity/sab/slave.cpp **** {
  36:/home/jonas/warwick/3dProfilometer/xpcc/src/xpcc/driver/connectivity/sab/slave.cpp **** }
  40              		.loc 1 36 0
  41 0006 7047     		bx	lr
  42              		.cfi_endproc
  43              	.LFE84:
  45              		.global	_ZN4xpcc3sab8ResponseC1EPNS0_11TransmitterE
  46              		.thumb_set _ZN4xpcc3sab8ResponseC1EPNS0_11TransmitterE,_ZN4xpcc3sab8ResponseC2EPNS0_11TransmitterE
  47              		.section	.text._ZN4xpcc3sab8Response5errorEh,"ax",%progbits
  48              		.align	2
  49              		.global	_ZN4xpcc3sab8Response5errorEh
  50              		.thumb
  51              		.thumb_func
  53              	_ZN4xpcc3sab8Response5errorEh:
  54              	.LFB86:
  37:/home/jonas/warwick/3dProfilometer/xpcc/src/xpcc/driver/connectivity/sab/slave.cpp **** 
  38:/home/jonas/warwick/3dProfilometer/xpcc/src/xpcc/driver/connectivity/sab/slave.cpp **** void
  39:/home/jonas/warwick/3dProfilometer/xpcc/src/xpcc/driver/connectivity/sab/slave.cpp **** xpcc::sab::Response::error(uint8_t errorCode)
  40:/home/jonas/warwick/3dProfilometer/xpcc/src/xpcc/driver/connectivity/sab/slave.cpp **** {
  55              		.loc 1 40 0
  56              		.cfi_startproc
  57              		@ args = 0, pretend = 0, frame = 8
  58              		@ frame_needed = 0, uses_anonymous_args = 0
  59              	.LVL1:
  60 0000 10B5     		push	{r4, lr}
  61              	.LCFI0:
  62              		.cfi_def_cfa_offset 8
  63              		.cfi_offset 4, -8
  64              		.cfi_offset 14, -4
  65 0002 82B0     		sub	sp, sp, #8
  66              	.LCFI1:
  67              		.cfi_def_cfa_offset 16
  68              	.LBB6:
  41:/home/jonas/warwick/3dProfilometer/xpcc/src/xpcc/driver/connectivity/sab/slave.cpp **** 	triggered = true;
  42:/home/jonas/warwick/3dProfilometer/xpcc/src/xpcc/driver/connectivity/sab/slave.cpp **** 	
  43:/home/jonas/warwick/3dProfilometer/xpcc/src/xpcc/driver/connectivity/sab/slave.cpp **** 	uint8_t tempError = errorCode;
  69              		.loc 1 43 0
  70 0004 02AA     		add	r2, sp, #8
  71              	.LBE6:
  40:/home/jonas/warwick/3dProfilometer/xpcc/src/xpcc/driver/connectivity/sab/slave.cpp **** {
  72              		.loc 1 40 0
  73 0006 0446     		mov	r4, r0
  74              	.LBB7:
  75              		.loc 1 43 0
  76 0008 02F8011D 		strb	r1, [r2, #-1]!
  77              	.LVL2:
  44:/home/jonas/warwick/3dProfilometer/xpcc/src/xpcc/driver/connectivity/sab/slave.cpp **** 	transmitter->send(false, &tempError, 1);
  78              		.loc 1 44 0
  79 000c 0068     		ldr	r0, [r0, #0]
  80              	.LVL3:
  81 000e 0168     		ldr	r1, [r0, #0]
  82              	.LVL4:
  41:/home/jonas/warwick/3dProfilometer/xpcc/src/xpcc/driver/connectivity/sab/slave.cpp **** 	triggered = true;
  83              		.loc 1 41 0
  84 0010 0123     		movs	r3, #1
  85 0012 2371     		strb	r3, [r4, #4]
  86              		.loc 1 44 0
  87 0014 0C68     		ldr	r4, [r1, #0]
  88              	.LVL5:
  89 0016 0021     		movs	r1, #0
  90 0018 A047     		blx	r4
  91              	.LVL6:
  92              	.LBE7:
  45:/home/jonas/warwick/3dProfilometer/xpcc/src/xpcc/driver/connectivity/sab/slave.cpp **** }
  93              		.loc 1 45 0
  94 001a 02B0     		add	sp, sp, #8
  95 001c 10BD     		pop	{r4, pc}
  96              		.cfi_endproc
  97              	.LFE86:
  99 001e 00BF     		.section	.text._ZN4xpcc3sab8Response4sendEv,"ax",%progbits
 100              		.align	2
 101              		.global	_ZN4xpcc3sab8Response4sendEv
 102              		.thumb
 103              		.thumb_func
 105              	_ZN4xpcc3sab8Response4sendEv:
 106              	.LFB87:
  46:/home/jonas/warwick/3dProfilometer/xpcc/src/xpcc/driver/connectivity/sab/slave.cpp **** 
  47:/home/jonas/warwick/3dProfilometer/xpcc/src/xpcc/driver/connectivity/sab/slave.cpp **** void
  48:/home/jonas/warwick/3dProfilometer/xpcc/src/xpcc/driver/connectivity/sab/slave.cpp **** xpcc::sab::Response::send()
  49:/home/jonas/warwick/3dProfilometer/xpcc/src/xpcc/driver/connectivity/sab/slave.cpp **** {
 107              		.loc 1 49 0
 108              		.cfi_startproc
 109              		@ args = 0, pretend = 0, frame = 0
 110              		@ frame_needed = 0, uses_anonymous_args = 0
 111              	.LVL7:
  50:/home/jonas/warwick/3dProfilometer/xpcc/src/xpcc/driver/connectivity/sab/slave.cpp **** 	triggered = true;
  51:/home/jonas/warwick/3dProfilometer/xpcc/src/xpcc/driver/connectivity/sab/slave.cpp **** 	transmitter->send(true, 0, 0);
 112              		.loc 1 51 0
 113 0000 0368     		ldr	r3, [r0, #0]
  50:/home/jonas/warwick/3dProfilometer/xpcc/src/xpcc/driver/connectivity/sab/slave.cpp **** 	triggered = true;
 114              		.loc 1 50 0
 115 0002 0121     		movs	r1, #1
  49:/home/jonas/warwick/3dProfilometer/xpcc/src/xpcc/driver/connectivity/sab/slave.cpp **** {
 116              		.loc 1 49 0
 117 0004 10B5     		push	{r4, lr}
 118              	.LCFI2:
 119              		.cfi_def_cfa_offset 8
 120              		.cfi_offset 4, -8
 121              		.cfi_offset 14, -4
  50:/home/jonas/warwick/3dProfilometer/xpcc/src/xpcc/driver/connectivity/sab/slave.cpp **** 	triggered = true;
 122              		.loc 1 50 0
 123 0006 0171     		strb	r1, [r0, #4]
 124              		.loc 1 51 0
 125 0008 1868     		ldr	r0, [r3, #0]
 126              	.LVL8:
 127 000a 0022     		movs	r2, #0
 128 000c 0468     		ldr	r4, [r0, #0]
 129 000e 1846     		mov	r0, r3
 130 0010 1346     		mov	r3, r2
 131 0012 A047     		blx	r4
 132              	.LVL9:
 133 0014 10BD     		pop	{r4, pc}
 134              		.cfi_endproc
 135              	.LFE87:
 137 0016 00BF     		.section	.text._ZN4xpcc3sab8Response4sendEPKvj,"ax",%progbits
 138              		.align	2
 139              		.global	_ZN4xpcc3sab8Response4sendEPKvj
 140              		.thumb
 141              		.thumb_func
 143              	_ZN4xpcc3sab8Response4sendEPKvj:
 144              	.LFB88:
  52:/home/jonas/warwick/3dProfilometer/xpcc/src/xpcc/driver/connectivity/sab/slave.cpp **** }
  53:/home/jonas/warwick/3dProfilometer/xpcc/src/xpcc/driver/connectivity/sab/slave.cpp **** 
  54:/home/jonas/warwick/3dProfilometer/xpcc/src/xpcc/driver/connectivity/sab/slave.cpp **** void
  55:/home/jonas/warwick/3dProfilometer/xpcc/src/xpcc/driver/connectivity/sab/slave.cpp **** xpcc::sab::Response::send(const void *payload, std::size_t length)
  56:/home/jonas/warwick/3dProfilometer/xpcc/src/xpcc/driver/connectivity/sab/slave.cpp **** {
 145              		.loc 1 56 0
 146              		.cfi_startproc
 147              		@ args = 0, pretend = 0, frame = 0
 148              		@ frame_needed = 0, uses_anonymous_args = 0
 149              	.LVL10:
 150 0000 70B5     		push	{r4, r5, r6, lr}
 151              	.LCFI3:
 152              		.cfi_def_cfa_offset 16
 153              		.cfi_offset 4, -16
 154              		.cfi_offset 5, -12
 155              		.cfi_offset 6, -8
 156              		.cfi_offset 14, -4
  57:/home/jonas/warwick/3dProfilometer/xpcc/src/xpcc/driver/connectivity/sab/slave.cpp **** 	triggered = true;
  58:/home/jonas/warwick/3dProfilometer/xpcc/src/xpcc/driver/connectivity/sab/slave.cpp **** 	transmitter->send(true, payload, length);
 157              		.loc 1 58 0
 158 0002 0468     		ldr	r4, [r0, #0]
 159 0004 2568     		ldr	r5, [r4, #0]
  56:/home/jonas/warwick/3dProfilometer/xpcc/src/xpcc/driver/connectivity/sab/slave.cpp **** {
 160              		.loc 1 56 0
 161 0006 0E46     		mov	r6, r1
  57:/home/jonas/warwick/3dProfilometer/xpcc/src/xpcc/driver/connectivity/sab/slave.cpp **** 	triggered = true;
 162              		.loc 1 57 0
 163 0008 0121     		movs	r1, #1
 164              	.LVL11:
  56:/home/jonas/warwick/3dProfilometer/xpcc/src/xpcc/driver/connectivity/sab/slave.cpp **** {
 165              		.loc 1 56 0
 166 000a 1346     		mov	r3, r2
  57:/home/jonas/warwick/3dProfilometer/xpcc/src/xpcc/driver/connectivity/sab/slave.cpp **** 	triggered = true;
 167              		.loc 1 57 0
 168 000c 0171     		strb	r1, [r0, #4]
 169              		.loc 1 58 0
 170 000e 2D68     		ldr	r5, [r5, #0]
 171 0010 2046     		mov	r0, r4
 172              	.LVL12:
 173 0012 3246     		mov	r2, r6
 174              	.LVL13:
 175 0014 A847     		blx	r5
 176              	.LVL14:
 177 0016 70BD     		pop	{r4, r5, r6, pc}
 178              		.cfi_endproc
 179              	.LFE88:
 181              		.text
 182              	.Letext0:
 183              		.file 2 "/opt/arm-2012.09/bin/../lib/gcc/arm-none-eabi/4.7.2/include/stddef.h"
 184              		.file 3 "/opt/arm-2012.09/bin/../lib/gcc/arm-none-eabi/4.7.2/../../../../arm-none-eabi/include/std
 185              		.file 4 "/home/jonas/warwick/3dProfilometer/xpcc/src/xpcc/driver/connectivity/sab/slave.hpp"
 186              		.file 5 "/home/jonas/warwick/3dProfilometer/xpcc/src/xpcc/io/iodevice.hpp"
 187              		.file 6 "/home/jonas/warwick/3dProfilometer/xpcc/src/xpcc/driver/connectivity/sab/constants.hpp"
 188              		.file 7 "<built-in>"
 189              		.file 8 "/opt/arm-2012.09/bin/../lib/gcc/arm-none-eabi/4.7.2/../../../../arm-none-eabi/include/c++
 190              		.file 9 "/opt/arm-2012.09/bin/../lib/gcc/arm-none-eabi/4.7.2/../../../../arm-none-eabi/include/c++
 191              		.file 10 "/opt/arm-2012.09/bin/../lib/gcc/arm-none-eabi/4.7.2/../../../../arm-none-eabi/include/st
 192              		.file 11 "/home/jonas/warwick/3dProfilometer/xpcc/src/xpcc/architecture/driver/accessor/flash.hpp"