   1              		.syntax unified
   2              		.cpu cortex-m4
   3              		.eabi_attribute 27, 3
   4              		.fpu fpv4-sp-d16
   5              		.eabi_attribute 20, 1
   6              		.eabi_attribute 21, 1
   7              		.eabi_attribute 23, 3
   8              		.eabi_attribute 24, 1
   9              		.eabi_attribute 25, 1
  10              		.eabi_attribute 26, 1
  11              		.eabi_attribute 30, 2
  12              		.eabi_attribute 34, 1
  13              		.eabi_attribute 18, 4
  14              		.thumb
  15              		.file	"port.cpp"
  16              		.text
  17              	.Ltext0:
  18              		.cfi_sections	.debug_frame
  19              		.section	.text.vPortSysTickHandler,"ax",%progbits
  20              		.align	2
  21              		.global	vPortSysTickHandler
  22              		.thumb
  23              		.thumb_func
  25              	vPortSysTickHandler:
  26              	.LFB9:
  27              		.file 1 "/home/jonas/warwick/3dProfilometer/xpcc/ext/freertos/portable/port.cpp"
   1:/home/jonas/warwick/3dProfilometer/xpcc/ext/freertos/portable/port.cpp **** /*
   2:/home/jonas/warwick/3dProfilometer/xpcc/ext/freertos/portable/port.cpp ****     FreeRTOS V7.0.1 - Copyright (C) 2011 Real Time Engineers Ltd.
   3:/home/jonas/warwick/3dProfilometer/xpcc/ext/freertos/portable/port.cpp **** 	
   4:/home/jonas/warwick/3dProfilometer/xpcc/ext/freertos/portable/port.cpp **** 
   5:/home/jonas/warwick/3dProfilometer/xpcc/ext/freertos/portable/port.cpp ****     ***************************************************************************
   6:/home/jonas/warwick/3dProfilometer/xpcc/ext/freertos/portable/port.cpp ****      *                                                                       *
   7:/home/jonas/warwick/3dProfilometer/xpcc/ext/freertos/portable/port.cpp ****      *    FreeRTOS tutorial books are available in pdf and paperback.        *
   8:/home/jonas/warwick/3dProfilometer/xpcc/ext/freertos/portable/port.cpp ****      *    Complete, revised, and edited pdf reference manuals are also       *
   9:/home/jonas/warwick/3dProfilometer/xpcc/ext/freertos/portable/port.cpp ****      *    available.                                                         *
  10:/home/jonas/warwick/3dProfilometer/xpcc/ext/freertos/portable/port.cpp ****      *                                                                       *
  11:/home/jonas/warwick/3dProfilometer/xpcc/ext/freertos/portable/port.cpp ****      *    Purchasing FreeRTOS documentation will not only help you, by       *
  12:/home/jonas/warwick/3dProfilometer/xpcc/ext/freertos/portable/port.cpp ****      *    ensuring you get running as quickly as possible and with an        *
  13:/home/jonas/warwick/3dProfilometer/xpcc/ext/freertos/portable/port.cpp ****      *    in-depth knowledge of how to use FreeRTOS, it will also help       *
  14:/home/jonas/warwick/3dProfilometer/xpcc/ext/freertos/portable/port.cpp ****      *    the FreeRTOS project to continue with its mission of providing     *
  15:/home/jonas/warwick/3dProfilometer/xpcc/ext/freertos/portable/port.cpp ****      *    professional grade, cross platform, de facto standard solutions    *
  16:/home/jonas/warwick/3dProfilometer/xpcc/ext/freertos/portable/port.cpp ****      *    for microcontrollers - completely free of charge!                  *
  17:/home/jonas/warwick/3dProfilometer/xpcc/ext/freertos/portable/port.cpp ****      *                                                                       *
  18:/home/jonas/warwick/3dProfilometer/xpcc/ext/freertos/portable/port.cpp ****      *    >>> See http://www.FreeRTOS.org/Documentation for details. <<<     *
  19:/home/jonas/warwick/3dProfilometer/xpcc/ext/freertos/portable/port.cpp ****      *                                                                       *
  20:/home/jonas/warwick/3dProfilometer/xpcc/ext/freertos/portable/port.cpp ****      *    Thank you for using FreeRTOS, and thank you for your support!      *
  21:/home/jonas/warwick/3dProfilometer/xpcc/ext/freertos/portable/port.cpp ****      *                                                                       *
  22:/home/jonas/warwick/3dProfilometer/xpcc/ext/freertos/portable/port.cpp ****     ***************************************************************************
  23:/home/jonas/warwick/3dProfilometer/xpcc/ext/freertos/portable/port.cpp **** 
  24:/home/jonas/warwick/3dProfilometer/xpcc/ext/freertos/portable/port.cpp **** 
  25:/home/jonas/warwick/3dProfilometer/xpcc/ext/freertos/portable/port.cpp ****     This file is part of the FreeRTOS distribution.
  26:/home/jonas/warwick/3dProfilometer/xpcc/ext/freertos/portable/port.cpp **** 
  27:/home/jonas/warwick/3dProfilometer/xpcc/ext/freertos/portable/port.cpp ****     FreeRTOS is free software; you can redistribute it and/or modify it under
  28:/home/jonas/warwick/3dProfilometer/xpcc/ext/freertos/portable/port.cpp ****     the terms of the GNU General Public License (version 2) as published by the
  29:/home/jonas/warwick/3dProfilometer/xpcc/ext/freertos/portable/port.cpp ****     Free Software Foundation AND MODIFIED BY the FreeRTOS exception.
  30:/home/jonas/warwick/3dProfilometer/xpcc/ext/freertos/portable/port.cpp ****     >>>NOTE<<< The modification to the GPL is included to allow you to
  31:/home/jonas/warwick/3dProfilometer/xpcc/ext/freertos/portable/port.cpp ****     distribute a combined work that includes FreeRTOS without being obliged to
  32:/home/jonas/warwick/3dProfilometer/xpcc/ext/freertos/portable/port.cpp ****     provide the source code for proprietary components outside of the FreeRTOS
  33:/home/jonas/warwick/3dProfilometer/xpcc/ext/freertos/portable/port.cpp ****     kernel.  FreeRTOS is distributed in the hope that it will be useful, but
  34:/home/jonas/warwick/3dProfilometer/xpcc/ext/freertos/portable/port.cpp ****     WITHOUT ANY WARRANTY; without even the implied warranty of MERCHANTABILITY
  35:/home/jonas/warwick/3dProfilometer/xpcc/ext/freertos/portable/port.cpp ****     or FITNESS FOR A PARTICULAR PURPOSE.  See the GNU General Public License for
  36:/home/jonas/warwick/3dProfilometer/xpcc/ext/freertos/portable/port.cpp ****     more details. You should have received a copy of the GNU General Public
  37:/home/jonas/warwick/3dProfilometer/xpcc/ext/freertos/portable/port.cpp ****     License and the FreeRTOS license exception along with FreeRTOS; if not it
  38:/home/jonas/warwick/3dProfilometer/xpcc/ext/freertos/portable/port.cpp ****     can be viewed here: http://www.freertos.org/a00114.html and also obtained
  39:/home/jonas/warwick/3dProfilometer/xpcc/ext/freertos/portable/port.cpp ****     by writing to Richard Barry, contact details for whom are available on the
  40:/home/jonas/warwick/3dProfilometer/xpcc/ext/freertos/portable/port.cpp ****     FreeRTOS WEB site.
  41:/home/jonas/warwick/3dProfilometer/xpcc/ext/freertos/portable/port.cpp **** 
  42:/home/jonas/warwick/3dProfilometer/xpcc/ext/freertos/portable/port.cpp ****     1 tab == 4 spaces!
  43:/home/jonas/warwick/3dProfilometer/xpcc/ext/freertos/portable/port.cpp **** 
  44:/home/jonas/warwick/3dProfilometer/xpcc/ext/freertos/portable/port.cpp ****     http://www.FreeRTOS.org - Documentation, latest information, license and
  45:/home/jonas/warwick/3dProfilometer/xpcc/ext/freertos/portable/port.cpp ****     contact details.
  46:/home/jonas/warwick/3dProfilometer/xpcc/ext/freertos/portable/port.cpp **** 
  47:/home/jonas/warwick/3dProfilometer/xpcc/ext/freertos/portable/port.cpp ****     http://www.SafeRTOS.com - A version that is certified for use in safety
  48:/home/jonas/warwick/3dProfilometer/xpcc/ext/freertos/portable/port.cpp ****     critical systems.
  49:/home/jonas/warwick/3dProfilometer/xpcc/ext/freertos/portable/port.cpp **** 
  50:/home/jonas/warwick/3dProfilometer/xpcc/ext/freertos/portable/port.cpp ****     http://www.OpenRTOS.com - Commercial support, development, porting,
  51:/home/jonas/warwick/3dProfilometer/xpcc/ext/freertos/portable/port.cpp ****     licensing and training services.
  52:/home/jonas/warwick/3dProfilometer/xpcc/ext/freertos/portable/port.cpp **** */
  53:/home/jonas/warwick/3dProfilometer/xpcc/ext/freertos/portable/port.cpp **** 
  54:/home/jonas/warwick/3dProfilometer/xpcc/ext/freertos/portable/port.cpp **** /*-----------------------------------------------------------
  55:/home/jonas/warwick/3dProfilometer/xpcc/ext/freertos/portable/port.cpp ****  * Implementation of functions defined in portable.h for the ARM CM3 port.
  56:/home/jonas/warwick/3dProfilometer/xpcc/ext/freertos/portable/port.cpp ****  *----------------------------------------------------------*/
  57:/home/jonas/warwick/3dProfilometer/xpcc/ext/freertos/portable/port.cpp **** 
  58:/home/jonas/warwick/3dProfilometer/xpcc/ext/freertos/portable/port.cpp **** /* Scheduler includes. */
  59:/home/jonas/warwick/3dProfilometer/xpcc/ext/freertos/portable/port.cpp **** #include "../FreeRTOS.h"
  60:/home/jonas/warwick/3dProfilometer/xpcc/ext/freertos/portable/port.cpp **** #include "../task.h"
  61:/home/jonas/warwick/3dProfilometer/xpcc/ext/freertos/portable/port.cpp **** 
  62:/home/jonas/warwick/3dProfilometer/xpcc/ext/freertos/portable/port.cpp **** #include <xpcc/architecture/platform/cortex_m3/stm32/systick_timer.hpp>
  63:/home/jonas/warwick/3dProfilometer/xpcc/ext/freertos/portable/port.cpp **** 
  64:/home/jonas/warwick/3dProfilometer/xpcc/ext/freertos/portable/port.cpp **** /* For backward compatibility, ensure configKERNEL_INTERRUPT_PRIORITY is
  65:/home/jonas/warwick/3dProfilometer/xpcc/ext/freertos/portable/port.cpp **** defined.  The value should also ensure backward compatibility.
  66:/home/jonas/warwick/3dProfilometer/xpcc/ext/freertos/portable/port.cpp **** FreeRTOS.org versions prior to V4.4.0 did not include this definition. */
  67:/home/jonas/warwick/3dProfilometer/xpcc/ext/freertos/portable/port.cpp **** #ifndef configKERNEL_INTERRUPT_PRIORITY
  68:/home/jonas/warwick/3dProfilometer/xpcc/ext/freertos/portable/port.cpp **** 	#define configKERNEL_INTERRUPT_PRIORITY 255
  69:/home/jonas/warwick/3dProfilometer/xpcc/ext/freertos/portable/port.cpp **** #endif
  70:/home/jonas/warwick/3dProfilometer/xpcc/ext/freertos/portable/port.cpp **** 
  71:/home/jonas/warwick/3dProfilometer/xpcc/ext/freertos/portable/port.cpp **** /* Constants required to manipulate the NVIC. */
  72:/home/jonas/warwick/3dProfilometer/xpcc/ext/freertos/portable/port.cpp **** #define portNVIC_SYSTICK_CTRL		( ( volatile unsigned long *) 0xe000e010 )
  73:/home/jonas/warwick/3dProfilometer/xpcc/ext/freertos/portable/port.cpp **** #define portNVIC_SYSTICK_LOAD		( ( volatile unsigned long *) 0xe000e014 )
  74:/home/jonas/warwick/3dProfilometer/xpcc/ext/freertos/portable/port.cpp **** #define portNVIC_INT_CTRL			( ( volatile unsigned long *) 0xe000ed04 )
  75:/home/jonas/warwick/3dProfilometer/xpcc/ext/freertos/portable/port.cpp **** #define portNVIC_SYSPRI2			( ( volatile unsigned long *) 0xe000ed20 )
  76:/home/jonas/warwick/3dProfilometer/xpcc/ext/freertos/portable/port.cpp **** #define portNVIC_SYSTICK_CLK		0x00000004
  77:/home/jonas/warwick/3dProfilometer/xpcc/ext/freertos/portable/port.cpp **** #define portNVIC_SYSTICK_INT		0x00000002
  78:/home/jonas/warwick/3dProfilometer/xpcc/ext/freertos/portable/port.cpp **** #define portNVIC_SYSTICK_ENABLE		0x00000001
  79:/home/jonas/warwick/3dProfilometer/xpcc/ext/freertos/portable/port.cpp **** #define portNVIC_PENDSVSET			0x10000000
  80:/home/jonas/warwick/3dProfilometer/xpcc/ext/freertos/portable/port.cpp **** #define portNVIC_PENDSV_PRI			( ( ( unsigned long ) configKERNEL_INTERRUPT_PRIORITY ) << 16 )
  81:/home/jonas/warwick/3dProfilometer/xpcc/ext/freertos/portable/port.cpp **** #define portNVIC_SYSTICK_PRI		( ( ( unsigned long ) configKERNEL_INTERRUPT_PRIORITY ) << 24 )
  82:/home/jonas/warwick/3dProfilometer/xpcc/ext/freertos/portable/port.cpp **** 
  83:/home/jonas/warwick/3dProfilometer/xpcc/ext/freertos/portable/port.cpp **** /* Constants required to set up the initial stack. */
  84:/home/jonas/warwick/3dProfilometer/xpcc/ext/freertos/portable/port.cpp **** #define portINITIAL_XPSR			( 0x01000000 )
  85:/home/jonas/warwick/3dProfilometer/xpcc/ext/freertos/portable/port.cpp **** #define portINITIAL_EXC_RETURN		( 0xFFFFFFFD )
  86:/home/jonas/warwick/3dProfilometer/xpcc/ext/freertos/portable/port.cpp **** 
  87:/home/jonas/warwick/3dProfilometer/xpcc/ext/freertos/portable/port.cpp **** /* Each task maintains its own interrupt status in the critical nesting
  88:/home/jonas/warwick/3dProfilometer/xpcc/ext/freertos/portable/port.cpp **** variable. */
  89:/home/jonas/warwick/3dProfilometer/xpcc/ext/freertos/portable/port.cpp **** static uint32_t uxCriticalNesting = 0xaaaaaaaa;
  90:/home/jonas/warwick/3dProfilometer/xpcc/ext/freertos/portable/port.cpp **** 
  91:/home/jonas/warwick/3dProfilometer/xpcc/ext/freertos/portable/port.cpp **** /*
  92:/home/jonas/warwick/3dProfilometer/xpcc/ext/freertos/portable/port.cpp ****  * Setup the timer to generate the tick interrupts.
  93:/home/jonas/warwick/3dProfilometer/xpcc/ext/freertos/portable/port.cpp ****  */
  94:/home/jonas/warwick/3dProfilometer/xpcc/ext/freertos/portable/port.cpp **** //static void prvSetupTimerInterrupt( void );
  95:/home/jonas/warwick/3dProfilometer/xpcc/ext/freertos/portable/port.cpp **** 
  96:/home/jonas/warwick/3dProfilometer/xpcc/ext/freertos/portable/port.cpp **** /*
  97:/home/jonas/warwick/3dProfilometer/xpcc/ext/freertos/portable/port.cpp ****  * Exception handlers.
  98:/home/jonas/warwick/3dProfilometer/xpcc/ext/freertos/portable/port.cpp ****  */
  99:/home/jonas/warwick/3dProfilometer/xpcc/ext/freertos/portable/port.cpp **** extern "C"
 100:/home/jonas/warwick/3dProfilometer/xpcc/ext/freertos/portable/port.cpp **** void vPortSysTickHandler( void );
 101:/home/jonas/warwick/3dProfilometer/xpcc/ext/freertos/portable/port.cpp **** 
 102:/home/jonas/warwick/3dProfilometer/xpcc/ext/freertos/portable/port.cpp **** /*
 103:/home/jonas/warwick/3dProfilometer/xpcc/ext/freertos/portable/port.cpp ****  * Start first task is a separate function so it can be tested in isolation.
 104:/home/jonas/warwick/3dProfilometer/xpcc/ext/freertos/portable/port.cpp ****  */
 105:/home/jonas/warwick/3dProfilometer/xpcc/ext/freertos/portable/port.cpp **** extern "C"
 106:/home/jonas/warwick/3dProfilometer/xpcc/ext/freertos/portable/port.cpp **** void vPortStartFirstTask(void) __attribute__ ((noreturn));
 107:/home/jonas/warwick/3dProfilometer/xpcc/ext/freertos/portable/port.cpp **** 
 108:/home/jonas/warwick/3dProfilometer/xpcc/ext/freertos/portable/port.cpp **** /*-----------------------------------------------------------*/
 109:/home/jonas/warwick/3dProfilometer/xpcc/ext/freertos/portable/port.cpp **** 
 110:/home/jonas/warwick/3dProfilometer/xpcc/ext/freertos/portable/port.cpp **** /*
 111:/home/jonas/warwick/3dProfilometer/xpcc/ext/freertos/portable/port.cpp ****  * See header file for description.
 112:/home/jonas/warwick/3dProfilometer/xpcc/ext/freertos/portable/port.cpp ****  */
 113:/home/jonas/warwick/3dProfilometer/xpcc/ext/freertos/portable/port.cpp **** extern "C"
 114:/home/jonas/warwick/3dProfilometer/xpcc/ext/freertos/portable/port.cpp **** portSTACK_TYPE *pxPortInitialiseStack( portSTACK_TYPE *pxTopOfStack, pdTASK_CODE pxCode, void *pvPa
 115:/home/jonas/warwick/3dProfilometer/xpcc/ext/freertos/portable/port.cpp **** {
 116:/home/jonas/warwick/3dProfilometer/xpcc/ext/freertos/portable/port.cpp **** 	/* Simulate the stack frame as it would be created by a context switch
 117:/home/jonas/warwick/3dProfilometer/xpcc/ext/freertos/portable/port.cpp **** 	interrupt. */
 118:/home/jonas/warwick/3dProfilometer/xpcc/ext/freertos/portable/port.cpp **** 	pxTopOfStack--; /* Offset added to account for the way the MCU uses the stack on entry/exit of int
 119:/home/jonas/warwick/3dProfilometer/xpcc/ext/freertos/portable/port.cpp **** 	*pxTopOfStack = portINITIAL_XPSR;	/* xPSR */
 120:/home/jonas/warwick/3dProfilometer/xpcc/ext/freertos/portable/port.cpp **** 	pxTopOfStack--;
 121:/home/jonas/warwick/3dProfilometer/xpcc/ext/freertos/portable/port.cpp **** 	*pxTopOfStack = ( portSTACK_TYPE ) pxCode;	/* PC */
 122:/home/jonas/warwick/3dProfilometer/xpcc/ext/freertos/portable/port.cpp **** 	pxTopOfStack--;
 123:/home/jonas/warwick/3dProfilometer/xpcc/ext/freertos/portable/port.cpp **** 	*pxTopOfStack = 0;	/* LR */
 124:/home/jonas/warwick/3dProfilometer/xpcc/ext/freertos/portable/port.cpp **** 	pxTopOfStack -= 5;	/* R12, R3, R2 and R1. */
 125:/home/jonas/warwick/3dProfilometer/xpcc/ext/freertos/portable/port.cpp **** 	*pxTopOfStack = ( portSTACK_TYPE ) pvParameters;	/* R0 */
 126:/home/jonas/warwick/3dProfilometer/xpcc/ext/freertos/portable/port.cpp **** #if defined(STM32F4XX)
 127:/home/jonas/warwick/3dProfilometer/xpcc/ext/freertos/portable/port.cpp **** 	pxTopOfStack -= 9;	/* R14, R11, R10, R9, R8, R7, R6, R5 and R4. */
 128:/home/jonas/warwick/3dProfilometer/xpcc/ext/freertos/portable/port.cpp **** #else
 129:/home/jonas/warwick/3dProfilometer/xpcc/ext/freertos/portable/port.cpp **** 	pxTopOfStack -= 8;	/* R11, R10, R9, R8, R7, R6, R5 and R4. */
 130:/home/jonas/warwick/3dProfilometer/xpcc/ext/freertos/portable/port.cpp **** #endif
 131:/home/jonas/warwick/3dProfilometer/xpcc/ext/freertos/portable/port.cpp **** 	*pxTopOfStack = ( portSTACK_TYPE ) portINITIAL_EXC_RETURN;
 132:/home/jonas/warwick/3dProfilometer/xpcc/ext/freertos/portable/port.cpp **** 	
 133:/home/jonas/warwick/3dProfilometer/xpcc/ext/freertos/portable/port.cpp **** 	return pxTopOfStack;
 134:/home/jonas/warwick/3dProfilometer/xpcc/ext/freertos/portable/port.cpp **** }
 135:/home/jonas/warwick/3dProfilometer/xpcc/ext/freertos/portable/port.cpp **** 
 136:/home/jonas/warwick/3dProfilometer/xpcc/ext/freertos/portable/port.cpp **** /*
 137:/home/jonas/warwick/3dProfilometer/xpcc/ext/freertos/portable/port.cpp ****  * See header file for description.
 138:/home/jonas/warwick/3dProfilometer/xpcc/ext/freertos/portable/port.cpp ****  */
 139:/home/jonas/warwick/3dProfilometer/xpcc/ext/freertos/portable/port.cpp **** extern "C"
 140:/home/jonas/warwick/3dProfilometer/xpcc/ext/freertos/portable/port.cpp **** portBASE_TYPE xPortStartScheduler( void )
 141:/home/jonas/warwick/3dProfilometer/xpcc/ext/freertos/portable/port.cpp **** {
 142:/home/jonas/warwick/3dProfilometer/xpcc/ext/freertos/portable/port.cpp **** 	/* Make PendSV, CallSV the same priority as the kernel. */
 143:/home/jonas/warwick/3dProfilometer/xpcc/ext/freertos/portable/port.cpp **** 	*(portNVIC_SYSPRI2) |= portNVIC_PENDSV_PRI;
 144:/home/jonas/warwick/3dProfilometer/xpcc/ext/freertos/portable/port.cpp **** 	*(portNVIC_SYSPRI2) |= portNVIC_SYSTICK_PRI;
 145:/home/jonas/warwick/3dProfilometer/xpcc/ext/freertos/portable/port.cpp **** 
 146:/home/jonas/warwick/3dProfilometer/xpcc/ext/freertos/portable/port.cpp **** 	xpcc::stm32::SysTickTimer::attachInterrupt(vPortSysTickHandler);
 147:/home/jonas/warwick/3dProfilometer/xpcc/ext/freertos/portable/port.cpp **** 	xpcc::stm32::SysTickTimer::enable();
 148:/home/jonas/warwick/3dProfilometer/xpcc/ext/freertos/portable/port.cpp **** 
 149:/home/jonas/warwick/3dProfilometer/xpcc/ext/freertos/portable/port.cpp **** 	/* Initialize the critical nesting count ready for the first task. */
 150:/home/jonas/warwick/3dProfilometer/xpcc/ext/freertos/portable/port.cpp **** 	uxCriticalNesting = 0;
 151:/home/jonas/warwick/3dProfilometer/xpcc/ext/freertos/portable/port.cpp **** 
 152:/home/jonas/warwick/3dProfilometer/xpcc/ext/freertos/portable/port.cpp **** 	/* Start the first task. */
 153:/home/jonas/warwick/3dProfilometer/xpcc/ext/freertos/portable/port.cpp **** 	vPortStartFirstTask();
 154:/home/jonas/warwick/3dProfilometer/xpcc/ext/freertos/portable/port.cpp **** 
 155:/home/jonas/warwick/3dProfilometer/xpcc/ext/freertos/portable/port.cpp **** 	/* Should not get here! */
 156:/home/jonas/warwick/3dProfilometer/xpcc/ext/freertos/portable/port.cpp **** 	return 0;
 157:/home/jonas/warwick/3dProfilometer/xpcc/ext/freertos/portable/port.cpp **** }
 158:/home/jonas/warwick/3dProfilometer/xpcc/ext/freertos/portable/port.cpp **** /*-----------------------------------------------------------*/
 159:/home/jonas/warwick/3dProfilometer/xpcc/ext/freertos/portable/port.cpp **** extern "C"
 160:/home/jonas/warwick/3dProfilometer/xpcc/ext/freertos/portable/port.cpp **** void vPortEndScheduler( void )
 161:/home/jonas/warwick/3dProfilometer/xpcc/ext/freertos/portable/port.cpp **** {
 162:/home/jonas/warwick/3dProfilometer/xpcc/ext/freertos/portable/port.cpp **** 	/* It is unlikely that the CM3/CM4F port will require this function as there
 163:/home/jonas/warwick/3dProfilometer/xpcc/ext/freertos/portable/port.cpp **** 	is nothing to return to.  */
 164:/home/jonas/warwick/3dProfilometer/xpcc/ext/freertos/portable/port.cpp **** }
 165:/home/jonas/warwick/3dProfilometer/xpcc/ext/freertos/portable/port.cpp **** /*-----------------------------------------------------------*/
 166:/home/jonas/warwick/3dProfilometer/xpcc/ext/freertos/portable/port.cpp **** extern "C"
 167:/home/jonas/warwick/3dProfilometer/xpcc/ext/freertos/portable/port.cpp **** void vPortYieldFromISR( void )
 168:/home/jonas/warwick/3dProfilometer/xpcc/ext/freertos/portable/port.cpp **** {
 169:/home/jonas/warwick/3dProfilometer/xpcc/ext/freertos/portable/port.cpp **** 	/* Set a PendSV to request a context switch. */
 170:/home/jonas/warwick/3dProfilometer/xpcc/ext/freertos/portable/port.cpp **** 	*(portNVIC_INT_CTRL) = portNVIC_PENDSVSET;
 171:/home/jonas/warwick/3dProfilometer/xpcc/ext/freertos/portable/port.cpp **** }
 172:/home/jonas/warwick/3dProfilometer/xpcc/ext/freertos/portable/port.cpp **** /*-----------------------------------------------------------*/
 173:/home/jonas/warwick/3dProfilometer/xpcc/ext/freertos/portable/port.cpp **** extern "C"
 174:/home/jonas/warwick/3dProfilometer/xpcc/ext/freertos/portable/port.cpp **** void vPortEnterCritical( void )
 175:/home/jonas/warwick/3dProfilometer/xpcc/ext/freertos/portable/port.cpp **** {
 176:/home/jonas/warwick/3dProfilometer/xpcc/ext/freertos/portable/port.cpp **** 	portDISABLE_INTERRUPTS();
 177:/home/jonas/warwick/3dProfilometer/xpcc/ext/freertos/portable/port.cpp **** 	uxCriticalNesting++;
 178:/home/jonas/warwick/3dProfilometer/xpcc/ext/freertos/portable/port.cpp **** }
 179:/home/jonas/warwick/3dProfilometer/xpcc/ext/freertos/portable/port.cpp **** /*-----------------------------------------------------------*/
 180:/home/jonas/warwick/3dProfilometer/xpcc/ext/freertos/portable/port.cpp **** extern "C"
 181:/home/jonas/warwick/3dProfilometer/xpcc/ext/freertos/portable/port.cpp **** void vPortExitCritical( void )
 182:/home/jonas/warwick/3dProfilometer/xpcc/ext/freertos/portable/port.cpp **** {
 183:/home/jonas/warwick/3dProfilometer/xpcc/ext/freertos/portable/port.cpp **** 	uxCriticalNesting--;
 184:/home/jonas/warwick/3dProfilometer/xpcc/ext/freertos/portable/port.cpp **** 	if( uxCriticalNesting == 0 )
 185:/home/jonas/warwick/3dProfilometer/xpcc/ext/freertos/portable/port.cpp **** 	{
 186:/home/jonas/warwick/3dProfilometer/xpcc/ext/freertos/portable/port.cpp **** 		portENABLE_INTERRUPTS();
 187:/home/jonas/warwick/3dProfilometer/xpcc/ext/freertos/portable/port.cpp **** 	}
 188:/home/jonas/warwick/3dProfilometer/xpcc/ext/freertos/portable/port.cpp **** }
 189:/home/jonas/warwick/3dProfilometer/xpcc/ext/freertos/portable/port.cpp **** 
 190:/home/jonas/warwick/3dProfilometer/xpcc/ext/freertos/portable/port.cpp **** /*-----------------------------------------------------------*/
 191:/home/jonas/warwick/3dProfilometer/xpcc/ext/freertos/portable/port.cpp **** extern "C"
 192:/home/jonas/warwick/3dProfilometer/xpcc/ext/freertos/portable/port.cpp **** void vPortSysTickHandler(void)
 193:/home/jonas/warwick/3dProfilometer/xpcc/ext/freertos/portable/port.cpp **** {
  28              		.loc 1 193 0
  29              		.cfi_startproc
  30              		@ args = 0, pretend = 0, frame = 0
  31              		@ frame_needed = 0, uses_anonymous_args = 0
  32 0000 08B5     		push	{r3, lr}
  33              	.LCFI0:
  34              		.cfi_def_cfa_offset 8
  35              		.cfi_offset 3, -8
  36              		.cfi_offset 14, -4
  37              	.LBB15:
 194:/home/jonas/warwick/3dProfilometer/xpcc/ext/freertos/portable/port.cpp **** unsigned long ulDummy;
 195:/home/jonas/warwick/3dProfilometer/xpcc/ext/freertos/portable/port.cpp **** 
 196:/home/jonas/warwick/3dProfilometer/xpcc/ext/freertos/portable/port.cpp **** 	/* If using preemption, also force a context switch. */
 197:/home/jonas/warwick/3dProfilometer/xpcc/ext/freertos/portable/port.cpp **** 	#if configUSE_PREEMPTION == 1
 198:/home/jonas/warwick/3dProfilometer/xpcc/ext/freertos/portable/port.cpp **** 		*(portNVIC_INT_CTRL) = portNVIC_PENDSVSET;
  38              		.loc 1 198 0
  39 0002 074B     		ldr	r3, .L2
  40 0004 4FF08052 		mov	r2, #268435456
  41 0008 1A60     		str	r2, [r3, #0]
  42              	.LVL0:
  43              	.LBB16:
  44              	.LBB17:
  45              		.file 2 "/home/jonas/warwick/3dProfilometer/xpcc/ext/freertos/portable/../portable/portmacro.h"
   1:/home/jonas/warwick/3dProfilometer/xpcc/ext/freertos/portable/../portable/portmacro.h **** /*
   2:/home/jonas/warwick/3dProfilometer/xpcc/ext/freertos/portable/../portable/portmacro.h ****     FreeRTOS V7.0.1 - Copyright (C) 2011 Real Time Engineers Ltd.
   3:/home/jonas/warwick/3dProfilometer/xpcc/ext/freertos/portable/../portable/portmacro.h **** 	
   4:/home/jonas/warwick/3dProfilometer/xpcc/ext/freertos/portable/../portable/portmacro.h **** 
   5:/home/jonas/warwick/3dProfilometer/xpcc/ext/freertos/portable/../portable/portmacro.h ****     ***************************************************************************
   6:/home/jonas/warwick/3dProfilometer/xpcc/ext/freertos/portable/../portable/portmacro.h ****      *                                                                       *
   7:/home/jonas/warwick/3dProfilometer/xpcc/ext/freertos/portable/../portable/portmacro.h ****      *    FreeRTOS tutorial books are available in pdf and paperback.        *
   8:/home/jonas/warwick/3dProfilometer/xpcc/ext/freertos/portable/../portable/portmacro.h ****      *    Complete, revised, and edited pdf reference manuals are also       *
   9:/home/jonas/warwick/3dProfilometer/xpcc/ext/freertos/portable/../portable/portmacro.h ****      *    available.                                                         *
  10:/home/jonas/warwick/3dProfilometer/xpcc/ext/freertos/portable/../portable/portmacro.h ****      *                                                                       *
  11:/home/jonas/warwick/3dProfilometer/xpcc/ext/freertos/portable/../portable/portmacro.h ****      *    Purchasing FreeRTOS documentation will not only help you, by       *
  12:/home/jonas/warwick/3dProfilometer/xpcc/ext/freertos/portable/../portable/portmacro.h ****      *    ensuring you get running as quickly as possible and with an        *
  13:/home/jonas/warwick/3dProfilometer/xpcc/ext/freertos/portable/../portable/portmacro.h ****      *    in-depth knowledge of how to use FreeRTOS, it will also help       *
  14:/home/jonas/warwick/3dProfilometer/xpcc/ext/freertos/portable/../portable/portmacro.h ****      *    the FreeRTOS project to continue with its mission of providing     *
  15:/home/jonas/warwick/3dProfilometer/xpcc/ext/freertos/portable/../portable/portmacro.h ****      *    professional grade, cross platform, de facto standard solutions    *
  16:/home/jonas/warwick/3dProfilometer/xpcc/ext/freertos/portable/../portable/portmacro.h ****      *    for microcontrollers - completely free of charge!                  *
  17:/home/jonas/warwick/3dProfilometer/xpcc/ext/freertos/portable/../portable/portmacro.h ****      *                                                                       *
  18:/home/jonas/warwick/3dProfilometer/xpcc/ext/freertos/portable/../portable/portmacro.h ****      *    >>> See http://www.FreeRTOS.org/Documentation for details. <<<     *
  19:/home/jonas/warwick/3dProfilometer/xpcc/ext/freertos/portable/../portable/portmacro.h ****      *                                                                       *
  20:/home/jonas/warwick/3dProfilometer/xpcc/ext/freertos/portable/../portable/portmacro.h ****      *    Thank you for using FreeRTOS, and thank you for your support!      *
  21:/home/jonas/warwick/3dProfilometer/xpcc/ext/freertos/portable/../portable/portmacro.h ****      *                                                                       *
  22:/home/jonas/warwick/3dProfilometer/xpcc/ext/freertos/portable/../portable/portmacro.h ****     ***************************************************************************
  23:/home/jonas/warwick/3dProfilometer/xpcc/ext/freertos/portable/../portable/portmacro.h **** 
  24:/home/jonas/warwick/3dProfilometer/xpcc/ext/freertos/portable/../portable/portmacro.h **** 
  25:/home/jonas/warwick/3dProfilometer/xpcc/ext/freertos/portable/../portable/portmacro.h ****     This file is part of the FreeRTOS distribution.
  26:/home/jonas/warwick/3dProfilometer/xpcc/ext/freertos/portable/../portable/portmacro.h **** 
  27:/home/jonas/warwick/3dProfilometer/xpcc/ext/freertos/portable/../portable/portmacro.h ****     FreeRTOS is free software; you can redistribute it and/or modify it under
  28:/home/jonas/warwick/3dProfilometer/xpcc/ext/freertos/portable/../portable/portmacro.h ****     the terms of the GNU General Public License (version 2) as published by the
  29:/home/jonas/warwick/3dProfilometer/xpcc/ext/freertos/portable/../portable/portmacro.h ****     Free Software Foundation AND MODIFIED BY the FreeRTOS exception.
  30:/home/jonas/warwick/3dProfilometer/xpcc/ext/freertos/portable/../portable/portmacro.h ****     >>>NOTE<<< The modification to the GPL is included to allow you to
  31:/home/jonas/warwick/3dProfilometer/xpcc/ext/freertos/portable/../portable/portmacro.h ****     distribute a combined work that includes FreeRTOS without being obliged to
  32:/home/jonas/warwick/3dProfilometer/xpcc/ext/freertos/portable/../portable/portmacro.h ****     provide the source code for proprietary components outside of the FreeRTOS
  33:/home/jonas/warwick/3dProfilometer/xpcc/ext/freertos/portable/../portable/portmacro.h ****     kernel.  FreeRTOS is distributed in the hope that it will be useful, but
  34:/home/jonas/warwick/3dProfilometer/xpcc/ext/freertos/portable/../portable/portmacro.h ****     WITHOUT ANY WARRANTY; without even the implied warranty of MERCHANTABILITY
  35:/home/jonas/warwick/3dProfilometer/xpcc/ext/freertos/portable/../portable/portmacro.h ****     or FITNESS FOR A PARTICULAR PURPOSE.  See the GNU General Public License for
  36:/home/jonas/warwick/3dProfilometer/xpcc/ext/freertos/portable/../portable/portmacro.h ****     more details. You should have received a copy of the GNU General Public
  37:/home/jonas/warwick/3dProfilometer/xpcc/ext/freertos/portable/../portable/portmacro.h ****     License and the FreeRTOS license exception along with FreeRTOS; if not it
  38:/home/jonas/warwick/3dProfilometer/xpcc/ext/freertos/portable/../portable/portmacro.h ****     can be viewed here: http://www.freertos.org/a00114.html and also obtained
  39:/home/jonas/warwick/3dProfilometer/xpcc/ext/freertos/portable/../portable/portmacro.h ****     by writing to Richard Barry, contact details for whom are available on the
  40:/home/jonas/warwick/3dProfilometer/xpcc/ext/freertos/portable/../portable/portmacro.h ****     FreeRTOS WEB site.
  41:/home/jonas/warwick/3dProfilometer/xpcc/ext/freertos/portable/../portable/portmacro.h **** 
  42:/home/jonas/warwick/3dProfilometer/xpcc/ext/freertos/portable/../portable/portmacro.h ****     1 tab == 4 spaces!
  43:/home/jonas/warwick/3dProfilometer/xpcc/ext/freertos/portable/../portable/portmacro.h **** 
  44:/home/jonas/warwick/3dProfilometer/xpcc/ext/freertos/portable/../portable/portmacro.h ****     http://www.FreeRTOS.org - Documentation, latest information, license and
  45:/home/jonas/warwick/3dProfilometer/xpcc/ext/freertos/portable/../portable/portmacro.h ****     contact details.
  46:/home/jonas/warwick/3dProfilometer/xpcc/ext/freertos/portable/../portable/portmacro.h **** 
  47:/home/jonas/warwick/3dProfilometer/xpcc/ext/freertos/portable/../portable/portmacro.h ****     http://www.SafeRTOS.com - A version that is certified for use in safety
  48:/home/jonas/warwick/3dProfilometer/xpcc/ext/freertos/portable/../portable/portmacro.h ****     critical systems.
  49:/home/jonas/warwick/3dProfilometer/xpcc/ext/freertos/portable/../portable/portmacro.h **** 
  50:/home/jonas/warwick/3dProfilometer/xpcc/ext/freertos/portable/../portable/portmacro.h ****     http://www.OpenRTOS.com - Commercial support, development, porting,
  51:/home/jonas/warwick/3dProfilometer/xpcc/ext/freertos/portable/../portable/portmacro.h ****     licensing and training services.
  52:/home/jonas/warwick/3dProfilometer/xpcc/ext/freertos/portable/../portable/portmacro.h **** */
  53:/home/jonas/warwick/3dProfilometer/xpcc/ext/freertos/portable/../portable/portmacro.h **** 
  54:/home/jonas/warwick/3dProfilometer/xpcc/ext/freertos/portable/../portable/portmacro.h **** 
  55:/home/jonas/warwick/3dProfilometer/xpcc/ext/freertos/portable/../portable/portmacro.h **** #ifndef PORTMACRO_H
  56:/home/jonas/warwick/3dProfilometer/xpcc/ext/freertos/portable/../portable/portmacro.h **** #define PORTMACRO_H
  57:/home/jonas/warwick/3dProfilometer/xpcc/ext/freertos/portable/../portable/portmacro.h **** 
  58:/home/jonas/warwick/3dProfilometer/xpcc/ext/freertos/portable/../portable/portmacro.h **** #include <stdint.h>
  59:/home/jonas/warwick/3dProfilometer/xpcc/ext/freertos/portable/../portable/portmacro.h **** 
  60:/home/jonas/warwick/3dProfilometer/xpcc/ext/freertos/portable/../portable/portmacro.h **** #ifdef __cplusplus
  61:/home/jonas/warwick/3dProfilometer/xpcc/ext/freertos/portable/../portable/portmacro.h **** extern "C" {
  62:/home/jonas/warwick/3dProfilometer/xpcc/ext/freertos/portable/../portable/portmacro.h **** #endif
  63:/home/jonas/warwick/3dProfilometer/xpcc/ext/freertos/portable/../portable/portmacro.h **** 
  64:/home/jonas/warwick/3dProfilometer/xpcc/ext/freertos/portable/../portable/portmacro.h **** /*-----------------------------------------------------------
  65:/home/jonas/warwick/3dProfilometer/xpcc/ext/freertos/portable/../portable/portmacro.h ****  * Port specific definitions.  
  66:/home/jonas/warwick/3dProfilometer/xpcc/ext/freertos/portable/../portable/portmacro.h ****  *
  67:/home/jonas/warwick/3dProfilometer/xpcc/ext/freertos/portable/../portable/portmacro.h ****  * The settings in this file configure FreeRTOS correctly for the
  68:/home/jonas/warwick/3dProfilometer/xpcc/ext/freertos/portable/../portable/portmacro.h ****  * given hardware and compiler.
  69:/home/jonas/warwick/3dProfilometer/xpcc/ext/freertos/portable/../portable/portmacro.h ****  *
  70:/home/jonas/warwick/3dProfilometer/xpcc/ext/freertos/portable/../portable/portmacro.h ****  * These settings should not be altered.
  71:/home/jonas/warwick/3dProfilometer/xpcc/ext/freertos/portable/../portable/portmacro.h ****  *-----------------------------------------------------------
  72:/home/jonas/warwick/3dProfilometer/xpcc/ext/freertos/portable/../portable/portmacro.h ****  */
  73:/home/jonas/warwick/3dProfilometer/xpcc/ext/freertos/portable/../portable/portmacro.h **** 
  74:/home/jonas/warwick/3dProfilometer/xpcc/ext/freertos/portable/../portable/portmacro.h **** /* Type definitions. */
  75:/home/jonas/warwick/3dProfilometer/xpcc/ext/freertos/portable/../portable/portmacro.h **** #define portCHAR		char
  76:/home/jonas/warwick/3dProfilometer/xpcc/ext/freertos/portable/../portable/portmacro.h **** #define portFLOAT		float
  77:/home/jonas/warwick/3dProfilometer/xpcc/ext/freertos/portable/../portable/portmacro.h **** #define portDOUBLE		double
  78:/home/jonas/warwick/3dProfilometer/xpcc/ext/freertos/portable/../portable/portmacro.h **** #define portLONG		long
  79:/home/jonas/warwick/3dProfilometer/xpcc/ext/freertos/portable/../portable/portmacro.h **** #define portSHORT		short
  80:/home/jonas/warwick/3dProfilometer/xpcc/ext/freertos/portable/../portable/portmacro.h **** #define portSTACK_TYPE	uint32_t
  81:/home/jonas/warwick/3dProfilometer/xpcc/ext/freertos/portable/../portable/portmacro.h **** #define portBASE_TYPE	long
  82:/home/jonas/warwick/3dProfilometer/xpcc/ext/freertos/portable/../portable/portmacro.h **** 
  83:/home/jonas/warwick/3dProfilometer/xpcc/ext/freertos/portable/../portable/portmacro.h **** #if( configUSE_16_BIT_TICKS == 1 )
  84:/home/jonas/warwick/3dProfilometer/xpcc/ext/freertos/portable/../portable/portmacro.h **** 	typedef unsigned portSHORT portTickType;
  85:/home/jonas/warwick/3dProfilometer/xpcc/ext/freertos/portable/../portable/portmacro.h **** 	#define portMAX_DELAY ( portTickType ) 0xffff
  86:/home/jonas/warwick/3dProfilometer/xpcc/ext/freertos/portable/../portable/portmacro.h **** #else
  87:/home/jonas/warwick/3dProfilometer/xpcc/ext/freertos/portable/../portable/portmacro.h **** 	typedef unsigned portLONG portTickType;
  88:/home/jonas/warwick/3dProfilometer/xpcc/ext/freertos/portable/../portable/portmacro.h **** 	#define portMAX_DELAY ( portTickType ) 0xffffffff
  89:/home/jonas/warwick/3dProfilometer/xpcc/ext/freertos/portable/../portable/portmacro.h **** #endif
  90:/home/jonas/warwick/3dProfilometer/xpcc/ext/freertos/portable/../portable/portmacro.h **** /*-----------------------------------------------------------*/	
  91:/home/jonas/warwick/3dProfilometer/xpcc/ext/freertos/portable/../portable/portmacro.h **** 
  92:/home/jonas/warwick/3dProfilometer/xpcc/ext/freertos/portable/../portable/portmacro.h **** /* Architecture specifics. */
  93:/home/jonas/warwick/3dProfilometer/xpcc/ext/freertos/portable/../portable/portmacro.h **** #define portSTACK_GROWTH			( -1 )
  94:/home/jonas/warwick/3dProfilometer/xpcc/ext/freertos/portable/../portable/portmacro.h **** #define portTICK_RATE_MS			( ( portTickType ) 1000 / configTICK_RATE_HZ )		
  95:/home/jonas/warwick/3dProfilometer/xpcc/ext/freertos/portable/../portable/portmacro.h **** #define portBYTE_ALIGNMENT			8
  96:/home/jonas/warwick/3dProfilometer/xpcc/ext/freertos/portable/../portable/portmacro.h **** /*-----------------------------------------------------------*/	
  97:/home/jonas/warwick/3dProfilometer/xpcc/ext/freertos/portable/../portable/portmacro.h **** 
  98:/home/jonas/warwick/3dProfilometer/xpcc/ext/freertos/portable/../portable/portmacro.h **** 
  99:/home/jonas/warwick/3dProfilometer/xpcc/ext/freertos/portable/../portable/portmacro.h **** /* Scheduler utilities. */
 100:/home/jonas/warwick/3dProfilometer/xpcc/ext/freertos/portable/../portable/portmacro.h **** extern void vPortYieldFromISR( void );
 101:/home/jonas/warwick/3dProfilometer/xpcc/ext/freertos/portable/../portable/portmacro.h **** 
 102:/home/jonas/warwick/3dProfilometer/xpcc/ext/freertos/portable/../portable/portmacro.h **** #define portYIELD()					vPortYieldFromISR()
 103:/home/jonas/warwick/3dProfilometer/xpcc/ext/freertos/portable/../portable/portmacro.h **** 
 104:/home/jonas/warwick/3dProfilometer/xpcc/ext/freertos/portable/../portable/portmacro.h **** #define portEND_SWITCHING_ISR( xSwitchRequired ) do { if( xSwitchRequired ) { vPortYieldFromISR(); 
 105:/home/jonas/warwick/3dProfilometer/xpcc/ext/freertos/portable/../portable/portmacro.h **** /*-----------------------------------------------------------*/
 106:/home/jonas/warwick/3dProfilometer/xpcc/ext/freertos/portable/../portable/portmacro.h **** 
 107:/home/jonas/warwick/3dProfilometer/xpcc/ext/freertos/portable/../portable/portmacro.h **** 
 108:/home/jonas/warwick/3dProfilometer/xpcc/ext/freertos/portable/../portable/portmacro.h **** /* Critical section management. */
 109:/home/jonas/warwick/3dProfilometer/xpcc/ext/freertos/portable/../portable/portmacro.h **** 
 110:/home/jonas/warwick/3dProfilometer/xpcc/ext/freertos/portable/../portable/portmacro.h **** /* 
 111:/home/jonas/warwick/3dProfilometer/xpcc/ext/freertos/portable/../portable/portmacro.h ****  * Set basepri to portMAX_SYSCALL_INTERRUPT_PRIORITY without effecting other
 112:/home/jonas/warwick/3dProfilometer/xpcc/ext/freertos/portable/../portable/portmacro.h ****  * registers.  r0 is clobbered.
 113:/home/jonas/warwick/3dProfilometer/xpcc/ext/freertos/portable/../portable/portmacro.h ****  */ 
 114:/home/jonas/warwick/3dProfilometer/xpcc/ext/freertos/portable/../portable/portmacro.h **** static inline void portSET_INTERRUPT_MASK(void)
 115:/home/jonas/warwick/3dProfilometer/xpcc/ext/freertos/portable/../portable/portmacro.h **** {
 116:/home/jonas/warwick/3dProfilometer/xpcc/ext/freertos/portable/../portable/portmacro.h **** 	uint32_t reg;
 117:/home/jonas/warwick/3dProfilometer/xpcc/ext/freertos/portable/../portable/portmacro.h **** 	asm volatile (
 118:/home/jonas/warwick/3dProfilometer/xpcc/ext/freertos/portable/../portable/portmacro.h **** 		"mov	%0, %1			\n"
 119:/home/jonas/warwick/3dProfilometer/xpcc/ext/freertos/portable/../portable/portmacro.h **** 		"msr	basepri, %0		\n"
 120:/home/jonas/warwick/3dProfilometer/xpcc/ext/freertos/portable/../portable/portmacro.h **** 			: "=&r"(reg)		/* output operands */
 121:/home/jonas/warwick/3dProfilometer/xpcc/ext/freertos/portable/../portable/portmacro.h **** 			: "i"(configMAX_SYSCALL_INTERRUPT_PRIORITY)	/* input operands */
 122:/home/jonas/warwick/3dProfilometer/xpcc/ext/freertos/portable/../portable/portmacro.h **** 			: 					/* clobber list */
 123:/home/jonas/warwick/3dProfilometer/xpcc/ext/freertos/portable/../portable/portmacro.h **** 	);
  46              		.loc 2 123 0
  47              	@ 123 "/home/jonas/warwick/3dProfilometer/xpcc/ext/freertos/portable/../portable/portmacro.h" 1
  48 000a 4FF0B003 		mov	r3, #176			
  49 000e 83F31188 	msr	basepri, r3		
  50              	
  51              	@ 0 "" 2
  52              	.LVL1:
  53              		.thumb
  54              	.LBE17:
  55              	.LBE16:
 199:/home/jonas/warwick/3dProfilometer/xpcc/ext/freertos/portable/port.cpp **** 	#endif
 200:/home/jonas/warwick/3dProfilometer/xpcc/ext/freertos/portable/port.cpp **** 
 201:/home/jonas/warwick/3dProfilometer/xpcc/ext/freertos/portable/port.cpp **** 	ulDummy = portSET_INTERRUPT_MASK_FROM_ISR();
 202:/home/jonas/warwick/3dProfilometer/xpcc/ext/freertos/portable/port.cpp **** 	{
 203:/home/jonas/warwick/3dProfilometer/xpcc/ext/freertos/portable/port.cpp **** 		vTaskIncrementTick();
  56              		.loc 1 203 0
  57 0012 044B     		ldr	r3, .L2+4
  58 0014 9847     		blx	r3
  59              	.LVL2:
  60              	.LBB18:
  61              	.LBB19:
 124:/home/jonas/warwick/3dProfilometer/xpcc/ext/freertos/portable/../portable/portmacro.h **** }
 125:/home/jonas/warwick/3dProfilometer/xpcc/ext/freertos/portable/../portable/portmacro.h **** 
 126:/home/jonas/warwick/3dProfilometer/xpcc/ext/freertos/portable/../portable/portmacro.h **** /*
 127:/home/jonas/warwick/3dProfilometer/xpcc/ext/freertos/portable/../portable/portmacro.h ****  * Set basepri back to 0 without effective other registers.
 128:/home/jonas/warwick/3dProfilometer/xpcc/ext/freertos/portable/../portable/portmacro.h ****  * r0 is clobbered.
 129:/home/jonas/warwick/3dProfilometer/xpcc/ext/freertos/portable/../portable/portmacro.h ****  */
 130:/home/jonas/warwick/3dProfilometer/xpcc/ext/freertos/portable/../portable/portmacro.h **** static inline void portCLEAR_INTERRUPT_MASK(void)
 131:/home/jonas/warwick/3dProfilometer/xpcc/ext/freertos/portable/../portable/portmacro.h **** {
 132:/home/jonas/warwick/3dProfilometer/xpcc/ext/freertos/portable/../portable/portmacro.h **** 	uint32_t reg;
 133:/home/jonas/warwick/3dProfilometer/xpcc/ext/freertos/portable/../portable/portmacro.h **** 	asm volatile (
 134:/home/jonas/warwick/3dProfilometer/xpcc/ext/freertos/portable/../portable/portmacro.h **** 		"mov	%0, #0			\n"
 135:/home/jonas/warwick/3dProfilometer/xpcc/ext/freertos/portable/../portable/portmacro.h **** 		"msr	basepri, %0		\n"
 136:/home/jonas/warwick/3dProfilometer/xpcc/ext/freertos/portable/../portable/portmacro.h **** 			: "=&r"(reg)		/* output operands */
 137:/home/jonas/warwick/3dProfilometer/xpcc/ext/freertos/portable/../portable/portmacro.h **** 			: 					/* input operands */
 138:/home/jonas/warwick/3dProfilometer/xpcc/ext/freertos/portable/../portable/portmacro.h **** 			: 					/* clobber list */
 139:/home/jonas/warwick/3dProfilometer/xpcc/ext/freertos/portable/../portable/portmacro.h **** 	);
  62              		.loc 2 139 0
  63              	@ 139 "/home/jonas/warwick/3dProfilometer/xpcc/ext/freertos/portable/../portable/portmacro.h" 1
  64 0016 4FF00003 		mov	r3, #0			
  65 001a 83F31188 	msr	basepri, r3		
  66              	
  67              	@ 0 "" 2
  68              	.LVL3:
  69              		.thumb
  70 001e 08BD     		pop	{r3, pc}
  71              	.L3:
  72              		.align	2
  73              	.L2:
  74 0020 04ED00E0 		.word	-536810236
  75 0024 00000000 		.word	vTaskIncrementTick
  76              	.LBE19:
  77              	.LBE18:
  78              	.LBE15:
  79              		.cfi_endproc
  80              	.LFE9:
  82              		.section	.text.pxPortInitialiseStack,"ax",%progbits
  83              		.align	2
  84              		.global	pxPortInitialiseStack
  85              		.thumb
  86              		.thumb_func
  88              	pxPortInitialiseStack:
  89              	.LFB3:
 115:/home/jonas/warwick/3dProfilometer/xpcc/ext/freertos/portable/port.cpp **** {
  90              		.loc 1 115 0
  91              		.cfi_startproc
  92              		@ args = 0, pretend = 0, frame = 0
  93              		@ frame_needed = 0, uses_anonymous_args = 0
  94              		@ link register save eliminated.
  95              	.LVL4:
  96 0000 0346     		mov	r3, r0
  97              	.LVL5:
  98 0002 10B4     		push	{r4}
  99              	.LCFI1:
 100              		.cfi_def_cfa_offset 4
 101              		.cfi_offset 4, -4
 119:/home/jonas/warwick/3dProfilometer/xpcc/ext/freertos/portable/port.cpp **** 	*pxTopOfStack = portINITIAL_XPSR;	/* xPSR */
 102              		.loc 1 119 0
 103 0004 4FF08074 		mov	r4, #16777216
 121:/home/jonas/warwick/3dProfilometer/xpcc/ext/freertos/portable/port.cpp **** 	*pxTopOfStack = ( portSTACK_TYPE ) pxCode;	/* PC */
 104              		.loc 1 121 0
 105 0008 03E91200 		stmdb	r3, {r1, r4}
 106              	.LVL6:
 123:/home/jonas/warwick/3dProfilometer/xpcc/ext/freertos/portable/port.cpp **** 	*pxTopOfStack = 0;	/* LR */
 107              		.loc 1 123 0
 108 000c 0021     		movs	r1, #0
 109              	.LVL7:
 110 000e 43F80C1C 		str	r1, [r3, #-12]
 111              	.LVL8:
 125:/home/jonas/warwick/3dProfilometer/xpcc/ext/freertos/portable/port.cpp **** 	*pxTopOfStack = ( portSTACK_TYPE ) pvParameters;	/* R0 */
 112              		.loc 1 125 0
 113 0012 43F8202C 		str	r2, [r3, #-32]
 114              	.LVL9:
 131:/home/jonas/warwick/3dProfilometer/xpcc/ext/freertos/portable/port.cpp **** 	*pxTopOfStack = ( portSTACK_TYPE ) portINITIAL_EXC_RETURN;
 115              		.loc 1 131 0
 116 0016 6FF00203 		mvn	r3, #2
 117 001a 40F8443D 		str	r3, [r0, #-68]!
 118              	.LVL10:
 134:/home/jonas/warwick/3dProfilometer/xpcc/ext/freertos/portable/port.cpp **** }
 119              		.loc 1 134 0
 120 001e 10BC     		pop	{r4}
 121 0020 7047     		bx	lr
 122              		.cfi_endproc
 123              	.LFE3:
 125 0022 00BF     		.section	.text.xPortStartScheduler,"ax",%progbits
 126              		.align	2
 127              		.global	xPortStartScheduler
 128              		.thumb
 129              		.thumb_func
 131              	xPortStartScheduler:
 132              	.LFB4:
 141:/home/jonas/warwick/3dProfilometer/xpcc/ext/freertos/portable/port.cpp **** {
 133              		.loc 1 141 0
 134              		.cfi_startproc
 135              		@ args = 0, pretend = 0, frame = 0
 136              		@ frame_needed = 0, uses_anonymous_args = 0
 137 0000 08B5     		push	{r3, lr}
 138              	.LCFI2:
 139              		.cfi_def_cfa_offset 8
 140              		.cfi_offset 3, -8
 141              		.cfi_offset 14, -4
 143:/home/jonas/warwick/3dProfilometer/xpcc/ext/freertos/portable/port.cpp **** 	*(portNVIC_SYSPRI2) |= portNVIC_PENDSV_PRI;
 142              		.loc 1 143 0
 143 0002 0A4B     		ldr	r3, .L6
 146:/home/jonas/warwick/3dProfilometer/xpcc/ext/freertos/portable/port.cpp **** 	xpcc::stm32::SysTickTimer::attachInterrupt(vPortSysTickHandler);
 144              		.loc 1 146 0
 145 0004 0A48     		ldr	r0, .L6+4
 143:/home/jonas/warwick/3dProfilometer/xpcc/ext/freertos/portable/port.cpp **** 	*(portNVIC_SYSPRI2) |= portNVIC_PENDSV_PRI;
 146              		.loc 1 143 0
 147 0006 1A68     		ldr	r2, [r3, #0]
 148 0008 42F47002 		orr	r2, r2, #15728640
 149 000c 1A60     		str	r2, [r3, #0]
 144:/home/jonas/warwick/3dProfilometer/xpcc/ext/freertos/portable/port.cpp **** 	*(portNVIC_SYSPRI2) |= portNVIC_SYSTICK_PRI;
 150              		.loc 1 144 0
 151 000e 1A68     		ldr	r2, [r3, #0]
 152 0010 42F07042 		orr	r2, r2, #-268435456
 153 0014 1A60     		str	r2, [r3, #0]
 146:/home/jonas/warwick/3dProfilometer/xpcc/ext/freertos/portable/port.cpp **** 	xpcc::stm32::SysTickTimer::attachInterrupt(vPortSysTickHandler);
 154              		.loc 1 146 0
 155 0016 074B     		ldr	r3, .L6+8
 156 0018 9847     		blx	r3
 157              	.LVL11:
 147:/home/jonas/warwick/3dProfilometer/xpcc/ext/freertos/portable/port.cpp **** 	xpcc::stm32::SysTickTimer::enable();
 158              		.loc 1 147 0
 159 001a 074B     		ldr	r3, .L6+12
 160 001c 0748     		ldr	r0, .L6+16
 161 001e 9847     		blx	r3
 162              	.LVL12:
 150:/home/jonas/warwick/3dProfilometer/xpcc/ext/freertos/portable/port.cpp **** 	uxCriticalNesting = 0;
 163              		.loc 1 150 0
 164 0020 074B     		ldr	r3, .L6+20
 165 0022 0022     		movs	r2, #0
 166 0024 1A60     		str	r2, [r3, #0]
 153:/home/jonas/warwick/3dProfilometer/xpcc/ext/freertos/portable/port.cpp **** 	vPortStartFirstTask();
 167              		.loc 1 153 0
 168 0026 074B     		ldr	r3, .L6+24
 169 0028 9847     		blx	r3
 170              	.LVL13:
 171              	.L7:
 172 002a 00BF     		.align	2
 173              	.L6:
 174 002c 20ED00E0 		.word	-536810208
 175 0030 00000000 		.word	vPortSysTickHandler
 176 0034 00000000 		.word	_ZN4xpcc5stm3212SysTickTimer15attachInterruptEPFvvE
 177 0038 00000000 		.word	_ZN4xpcc5stm3212SysTickTimer6enableEm
 178 003c 3F900200 		.word	167999
 179 0040 00000000 		.word	.LANCHOR0
 180 0044 00000000 		.word	vPortStartFirstTask
 181              		.cfi_endproc
 182              	.LFE4:
 184              		.section	.text.vPortEndScheduler,"ax",%progbits
 185              		.align	2
 186              		.global	vPortEndScheduler
 187              		.thumb
 188              		.thumb_func
 190              	vPortEndScheduler:
 191              	.LFB5:
 161:/home/jonas/warwick/3dProfilometer/xpcc/ext/freertos/portable/port.cpp **** {
 192              		.loc 1 161 0
 193              		.cfi_startproc
 194              		@ args = 0, pretend = 0, frame = 0
 195              		@ frame_needed = 0, uses_anonymous_args = 0
 196              		@ link register save eliminated.
 197 0000 7047     		bx	lr
 198              		.cfi_endproc
 199              	.LFE5:
 201 0002 00BF     		.section	.text.vPortYieldFromISR,"ax",%progbits
 202              		.align	2
 203              		.global	vPortYieldFromISR
 204              		.thumb
 205              		.thumb_func
 207              	vPortYieldFromISR:
 208              	.LFB6:
 168:/home/jonas/warwick/3dProfilometer/xpcc/ext/freertos/portable/port.cpp **** {
 209              		.loc 1 168 0
 210              		.cfi_startproc
 211              		@ args = 0, pretend = 0, frame = 0
 212              		@ frame_needed = 0, uses_anonymous_args = 0
 213              		@ link register save eliminated.
 170:/home/jonas/warwick/3dProfilometer/xpcc/ext/freertos/portable/port.cpp **** 	*(portNVIC_INT_CTRL) = portNVIC_PENDSVSET;
 214              		.loc 1 170 0
 215 0000 024B     		ldr	r3, .L10
 216 0002 4FF08052 		mov	r2, #268435456
 217 0006 1A60     		str	r2, [r3, #0]
 218 0008 7047     		bx	lr
 219              	.L11:
 220 000a 00BF     		.align	2
 221              	.L10:
 222 000c 04ED00E0 		.word	-536810236
 223              		.cfi_endproc
 224              	.LFE6:
 226              		.section	.text.vPortEnterCritical,"ax",%progbits
 227              		.align	2
 228              		.global	vPortEnterCritical
 229              		.thumb
 230              		.thumb_func
 232              	vPortEnterCritical:
 233              	.LFB7:
 175:/home/jonas/warwick/3dProfilometer/xpcc/ext/freertos/portable/port.cpp **** {
 234              		.loc 1 175 0
 235              		.cfi_startproc
 236              		@ args = 0, pretend = 0, frame = 0
 237              		@ frame_needed = 0, uses_anonymous_args = 0
 238              		@ link register save eliminated.
 239              	.LBB20:
 240              	.LBB21:
 123:/home/jonas/warwick/3dProfilometer/xpcc/ext/freertos/portable/../portable/portmacro.h **** 	);
 241              		.loc 2 123 0
 242              	@ 123 "/home/jonas/warwick/3dProfilometer/xpcc/ext/freertos/portable/../portable/portmacro.h" 1
 243 0000 4FF0B003 		mov	r3, #176			
 244 0004 83F31188 	msr	basepri, r3		
 245              	
 246              	@ 0 "" 2
 247              	.LVL14:
 248              		.thumb
 249              	.LBE21:
 250              	.LBE20:
 177:/home/jonas/warwick/3dProfilometer/xpcc/ext/freertos/portable/port.cpp **** 	uxCriticalNesting++;
 251              		.loc 1 177 0
 252 0008 024B     		ldr	r3, .L13
 253 000a 1A68     		ldr	r2, [r3, #0]
 254 000c 0132     		adds	r2, r2, #1
 255 000e 1A60     		str	r2, [r3, #0]
 256 0010 7047     		bx	lr
 257              	.L14:
 258 0012 00BF     		.align	2
 259              	.L13:
 260 0014 00000000 		.word	.LANCHOR0
 261              		.cfi_endproc
 262              	.LFE7:
 264              		.section	.text.vPortExitCritical,"ax",%progbits
 265              		.align	2
 266              		.global	vPortExitCritical
 267              		.thumb
 268              		.thumb_func
 270              	vPortExitCritical:
 271              	.LFB8:
 182:/home/jonas/warwick/3dProfilometer/xpcc/ext/freertos/portable/port.cpp **** {
 272              		.loc 1 182 0
 273              		.cfi_startproc
 274              		@ args = 0, pretend = 0, frame = 0
 275              		@ frame_needed = 0, uses_anonymous_args = 0
 276              		@ link register save eliminated.
 183:/home/jonas/warwick/3dProfilometer/xpcc/ext/freertos/portable/port.cpp **** 	uxCriticalNesting--;
 277              		.loc 1 183 0
 278 0000 044A     		ldr	r2, .L18
 279 0002 1368     		ldr	r3, [r2, #0]
 280 0004 013B     		subs	r3, r3, #1
 281 0006 1360     		str	r3, [r2, #0]
 184:/home/jonas/warwick/3dProfilometer/xpcc/ext/freertos/portable/port.cpp **** 	if( uxCriticalNesting == 0 )
 282              		.loc 1 184 0
 283 0008 1BB9     		cbnz	r3, .L15
 284              	.LBB22:
 285              	.LBB23:
 286              		.loc 2 139 0
 287              	@ 139 "/home/jonas/warwick/3dProfilometer/xpcc/ext/freertos/portable/../portable/portmacro.h" 1
 288 000a 4FF00003 		mov	r3, #0			
 289 000e 83F31188 	msr	basepri, r3		
 290              	
 291              	@ 0 "" 2
 292              	.LVL15:
 293              		.thumb
 294              	.L15:
 295 0012 7047     		bx	lr
 296              	.L19:
 297              		.align	2
 298              	.L18:
 299 0014 00000000 		.word	.LANCHOR0
 300              	.LBE23:
 301              	.LBE22:
 302              		.cfi_endproc
 303              	.LFE8:
 305              		.section	.data._ZL17uxCriticalNesting,"aw",%progbits
 306              		.align	2
 307              		.set	.LANCHOR0,. + 0
 310              	_ZL17uxCriticalNesting:
 311 0000 AAAAAAAA 		.word	-1431655766
 312              		.text
 313              	.Letext0:
 314              		.file 3 "/home/jonas/warwick/3dProfilometer/xpcc/ext/freertos/portable/../projdefs.h"
 315              		.file 4 "/opt/arm-2012.09/bin/../lib/gcc/arm-none-eabi/4.7.2/../../../../arm-none-eabi/include/std
 316              		.file 5 "/home/jonas/warwick/3dProfilometer/xpcc/src/xpcc/architecture/platform/cortex_m3/stm32/co