   1              		.syntax unified
   2              		.cpu cortex-m4
   3              		.eabi_attribute 27, 3
   4              		.fpu fpv4-sp-d16
   5              		.eabi_attribute 20, 1
   6              		.eabi_attribute 21, 1
   7              		.eabi_attribute 23, 3
   8              		.eabi_attribute 24, 1
   9              		.eabi_attribute 25, 1
  10              		.eabi_attribute 26, 1
  11              		.eabi_attribute 30, 2
  12              		.eabi_attribute 34, 1
  13              		.eabi_attribute 18, 4
  14              		.thumb
  15              		.file	"startup.c"
  16              		.text
  17              	.Ltext0:
  18              		.cfi_sections	.debug_frame
  19              		.section	.text.defaultHandler,"ax",%progbits
  20              		.align	2
  21              		.global	defaultHandler
  22              		.thumb
  23              		.thumb_func
  25              	defaultHandler:
  26              	.LFB111:
  27              		.file 1 "/home/jonas/warwick/3dProfilometer/xpcc/src/xpcc/architecture/platform/cortex_m3/stm32/st
   1:/home/jonas/warwick/3dProfilometer/xpcc/src/xpcc/architecture/platform/cortex_m3/stm32/stm32f2_4/startup/startup.c **** // coding: utf-8
   2:/home/jonas/warwick/3dProfilometer/xpcc/src/xpcc/architecture/platform/cortex_m3/stm32/stm32f2_4/startup/startup.c **** // ----------------------------------------------------------------------------
   3:/home/jonas/warwick/3dProfilometer/xpcc/src/xpcc/architecture/platform/cortex_m3/stm32/stm32f2_4/startup/startup.c **** /* Copyright (c) 2011, Roboterclub Aachen e.V.
   4:/home/jonas/warwick/3dProfilometer/xpcc/src/xpcc/architecture/platform/cortex_m3/stm32/stm32f2_4/startup/startup.c ****  * All rights reserved.
   5:/home/jonas/warwick/3dProfilometer/xpcc/src/xpcc/architecture/platform/cortex_m3/stm32/stm32f2_4/startup/startup.c ****  *
   6:/home/jonas/warwick/3dProfilometer/xpcc/src/xpcc/architecture/platform/cortex_m3/stm32/stm32f2_4/startup/startup.c ****  * Redistribution and use in source and binary forms, with or without
   7:/home/jonas/warwick/3dProfilometer/xpcc/src/xpcc/architecture/platform/cortex_m3/stm32/stm32f2_4/startup/startup.c ****  * modification, are permitted provided that the following conditions are met:
   8:/home/jonas/warwick/3dProfilometer/xpcc/src/xpcc/architecture/platform/cortex_m3/stm32/stm32f2_4/startup/startup.c ****  *
   9:/home/jonas/warwick/3dProfilometer/xpcc/src/xpcc/architecture/platform/cortex_m3/stm32/stm32f2_4/startup/startup.c ****  *	 * Redistributions of source code must retain the above copyright
  10:/home/jonas/warwick/3dProfilometer/xpcc/src/xpcc/architecture/platform/cortex_m3/stm32/stm32f2_4/startup/startup.c ****  *	   notice, this list of conditions and the following disclaimer.
  11:/home/jonas/warwick/3dProfilometer/xpcc/src/xpcc/architecture/platform/cortex_m3/stm32/stm32f2_4/startup/startup.c ****  *	 * Redistributions in binary form must reproduce the above copyright
  12:/home/jonas/warwick/3dProfilometer/xpcc/src/xpcc/architecture/platform/cortex_m3/stm32/stm32f2_4/startup/startup.c ****  *	   notice, this list of conditions and the following disclaimer in the
  13:/home/jonas/warwick/3dProfilometer/xpcc/src/xpcc/architecture/platform/cortex_m3/stm32/stm32f2_4/startup/startup.c ****  *	   documentation and/or other materials provided with the distribution.
  14:/home/jonas/warwick/3dProfilometer/xpcc/src/xpcc/architecture/platform/cortex_m3/stm32/stm32f2_4/startup/startup.c ****  *	 * Neither the name of the Roboterclub Aachen e.V. nor the
  15:/home/jonas/warwick/3dProfilometer/xpcc/src/xpcc/architecture/platform/cortex_m3/stm32/stm32f2_4/startup/startup.c ****  *	   names of its contributors may be used to endorse or promote products
  16:/home/jonas/warwick/3dProfilometer/xpcc/src/xpcc/architecture/platform/cortex_m3/stm32/stm32f2_4/startup/startup.c ****  *	   derived from this software without specific prior written permission.
  17:/home/jonas/warwick/3dProfilometer/xpcc/src/xpcc/architecture/platform/cortex_m3/stm32/stm32f2_4/startup/startup.c ****  *
  18:/home/jonas/warwick/3dProfilometer/xpcc/src/xpcc/architecture/platform/cortex_m3/stm32/stm32f2_4/startup/startup.c ****  * THIS SOFTWARE IS PROVIDED BY ROBOTERCLUB AACHEN E.V. ''AS IS'' AND ANY
  19:/home/jonas/warwick/3dProfilometer/xpcc/src/xpcc/architecture/platform/cortex_m3/stm32/stm32f2_4/startup/startup.c ****  * EXPRESS OR IMPLIED WARRANTIES, INCLUDING, BUT NOT LIMITED TO, THE IMPLIED
  20:/home/jonas/warwick/3dProfilometer/xpcc/src/xpcc/architecture/platform/cortex_m3/stm32/stm32f2_4/startup/startup.c ****  * WARRANTIES OF MERCHANTABILITY AND FITNESS FOR A PARTICULAR PURPOSE ARE
  21:/home/jonas/warwick/3dProfilometer/xpcc/src/xpcc/architecture/platform/cortex_m3/stm32/stm32f2_4/startup/startup.c ****  * DISCLAIMED. IN NO EVENT SHALL ROBOTERCLUB AACHEN E.V. BE LIABLE FOR ANY
  22:/home/jonas/warwick/3dProfilometer/xpcc/src/xpcc/architecture/platform/cortex_m3/stm32/stm32f2_4/startup/startup.c ****  * DIRECT, INDIRECT, INCIDENTAL, SPECIAL, EXEMPLARY, OR CONSEQUENTIAL DAMAGES
  23:/home/jonas/warwick/3dProfilometer/xpcc/src/xpcc/architecture/platform/cortex_m3/stm32/stm32f2_4/startup/startup.c ****  * (INCLUDING, BUT NOT LIMITED TO, PROCUREMENT OF SUBSTITUTE GOODS OR SERVICES;
  24:/home/jonas/warwick/3dProfilometer/xpcc/src/xpcc/architecture/platform/cortex_m3/stm32/stm32f2_4/startup/startup.c ****  * LOSS OF USE, DATA, OR PROFITS; OR BUSINESS INTERRUPTION) HOWEVER CAUSED AND
  25:/home/jonas/warwick/3dProfilometer/xpcc/src/xpcc/architecture/platform/cortex_m3/stm32/stm32f2_4/startup/startup.c ****  * ON ANY THEORY OF LIABILITY, WHETHER IN CONTRACT, STRICT LIABILITY, OR TORT
  26:/home/jonas/warwick/3dProfilometer/xpcc/src/xpcc/architecture/platform/cortex_m3/stm32/stm32f2_4/startup/startup.c ****  * (INCLUDING NEGLIGENCE OR OTHERWISE) ARISING IN ANY WAY OUT OF THE USE OF
  27:/home/jonas/warwick/3dProfilometer/xpcc/src/xpcc/architecture/platform/cortex_m3/stm32/stm32f2_4/startup/startup.c ****  * THIS SOFTWARE, EVEN IF ADVISED OF THE POSSIBILITY OF SUCH DAMAGE.
  28:/home/jonas/warwick/3dProfilometer/xpcc/src/xpcc/architecture/platform/cortex_m3/stm32/stm32f2_4/startup/startup.c ****  */
  29:/home/jonas/warwick/3dProfilometer/xpcc/src/xpcc/architecture/platform/cortex_m3/stm32/stm32f2_4/startup/startup.c **** // ----------------------------------------------------------------------------
  30:/home/jonas/warwick/3dProfilometer/xpcc/src/xpcc/architecture/platform/cortex_m3/stm32/stm32f2_4/startup/startup.c **** 
  31:/home/jonas/warwick/3dProfilometer/xpcc/src/xpcc/architecture/platform/cortex_m3/stm32/stm32f2_4/startup/startup.c **** #include <stdint.h>
  32:/home/jonas/warwick/3dProfilometer/xpcc/src/xpcc/architecture/platform/cortex_m3/stm32/stm32f2_4/startup/startup.c **** #include <xpcc/architecture/utils.hpp>
  33:/home/jonas/warwick/3dProfilometer/xpcc/src/xpcc/architecture/platform/cortex_m3/stm32/stm32f2_4/startup/startup.c **** 
  34:/home/jonas/warwick/3dProfilometer/xpcc/src/xpcc/architecture/platform/cortex_m3/stm32/stm32f2_4/startup/startup.c **** #if defined(STM32F2XX)
  35:/home/jonas/warwick/3dProfilometer/xpcc/src/xpcc/architecture/platform/cortex_m3/stm32/stm32f2_4/startup/startup.c **** #	include <stm32f2xx.h>
  36:/home/jonas/warwick/3dProfilometer/xpcc/src/xpcc/architecture/platform/cortex_m3/stm32/stm32f2_4/startup/startup.c **** #elif defined(STM32F4XX)
  37:/home/jonas/warwick/3dProfilometer/xpcc/src/xpcc/architecture/platform/cortex_m3/stm32/stm32f2_4/startup/startup.c **** #	include <stm32f4xx.h>
  38:/home/jonas/warwick/3dProfilometer/xpcc/src/xpcc/architecture/platform/cortex_m3/stm32/stm32f2_4/startup/startup.c **** #endif
  39:/home/jonas/warwick/3dProfilometer/xpcc/src/xpcc/architecture/platform/cortex_m3/stm32/stm32f2_4/startup/startup.c **** 
  40:/home/jonas/warwick/3dProfilometer/xpcc/src/xpcc/architecture/platform/cortex_m3/stm32/stm32f2_4/startup/startup.c **** #include "xpcc_config.hpp"
  41:/home/jonas/warwick/3dProfilometer/xpcc/src/xpcc/architecture/platform/cortex_m3/stm32/stm32f2_4/startup/startup.c **** 
  42:/home/jonas/warwick/3dProfilometer/xpcc/src/xpcc/architecture/platform/cortex_m3/stm32/stm32f2_4/startup/startup.c **** // ----------------------------------------------------------------------------
  43:/home/jonas/warwick/3dProfilometer/xpcc/src/xpcc/architecture/platform/cortex_m3/stm32/stm32f2_4/startup/startup.c **** #define FLASH_WAIT_STATE_0		0x0
  44:/home/jonas/warwick/3dProfilometer/xpcc/src/xpcc/architecture/platform/cortex_m3/stm32/stm32f2_4/startup/startup.c **** #define FLASH_WAIT_STATE_1		0x1
  45:/home/jonas/warwick/3dProfilometer/xpcc/src/xpcc/architecture/platform/cortex_m3/stm32/stm32f2_4/startup/startup.c **** #define FLASH_WAIT_STATE_2		0x2
  46:/home/jonas/warwick/3dProfilometer/xpcc/src/xpcc/architecture/platform/cortex_m3/stm32/stm32f2_4/startup/startup.c **** #define FLASH_WAIT_STATE_3		0x3
  47:/home/jonas/warwick/3dProfilometer/xpcc/src/xpcc/architecture/platform/cortex_m3/stm32/stm32f2_4/startup/startup.c **** #define FLASH_WAIT_STATE_4		0x4
  48:/home/jonas/warwick/3dProfilometer/xpcc/src/xpcc/architecture/platform/cortex_m3/stm32/stm32f2_4/startup/startup.c **** #define FLASH_WAIT_STATE_5		0x5
  49:/home/jonas/warwick/3dProfilometer/xpcc/src/xpcc/architecture/platform/cortex_m3/stm32/stm32f2_4/startup/startup.c **** #define FLASH_WAIT_STATE_6		0x6
  50:/home/jonas/warwick/3dProfilometer/xpcc/src/xpcc/architecture/platform/cortex_m3/stm32/stm32f2_4/startup/startup.c **** #define FLASH_WAIT_STATE_7		0x7
  51:/home/jonas/warwick/3dProfilometer/xpcc/src/xpcc/architecture/platform/cortex_m3/stm32/stm32f2_4/startup/startup.c **** 
  52:/home/jonas/warwick/3dProfilometer/xpcc/src/xpcc/architecture/platform/cortex_m3/stm32/stm32f2_4/startup/startup.c **** #define NR_INTERRUPTS 82
  53:/home/jonas/warwick/3dProfilometer/xpcc/src/xpcc/architecture/platform/cortex_m3/stm32/stm32f2_4/startup/startup.c **** 
  54:/home/jonas/warwick/3dProfilometer/xpcc/src/xpcc/architecture/platform/cortex_m3/stm32/stm32f2_4/startup/startup.c **** // ----------------------------------------------------------------------------
  55:/home/jonas/warwick/3dProfilometer/xpcc/src/xpcc/architecture/platform/cortex_m3/stm32/stm32f2_4/startup/startup.c **** /*
  56:/home/jonas/warwick/3dProfilometer/xpcc/src/xpcc/architecture/platform/cortex_m3/stm32/stm32f2_4/startup/startup.c ****  * Provide weak aliases for each Exception handler to defaultHandler.
  57:/home/jonas/warwick/3dProfilometer/xpcc/src/xpcc/architecture/platform/cortex_m3/stm32/stm32f2_4/startup/startup.c ****  * As they are weak aliases, any function with the same name will override
  58:/home/jonas/warwick/3dProfilometer/xpcc/src/xpcc/architecture/platform/cortex_m3/stm32/stm32f2_4/startup/startup.c ****  * this definition.
  59:/home/jonas/warwick/3dProfilometer/xpcc/src/xpcc/architecture/platform/cortex_m3/stm32/stm32f2_4/startup/startup.c ****  */
  60:/home/jonas/warwick/3dProfilometer/xpcc/src/xpcc/architecture/platform/cortex_m3/stm32/stm32f2_4/startup/startup.c **** void Reset_Handler(void);
  61:/home/jonas/warwick/3dProfilometer/xpcc/src/xpcc/architecture/platform/cortex_m3/stm32/stm32f2_4/startup/startup.c **** void NMI_Handler(void)				__attribute__ ((weak, alias("defaultHandler")));
  62:/home/jonas/warwick/3dProfilometer/xpcc/src/xpcc/architecture/platform/cortex_m3/stm32/stm32f2_4/startup/startup.c **** void HardFault_Handler(void);
  63:/home/jonas/warwick/3dProfilometer/xpcc/src/xpcc/architecture/platform/cortex_m3/stm32/stm32f2_4/startup/startup.c **** void MemManage_Handler(void)		__attribute__ ((weak, alias("defaultHandler")));
  64:/home/jonas/warwick/3dProfilometer/xpcc/src/xpcc/architecture/platform/cortex_m3/stm32/stm32f2_4/startup/startup.c **** void BusFault_Handler(void)			__attribute__ ((weak, alias("defaultHandler")));
  65:/home/jonas/warwick/3dProfilometer/xpcc/src/xpcc/architecture/platform/cortex_m3/stm32/stm32f2_4/startup/startup.c **** void UsageFault_Handler(void)		__attribute__ ((weak, alias("defaultHandler")));
  66:/home/jonas/warwick/3dProfilometer/xpcc/src/xpcc/architecture/platform/cortex_m3/stm32/stm32f2_4/startup/startup.c **** void SVC_Handler(void)				__attribute__ ((weak, alias("defaultHandler")));
  67:/home/jonas/warwick/3dProfilometer/xpcc/src/xpcc/architecture/platform/cortex_m3/stm32/stm32f2_4/startup/startup.c **** void DebugMon_Handler(void)			__attribute__ ((weak, alias("defaultHandler")));
  68:/home/jonas/warwick/3dProfilometer/xpcc/src/xpcc/architecture/platform/cortex_m3/stm32/stm32f2_4/startup/startup.c **** void PendSV_Handler(void)			__attribute__ ((weak, alias("defaultHandler")));
  69:/home/jonas/warwick/3dProfilometer/xpcc/src/xpcc/architecture/platform/cortex_m3/stm32/stm32f2_4/startup/startup.c **** void SysTick_Handler(void)			__attribute__ ((weak, alias("defaultHandler")));
  70:/home/jonas/warwick/3dProfilometer/xpcc/src/xpcc/architecture/platform/cortex_m3/stm32/stm32f2_4/startup/startup.c **** 
  71:/home/jonas/warwick/3dProfilometer/xpcc/src/xpcc/architecture/platform/cortex_m3/stm32/stm32f2_4/startup/startup.c **** void WWDG_IRQHandler(void)			__attribute__ ((weak, alias("defaultHandler")));
  72:/home/jonas/warwick/3dProfilometer/xpcc/src/xpcc/architecture/platform/cortex_m3/stm32/stm32f2_4/startup/startup.c **** void PVD_IRQHandler(void)			__attribute__ ((weak, alias("defaultHandler")));
  73:/home/jonas/warwick/3dProfilometer/xpcc/src/xpcc/architecture/platform/cortex_m3/stm32/stm32f2_4/startup/startup.c **** void TAMP_STAMP_IRQHandler(void)	__attribute__ ((weak, alias("defaultHandler")));
  74:/home/jonas/warwick/3dProfilometer/xpcc/src/xpcc/architecture/platform/cortex_m3/stm32/stm32f2_4/startup/startup.c **** void RTC_WKUP_IRQHandler(void)		__attribute__ ((weak, alias("defaultHandler")));
  75:/home/jonas/warwick/3dProfilometer/xpcc/src/xpcc/architecture/platform/cortex_m3/stm32/stm32f2_4/startup/startup.c **** void FLASH_IRQHandler(void)			__attribute__ ((weak, alias("defaultHandler")));
  76:/home/jonas/warwick/3dProfilometer/xpcc/src/xpcc/architecture/platform/cortex_m3/stm32/stm32f2_4/startup/startup.c **** void RCC_IRQHandler(void)			__attribute__ ((weak, alias("defaultHandler")));
  77:/home/jonas/warwick/3dProfilometer/xpcc/src/xpcc/architecture/platform/cortex_m3/stm32/stm32f2_4/startup/startup.c **** void EXTI0_IRQHandler(void)			__attribute__ ((weak, alias("defaultHandler")));
  78:/home/jonas/warwick/3dProfilometer/xpcc/src/xpcc/architecture/platform/cortex_m3/stm32/stm32f2_4/startup/startup.c **** void EXTI1_IRQHandler(void)			__attribute__ ((weak, alias("defaultHandler")));
  79:/home/jonas/warwick/3dProfilometer/xpcc/src/xpcc/architecture/platform/cortex_m3/stm32/stm32f2_4/startup/startup.c **** void EXTI2_IRQHandler(void)			__attribute__ ((weak, alias("defaultHandler")));
  80:/home/jonas/warwick/3dProfilometer/xpcc/src/xpcc/architecture/platform/cortex_m3/stm32/stm32f2_4/startup/startup.c **** void EXTI3_IRQHandler(void)			__attribute__ ((weak, alias("defaultHandler")));
  81:/home/jonas/warwick/3dProfilometer/xpcc/src/xpcc/architecture/platform/cortex_m3/stm32/stm32f2_4/startup/startup.c **** void EXTI4_IRQHandler(void)			__attribute__ ((weak, alias("defaultHandler")));
  82:/home/jonas/warwick/3dProfilometer/xpcc/src/xpcc/architecture/platform/cortex_m3/stm32/stm32f2_4/startup/startup.c **** void DMA1_Stream0_IRQHandler(void)	__attribute__ ((weak, alias("defaultHandler")));
  83:/home/jonas/warwick/3dProfilometer/xpcc/src/xpcc/architecture/platform/cortex_m3/stm32/stm32f2_4/startup/startup.c **** void DMA1_Stream1_IRQHandler(void)	__attribute__ ((weak, alias("defaultHandler")));
  84:/home/jonas/warwick/3dProfilometer/xpcc/src/xpcc/architecture/platform/cortex_m3/stm32/stm32f2_4/startup/startup.c **** void DMA1_Stream2_IRQHandler(void)	__attribute__ ((weak, alias("defaultHandler")));
  85:/home/jonas/warwick/3dProfilometer/xpcc/src/xpcc/architecture/platform/cortex_m3/stm32/stm32f2_4/startup/startup.c **** void DMA1_Stream3_IRQHandler(void)	__attribute__ ((weak, alias("defaultHandler")));
  86:/home/jonas/warwick/3dProfilometer/xpcc/src/xpcc/architecture/platform/cortex_m3/stm32/stm32f2_4/startup/startup.c **** void DMA1_Stream4_IRQHandler(void)	__attribute__ ((weak, alias("defaultHandler")));
  87:/home/jonas/warwick/3dProfilometer/xpcc/src/xpcc/architecture/platform/cortex_m3/stm32/stm32f2_4/startup/startup.c **** void DMA1_Stream5_IRQHandler(void)	__attribute__ ((weak, alias("defaultHandler")));
  88:/home/jonas/warwick/3dProfilometer/xpcc/src/xpcc/architecture/platform/cortex_m3/stm32/stm32f2_4/startup/startup.c **** void DMA1_Stream6_IRQHandler(void)	__attribute__ ((weak, alias("defaultHandler")));
  89:/home/jonas/warwick/3dProfilometer/xpcc/src/xpcc/architecture/platform/cortex_m3/stm32/stm32f2_4/startup/startup.c **** void ADC_IRQHandler(void)			__attribute__ ((weak, alias("defaultHandler")));
  90:/home/jonas/warwick/3dProfilometer/xpcc/src/xpcc/architecture/platform/cortex_m3/stm32/stm32f2_4/startup/startup.c **** void CAN1_TX_IRQHandler(void)		__attribute__ ((weak, alias("defaultHandler")));
  91:/home/jonas/warwick/3dProfilometer/xpcc/src/xpcc/architecture/platform/cortex_m3/stm32/stm32f2_4/startup/startup.c **** void CAN1_RX0_IRQHandler(void)		__attribute__ ((weak, alias("defaultHandler")));
  92:/home/jonas/warwick/3dProfilometer/xpcc/src/xpcc/architecture/platform/cortex_m3/stm32/stm32f2_4/startup/startup.c **** void CAN1_RX1_IRQHandler(void)		__attribute__ ((weak, alias("defaultHandler")));
  93:/home/jonas/warwick/3dProfilometer/xpcc/src/xpcc/architecture/platform/cortex_m3/stm32/stm32f2_4/startup/startup.c **** void CAN1_SCE_IRQHandler(void)		__attribute__ ((weak, alias("defaultHandler")));
  94:/home/jonas/warwick/3dProfilometer/xpcc/src/xpcc/architecture/platform/cortex_m3/stm32/stm32f2_4/startup/startup.c **** void EXTI9_5_IRQHandler(void)		__attribute__ ((weak, alias("defaultHandler")));
  95:/home/jonas/warwick/3dProfilometer/xpcc/src/xpcc/architecture/platform/cortex_m3/stm32/stm32f2_4/startup/startup.c **** void TIM1_BRK_TIM9_IRQHandler(void)			__attribute__ ((weak, alias("defaultHandler")));
  96:/home/jonas/warwick/3dProfilometer/xpcc/src/xpcc/architecture/platform/cortex_m3/stm32/stm32f2_4/startup/startup.c **** void TIM1_UP_TIM10_IRQHandler(void)			__attribute__ ((weak, alias("defaultHandler")));
  97:/home/jonas/warwick/3dProfilometer/xpcc/src/xpcc/architecture/platform/cortex_m3/stm32/stm32f2_4/startup/startup.c **** void TIM1_TRG_COM_TIM11_IRQHandler(void)	__attribute__ ((weak, alias("defaultHandler")));
  98:/home/jonas/warwick/3dProfilometer/xpcc/src/xpcc/architecture/platform/cortex_m3/stm32/stm32f2_4/startup/startup.c **** void TIM1_CC_IRQHandler(void)		__attribute__ ((weak, alias("defaultHandler")));
  99:/home/jonas/warwick/3dProfilometer/xpcc/src/xpcc/architecture/platform/cortex_m3/stm32/stm32f2_4/startup/startup.c **** void TIM2_IRQHandler(void)			__attribute__ ((weak, alias("defaultHandler")));
 100:/home/jonas/warwick/3dProfilometer/xpcc/src/xpcc/architecture/platform/cortex_m3/stm32/stm32f2_4/startup/startup.c **** void TIM3_IRQHandler(void)			__attribute__ ((weak, alias("defaultHandler")));
 101:/home/jonas/warwick/3dProfilometer/xpcc/src/xpcc/architecture/platform/cortex_m3/stm32/stm32f2_4/startup/startup.c **** void TIM4_IRQHandler(void)			__attribute__ ((weak, alias("defaultHandler")));
 102:/home/jonas/warwick/3dProfilometer/xpcc/src/xpcc/architecture/platform/cortex_m3/stm32/stm32f2_4/startup/startup.c **** void I2C1_EV_IRQHandler(void)		__attribute__ ((weak, alias("defaultHandler")));
 103:/home/jonas/warwick/3dProfilometer/xpcc/src/xpcc/architecture/platform/cortex_m3/stm32/stm32f2_4/startup/startup.c **** void I2C1_ER_IRQHandler(void)		__attribute__ ((weak, alias("defaultHandler")));
 104:/home/jonas/warwick/3dProfilometer/xpcc/src/xpcc/architecture/platform/cortex_m3/stm32/stm32f2_4/startup/startup.c **** void I2C2_EV_IRQHandler(void)		__attribute__ ((weak, alias("defaultHandler")));
 105:/home/jonas/warwick/3dProfilometer/xpcc/src/xpcc/architecture/platform/cortex_m3/stm32/stm32f2_4/startup/startup.c **** void I2C2_ER_IRQHandler(void)		__attribute__ ((weak, alias("defaultHandler")));
 106:/home/jonas/warwick/3dProfilometer/xpcc/src/xpcc/architecture/platform/cortex_m3/stm32/stm32f2_4/startup/startup.c **** void SPI1_IRQHandler(void)			__attribute__ ((weak, alias("defaultHandler")));
 107:/home/jonas/warwick/3dProfilometer/xpcc/src/xpcc/architecture/platform/cortex_m3/stm32/stm32f2_4/startup/startup.c **** void SPI2_IRQHandler(void)			__attribute__ ((weak, alias("defaultHandler")));
 108:/home/jonas/warwick/3dProfilometer/xpcc/src/xpcc/architecture/platform/cortex_m3/stm32/stm32f2_4/startup/startup.c **** void USART1_IRQHandler(void)		__attribute__ ((weak, alias("defaultHandler")));
 109:/home/jonas/warwick/3dProfilometer/xpcc/src/xpcc/architecture/platform/cortex_m3/stm32/stm32f2_4/startup/startup.c **** void USART2_IRQHandler(void)		__attribute__ ((weak, alias("defaultHandler")));
 110:/home/jonas/warwick/3dProfilometer/xpcc/src/xpcc/architecture/platform/cortex_m3/stm32/stm32f2_4/startup/startup.c **** void USART3_IRQHandler(void)		__attribute__ ((weak, alias("defaultHandler")));
 111:/home/jonas/warwick/3dProfilometer/xpcc/src/xpcc/architecture/platform/cortex_m3/stm32/stm32f2_4/startup/startup.c **** void EXTI15_10_IRQHandler(void)		__attribute__ ((weak, alias("defaultHandler")));
 112:/home/jonas/warwick/3dProfilometer/xpcc/src/xpcc/architecture/platform/cortex_m3/stm32/stm32f2_4/startup/startup.c **** void RTCAlarm_IRQHandler(void)		__attribute__ ((weak, alias("defaultHandler")));
 113:/home/jonas/warwick/3dProfilometer/xpcc/src/xpcc/architecture/platform/cortex_m3/stm32/stm32f2_4/startup/startup.c **** void OTG_FS_WKUP_IRQHandler(void)	__attribute__ ((weak, alias("defaultHandler")));
 114:/home/jonas/warwick/3dProfilometer/xpcc/src/xpcc/architecture/platform/cortex_m3/stm32/stm32f2_4/startup/startup.c **** void TIM8_BRK_TIM12_IRQHandler(void)		__attribute__ ((weak, alias("defaultHandler")));
 115:/home/jonas/warwick/3dProfilometer/xpcc/src/xpcc/architecture/platform/cortex_m3/stm32/stm32f2_4/startup/startup.c **** void TIM8_UP_TIM13_IRQHandler(void)			__attribute__ ((weak, alias("defaultHandler")));
 116:/home/jonas/warwick/3dProfilometer/xpcc/src/xpcc/architecture/platform/cortex_m3/stm32/stm32f2_4/startup/startup.c **** void TIM8_TRG_COM_TIM14_IRQHandler(void)	__attribute__ ((weak, alias("defaultHandler")));
 117:/home/jonas/warwick/3dProfilometer/xpcc/src/xpcc/architecture/platform/cortex_m3/stm32/stm32f2_4/startup/startup.c **** void TIM8_CC_IRQHandler(void)		__attribute__ ((weak, alias("defaultHandler")));
 118:/home/jonas/warwick/3dProfilometer/xpcc/src/xpcc/architecture/platform/cortex_m3/stm32/stm32f2_4/startup/startup.c **** void DMA1_Stream7_IRQHandler(void)	__attribute__ ((weak, alias("defaultHandler")));
 119:/home/jonas/warwick/3dProfilometer/xpcc/src/xpcc/architecture/platform/cortex_m3/stm32/stm32f2_4/startup/startup.c **** void FSMC_IRQHandler(void)			__attribute__ ((weak, alias("defaultHandler")));
 120:/home/jonas/warwick/3dProfilometer/xpcc/src/xpcc/architecture/platform/cortex_m3/stm32/stm32f2_4/startup/startup.c **** void SDIO_IRQHandler(void)			__attribute__ ((weak, alias("defaultHandler")));
 121:/home/jonas/warwick/3dProfilometer/xpcc/src/xpcc/architecture/platform/cortex_m3/stm32/stm32f2_4/startup/startup.c **** void TIM5_IRQHandler(void)			__attribute__ ((weak, alias("defaultHandler")));
 122:/home/jonas/warwick/3dProfilometer/xpcc/src/xpcc/architecture/platform/cortex_m3/stm32/stm32f2_4/startup/startup.c **** void SPI3_IRQHandler(void)			__attribute__ ((weak, alias("defaultHandler")));
 123:/home/jonas/warwick/3dProfilometer/xpcc/src/xpcc/architecture/platform/cortex_m3/stm32/stm32f2_4/startup/startup.c **** void UART4_IRQHandler(void)			__attribute__ ((weak, alias("defaultHandler")));
 124:/home/jonas/warwick/3dProfilometer/xpcc/src/xpcc/architecture/platform/cortex_m3/stm32/stm32f2_4/startup/startup.c **** void UART5_IRQHandler(void)			__attribute__ ((weak, alias("defaultHandler")));
 125:/home/jonas/warwick/3dProfilometer/xpcc/src/xpcc/architecture/platform/cortex_m3/stm32/stm32f2_4/startup/startup.c **** void TIM6_DAC_IRQHandler(void)		__attribute__ ((weak, alias("defaultHandler")));
 126:/home/jonas/warwick/3dProfilometer/xpcc/src/xpcc/architecture/platform/cortex_m3/stm32/stm32f2_4/startup/startup.c **** void TIM7_IRQHandler(void)			__attribute__ ((weak, alias("defaultHandler")));
 127:/home/jonas/warwick/3dProfilometer/xpcc/src/xpcc/architecture/platform/cortex_m3/stm32/stm32f2_4/startup/startup.c **** void DMA2_Stream0_IRQHandler(void)	__attribute__ ((weak, alias("defaultHandler")));
 128:/home/jonas/warwick/3dProfilometer/xpcc/src/xpcc/architecture/platform/cortex_m3/stm32/stm32f2_4/startup/startup.c **** void DMA2_Stream1_IRQHandler(void)	__attribute__ ((weak, alias("defaultHandler")));
 129:/home/jonas/warwick/3dProfilometer/xpcc/src/xpcc/architecture/platform/cortex_m3/stm32/stm32f2_4/startup/startup.c **** void DMA2_Stream2_IRQHandler(void)	__attribute__ ((weak, alias("defaultHandler")));
 130:/home/jonas/warwick/3dProfilometer/xpcc/src/xpcc/architecture/platform/cortex_m3/stm32/stm32f2_4/startup/startup.c **** void DMA2_Stream3_IRQHandler(void)	__attribute__ ((weak, alias("defaultHandler")));
 131:/home/jonas/warwick/3dProfilometer/xpcc/src/xpcc/architecture/platform/cortex_m3/stm32/stm32f2_4/startup/startup.c **** void DMA2_Stream4_IRQHandler(void)	__attribute__ ((weak, alias("defaultHandler")));
 132:/home/jonas/warwick/3dProfilometer/xpcc/src/xpcc/architecture/platform/cortex_m3/stm32/stm32f2_4/startup/startup.c **** void ETH_IRQHandler(void)			__attribute__ ((weak, alias("defaultHandler")));
 133:/home/jonas/warwick/3dProfilometer/xpcc/src/xpcc/architecture/platform/cortex_m3/stm32/stm32f2_4/startup/startup.c **** void ETH_WKUP_IRQHandler(void)		__attribute__ ((weak, alias("defaultHandler")));
 134:/home/jonas/warwick/3dProfilometer/xpcc/src/xpcc/architecture/platform/cortex_m3/stm32/stm32f2_4/startup/startup.c **** void CAN2_TX_IRQHandler(void)		__attribute__ ((weak, alias("defaultHandler")));
 135:/home/jonas/warwick/3dProfilometer/xpcc/src/xpcc/architecture/platform/cortex_m3/stm32/stm32f2_4/startup/startup.c **** void CAN2_RX0_IRQHandler(void)		__attribute__ ((weak, alias("defaultHandler")));
 136:/home/jonas/warwick/3dProfilometer/xpcc/src/xpcc/architecture/platform/cortex_m3/stm32/stm32f2_4/startup/startup.c **** void CAN2_RX1_IRQHandler(void)		__attribute__ ((weak, alias("defaultHandler")));
 137:/home/jonas/warwick/3dProfilometer/xpcc/src/xpcc/architecture/platform/cortex_m3/stm32/stm32f2_4/startup/startup.c **** void CAN2_SCE_IRQHandler(void)		__attribute__ ((weak, alias("defaultHandler")));
 138:/home/jonas/warwick/3dProfilometer/xpcc/src/xpcc/architecture/platform/cortex_m3/stm32/stm32f2_4/startup/startup.c **** void OTG_FS_IRQHandler(void)		__attribute__ ((weak, alias("defaultHandler")));
 139:/home/jonas/warwick/3dProfilometer/xpcc/src/xpcc/architecture/platform/cortex_m3/stm32/stm32f2_4/startup/startup.c **** 
 140:/home/jonas/warwick/3dProfilometer/xpcc/src/xpcc/architecture/platform/cortex_m3/stm32/stm32f2_4/startup/startup.c **** void DMA2_Stream5_IRQHandler(void)	__attribute__ ((weak, alias("defaultHandler")));
 141:/home/jonas/warwick/3dProfilometer/xpcc/src/xpcc/architecture/platform/cortex_m3/stm32/stm32f2_4/startup/startup.c **** void DMA2_Stream6_IRQHandler(void)	__attribute__ ((weak, alias("defaultHandler")));
 142:/home/jonas/warwick/3dProfilometer/xpcc/src/xpcc/architecture/platform/cortex_m3/stm32/stm32f2_4/startup/startup.c **** void DMA2_Stream7_IRQHandler(void)	__attribute__ ((weak, alias("defaultHandler")));
 143:/home/jonas/warwick/3dProfilometer/xpcc/src/xpcc/architecture/platform/cortex_m3/stm32/stm32f2_4/startup/startup.c **** void USART6_IRQHandler(void)		__attribute__ ((weak, alias("defaultHandler")));
 144:/home/jonas/warwick/3dProfilometer/xpcc/src/xpcc/architecture/platform/cortex_m3/stm32/stm32f2_4/startup/startup.c **** void I2C3_EV_IRQHandler(void)		__attribute__ ((weak, alias("defaultHandler")));
 145:/home/jonas/warwick/3dProfilometer/xpcc/src/xpcc/architecture/platform/cortex_m3/stm32/stm32f2_4/startup/startup.c **** void I2C3_ER_IRQHandler(void)		__attribute__ ((weak, alias("defaultHandler")));
 146:/home/jonas/warwick/3dProfilometer/xpcc/src/xpcc/architecture/platform/cortex_m3/stm32/stm32f2_4/startup/startup.c **** void OTG_HS_EP1_OUT_IRQHandler(void)	__attribute__ ((weak, alias("defaultHandler")));
 147:/home/jonas/warwick/3dProfilometer/xpcc/src/xpcc/architecture/platform/cortex_m3/stm32/stm32f2_4/startup/startup.c **** void OTG_HS_EP1_IN_IRQHandler(void)	__attribute__ ((weak, alias("defaultHandler")));
 148:/home/jonas/warwick/3dProfilometer/xpcc/src/xpcc/architecture/platform/cortex_m3/stm32/stm32f2_4/startup/startup.c **** void OTG_HS_WKUP_IRQHandler(void)	__attribute__ ((weak, alias("defaultHandler")));
 149:/home/jonas/warwick/3dProfilometer/xpcc/src/xpcc/architecture/platform/cortex_m3/stm32/stm32f2_4/startup/startup.c **** void OTG_HS_IRQHandler(void)		__attribute__ ((weak, alias("defaultHandler")));
 150:/home/jonas/warwick/3dProfilometer/xpcc/src/xpcc/architecture/platform/cortex_m3/stm32/stm32f2_4/startup/startup.c **** void DCMI_IRQHandler(void)			__attribute__ ((weak, alias("defaultHandler")));
 151:/home/jonas/warwick/3dProfilometer/xpcc/src/xpcc/architecture/platform/cortex_m3/stm32/stm32f2_4/startup/startup.c **** void CRYP_IRQHandler(void)			__attribute__ ((weak, alias("defaultHandler")));
 152:/home/jonas/warwick/3dProfilometer/xpcc/src/xpcc/architecture/platform/cortex_m3/stm32/stm32f2_4/startup/startup.c **** void HASH_RNG_IRQHandler(void)		__attribute__ ((weak, alias("defaultHandler")));
 153:/home/jonas/warwick/3dProfilometer/xpcc/src/xpcc/architecture/platform/cortex_m3/stm32/stm32f2_4/startup/startup.c **** void FPU_IRQHandler(void)			__attribute__ ((weak, alias("defaultHandler")));
 154:/home/jonas/warwick/3dProfilometer/xpcc/src/xpcc/architecture/platform/cortex_m3/stm32/stm32f2_4/startup/startup.c **** 
 155:/home/jonas/warwick/3dProfilometer/xpcc/src/xpcc/architecture/platform/cortex_m3/stm32/stm32f2_4/startup/startup.c **** // ----------------------------------------------------------------------------
 156:/home/jonas/warwick/3dProfilometer/xpcc/src/xpcc/architecture/platform/cortex_m3/stm32/stm32f2_4/startup/startup.c **** // Interrupt vectors
 157:/home/jonas/warwick/3dProfilometer/xpcc/src/xpcc/architecture/platform/cortex_m3/stm32/stm32f2_4/startup/startup.c **** typedef void (* const FunctionPointer)(void);
 158:/home/jonas/warwick/3dProfilometer/xpcc/src/xpcc/architecture/platform/cortex_m3/stm32/stm32f2_4/startup/startup.c **** 
 159:/home/jonas/warwick/3dProfilometer/xpcc/src/xpcc/architecture/platform/cortex_m3/stm32/stm32f2_4/startup/startup.c **** // defined in the linkerscript
 160:/home/jonas/warwick/3dProfilometer/xpcc/src/xpcc/architecture/platform/cortex_m3/stm32/stm32f2_4/startup/startup.c **** extern uint32_t __stack_end;
 161:/home/jonas/warwick/3dProfilometer/xpcc/src/xpcc/architecture/platform/cortex_m3/stm32/stm32f2_4/startup/startup.c **** 
 162:/home/jonas/warwick/3dProfilometer/xpcc/src/xpcc/architecture/platform/cortex_m3/stm32/stm32f2_4/startup/startup.c **** #if CORTEX_VECTORS_RAM
 163:/home/jonas/warwick/3dProfilometer/xpcc/src/xpcc/architecture/platform/cortex_m3/stm32/stm32f2_4/startup/startup.c **** // Define the vector table
 164:/home/jonas/warwick/3dProfilometer/xpcc/src/xpcc/architecture/platform/cortex_m3/stm32/stm32f2_4/startup/startup.c **** FunctionPointer flashVectors[4] 
 165:/home/jonas/warwick/3dProfilometer/xpcc/src/xpcc/architecture/platform/cortex_m3/stm32/stm32f2_4/startup/startup.c **** __attribute__ ((section(".reset"))) =
 166:/home/jonas/warwick/3dProfilometer/xpcc/src/xpcc/architecture/platform/cortex_m3/stm32/stm32f2_4/startup/startup.c **** {
 167:/home/jonas/warwick/3dProfilometer/xpcc/src/xpcc/architecture/platform/cortex_m3/stm32/stm32f2_4/startup/startup.c **** 	(FunctionPointer) &__stack_end,	// stack pointer
 168:/home/jonas/warwick/3dProfilometer/xpcc/src/xpcc/architecture/platform/cortex_m3/stm32/stm32f2_4/startup/startup.c **** 	Reset_Handler,				// code entry point
 169:/home/jonas/warwick/3dProfilometer/xpcc/src/xpcc/architecture/platform/cortex_m3/stm32/stm32f2_4/startup/startup.c **** 	NMI_Handler,				// NMI handler
 170:/home/jonas/warwick/3dProfilometer/xpcc/src/xpcc/architecture/platform/cortex_m3/stm32/stm32f2_4/startup/startup.c **** 	HardFault_Handler,			// hard fault handler
 171:/home/jonas/warwick/3dProfilometer/xpcc/src/xpcc/architecture/platform/cortex_m3/stm32/stm32f2_4/startup/startup.c **** };
 172:/home/jonas/warwick/3dProfilometer/xpcc/src/xpcc/architecture/platform/cortex_m3/stm32/stm32f2_4/startup/startup.c **** 
 173:/home/jonas/warwick/3dProfilometer/xpcc/src/xpcc/architecture/platform/cortex_m3/stm32/stm32f2_4/startup/startup.c **** FunctionPointer ramVectors[] __attribute__ ((section(".vectors"))) =
 174:/home/jonas/warwick/3dProfilometer/xpcc/src/xpcc/architecture/platform/cortex_m3/stm32/stm32f2_4/startup/startup.c **** #else
 175:/home/jonas/warwick/3dProfilometer/xpcc/src/xpcc/architecture/platform/cortex_m3/stm32/stm32f2_4/startup/startup.c **** FunctionPointer flashVectors[] __attribute__ ((section(".reset"))) =
 176:/home/jonas/warwick/3dProfilometer/xpcc/src/xpcc/architecture/platform/cortex_m3/stm32/stm32f2_4/startup/startup.c **** #endif
 177:/home/jonas/warwick/3dProfilometer/xpcc/src/xpcc/architecture/platform/cortex_m3/stm32/stm32f2_4/startup/startup.c **** {
 178:/home/jonas/warwick/3dProfilometer/xpcc/src/xpcc/architecture/platform/cortex_m3/stm32/stm32f2_4/startup/startup.c **** 	(FunctionPointer) &__stack_end,	// stack pointer
 179:/home/jonas/warwick/3dProfilometer/xpcc/src/xpcc/architecture/platform/cortex_m3/stm32/stm32f2_4/startup/startup.c **** 	Reset_Handler,				// code entry point
 180:/home/jonas/warwick/3dProfilometer/xpcc/src/xpcc/architecture/platform/cortex_m3/stm32/stm32f2_4/startup/startup.c **** 	NMI_Handler,				// NMI handler
 181:/home/jonas/warwick/3dProfilometer/xpcc/src/xpcc/architecture/platform/cortex_m3/stm32/stm32f2_4/startup/startup.c **** 	HardFault_Handler,			// hard fault handler
 182:/home/jonas/warwick/3dProfilometer/xpcc/src/xpcc/architecture/platform/cortex_m3/stm32/stm32f2_4/startup/startup.c **** 	MemManage_Handler,			// MPU Fault Handler
 183:/home/jonas/warwick/3dProfilometer/xpcc/src/xpcc/architecture/platform/cortex_m3/stm32/stm32f2_4/startup/startup.c **** 	BusFault_Handler,			// Bus Fault Handler
 184:/home/jonas/warwick/3dProfilometer/xpcc/src/xpcc/architecture/platform/cortex_m3/stm32/stm32f2_4/startup/startup.c **** 	UsageFault_Handler,			// Usage Fault Handler
 185:/home/jonas/warwick/3dProfilometer/xpcc/src/xpcc/architecture/platform/cortex_m3/stm32/stm32f2_4/startup/startup.c **** 	0,
 186:/home/jonas/warwick/3dProfilometer/xpcc/src/xpcc/architecture/platform/cortex_m3/stm32/stm32f2_4/startup/startup.c **** 	0,
 187:/home/jonas/warwick/3dProfilometer/xpcc/src/xpcc/architecture/platform/cortex_m3/stm32/stm32f2_4/startup/startup.c **** 	0,
 188:/home/jonas/warwick/3dProfilometer/xpcc/src/xpcc/architecture/platform/cortex_m3/stm32/stm32f2_4/startup/startup.c **** 	0,
 189:/home/jonas/warwick/3dProfilometer/xpcc/src/xpcc/architecture/platform/cortex_m3/stm32/stm32f2_4/startup/startup.c **** 	SVC_Handler,				// SVCall Handler
 190:/home/jonas/warwick/3dProfilometer/xpcc/src/xpcc/architecture/platform/cortex_m3/stm32/stm32f2_4/startup/startup.c **** 	DebugMon_Handler,			// Debug Monitor Handler
 191:/home/jonas/warwick/3dProfilometer/xpcc/src/xpcc/architecture/platform/cortex_m3/stm32/stm32f2_4/startup/startup.c **** 	0,
 192:/home/jonas/warwick/3dProfilometer/xpcc/src/xpcc/architecture/platform/cortex_m3/stm32/stm32f2_4/startup/startup.c **** 	PendSV_Handler,				// PendSV Handler
 193:/home/jonas/warwick/3dProfilometer/xpcc/src/xpcc/architecture/platform/cortex_m3/stm32/stm32f2_4/startup/startup.c **** 	SysTick_Handler,			// SysTick Handler
 194:/home/jonas/warwick/3dProfilometer/xpcc/src/xpcc/architecture/platform/cortex_m3/stm32/stm32f2_4/startup/startup.c **** 	
 195:/home/jonas/warwick/3dProfilometer/xpcc/src/xpcc/architecture/platform/cortex_m3/stm32/stm32f2_4/startup/startup.c **** 	// Peripheral interrupts (STM32 specific)
 196:/home/jonas/warwick/3dProfilometer/xpcc/src/xpcc/architecture/platform/cortex_m3/stm32/stm32f2_4/startup/startup.c **** 	WWDG_IRQHandler,			//  0: Window Watchdog
 197:/home/jonas/warwick/3dProfilometer/xpcc/src/xpcc/architecture/platform/cortex_m3/stm32/stm32f2_4/startup/startup.c **** 	PVD_IRQHandler,				//  1: PVD through EXTI Line detect
 198:/home/jonas/warwick/3dProfilometer/xpcc/src/xpcc/architecture/platform/cortex_m3/stm32/stm32f2_4/startup/startup.c **** 	TAMP_STAMP_IRQHandler,		//  2: Tamper and TimeStamps through the EXTI line
 199:/home/jonas/warwick/3dProfilometer/xpcc/src/xpcc/architecture/platform/cortex_m3/stm32/stm32f2_4/startup/startup.c **** 	RTC_WKUP_IRQHandler,		//  3: Wakeup through the EXTI line
 200:/home/jonas/warwick/3dProfilometer/xpcc/src/xpcc/architecture/platform/cortex_m3/stm32/stm32f2_4/startup/startup.c **** 	FLASH_IRQHandler,			//  4: Flash
 201:/home/jonas/warwick/3dProfilometer/xpcc/src/xpcc/architecture/platform/cortex_m3/stm32/stm32f2_4/startup/startup.c **** 	RCC_IRQHandler,				//  5: RCC
 202:/home/jonas/warwick/3dProfilometer/xpcc/src/xpcc/architecture/platform/cortex_m3/stm32/stm32f2_4/startup/startup.c **** 	EXTI0_IRQHandler,			//     EXTI Line 0
 203:/home/jonas/warwick/3dProfilometer/xpcc/src/xpcc/architecture/platform/cortex_m3/stm32/stm32f2_4/startup/startup.c **** 	EXTI1_IRQHandler,			//     EXTI Line 1
 204:/home/jonas/warwick/3dProfilometer/xpcc/src/xpcc/architecture/platform/cortex_m3/stm32/stm32f2_4/startup/startup.c **** 	EXTI2_IRQHandler,			//     EXTI Line 2
 205:/home/jonas/warwick/3dProfilometer/xpcc/src/xpcc/architecture/platform/cortex_m3/stm32/stm32f2_4/startup/startup.c **** 	EXTI3_IRQHandler,			//     EXTI Line 3
 206:/home/jonas/warwick/3dProfilometer/xpcc/src/xpcc/architecture/platform/cortex_m3/stm32/stm32f2_4/startup/startup.c **** 	EXTI4_IRQHandler,			// 10: EXTI Line 4
 207:/home/jonas/warwick/3dProfilometer/xpcc/src/xpcc/architecture/platform/cortex_m3/stm32/stm32f2_4/startup/startup.c **** 	DMA1_Stream0_IRQHandler,	//     DMA1 Stream 0
 208:/home/jonas/warwick/3dProfilometer/xpcc/src/xpcc/architecture/platform/cortex_m3/stm32/stm32f2_4/startup/startup.c **** 	DMA1_Stream1_IRQHandler,	//     DMA1 Stream 1
 209:/home/jonas/warwick/3dProfilometer/xpcc/src/xpcc/architecture/platform/cortex_m3/stm32/stm32f2_4/startup/startup.c **** 	DMA1_Stream2_IRQHandler,	//     DMA1 Stream 2
 210:/home/jonas/warwick/3dProfilometer/xpcc/src/xpcc/architecture/platform/cortex_m3/stm32/stm32f2_4/startup/startup.c **** 	DMA1_Stream3_IRQHandler,	//     DMA1 Stream 3
 211:/home/jonas/warwick/3dProfilometer/xpcc/src/xpcc/architecture/platform/cortex_m3/stm32/stm32f2_4/startup/startup.c **** 	DMA1_Stream4_IRQHandler,	// 15: DMA1 Stream 4
 212:/home/jonas/warwick/3dProfilometer/xpcc/src/xpcc/architecture/platform/cortex_m3/stm32/stm32f2_4/startup/startup.c **** 	DMA1_Stream5_IRQHandler,	//     DMA1 Stream 5
 213:/home/jonas/warwick/3dProfilometer/xpcc/src/xpcc/architecture/platform/cortex_m3/stm32/stm32f2_4/startup/startup.c **** 	DMA1_Stream6_IRQHandler,	//     DMA1 Stream 6
 214:/home/jonas/warwick/3dProfilometer/xpcc/src/xpcc/architecture/platform/cortex_m3/stm32/stm32f2_4/startup/startup.c **** 	ADC_IRQHandler,				//     ADC1, ADC2 and ADC3s
 215:/home/jonas/warwick/3dProfilometer/xpcc/src/xpcc/architecture/platform/cortex_m3/stm32/stm32f2_4/startup/startup.c **** 	CAN1_TX_IRQHandler,  		//     CAN1 TX
 216:/home/jonas/warwick/3dProfilometer/xpcc/src/xpcc/architecture/platform/cortex_m3/stm32/stm32f2_4/startup/startup.c **** 	CAN1_RX0_IRQHandler, 		// 20: CAN1 RX0
 217:/home/jonas/warwick/3dProfilometer/xpcc/src/xpcc/architecture/platform/cortex_m3/stm32/stm32f2_4/startup/startup.c **** 	CAN1_RX1_IRQHandler,		//     CAN1 RX1
 218:/home/jonas/warwick/3dProfilometer/xpcc/src/xpcc/architecture/platform/cortex_m3/stm32/stm32f2_4/startup/startup.c **** 	CAN1_SCE_IRQHandler,		//     CAN1 SCE
 219:/home/jonas/warwick/3dProfilometer/xpcc/src/xpcc/architecture/platform/cortex_m3/stm32/stm32f2_4/startup/startup.c **** 	EXTI9_5_IRQHandler,			//     EXTI Line 9..5
 220:/home/jonas/warwick/3dProfilometer/xpcc/src/xpcc/architecture/platform/cortex_m3/stm32/stm32f2_4/startup/startup.c **** 	TIM1_BRK_TIM9_IRQHandler,	//     TIM1 Break
 221:/home/jonas/warwick/3dProfilometer/xpcc/src/xpcc/architecture/platform/cortex_m3/stm32/stm32f2_4/startup/startup.c **** 	TIM1_UP_TIM10_IRQHandler,	// 25: TIM1 Update
 222:/home/jonas/warwick/3dProfilometer/xpcc/src/xpcc/architecture/platform/cortex_m3/stm32/stm32f2_4/startup/startup.c **** 	TIM1_TRG_COM_TIM11_IRQHandler,	// TIM1 Trigger and Commutation
 223:/home/jonas/warwick/3dProfilometer/xpcc/src/xpcc/architecture/platform/cortex_m3/stm32/stm32f2_4/startup/startup.c **** 	TIM1_CC_IRQHandler,			//     TIM1 Capture Compare
 224:/home/jonas/warwick/3dProfilometer/xpcc/src/xpcc/architecture/platform/cortex_m3/stm32/stm32f2_4/startup/startup.c **** 	TIM2_IRQHandler,			//     TIM2
 225:/home/jonas/warwick/3dProfilometer/xpcc/src/xpcc/architecture/platform/cortex_m3/stm32/stm32f2_4/startup/startup.c **** 	TIM3_IRQHandler,			//     TIM3
 226:/home/jonas/warwick/3dProfilometer/xpcc/src/xpcc/architecture/platform/cortex_m3/stm32/stm32f2_4/startup/startup.c **** 	TIM4_IRQHandler,			// 30: TIM4
 227:/home/jonas/warwick/3dProfilometer/xpcc/src/xpcc/architecture/platform/cortex_m3/stm32/stm32f2_4/startup/startup.c **** 	I2C1_EV_IRQHandler,			//     I2C1 Event
 228:/home/jonas/warwick/3dProfilometer/xpcc/src/xpcc/architecture/platform/cortex_m3/stm32/stm32f2_4/startup/startup.c **** 	I2C1_ER_IRQHandler,			//     I2C1 Error
 229:/home/jonas/warwick/3dProfilometer/xpcc/src/xpcc/architecture/platform/cortex_m3/stm32/stm32f2_4/startup/startup.c **** 	I2C2_EV_IRQHandler,			//     I2C2 Event
 230:/home/jonas/warwick/3dProfilometer/xpcc/src/xpcc/architecture/platform/cortex_m3/stm32/stm32f2_4/startup/startup.c **** 	I2C2_ER_IRQHandler,			//     I2C2 Error
 231:/home/jonas/warwick/3dProfilometer/xpcc/src/xpcc/architecture/platform/cortex_m3/stm32/stm32f2_4/startup/startup.c **** 	SPI1_IRQHandler,			// 35: SPI1
 232:/home/jonas/warwick/3dProfilometer/xpcc/src/xpcc/architecture/platform/cortex_m3/stm32/stm32f2_4/startup/startup.c **** 	SPI2_IRQHandler,			//     SPI2
 233:/home/jonas/warwick/3dProfilometer/xpcc/src/xpcc/architecture/platform/cortex_m3/stm32/stm32f2_4/startup/startup.c **** 	USART1_IRQHandler,			//     USART1
 234:/home/jonas/warwick/3dProfilometer/xpcc/src/xpcc/architecture/platform/cortex_m3/stm32/stm32f2_4/startup/startup.c **** 	USART2_IRQHandler,			//     USART2
 235:/home/jonas/warwick/3dProfilometer/xpcc/src/xpcc/architecture/platform/cortex_m3/stm32/stm32f2_4/startup/startup.c **** 	USART3_IRQHandler,			//     USART3
 236:/home/jonas/warwick/3dProfilometer/xpcc/src/xpcc/architecture/platform/cortex_m3/stm32/stm32f2_4/startup/startup.c **** 	EXTI15_10_IRQHandler,		// 40: External Line[15:10]s
 237:/home/jonas/warwick/3dProfilometer/xpcc/src/xpcc/architecture/platform/cortex_m3/stm32/stm32f2_4/startup/startup.c **** 	RTCAlarm_IRQHandler,		//     RTC Alarm (A and B) through EXTI Line
 238:/home/jonas/warwick/3dProfilometer/xpcc/src/xpcc/architecture/platform/cortex_m3/stm32/stm32f2_4/startup/startup.c **** 	OTG_FS_WKUP_IRQHandler,		//     USB OTG FS Wakeup through EXTI line
 239:/home/jonas/warwick/3dProfilometer/xpcc/src/xpcc/architecture/platform/cortex_m3/stm32/stm32f2_4/startup/startup.c **** 	TIM8_BRK_TIM12_IRQHandler,	//     TIM8 Break and TIM12
 240:/home/jonas/warwick/3dProfilometer/xpcc/src/xpcc/architecture/platform/cortex_m3/stm32/stm32f2_4/startup/startup.c **** 	TIM8_UP_TIM13_IRQHandler,	//     TIM8 Update and TIM13
 241:/home/jonas/warwick/3dProfilometer/xpcc/src/xpcc/architecture/platform/cortex_m3/stm32/stm32f2_4/startup/startup.c **** 	TIM8_TRG_COM_TIM14_IRQHandler,	// 45: TIM8 Trigger and Commutation and TIM14
 242:/home/jonas/warwick/3dProfilometer/xpcc/src/xpcc/architecture/platform/cortex_m3/stm32/stm32f2_4/startup/startup.c **** 	TIM8_CC_IRQHandler,
 243:/home/jonas/warwick/3dProfilometer/xpcc/src/xpcc/architecture/platform/cortex_m3/stm32/stm32f2_4/startup/startup.c **** 	DMA1_Stream7_IRQHandler,
 244:/home/jonas/warwick/3dProfilometer/xpcc/src/xpcc/architecture/platform/cortex_m3/stm32/stm32f2_4/startup/startup.c **** 	FSMC_IRQHandler,
 245:/home/jonas/warwick/3dProfilometer/xpcc/src/xpcc/architecture/platform/cortex_m3/stm32/stm32f2_4/startup/startup.c **** 	SDIO_IRQHandler,
 246:/home/jonas/warwick/3dProfilometer/xpcc/src/xpcc/architecture/platform/cortex_m3/stm32/stm32f2_4/startup/startup.c **** 	TIM5_IRQHandler,			// 50:
 247:/home/jonas/warwick/3dProfilometer/xpcc/src/xpcc/architecture/platform/cortex_m3/stm32/stm32f2_4/startup/startup.c **** 	SPI3_IRQHandler,
 248:/home/jonas/warwick/3dProfilometer/xpcc/src/xpcc/architecture/platform/cortex_m3/stm32/stm32f2_4/startup/startup.c **** 	UART4_IRQHandler,
 249:/home/jonas/warwick/3dProfilometer/xpcc/src/xpcc/architecture/platform/cortex_m3/stm32/stm32f2_4/startup/startup.c **** 	UART5_IRQHandler,
 250:/home/jonas/warwick/3dProfilometer/xpcc/src/xpcc/architecture/platform/cortex_m3/stm32/stm32f2_4/startup/startup.c **** 	TIM6_DAC_IRQHandler,		//     TIM6 and DAC1&2 under-run errors
 251:/home/jonas/warwick/3dProfilometer/xpcc/src/xpcc/architecture/platform/cortex_m3/stm32/stm32f2_4/startup/startup.c **** 	TIM7_IRQHandler,			// 55:
 252:/home/jonas/warwick/3dProfilometer/xpcc/src/xpcc/architecture/platform/cortex_m3/stm32/stm32f2_4/startup/startup.c **** 	DMA2_Stream0_IRQHandler,
 253:/home/jonas/warwick/3dProfilometer/xpcc/src/xpcc/architecture/platform/cortex_m3/stm32/stm32f2_4/startup/startup.c **** 	DMA2_Stream1_IRQHandler,
 254:/home/jonas/warwick/3dProfilometer/xpcc/src/xpcc/architecture/platform/cortex_m3/stm32/stm32f2_4/startup/startup.c **** 	DMA2_Stream2_IRQHandler,
 255:/home/jonas/warwick/3dProfilometer/xpcc/src/xpcc/architecture/platform/cortex_m3/stm32/stm32f2_4/startup/startup.c **** 	DMA2_Stream3_IRQHandler,
 256:/home/jonas/warwick/3dProfilometer/xpcc/src/xpcc/architecture/platform/cortex_m3/stm32/stm32f2_4/startup/startup.c **** 	DMA2_Stream4_IRQHandler,	// 60:
 257:/home/jonas/warwick/3dProfilometer/xpcc/src/xpcc/architecture/platform/cortex_m3/stm32/stm32f2_4/startup/startup.c **** 	ETH_IRQHandler,				// 
 258:/home/jonas/warwick/3dProfilometer/xpcc/src/xpcc/architecture/platform/cortex_m3/stm32/stm32f2_4/startup/startup.c **** 	ETH_WKUP_IRQHandler,		//     Ethernet Wakeup through EXTI line
 259:/home/jonas/warwick/3dProfilometer/xpcc/src/xpcc/architecture/platform/cortex_m3/stm32/stm32f2_4/startup/startup.c **** 	CAN2_TX_IRQHandler,
 260:/home/jonas/warwick/3dProfilometer/xpcc/src/xpcc/architecture/platform/cortex_m3/stm32/stm32f2_4/startup/startup.c **** 	CAN2_RX0_IRQHandler,
 261:/home/jonas/warwick/3dProfilometer/xpcc/src/xpcc/architecture/platform/cortex_m3/stm32/stm32f2_4/startup/startup.c **** 	CAN2_RX1_IRQHandler,		// 65:
 262:/home/jonas/warwick/3dProfilometer/xpcc/src/xpcc/architecture/platform/cortex_m3/stm32/stm32f2_4/startup/startup.c **** 	CAN2_SCE_IRQHandler,
 263:/home/jonas/warwick/3dProfilometer/xpcc/src/xpcc/architecture/platform/cortex_m3/stm32/stm32f2_4/startup/startup.c **** 	OTG_FS_IRQHandler,
 264:/home/jonas/warwick/3dProfilometer/xpcc/src/xpcc/architecture/platform/cortex_m3/stm32/stm32f2_4/startup/startup.c **** 	DMA2_Stream5_IRQHandler,	//     DMA2 Stream 5
 265:/home/jonas/warwick/3dProfilometer/xpcc/src/xpcc/architecture/platform/cortex_m3/stm32/stm32f2_4/startup/startup.c **** 	DMA2_Stream6_IRQHandler,	//     DMA2 Stream 6
 266:/home/jonas/warwick/3dProfilometer/xpcc/src/xpcc/architecture/platform/cortex_m3/stm32/stm32f2_4/startup/startup.c **** 	DMA2_Stream7_IRQHandler,	// 70: DMA2 Stream 7
 267:/home/jonas/warwick/3dProfilometer/xpcc/src/xpcc/architecture/platform/cortex_m3/stm32/stm32f2_4/startup/startup.c **** 	USART6_IRQHandler,			//     USART6
 268:/home/jonas/warwick/3dProfilometer/xpcc/src/xpcc/architecture/platform/cortex_m3/stm32/stm32f2_4/startup/startup.c **** 	I2C3_EV_IRQHandler,			//     I2C3 event
 269:/home/jonas/warwick/3dProfilometer/xpcc/src/xpcc/architecture/platform/cortex_m3/stm32/stm32f2_4/startup/startup.c **** 	I2C3_ER_IRQHandler,			//     I2C3 error
 270:/home/jonas/warwick/3dProfilometer/xpcc/src/xpcc/architecture/platform/cortex_m3/stm32/stm32f2_4/startup/startup.c **** 	OTG_HS_EP1_OUT_IRQHandler,	//     USB OTG HS End Point 1 Out
 271:/home/jonas/warwick/3dProfilometer/xpcc/src/xpcc/architecture/platform/cortex_m3/stm32/stm32f2_4/startup/startup.c **** 	OTG_HS_EP1_IN_IRQHandler,	// 75: USB OTG HS End Point 1 In
 272:/home/jonas/warwick/3dProfilometer/xpcc/src/xpcc/architecture/platform/cortex_m3/stm32/stm32f2_4/startup/startup.c **** 	OTG_HS_WKUP_IRQHandler,		//     USB OTG HS Wakeup through EXTI
 273:/home/jonas/warwick/3dProfilometer/xpcc/src/xpcc/architecture/platform/cortex_m3/stm32/stm32f2_4/startup/startup.c **** 	OTG_HS_IRQHandler,			//     USB OTG HS
 274:/home/jonas/warwick/3dProfilometer/xpcc/src/xpcc/architecture/platform/cortex_m3/stm32/stm32f2_4/startup/startup.c **** 	DCMI_IRQHandler,			//     DCMI
 275:/home/jonas/warwick/3dProfilometer/xpcc/src/xpcc/architecture/platform/cortex_m3/stm32/stm32f2_4/startup/startup.c **** 	CRYP_IRQHandler,			//     CRYP Crypto
 276:/home/jonas/warwick/3dProfilometer/xpcc/src/xpcc/architecture/platform/cortex_m3/stm32/stm32f2_4/startup/startup.c **** 	HASH_RNG_IRQHandler,		// 80: Hash and Random Number Generator
 277:/home/jonas/warwick/3dProfilometer/xpcc/src/xpcc/architecture/platform/cortex_m3/stm32/stm32f2_4/startup/startup.c **** 	FPU_IRQHandler,				//     FPU
 278:/home/jonas/warwick/3dProfilometer/xpcc/src/xpcc/architecture/platform/cortex_m3/stm32/stm32f2_4/startup/startup.c **** };
 279:/home/jonas/warwick/3dProfilometer/xpcc/src/xpcc/architecture/platform/cortex_m3/stm32/stm32f2_4/startup/startup.c **** 
 280:/home/jonas/warwick/3dProfilometer/xpcc/src/xpcc/architecture/platform/cortex_m3/stm32/stm32f2_4/startup/startup.c **** // ----------------------------------------------------------------------------
 281:/home/jonas/warwick/3dProfilometer/xpcc/src/xpcc/architecture/platform/cortex_m3/stm32/stm32f2_4/startup/startup.c **** // defined in the linkerscript
 282:/home/jonas/warwick/3dProfilometer/xpcc/src/xpcc/architecture/platform/cortex_m3/stm32/stm32f2_4/startup/startup.c **** extern uint32_t __fastcode_load;
 283:/home/jonas/warwick/3dProfilometer/xpcc/src/xpcc/architecture/platform/cortex_m3/stm32/stm32f2_4/startup/startup.c **** extern uint32_t __fastcode_start;
 284:/home/jonas/warwick/3dProfilometer/xpcc/src/xpcc/architecture/platform/cortex_m3/stm32/stm32f2_4/startup/startup.c **** extern uint32_t __fastcode_end;
 285:/home/jonas/warwick/3dProfilometer/xpcc/src/xpcc/architecture/platform/cortex_m3/stm32/stm32f2_4/startup/startup.c **** 
 286:/home/jonas/warwick/3dProfilometer/xpcc/src/xpcc/architecture/platform/cortex_m3/stm32/stm32f2_4/startup/startup.c **** extern uint32_t __data_load;
 287:/home/jonas/warwick/3dProfilometer/xpcc/src/xpcc/architecture/platform/cortex_m3/stm32/stm32f2_4/startup/startup.c **** extern uint32_t __data_start;
 288:/home/jonas/warwick/3dProfilometer/xpcc/src/xpcc/architecture/platform/cortex_m3/stm32/stm32f2_4/startup/startup.c **** extern uint32_t __data_end;
 289:/home/jonas/warwick/3dProfilometer/xpcc/src/xpcc/architecture/platform/cortex_m3/stm32/stm32f2_4/startup/startup.c **** 
 290:/home/jonas/warwick/3dProfilometer/xpcc/src/xpcc/architecture/platform/cortex_m3/stm32/stm32f2_4/startup/startup.c **** extern uint32_t __bss_start;
 291:/home/jonas/warwick/3dProfilometer/xpcc/src/xpcc/architecture/platform/cortex_m3/stm32/stm32f2_4/startup/startup.c **** extern uint32_t __bss_end;
 292:/home/jonas/warwick/3dProfilometer/xpcc/src/xpcc/architecture/platform/cortex_m3/stm32/stm32f2_4/startup/startup.c **** 
 293:/home/jonas/warwick/3dProfilometer/xpcc/src/xpcc/architecture/platform/cortex_m3/stm32/stm32f2_4/startup/startup.c **** // Application's main function
 294:/home/jonas/warwick/3dProfilometer/xpcc/src/xpcc/architecture/platform/cortex_m3/stm32/stm32f2_4/startup/startup.c **** int
 295:/home/jonas/warwick/3dProfilometer/xpcc/src/xpcc/architecture/platform/cortex_m3/stm32/stm32f2_4/startup/startup.c **** main(void);
 296:/home/jonas/warwick/3dProfilometer/xpcc/src/xpcc/architecture/platform/cortex_m3/stm32/stm32f2_4/startup/startup.c **** 
 297:/home/jonas/warwick/3dProfilometer/xpcc/src/xpcc/architecture/platform/cortex_m3/stm32/stm32f2_4/startup/startup.c **** // calls CTORS of static objects
 298:/home/jonas/warwick/3dProfilometer/xpcc/src/xpcc/architecture/platform/cortex_m3/stm32/stm32f2_4/startup/startup.c **** void
 299:/home/jonas/warwick/3dProfilometer/xpcc/src/xpcc/architecture/platform/cortex_m3/stm32/stm32f2_4/startup/startup.c **** __libc_init_array(void);
 300:/home/jonas/warwick/3dProfilometer/xpcc/src/xpcc/architecture/platform/cortex_m3/stm32/stm32f2_4/startup/startup.c **** 
 301:/home/jonas/warwick/3dProfilometer/xpcc/src/xpcc/architecture/platform/cortex_m3/stm32/stm32f2_4/startup/startup.c **** extern void
 302:/home/jonas/warwick/3dProfilometer/xpcc/src/xpcc/architecture/platform/cortex_m3/stm32/stm32f2_4/startup/startup.c **** exit(int) __attribute__ ((noreturn, weak));
 303:/home/jonas/warwick/3dProfilometer/xpcc/src/xpcc/architecture/platform/cortex_m3/stm32/stm32f2_4/startup/startup.c **** 
 304:/home/jonas/warwick/3dProfilometer/xpcc/src/xpcc/architecture/platform/cortex_m3/stm32/stm32f2_4/startup/startup.c **** // ----------------------------------------------------------------------------
 305:/home/jonas/warwick/3dProfilometer/xpcc/src/xpcc/architecture/platform/cortex_m3/stm32/stm32f2_4/startup/startup.c **** void
 306:/home/jonas/warwick/3dProfilometer/xpcc/src/xpcc/architecture/platform/cortex_m3/stm32/stm32f2_4/startup/startup.c **** Reset_Handler(void)
 307:/home/jonas/warwick/3dProfilometer/xpcc/src/xpcc/architecture/platform/cortex_m3/stm32/stm32f2_4/startup/startup.c **** {
 308:/home/jonas/warwick/3dProfilometer/xpcc/src/xpcc/architecture/platform/cortex_m3/stm32/stm32f2_4/startup/startup.c **** 	// startup delay
 309:/home/jonas/warwick/3dProfilometer/xpcc/src/xpcc/architecture/platform/cortex_m3/stm32/stm32f2_4/startup/startup.c **** 	for (volatile unsigned long i = 0; i < 500000; i++)
 310:/home/jonas/warwick/3dProfilometer/xpcc/src/xpcc/architecture/platform/cortex_m3/stm32/stm32f2_4/startup/startup.c **** 	{
 311:/home/jonas/warwick/3dProfilometer/xpcc/src/xpcc/architecture/platform/cortex_m3/stm32/stm32f2_4/startup/startup.c **** 	}
 312:/home/jonas/warwick/3dProfilometer/xpcc/src/xpcc/architecture/platform/cortex_m3/stm32/stm32f2_4/startup/startup.c **** 	
 313:/home/jonas/warwick/3dProfilometer/xpcc/src/xpcc/architecture/platform/cortex_m3/stm32/stm32f2_4/startup/startup.c **** 	// Copy functions to RAM (.fastcode)
 314:/home/jonas/warwick/3dProfilometer/xpcc/src/xpcc/architecture/platform/cortex_m3/stm32/stm32f2_4/startup/startup.c **** 	uint32_t* src = &__fastcode_load;
 315:/home/jonas/warwick/3dProfilometer/xpcc/src/xpcc/architecture/platform/cortex_m3/stm32/stm32f2_4/startup/startup.c **** 	uint32_t* dest = &__fastcode_start;
 316:/home/jonas/warwick/3dProfilometer/xpcc/src/xpcc/architecture/platform/cortex_m3/stm32/stm32f2_4/startup/startup.c **** 	while (dest < &__fastcode_end)
 317:/home/jonas/warwick/3dProfilometer/xpcc/src/xpcc/architecture/platform/cortex_m3/stm32/stm32f2_4/startup/startup.c **** 	{
 318:/home/jonas/warwick/3dProfilometer/xpcc/src/xpcc/architecture/platform/cortex_m3/stm32/stm32f2_4/startup/startup.c **** 		*(dest++) = *(src++);
 319:/home/jonas/warwick/3dProfilometer/xpcc/src/xpcc/architecture/platform/cortex_m3/stm32/stm32f2_4/startup/startup.c **** 	}
 320:/home/jonas/warwick/3dProfilometer/xpcc/src/xpcc/architecture/platform/cortex_m3/stm32/stm32f2_4/startup/startup.c **** 	
 321:/home/jonas/warwick/3dProfilometer/xpcc/src/xpcc/architecture/platform/cortex_m3/stm32/stm32f2_4/startup/startup.c **** 	// Copy the data segment initializers from flash to RAM (.data)
 322:/home/jonas/warwick/3dProfilometer/xpcc/src/xpcc/architecture/platform/cortex_m3/stm32/stm32f2_4/startup/startup.c **** 	src = &__data_load;
 323:/home/jonas/warwick/3dProfilometer/xpcc/src/xpcc/architecture/platform/cortex_m3/stm32/stm32f2_4/startup/startup.c **** 	dest = &__data_start;
 324:/home/jonas/warwick/3dProfilometer/xpcc/src/xpcc/architecture/platform/cortex_m3/stm32/stm32f2_4/startup/startup.c **** 	while (dest < &__data_end)
 325:/home/jonas/warwick/3dProfilometer/xpcc/src/xpcc/architecture/platform/cortex_m3/stm32/stm32f2_4/startup/startup.c **** 	{
 326:/home/jonas/warwick/3dProfilometer/xpcc/src/xpcc/architecture/platform/cortex_m3/stm32/stm32f2_4/startup/startup.c **** 		*(dest++) = *(src++);
 327:/home/jonas/warwick/3dProfilometer/xpcc/src/xpcc/architecture/platform/cortex_m3/stm32/stm32f2_4/startup/startup.c **** 	}
 328:/home/jonas/warwick/3dProfilometer/xpcc/src/xpcc/architecture/platform/cortex_m3/stm32/stm32f2_4/startup/startup.c **** 	
 329:/home/jonas/warwick/3dProfilometer/xpcc/src/xpcc/architecture/platform/cortex_m3/stm32/stm32f2_4/startup/startup.c **** 	// Fill the bss segment with zero (.bss)
 330:/home/jonas/warwick/3dProfilometer/xpcc/src/xpcc/architecture/platform/cortex_m3/stm32/stm32f2_4/startup/startup.c **** 	dest = &__bss_start;
 331:/home/jonas/warwick/3dProfilometer/xpcc/src/xpcc/architecture/platform/cortex_m3/stm32/stm32f2_4/startup/startup.c **** 	while (dest < &__bss_end)
 332:/home/jonas/warwick/3dProfilometer/xpcc/src/xpcc/architecture/platform/cortex_m3/stm32/stm32f2_4/startup/startup.c **** 	{
 333:/home/jonas/warwick/3dProfilometer/xpcc/src/xpcc/architecture/platform/cortex_m3/stm32/stm32f2_4/startup/startup.c **** 		*(dest++) = 0;
 334:/home/jonas/warwick/3dProfilometer/xpcc/src/xpcc/architecture/platform/cortex_m3/stm32/stm32f2_4/startup/startup.c **** 	}
 335:/home/jonas/warwick/3dProfilometer/xpcc/src/xpcc/architecture/platform/cortex_m3/stm32/stm32f2_4/startup/startup.c **** 	
 336:/home/jonas/warwick/3dProfilometer/xpcc/src/xpcc/architecture/platform/cortex_m3/stm32/stm32f2_4/startup/startup.c **** #if defined(STM32F4XX)
 337:/home/jonas/warwick/3dProfilometer/xpcc/src/xpcc/architecture/platform/cortex_m3/stm32/stm32f2_4/startup/startup.c **** 	// prepare flash latency for working at 168MHz and supply voltage > 2.7
 338:/home/jonas/warwick/3dProfilometer/xpcc/src/xpcc/architecture/platform/cortex_m3/stm32/stm32f2_4/startup/startup.c **** 	FLASH->ACR = (FLASH->ACR & ~FLASH_ACR_LATENCY) | FLASH_WAIT_STATE_5;
 339:/home/jonas/warwick/3dProfilometer/xpcc/src/xpcc/architecture/platform/cortex_m3/stm32/stm32f2_4/startup/startup.c **** #elif defined(STM32F2XX)
 340:/home/jonas/warwick/3dProfilometer/xpcc/src/xpcc/architecture/platform/cortex_m3/stm32/stm32f2_4/startup/startup.c **** 	// prepare flash latency for working at 120MHz and supply voltage > 2.7
 341:/home/jonas/warwick/3dProfilometer/xpcc/src/xpcc/architecture/platform/cortex_m3/stm32/stm32f2_4/startup/startup.c **** 	FLASH->ACR = (FLASH->ACR & ~FLASH_ACR_LATENCY) | FLASH_WAIT_STATE_3;
 342:/home/jonas/warwick/3dProfilometer/xpcc/src/xpcc/architecture/platform/cortex_m3/stm32/stm32f2_4/startup/startup.c **** #else
 343:/home/jonas/warwick/3dProfilometer/xpcc/src/xpcc/architecture/platform/cortex_m3/stm32/stm32f2_4/startup/startup.c **** 	#error "This file is not supposed to be used with given CPU (only STM32F2/4xx)"
 344:/home/jonas/warwick/3dProfilometer/xpcc/src/xpcc/architecture/platform/cortex_m3/stm32/stm32f2_4/startup/startup.c **** #endif
 345:/home/jonas/warwick/3dProfilometer/xpcc/src/xpcc/architecture/platform/cortex_m3/stm32/stm32f2_4/startup/startup.c **** 	
 346:/home/jonas/warwick/3dProfilometer/xpcc/src/xpcc/architecture/platform/cortex_m3/stm32/stm32f2_4/startup/startup.c **** 	// enable flash prefetch
 347:/home/jonas/warwick/3dProfilometer/xpcc/src/xpcc/architecture/platform/cortex_m3/stm32/stm32f2_4/startup/startup.c **** 	FLASH->ACR |= FLASH_ACR_PRFTEN | FLASH_ACR_DCEN | FLASH_ACR_ICEN;
 348:/home/jonas/warwick/3dProfilometer/xpcc/src/xpcc/architecture/platform/cortex_m3/stm32/stm32f2_4/startup/startup.c **** 
 349:/home/jonas/warwick/3dProfilometer/xpcc/src/xpcc/architecture/platform/cortex_m3/stm32/stm32f2_4/startup/startup.c **** #if defined(STM32F4XX)
 350:/home/jonas/warwick/3dProfilometer/xpcc/src/xpcc/architecture/platform/cortex_m3/stm32/stm32f2_4/startup/startup.c **** 	// Enable FPU in privileged and user mode
 351:/home/jonas/warwick/3dProfilometer/xpcc/src/xpcc/architecture/platform/cortex_m3/stm32/stm32f2_4/startup/startup.c **** 	SCB->CPACR |= ((3UL << 10*2) | (3UL << 11*2));  // set CP10 and CP11 Full Access
 352:/home/jonas/warwick/3dProfilometer/xpcc/src/xpcc/architecture/platform/cortex_m3/stm32/stm32f2_4/startup/startup.c **** 	
 353:/home/jonas/warwick/3dProfilometer/xpcc/src/xpcc/architecture/platform/cortex_m3/stm32/stm32f2_4/startup/startup.c **** 	// Enable Core Coupled Memory (CCM)
 354:/home/jonas/warwick/3dProfilometer/xpcc/src/xpcc/architecture/platform/cortex_m3/stm32/stm32f2_4/startup/startup.c **** 	RCC->AHB1ENR |= RCC_AHB1ENR_CCMDATARAMEN;
 355:/home/jonas/warwick/3dProfilometer/xpcc/src/xpcc/architecture/platform/cortex_m3/stm32/stm32f2_4/startup/startup.c **** #endif
 356:/home/jonas/warwick/3dProfilometer/xpcc/src/xpcc/architecture/platform/cortex_m3/stm32/stm32f2_4/startup/startup.c **** 	
 357:/home/jonas/warwick/3dProfilometer/xpcc/src/xpcc/architecture/platform/cortex_m3/stm32/stm32f2_4/startup/startup.c **** 	// Enable GPIO clock
 358:/home/jonas/warwick/3dProfilometer/xpcc/src/xpcc/architecture/platform/cortex_m3/stm32/stm32f2_4/startup/startup.c **** 	// TODO adapt to actual pin count!
 359:/home/jonas/warwick/3dProfilometer/xpcc/src/xpcc/architecture/platform/cortex_m3/stm32/stm32f2_4/startup/startup.c **** 	// GPIOA-D
 360:/home/jonas/warwick/3dProfilometer/xpcc/src/xpcc/architecture/platform/cortex_m3/stm32/stm32f2_4/startup/startup.c **** 	RCC->AHB1ENR  |=   RCC_AHB1ENR_GPIOAEN   | RCC_AHB1ENR_GPIOBEN   | RCC_AHB1ENR_GPIOCEN   | RCC_AHB
 361:/home/jonas/warwick/3dProfilometer/xpcc/src/xpcc/architecture/platform/cortex_m3/stm32/stm32f2_4/startup/startup.c **** 	RCC->AHB1RSTR |=   RCC_AHB1RSTR_GPIOARST | RCC_AHB1RSTR_GPIOBRST | RCC_AHB1RSTR_GPIOCRST | RCC_AHB
 362:/home/jonas/warwick/3dProfilometer/xpcc/src/xpcc/architecture/platform/cortex_m3/stm32/stm32f2_4/startup/startup.c **** 	RCC->AHB1RSTR &= ~(RCC_AHB1RSTR_GPIOARST | RCC_AHB1RSTR_GPIOBRST | RCC_AHB1RSTR_GPIOCRST | RCC_AHB
 363:/home/jonas/warwick/3dProfilometer/xpcc/src/xpcc/architecture/platform/cortex_m3/stm32/stm32f2_4/startup/startup.c **** 	// GPIOE-I
 364:/home/jonas/warwick/3dProfilometer/xpcc/src/xpcc/architecture/platform/cortex_m3/stm32/stm32f2_4/startup/startup.c **** 	RCC->AHB1ENR  |=   RCC_AHB1ENR_GPIOEEN   | RCC_AHB1ENR_GPIOFEN   | RCC_AHB1ENR_GPIOGEN   | RCC_AHB
 365:/home/jonas/warwick/3dProfilometer/xpcc/src/xpcc/architecture/platform/cortex_m3/stm32/stm32f2_4/startup/startup.c **** 	RCC->AHB1RSTR |=   RCC_AHB1RSTR_GPIOERST | RCC_AHB1RSTR_GPIOFRST | RCC_AHB1RSTR_GPIOGRST | RCC_AHB
 366:/home/jonas/warwick/3dProfilometer/xpcc/src/xpcc/architecture/platform/cortex_m3/stm32/stm32f2_4/startup/startup.c **** 	RCC->AHB1RSTR &= ~(RCC_AHB1RSTR_GPIOERST | RCC_AHB1RSTR_GPIOFRST | RCC_AHB1RSTR_GPIOGRST | RCC_AHB
 367:/home/jonas/warwick/3dProfilometer/xpcc/src/xpcc/architecture/platform/cortex_m3/stm32/stm32f2_4/startup/startup.c **** 	
 368:/home/jonas/warwick/3dProfilometer/xpcc/src/xpcc/architecture/platform/cortex_m3/stm32/stm32f2_4/startup/startup.c **** 	// Setup NVIC
 369:/home/jonas/warwick/3dProfilometer/xpcc/src/xpcc/architecture/platform/cortex_m3/stm32/stm32f2_4/startup/startup.c **** 	// Set vector table
 370:/home/jonas/warwick/3dProfilometer/xpcc/src/xpcc/architecture/platform/cortex_m3/stm32/stm32f2_4/startup/startup.c **** 	const uint32_t offset = 0;
 371:/home/jonas/warwick/3dProfilometer/xpcc/src/xpcc/architecture/platform/cortex_m3/stm32/stm32f2_4/startup/startup.c **** 	SCB->VTOR = 0x08000000 | (offset & 0x1FFFFF80);
 372:/home/jonas/warwick/3dProfilometer/xpcc/src/xpcc/architecture/platform/cortex_m3/stm32/stm32f2_4/startup/startup.c **** 
 373:/home/jonas/warwick/3dProfilometer/xpcc/src/xpcc/architecture/platform/cortex_m3/stm32/stm32f2_4/startup/startup.c **** 	// Lower priority level for all peripheral interrupts to lowest possible
 374:/home/jonas/warwick/3dProfilometer/xpcc/src/xpcc/architecture/platform/cortex_m3/stm32/stm32f2_4/startup/startup.c **** 	for (uint32_t i = 0; i < NR_INTERRUPTS; i++) {
 375:/home/jonas/warwick/3dProfilometer/xpcc/src/xpcc/architecture/platform/cortex_m3/stm32/stm32f2_4/startup/startup.c **** 		const uint32_t priority = 0xF;
 376:/home/jonas/warwick/3dProfilometer/xpcc/src/xpcc/architecture/platform/cortex_m3/stm32/stm32f2_4/startup/startup.c **** 		NVIC->IP[i] = (priority & 0xF) << 4;
 377:/home/jonas/warwick/3dProfilometer/xpcc/src/xpcc/architecture/platform/cortex_m3/stm32/stm32f2_4/startup/startup.c **** 	}
 378:/home/jonas/warwick/3dProfilometer/xpcc/src/xpcc/architecture/platform/cortex_m3/stm32/stm32f2_4/startup/startup.c **** 	
 379:/home/jonas/warwick/3dProfilometer/xpcc/src/xpcc/architecture/platform/cortex_m3/stm32/stm32f2_4/startup/startup.c **** 	// Set the PRIGROUP[10:8] bits to
 380:/home/jonas/warwick/3dProfilometer/xpcc/src/xpcc/architecture/platform/cortex_m3/stm32/stm32f2_4/startup/startup.c **** 	// - 4 bits for pre-emption priority,
 381:/home/jonas/warwick/3dProfilometer/xpcc/src/xpcc/architecture/platform/cortex_m3/stm32/stm32f2_4/startup/startup.c **** 	// - 0 bits for subpriority
 382:/home/jonas/warwick/3dProfilometer/xpcc/src/xpcc/architecture/platform/cortex_m3/stm32/stm32f2_4/startup/startup.c **** 	SCB->AIRCR = 0x05FA0000 | 0x300;
 383:/home/jonas/warwick/3dProfilometer/xpcc/src/xpcc/architecture/platform/cortex_m3/stm32/stm32f2_4/startup/startup.c **** 	
 384:/home/jonas/warwick/3dProfilometer/xpcc/src/xpcc/architecture/platform/cortex_m3/stm32/stm32f2_4/startup/startup.c **** 	// Enable fault handlers
 385:/home/jonas/warwick/3dProfilometer/xpcc/src/xpcc/architecture/platform/cortex_m3/stm32/stm32f2_4/startup/startup.c **** 	/*SCB->SHCSR |=
 386:/home/jonas/warwick/3dProfilometer/xpcc/src/xpcc/architecture/platform/cortex_m3/stm32/stm32f2_4/startup/startup.c **** 			SCB_SHCSR_BUSFAULTENA_Msk |
 387:/home/jonas/warwick/3dProfilometer/xpcc/src/xpcc/architecture/platform/cortex_m3/stm32/stm32f2_4/startup/startup.c **** 			SCB_SHCSR_USGFAULTENA_Msk |
 388:/home/jonas/warwick/3dProfilometer/xpcc/src/xpcc/architecture/platform/cortex_m3/stm32/stm32f2_4/startup/startup.c **** 			SCB_SHCSR_MEMFAULTENA_Msk;*/
 389:/home/jonas/warwick/3dProfilometer/xpcc/src/xpcc/architecture/platform/cortex_m3/stm32/stm32f2_4/startup/startup.c **** 	
 390:/home/jonas/warwick/3dProfilometer/xpcc/src/xpcc/architecture/platform/cortex_m3/stm32/stm32f2_4/startup/startup.c **** 	// Call CTORS of static objects
 391:/home/jonas/warwick/3dProfilometer/xpcc/src/xpcc/architecture/platform/cortex_m3/stm32/stm32f2_4/startup/startup.c **** 	__libc_init_array();
 392:/home/jonas/warwick/3dProfilometer/xpcc/src/xpcc/architecture/platform/cortex_m3/stm32/stm32f2_4/startup/startup.c **** 	
 393:/home/jonas/warwick/3dProfilometer/xpcc/src/xpcc/architecture/platform/cortex_m3/stm32/stm32f2_4/startup/startup.c **** 	// Call the application's entry point
 394:/home/jonas/warwick/3dProfilometer/xpcc/src/xpcc/architecture/platform/cortex_m3/stm32/stm32f2_4/startup/startup.c **** 	main();
 395:/home/jonas/warwick/3dProfilometer/xpcc/src/xpcc/architecture/platform/cortex_m3/stm32/stm32f2_4/startup/startup.c **** 	
 396:/home/jonas/warwick/3dProfilometer/xpcc/src/xpcc/architecture/platform/cortex_m3/stm32/stm32f2_4/startup/startup.c **** 	exit(1);
 397:/home/jonas/warwick/3dProfilometer/xpcc/src/xpcc/architecture/platform/cortex_m3/stm32/stm32f2_4/startup/startup.c **** 	
 398:/home/jonas/warwick/3dProfilometer/xpcc/src/xpcc/architecture/platform/cortex_m3/stm32/stm32f2_4/startup/startup.c **** 	while (1)
 399:/home/jonas/warwick/3dProfilometer/xpcc/src/xpcc/architecture/platform/cortex_m3/stm32/stm32f2_4/startup/startup.c **** 	{
 400:/home/jonas/warwick/3dProfilometer/xpcc/src/xpcc/architecture/platform/cortex_m3/stm32/stm32f2_4/startup/startup.c **** 	}
 401:/home/jonas/warwick/3dProfilometer/xpcc/src/xpcc/architecture/platform/cortex_m3/stm32/stm32f2_4/startup/startup.c **** }
 402:/home/jonas/warwick/3dProfilometer/xpcc/src/xpcc/architecture/platform/cortex_m3/stm32/stm32f2_4/startup/startup.c **** 
 403:/home/jonas/warwick/3dProfilometer/xpcc/src/xpcc/architecture/platform/cortex_m3/stm32/stm32f2_4/startup/startup.c **** // ----------------------------------------------------------------------------
 404:/home/jonas/warwick/3dProfilometer/xpcc/src/xpcc/architecture/platform/cortex_m3/stm32/stm32f2_4/startup/startup.c **** /**
 405:/home/jonas/warwick/3dProfilometer/xpcc/src/xpcc/architecture/platform/cortex_m3/stm32/stm32f2_4/startup/startup.c ****  * @brief	Default interrupt handler
 406:/home/jonas/warwick/3dProfilometer/xpcc/src/xpcc/architecture/platform/cortex_m3/stm32/stm32f2_4/startup/startup.c ****  * 
 407:/home/jonas/warwick/3dProfilometer/xpcc/src/xpcc/architecture/platform/cortex_m3/stm32/stm32f2_4/startup/startup.c ****  * This functions gets called if an interrupt handler is not defined. It just
 408:/home/jonas/warwick/3dProfilometer/xpcc/src/xpcc/architecture/platform/cortex_m3/stm32/stm32f2_4/startup/startup.c ****  * enters an infinite loop leaving the processor state intact for a debugger
 409:/home/jonas/warwick/3dProfilometer/xpcc/src/xpcc/architecture/platform/cortex_m3/stm32/stm32f2_4/startup/startup.c ****  * to be examined.
 410:/home/jonas/warwick/3dProfilometer/xpcc/src/xpcc/architecture/platform/cortex_m3/stm32/stm32f2_4/startup/startup.c **** */
 411:/home/jonas/warwick/3dProfilometer/xpcc/src/xpcc/architecture/platform/cortex_m3/stm32/stm32f2_4/startup/startup.c **** void
 412:/home/jonas/warwick/3dProfilometer/xpcc/src/xpcc/architecture/platform/cortex_m3/stm32/stm32f2_4/startup/startup.c **** defaultHandler(void)
 413:/home/jonas/warwick/3dProfilometer/xpcc/src/xpcc/architecture/platform/cortex_m3/stm32/stm32f2_4/startup/startup.c **** {
  28              		.loc 1 413 0
  29              		.cfi_startproc
  30              		@ Volatile: function does not return.
  31              		@ args = 0, pretend = 0, frame = 0
  32              		@ frame_needed = 0, uses_anonymous_args = 0
  33              		@ link register save eliminated.
  34              	.L2:
  35 0000 FEE7     		b	.L2
  36              		.cfi_endproc
  37              	.LFE111:
  39              		.weak	MemManage_Handler
  40              		.thumb_set MemManage_Handler,defaultHandler
  41              		.weak	BusFault_Handler
  42              		.thumb_set BusFault_Handler,defaultHandler
  43              		.weak	UsageFault_Handler
  44              		.thumb_set UsageFault_Handler,defaultHandler
  45              		.weak	SVC_Handler
  46              		.thumb_set SVC_Handler,defaultHandler
  47              		.weak	DebugMon_Handler
  48              		.thumb_set DebugMon_Handler,defaultHandler
  49              		.weak	PendSV_Handler
  50              		.thumb_set PendSV_Handler,defaultHandler
  51              		.weak	SysTick_Handler
  52              		.thumb_set SysTick_Handler,defaultHandler
  53              		.weak	WWDG_IRQHandler
  54              		.thumb_set WWDG_IRQHandler,defaultHandler
  55              		.weak	PVD_IRQHandler
  56              		.thumb_set PVD_IRQHandler,defaultHandler
  57              		.weak	TAMP_STAMP_IRQHandler
  58              		.thumb_set TAMP_STAMP_IRQHandler,defaultHandler
  59              		.weak	RTC_WKUP_IRQHandler
  60              		.thumb_set RTC_WKUP_IRQHandler,defaultHandler
  61              		.weak	FLASH_IRQHandler
  62              		.thumb_set FLASH_IRQHandler,defaultHandler
  63              		.weak	RCC_IRQHandler
  64              		.thumb_set RCC_IRQHandler,defaultHandler
  65              		.weak	EXTI0_IRQHandler
  66              		.thumb_set EXTI0_IRQHandler,defaultHandler
  67              		.weak	EXTI1_IRQHandler
  68              		.thumb_set EXTI1_IRQHandler,defaultHandler
  69              		.weak	EXTI2_IRQHandler
  70              		.thumb_set EXTI2_IRQHandler,defaultHandler
  71              		.weak	EXTI3_IRQHandler
  72              		.thumb_set EXTI3_IRQHandler,defaultHandler
  73              		.weak	EXTI4_IRQHandler
  74              		.thumb_set EXTI4_IRQHandler,defaultHandler
  75              		.weak	DMA1_Stream0_IRQHandler
  76              		.thumb_set DMA1_Stream0_IRQHandler,defaultHandler
  77              		.weak	DMA1_Stream1_IRQHandler
  78              		.thumb_set DMA1_Stream1_IRQHandler,defaultHandler
  79              		.weak	DMA1_Stream2_IRQHandler
  80              		.thumb_set DMA1_Stream2_IRQHandler,defaultHandler
  81              		.weak	DMA1_Stream3_IRQHandler
  82              		.thumb_set DMA1_Stream3_IRQHandler,defaultHandler
  83              		.weak	DMA1_Stream4_IRQHandler
  84              		.thumb_set DMA1_Stream4_IRQHandler,defaultHandler
  85              		.weak	DMA1_Stream5_IRQHandler
  86              		.thumb_set DMA1_Stream5_IRQHandler,defaultHandler
  87              		.weak	DMA1_Stream6_IRQHandler
  88              		.thumb_set DMA1_Stream6_IRQHandler,defaultHandler
  89              		.weak	ADC_IRQHandler
  90              		.thumb_set ADC_IRQHandler,defaultHandler
  91              		.weak	CAN1_TX_IRQHandler
  92              		.thumb_set CAN1_TX_IRQHandler,defaultHandler
  93              		.weak	CAN1_RX0_IRQHandler
  94              		.thumb_set CAN1_RX0_IRQHandler,defaultHandler
  95              		.weak	CAN1_RX1_IRQHandler
  96              		.thumb_set CAN1_RX1_IRQHandler,defaultHandler
  97              		.weak	CAN1_SCE_IRQHandler
  98              		.thumb_set CAN1_SCE_IRQHandler,defaultHandler
  99              		.weak	EXTI9_5_IRQHandler
 100              		.thumb_set EXTI9_5_IRQHandler,defaultHandler
 101              		.weak	TIM1_BRK_TIM9_IRQHandler
 102              		.thumb_set TIM1_BRK_TIM9_IRQHandler,defaultHandler
 103              		.weak	TIM1_UP_TIM10_IRQHandler
 104              		.thumb_set TIM1_UP_TIM10_IRQHandler,defaultHandler
 105              		.weak	TIM1_TRG_COM_TIM11_IRQHandler
 106              		.thumb_set TIM1_TRG_COM_TIM11_IRQHandler,defaultHandler
 107              		.weak	TIM1_CC_IRQHandler
 108              		.thumb_set TIM1_CC_IRQHandler,defaultHandler
 109              		.weak	TIM2_IRQHandler
 110              		.thumb_set TIM2_IRQHandler,defaultHandler
 111              		.weak	TIM3_IRQHandler
 112              		.thumb_set TIM3_IRQHandler,defaultHandler
 113              		.weak	TIM4_IRQHandler
 114              		.thumb_set TIM4_IRQHandler,defaultHandler
 115              		.weak	I2C1_EV_IRQHandler
 116              		.thumb_set I2C1_EV_IRQHandler,defaultHandler
 117              		.weak	I2C1_ER_IRQHandler
 118              		.thumb_set I2C1_ER_IRQHandler,defaultHandler
 119              		.weak	I2C2_EV_IRQHandler
 120              		.thumb_set I2C2_EV_IRQHandler,defaultHandler
 121              		.weak	I2C2_ER_IRQHandler
 122              		.thumb_set I2C2_ER_IRQHandler,defaultHandler
 123              		.weak	SPI1_IRQHandler
 124              		.thumb_set SPI1_IRQHandler,defaultHandler
 125              		.weak	SPI2_IRQHandler
 126              		.thumb_set SPI2_IRQHandler,defaultHandler
 127              		.weak	USART1_IRQHandler
 128              		.thumb_set USART1_IRQHandler,defaultHandler
 129              		.weak	USART2_IRQHandler
 130              		.thumb_set USART2_IRQHandler,defaultHandler
 131              		.weak	USART3_IRQHandler
 132              		.thumb_set USART3_IRQHandler,defaultHandler
 133              		.weak	EXTI15_10_IRQHandler
 134              		.thumb_set EXTI15_10_IRQHandler,defaultHandler
 135              		.weak	RTCAlarm_IRQHandler
 136              		.thumb_set RTCAlarm_IRQHandler,defaultHandler
 137              		.weak	OTG_FS_WKUP_IRQHandler
 138              		.thumb_set OTG_FS_WKUP_IRQHandler,defaultHandler
 139              		.weak	TIM8_BRK_TIM12_IRQHandler
 140              		.thumb_set TIM8_BRK_TIM12_IRQHandler,defaultHandler
 141              		.weak	TIM8_UP_TIM13_IRQHandler
 142              		.thumb_set TIM8_UP_TIM13_IRQHandler,defaultHandler
 143              		.weak	TIM8_TRG_COM_TIM14_IRQHandler
 144              		.thumb_set TIM8_TRG_COM_TIM14_IRQHandler,defaultHandler
 145              		.weak	TIM8_CC_IRQHandler
 146              		.thumb_set TIM8_CC_IRQHandler,defaultHandler
 147              		.weak	DMA1_Stream7_IRQHandler
 148              		.thumb_set DMA1_Stream7_IRQHandler,defaultHandler
 149              		.weak	FSMC_IRQHandler
 150              		.thumb_set FSMC_IRQHandler,defaultHandler
 151              		.weak	SDIO_IRQHandler
 152              		.thumb_set SDIO_IRQHandler,defaultHandler
 153              		.weak	TIM5_IRQHandler
 154              		.thumb_set TIM5_IRQHandler,defaultHandler
 155              		.weak	SPI3_IRQHandler
 156              		.thumb_set SPI3_IRQHandler,defaultHandler
 157              		.weak	UART4_IRQHandler
 158              		.thumb_set UART4_IRQHandler,defaultHandler
 159              		.weak	UART5_IRQHandler
 160              		.thumb_set UART5_IRQHandler,defaultHandler
 161              		.weak	TIM6_DAC_IRQHandler
 162              		.thumb_set TIM6_DAC_IRQHandler,defaultHandler
 163              		.weak	TIM7_IRQHandler
 164              		.thumb_set TIM7_IRQHandler,defaultHandler
 165              		.weak	DMA2_Stream0_IRQHandler
 166              		.thumb_set DMA2_Stream0_IRQHandler,defaultHandler
 167              		.weak	DMA2_Stream1_IRQHandler
 168              		.thumb_set DMA2_Stream1_IRQHandler,defaultHandler
 169              		.weak	DMA2_Stream2_IRQHandler
 170              		.thumb_set DMA2_Stream2_IRQHandler,defaultHandler
 171              		.weak	DMA2_Stream3_IRQHandler
 172              		.thumb_set DMA2_Stream3_IRQHandler,defaultHandler
 173              		.weak	DMA2_Stream4_IRQHandler
 174              		.thumb_set DMA2_Stream4_IRQHandler,defaultHandler
 175              		.weak	ETH_IRQHandler
 176              		.thumb_set ETH_IRQHandler,defaultHandler
 177              		.weak	ETH_WKUP_IRQHandler
 178              		.thumb_set ETH_WKUP_IRQHandler,defaultHandler
 179              		.weak	CAN2_TX_IRQHandler
 180              		.thumb_set CAN2_TX_IRQHandler,defaultHandler
 181              		.weak	CAN2_RX0_IRQHandler
 182              		.thumb_set CAN2_RX0_IRQHandler,defaultHandler
 183              		.weak	CAN2_RX1_IRQHandler
 184              		.thumb_set CAN2_RX1_IRQHandler,defaultHandler
 185              		.weak	CAN2_SCE_IRQHandler
 186              		.thumb_set CAN2_SCE_IRQHandler,defaultHandler
 187              		.weak	OTG_FS_IRQHandler
 188              		.thumb_set OTG_FS_IRQHandler,defaultHandler
 189              		.weak	DMA2_Stream5_IRQHandler
 190              		.thumb_set DMA2_Stream5_IRQHandler,defaultHandler
 191              		.weak	DMA2_Stream6_IRQHandler
 192              		.thumb_set DMA2_Stream6_IRQHandler,defaultHandler
 193              		.weak	DMA2_Stream7_IRQHandler
 194              		.thumb_set DMA2_Stream7_IRQHandler,defaultHandler
 195              		.weak	USART6_IRQHandler
 196              		.thumb_set USART6_IRQHandler,defaultHandler
 197              		.weak	I2C3_EV_IRQHandler
 198              		.thumb_set I2C3_EV_IRQHandler,defaultHandler
 199              		.weak	I2C3_ER_IRQHandler
 200              		.thumb_set I2C3_ER_IRQHandler,defaultHandler
 201              		.weak	OTG_HS_EP1_OUT_IRQHandler
 202              		.thumb_set OTG_HS_EP1_OUT_IRQHandler,defaultHandler
 203              		.weak	OTG_HS_EP1_IN_IRQHandler
 204              		.thumb_set OTG_HS_EP1_IN_IRQHandler,defaultHandler
 205              		.weak	OTG_HS_WKUP_IRQHandler
 206              		.thumb_set OTG_HS_WKUP_IRQHandler,defaultHandler
 207              		.weak	OTG_HS_IRQHandler
 208              		.thumb_set OTG_HS_IRQHandler,defaultHandler
 209              		.weak	DCMI_IRQHandler
 210              		.thumb_set DCMI_IRQHandler,defaultHandler
 211              		.weak	CRYP_IRQHandler
 212              		.thumb_set CRYP_IRQHandler,defaultHandler
 213              		.weak	HASH_RNG_IRQHandler
 214              		.thumb_set HASH_RNG_IRQHandler,defaultHandler
 215              		.weak	FPU_IRQHandler
 216              		.thumb_set FPU_IRQHandler,defaultHandler
 217              		.weak	NMI_Handler
 218              		.thumb_set NMI_Handler,defaultHandler
 219 0002 00BF     		.section	.text.Reset_Handler,"ax",%progbits
 220              		.align	2
 221              		.global	Reset_Handler
 222              		.thumb
 223              		.thumb_func
 225              	Reset_Handler:
 226              	.LFB110:
 307:/home/jonas/warwick/3dProfilometer/xpcc/src/xpcc/architecture/platform/cortex_m3/stm32/stm32f2_4/startup/startup.c **** {
 227              		.loc 1 307 0
 228              		.cfi_startproc
 229              		@ args = 0, pretend = 0, frame = 8
 230              		@ frame_needed = 0, uses_anonymous_args = 0
 307:/home/jonas/warwick/3dProfilometer/xpcc/src/xpcc/architecture/platform/cortex_m3/stm32/stm32f2_4/startup/startup.c **** {
 231              		.loc 1 307 0
 232 0000 00B5     		push	{lr}
 233              	.LCFI0:
 234              		.cfi_def_cfa_offset 4
 235              		.cfi_offset 14, -4
 236              	.LBB2:
 309:/home/jonas/warwick/3dProfilometer/xpcc/src/xpcc/architecture/platform/cortex_m3/stm32/stm32f2_4/startup/startup.c **** 	for (volatile unsigned long i = 0; i < 500000; i++)
 237              		.loc 1 309 0
 238 0002 0023     		movs	r3, #0
 239              	.LBE2:
 307:/home/jonas/warwick/3dProfilometer/xpcc/src/xpcc/architecture/platform/cortex_m3/stm32/stm32f2_4/startup/startup.c **** {
 240              		.loc 1 307 0
 241 0004 83B0     		sub	sp, sp, #12
 242              	.LCFI1:
 243              		.cfi_def_cfa_offset 16
 244 0006 01E0     		b	.L23
 245              	.LVL0:
 246              	.L16:
 247              	.LBB3:
 309:/home/jonas/warwick/3dProfilometer/xpcc/src/xpcc/architecture/platform/cortex_m3/stm32/stm32f2_4/startup/startup.c **** 	for (volatile unsigned long i = 0; i < 500000; i++)
 248              		.loc 1 309 0 discriminator 2
 249 0008 019B     		ldr	r3, [sp, #4]
 250 000a 0133     		adds	r3, r3, #1
 251              	.LVL1:
 252              	.L23:
 309:/home/jonas/warwick/3dProfilometer/xpcc/src/xpcc/architecture/platform/cortex_m3/stm32/stm32f2_4/startup/startup.c **** 	for (volatile unsigned long i = 0; i < 500000; i++)
 253              		.loc 1 309 0 is_stmt 0
 254 000c 0193     		str	r3, [sp, #4]
 255              	.LVL2:
 256 000e 019A     		ldr	r2, [sp, #4]
 257 0010 344B     		ldr	r3, .L25
 258 0012 9A42     		cmp	r2, r3
 259 0014 F8D9     		bls	.L16
 260              	.LVL3:
 261              	.LBE3:
 316:/home/jonas/warwick/3dProfilometer/xpcc/src/xpcc/architecture/platform/cortex_m3/stm32/stm32f2_4/startup/startup.c **** 	while (dest < &__fastcode_end)
 262              		.loc 1 316 0 is_stmt 1
 263 0016 344B     		ldr	r3, .L25+4
 264 0018 3448     		ldr	r0, .L25+8
 265 001a 8342     		cmp	r3, r0
 266 001c 06D2     		bcs	.L6
 267 001e 344A     		ldr	r2, .L25+12
 268              	.LVL4:
 269              	.L5:
 318:/home/jonas/warwick/3dProfilometer/xpcc/src/xpcc/architecture/platform/cortex_m3/stm32/stm32f2_4/startup/startup.c **** 		*(dest++) = *(src++);
 270              		.loc 1 318 0
 271 0020 52F8041B 		ldr	r1, [r2], #4
 272 0024 43F8041B 		str	r1, [r3], #4
 273              	.LVL5:
 316:/home/jonas/warwick/3dProfilometer/xpcc/src/xpcc/architecture/platform/cortex_m3/stm32/stm32f2_4/startup/startup.c **** 	while (dest < &__fastcode_end)
 274              		.loc 1 316 0
 275 0028 8342     		cmp	r3, r0
 276 002a F9D3     		bcc	.L5
 277              	.LVL6:
 278              	.L6:
 324:/home/jonas/warwick/3dProfilometer/xpcc/src/xpcc/architecture/platform/cortex_m3/stm32/stm32f2_4/startup/startup.c **** 	while (dest < &__data_end)
 279              		.loc 1 324 0
 280 002c 314B     		ldr	r3, .L25+16
 281 002e 3248     		ldr	r0, .L25+20
 282 0030 8342     		cmp	r3, r0
 283 0032 06D2     		bcs	.L9
 284 0034 314A     		ldr	r2, .L25+24
 285              	.LVL7:
 286              	.L8:
 326:/home/jonas/warwick/3dProfilometer/xpcc/src/xpcc/architecture/platform/cortex_m3/stm32/stm32f2_4/startup/startup.c **** 		*(dest++) = *(src++);
 287              		.loc 1 326 0
 288 0036 52F8041B 		ldr	r1, [r2], #4
 289 003a 43F8041B 		str	r1, [r3], #4
 290              	.LVL8:
 324:/home/jonas/warwick/3dProfilometer/xpcc/src/xpcc/architecture/platform/cortex_m3/stm32/stm32f2_4/startup/startup.c **** 	while (dest < &__data_end)
 291              		.loc 1 324 0
 292 003e 8342     		cmp	r3, r0
 293 0040 F9D3     		bcc	.L8
 294              	.LVL9:
 295              	.L9:
 331:/home/jonas/warwick/3dProfilometer/xpcc/src/xpcc/architecture/platform/cortex_m3/stm32/stm32f2_4/startup/startup.c **** 	while (dest < &__bss_end)
 296              		.loc 1 331 0
 297 0042 2F4B     		ldr	r3, .L25+28
 298 0044 2F49     		ldr	r1, .L25+32
 299 0046 8B42     		cmp	r3, r1
 300 0048 04D2     		bcs	.L11
 301              	.LVL10:
 302              	.L10:
 333:/home/jonas/warwick/3dProfilometer/xpcc/src/xpcc/architecture/platform/cortex_m3/stm32/stm32f2_4/startup/startup.c **** 		*(dest++) = 0;
 303              		.loc 1 333 0
 304 004a 0022     		movs	r2, #0
 305 004c 43F8042B 		str	r2, [r3], #4
 306              	.LVL11:
 331:/home/jonas/warwick/3dProfilometer/xpcc/src/xpcc/architecture/platform/cortex_m3/stm32/stm32f2_4/startup/startup.c **** 	while (dest < &__bss_end)
 307              		.loc 1 331 0
 308 0050 8B42     		cmp	r3, r1
 309 0052 FAD3     		bcc	.L10
 310              	.LVL12:
 311              	.L11:
 338:/home/jonas/warwick/3dProfilometer/xpcc/src/xpcc/architecture/platform/cortex_m3/stm32/stm32f2_4/startup/startup.c **** 	FLASH->ACR = (FLASH->ACR & ~FLASH_ACR_LATENCY) | FLASH_WAIT_STATE_5;
 312              		.loc 1 338 0
 313 0054 2C4A     		ldr	r2, .L25+36
 351:/home/jonas/warwick/3dProfilometer/xpcc/src/xpcc/architecture/platform/cortex_m3/stm32/stm32f2_4/startup/startup.c **** 	SCB->CPACR |= ((3UL << 10*2) | (3UL << 11*2));  // set CP10 and CP11 Full Access
 314              		.loc 1 351 0
 315 0056 2D49     		ldr	r1, .L25+40
 338:/home/jonas/warwick/3dProfilometer/xpcc/src/xpcc/architecture/platform/cortex_m3/stm32/stm32f2_4/startup/startup.c **** 	FLASH->ACR = (FLASH->ACR & ~FLASH_ACR_LATENCY) | FLASH_WAIT_STATE_5;
 316              		.loc 1 338 0
 317 0058 1068     		ldr	r0, [r2, #0]
 354:/home/jonas/warwick/3dProfilometer/xpcc/src/xpcc/architecture/platform/cortex_m3/stm32/stm32f2_4/startup/startup.c **** 	RCC->AHB1ENR |= RCC_AHB1ENR_CCMDATARAMEN;
 318              		.loc 1 354 0
 319 005a 2D4B     		ldr	r3, .L25+44
 338:/home/jonas/warwick/3dProfilometer/xpcc/src/xpcc/architecture/platform/cortex_m3/stm32/stm32f2_4/startup/startup.c **** 	FLASH->ACR = (FLASH->ACR & ~FLASH_ACR_LATENCY) | FLASH_WAIT_STATE_5;
 320              		.loc 1 338 0
 321 005c 20F00700 		bic	r0, r0, #7
 322 0060 40F00500 		orr	r0, r0, #5
 323 0064 1060     		str	r0, [r2, #0]
 347:/home/jonas/warwick/3dProfilometer/xpcc/src/xpcc/architecture/platform/cortex_m3/stm32/stm32f2_4/startup/startup.c **** 	FLASH->ACR |= FLASH_ACR_PRFTEN | FLASH_ACR_DCEN | FLASH_ACR_ICEN;
 324              		.loc 1 347 0
 325 0066 1068     		ldr	r0, [r2, #0]
 326 0068 40F4E060 		orr	r0, r0, #1792
 327 006c 1060     		str	r0, [r2, #0]
 351:/home/jonas/warwick/3dProfilometer/xpcc/src/xpcc/architecture/platform/cortex_m3/stm32/stm32f2_4/startup/startup.c **** 	SCB->CPACR |= ((3UL << 10*2) | (3UL << 11*2));  // set CP10 and CP11 Full Access
 328              		.loc 1 351 0
 329 006e D1F88820 		ldr	r2, [r1, #136]
 330 0072 42F47002 		orr	r2, r2, #15728640
 331 0076 C1F88820 		str	r2, [r1, #136]
 354:/home/jonas/warwick/3dProfilometer/xpcc/src/xpcc/architecture/platform/cortex_m3/stm32/stm32f2_4/startup/startup.c **** 	RCC->AHB1ENR |= RCC_AHB1ENR_CCMDATARAMEN;
 332              		.loc 1 354 0
 333 007a 1A6B     		ldr	r2, [r3, #48]
 334 007c 42F48012 		orr	r2, r2, #1048576
 335 0080 1A63     		str	r2, [r3, #48]
 360:/home/jonas/warwick/3dProfilometer/xpcc/src/xpcc/architecture/platform/cortex_m3/stm32/stm32f2_4/startup/startup.c **** 	RCC->AHB1ENR  |=   RCC_AHB1ENR_GPIOAEN   | RCC_AHB1ENR_GPIOBEN   | RCC_AHB1ENR_GPIOCEN   | RCC_AHB
 336              		.loc 1 360 0
 337 0082 1A6B     		ldr	r2, [r3, #48]
 338 0084 42F00F02 		orr	r2, r2, #15
 339 0088 1A63     		str	r2, [r3, #48]
 361:/home/jonas/warwick/3dProfilometer/xpcc/src/xpcc/architecture/platform/cortex_m3/stm32/stm32f2_4/startup/startup.c **** 	RCC->AHB1RSTR |=   RCC_AHB1RSTR_GPIOARST | RCC_AHB1RSTR_GPIOBRST | RCC_AHB1RSTR_GPIOCRST | RCC_AHB
 340              		.loc 1 361 0
 341 008a 1A69     		ldr	r2, [r3, #16]
 342 008c 42F00F02 		orr	r2, r2, #15
 343 0090 1A61     		str	r2, [r3, #16]
 362:/home/jonas/warwick/3dProfilometer/xpcc/src/xpcc/architecture/platform/cortex_m3/stm32/stm32f2_4/startup/startup.c **** 	RCC->AHB1RSTR &= ~(RCC_AHB1RSTR_GPIOARST | RCC_AHB1RSTR_GPIOBRST | RCC_AHB1RSTR_GPIOCRST | RCC_AHB
 344              		.loc 1 362 0
 345 0092 1A69     		ldr	r2, [r3, #16]
 346 0094 22F00F02 		bic	r2, r2, #15
 347 0098 1A61     		str	r2, [r3, #16]
 364:/home/jonas/warwick/3dProfilometer/xpcc/src/xpcc/architecture/platform/cortex_m3/stm32/stm32f2_4/startup/startup.c **** 	RCC->AHB1ENR  |=   RCC_AHB1ENR_GPIOEEN   | RCC_AHB1ENR_GPIOFEN   | RCC_AHB1ENR_GPIOGEN   | RCC_AHB
 348              		.loc 1 364 0
 349 009a 1A6B     		ldr	r2, [r3, #48]
 350 009c 42F4F872 		orr	r2, r2, #496
 351 00a0 1A63     		str	r2, [r3, #48]
 365:/home/jonas/warwick/3dProfilometer/xpcc/src/xpcc/architecture/platform/cortex_m3/stm32/stm32f2_4/startup/startup.c **** 	RCC->AHB1RSTR |=   RCC_AHB1RSTR_GPIOERST | RCC_AHB1RSTR_GPIOFRST | RCC_AHB1RSTR_GPIOGRST | RCC_AHB
 352              		.loc 1 365 0
 353 00a2 1A69     		ldr	r2, [r3, #16]
 354 00a4 42F4F872 		orr	r2, r2, #496
 355 00a8 1A61     		str	r2, [r3, #16]
 366:/home/jonas/warwick/3dProfilometer/xpcc/src/xpcc/architecture/platform/cortex_m3/stm32/stm32f2_4/startup/startup.c **** 	RCC->AHB1RSTR &= ~(RCC_AHB1RSTR_GPIOERST | RCC_AHB1RSTR_GPIOFRST | RCC_AHB1RSTR_GPIOGRST | RCC_AHB
 356              		.loc 1 366 0
 357 00aa 1A69     		ldr	r2, [r3, #16]
 358 00ac 22F4F872 		bic	r2, r2, #496
 359 00b0 1A61     		str	r2, [r3, #16]
 360              	.LVL13:
 371:/home/jonas/warwick/3dProfilometer/xpcc/src/xpcc/architecture/platform/cortex_m3/stm32/stm32f2_4/startup/startup.c **** 	SCB->VTOR = 0x08000000 | (offset & 0x1FFFFF80);
 361              		.loc 1 371 0
 362 00b2 4FF00062 		mov	r2, #134217728
 374:/home/jonas/warwick/3dProfilometer/xpcc/src/xpcc/architecture/platform/cortex_m3/stm32/stm32f2_4/startup/startup.c **** 	for (uint32_t i = 0; i < NR_INTERRUPTS; i++) {
 363              		.loc 1 374 0
 364 00b6 0023     		movs	r3, #0
 371:/home/jonas/warwick/3dProfilometer/xpcc/src/xpcc/architecture/platform/cortex_m3/stm32/stm32f2_4/startup/startup.c **** 	SCB->VTOR = 0x08000000 | (offset & 0x1FFFFF80);
 365              		.loc 1 371 0
 366 00b8 8A60     		str	r2, [r1, #8]
 367              	.LVL14:
 368              	.L12:
 369              	.LBB4:
 370              	.LBB5:
 376:/home/jonas/warwick/3dProfilometer/xpcc/src/xpcc/architecture/platform/cortex_m3/stm32/stm32f2_4/startup/startup.c **** 		NVIC->IP[i] = (priority & 0xF) << 4;
 371              		.loc 1 376 0 discriminator 2
 372 00ba 03F16042 		add	r2, r3, #-536870912
 373 00be 02F56142 		add	r2, r2, #57600
 374              	.LBE5:
 374:/home/jonas/warwick/3dProfilometer/xpcc/src/xpcc/architecture/platform/cortex_m3/stm32/stm32f2_4/startup/startup.c **** 	for (uint32_t i = 0; i < NR_INTERRUPTS; i++) {
 375              		.loc 1 374 0 discriminator 2
 376 00c2 0133     		adds	r3, r3, #1
 377              	.LVL15:
 378              	.LBB6:
 376:/home/jonas/warwick/3dProfilometer/xpcc/src/xpcc/architecture/platform/cortex_m3/stm32/stm32f2_4/startup/startup.c **** 		NVIC->IP[i] = (priority & 0xF) << 4;
 379              		.loc 1 376 0 discriminator 2
 380 00c4 F021     		movs	r1, #240
 381              	.LBE6:
 374:/home/jonas/warwick/3dProfilometer/xpcc/src/xpcc/architecture/platform/cortex_m3/stm32/stm32f2_4/startup/startup.c **** 	for (uint32_t i = 0; i < NR_INTERRUPTS; i++) {
 382              		.loc 1 374 0 discriminator 2
 383 00c6 522B     		cmp	r3, #82
 384              	.LBB7:
 376:/home/jonas/warwick/3dProfilometer/xpcc/src/xpcc/architecture/platform/cortex_m3/stm32/stm32f2_4/startup/startup.c **** 		NVIC->IP[i] = (priority & 0xF) << 4;
 385              		.loc 1 376 0 discriminator 2
 386 00c8 82F80013 		strb	r1, [r2, #768]
 387              	.LBE7:
 374:/home/jonas/warwick/3dProfilometer/xpcc/src/xpcc/architecture/platform/cortex_m3/stm32/stm32f2_4/startup/startup.c **** 	for (uint32_t i = 0; i < NR_INTERRUPTS; i++) {
 388              		.loc 1 374 0 discriminator 2
 389 00cc F5D1     		bne	.L12
 390              	.LBE4:
 382:/home/jonas/warwick/3dProfilometer/xpcc/src/xpcc/architecture/platform/cortex_m3/stm32/stm32f2_4/startup/startup.c **** 	SCB->AIRCR = 0x05FA0000 | 0x300;
 391              		.loc 1 382 0
 392 00ce 114A     		ldr	r2, .L25+48
 393 00d0 0E4B     		ldr	r3, .L25+40
 394              	.LVL16:
 395 00d2 DA60     		str	r2, [r3, #12]
 391:/home/jonas/warwick/3dProfilometer/xpcc/src/xpcc/architecture/platform/cortex_m3/stm32/stm32f2_4/startup/startup.c **** 	__libc_init_array();
 396              		.loc 1 391 0
 397 00d4 104B     		ldr	r3, .L25+52
 398 00d6 9847     		blx	r3
 399              	.LVL17:
 394:/home/jonas/warwick/3dProfilometer/xpcc/src/xpcc/architecture/platform/cortex_m3/stm32/stm32f2_4/startup/startup.c **** 	main();
 400              		.loc 1 394 0
 401 00d8 104B     		ldr	r3, .L25+56
 402 00da 9847     		blx	r3
 403              	.LVL18:
 396:/home/jonas/warwick/3dProfilometer/xpcc/src/xpcc/architecture/platform/cortex_m3/stm32/stm32f2_4/startup/startup.c **** 	exit(1);
 404              		.loc 1 396 0
 405 00dc 0120     		movs	r0, #1
 406 00de 104B     		ldr	r3, .L25+60
 407 00e0 9847     		blx	r3
 408              	.LVL19:
 409              	.L26:
 410 00e2 00BF     		.align	2
 411              	.L25:
 412 00e4 1FA10700 		.word	499999
 413 00e8 00000000 		.word	__fastcode_start
 414 00ec 00000000 		.word	__fastcode_end
 415 00f0 00000000 		.word	__fastcode_load
 416 00f4 00000000 		.word	__data_start
 417 00f8 00000000 		.word	__data_end
 418 00fc 00000000 		.word	__data_load
 419 0100 00000000 		.word	__bss_start
 420 0104 00000000 		.word	__bss_end
 421 0108 003C0240 		.word	1073888256
 422 010c 00ED00E0 		.word	-536810240
 423 0110 00380240 		.word	1073887232
 424 0114 0003FA05 		.word	100270848
 425 0118 00000000 		.word	__libc_init_array
 426 011c 00000000 		.word	main
 427 0120 00000000 		.word	exit
 428              		.cfi_endproc
 429              	.LFE110:
 431              		.global	flashVectors
 432              		.section	.reset,"a",%progbits
 433              		.align	2
 436              	flashVectors:
 437 0000 00000000 		.word	__stack_end
 438 0004 00000000 		.word	Reset_Handler
 439 0008 00000000 		.word	NMI_Handler
 440 000c 00000000 		.word	HardFault_Handler
 441 0010 00000000 		.word	MemManage_Handler
 442 0014 00000000 		.word	BusFault_Handler
 443 0018 00000000 		.word	UsageFault_Handler
 444 001c 00000000 		.word	0
 445 0020 00000000 		.word	0
 446 0024 00000000 		.word	0
 447 0028 00000000 		.word	0
 448 002c 00000000 		.word	SVC_Handler
 449 0030 00000000 		.word	DebugMon_Handler
 450 0034 00000000 		.word	0
 451 0038 00000000 		.word	PendSV_Handler
 452 003c 00000000 		.word	SysTick_Handler
 453 0040 00000000 		.word	WWDG_IRQHandler
 454 0044 00000000 		.word	PVD_IRQHandler
 455 0048 00000000 		.word	TAMP_STAMP_IRQHandler
 456 004c 00000000 		.word	RTC_WKUP_IRQHandler
 457 0050 00000000 		.word	FLASH_IRQHandler
 458 0054 00000000 		.word	RCC_IRQHandler
 459 0058 00000000 		.word	EXTI0_IRQHandler
 460 005c 00000000 		.word	EXTI1_IRQHandler
 461 0060 00000000 		.word	EXTI2_IRQHandler
 462 0064 00000000 		.word	EXTI3_IRQHandler
 463 0068 00000000 		.word	EXTI4_IRQHandler
 464 006c 00000000 		.word	DMA1_Stream0_IRQHandler
 465 0070 00000000 		.word	DMA1_Stream1_IRQHandler
 466 0074 00000000 		.word	DMA1_Stream2_IRQHandler
 467 0078 00000000 		.word	DMA1_Stream3_IRQHandler
 468 007c 00000000 		.word	DMA1_Stream4_IRQHandler
 469 0080 00000000 		.word	DMA1_Stream5_IRQHandler
 470 0084 00000000 		.word	DMA1_Stream6_IRQHandler
 471 0088 00000000 		.word	ADC_IRQHandler
 472 008c 00000000 		.word	CAN1_TX_IRQHandler
 473 0090 00000000 		.word	CAN1_RX0_IRQHandler
 474 0094 00000000 		.word	CAN1_RX1_IRQHandler
 475 0098 00000000 		.word	CAN1_SCE_IRQHandler
 476 009c 00000000 		.word	EXTI9_5_IRQHandler
 477 00a0 00000000 		.word	TIM1_BRK_TIM9_IRQHandler
 478 00a4 00000000 		.word	TIM1_UP_TIM10_IRQHandler
 479 00a8 00000000 		.word	TIM1_TRG_COM_TIM11_IRQHandler
 480 00ac 00000000 		.word	TIM1_CC_IRQHandler
 481 00b0 00000000 		.word	TIM2_IRQHandler
 482 00b4 00000000 		.word	TIM3_IRQHandler
 483 00b8 00000000 		.word	TIM4_IRQHandler
 484 00bc 00000000 		.word	I2C1_EV_IRQHandler
 485 00c0 00000000 		.word	I2C1_ER_IRQHandler
 486 00c4 00000000 		.word	I2C2_EV_IRQHandler
 487 00c8 00000000 		.word	I2C2_ER_IRQHandler
 488 00cc 00000000 		.word	SPI1_IRQHandler
 489 00d0 00000000 		.word	SPI2_IRQHandler
 490 00d4 00000000 		.word	USART1_IRQHandler
 491 00d8 00000000 		.word	USART2_IRQHandler
 492 00dc 00000000 		.word	USART3_IRQHandler
 493 00e0 00000000 		.word	EXTI15_10_IRQHandler
 494 00e4 00000000 		.word	RTCAlarm_IRQHandler
 495 00e8 00000000 		.word	OTG_FS_WKUP_IRQHandler
 496 00ec 00000000 		.word	TIM8_BRK_TIM12_IRQHandler
 497 00f0 00000000 		.word	TIM8_UP_TIM13_IRQHandler
 498 00f4 00000000 		.word	TIM8_TRG_COM_TIM14_IRQHandler
 499 00f8 00000000 		.word	TIM8_CC_IRQHandler
 500 00fc 00000000 		.word	DMA1_Stream7_IRQHandler
 501 0100 00000000 		.word	FSMC_IRQHandler
 502 0104 00000000 		.word	SDIO_IRQHandler
 503 0108 00000000 		.word	TIM5_IRQHandler
 504 010c 00000000 		.word	SPI3_IRQHandler
 505 0110 00000000 		.word	UART4_IRQHandler
 506 0114 00000000 		.word	UART5_IRQHandler
 507 0118 00000000 		.word	TIM6_DAC_IRQHandler
 508 011c 00000000 		.word	TIM7_IRQHandler
 509 0120 00000000 		.word	DMA2_Stream0_IRQHandler
 510 0124 00000000 		.word	DMA2_Stream1_IRQHandler
 511 0128 00000000 		.word	DMA2_Stream2_IRQHandler
 512 012c 00000000 		.word	DMA2_Stream3_IRQHandler
 513 0130 00000000 		.word	DMA2_Stream4_IRQHandler
 514 0134 00000000 		.word	ETH_IRQHandler
 515 0138 00000000 		.word	ETH_WKUP_IRQHandler
 516 013c 00000000 		.word	CAN2_TX_IRQHandler
 517 0140 00000000 		.word	CAN2_RX0_IRQHandler
 518 0144 00000000 		.word	CAN2_RX1_IRQHandler
 519 0148 00000000 		.word	CAN2_SCE_IRQHandler
 520 014c 00000000 		.word	OTG_FS_IRQHandler
 521 0150 00000000 		.word	DMA2_Stream5_IRQHandler
 522 0154 00000000 		.word	DMA2_Stream6_IRQHandler
 523 0158 00000000 		.word	DMA2_Stream7_IRQHandler
 524 015c 00000000 		.word	USART6_IRQHandler
 525 0160 00000000 		.word	I2C3_EV_IRQHandler
 526 0164 00000000 		.word	I2C3_ER_IRQHandler
 527 0168 00000000 		.word	OTG_HS_EP1_OUT_IRQHandler
 528 016c 00000000 		.word	OTG_HS_EP1_IN_IRQHandler
 529 0170 00000000 		.word	OTG_HS_WKUP_IRQHandler
 530 0174 00000000 		.word	OTG_HS_IRQHandler
 531 0178 00000000 		.word	DCMI_IRQHandler
 532 017c 00000000 		.word	CRYP_IRQHandler
 533 0180 00000000 		.word	HASH_RNG_IRQHandler
 534 0184 00000000 		.word	FPU_IRQHandler
 535              		.weak	exit
 536              		.text
 537              	.Letext0:
 538              		.file 2 "/opt/arm-2012.09/bin/../lib/gcc/arm-none-eabi/4.7.2/../../../../arm-none-eabi/include/std
 539              		.file 3 "/home/jonas/warwick/3dProfilometer/xpcc/ext/stm32f4xx_lib/CMSIS/Include/core_cm4.h"
 540              		.file 4 "/home/jonas/warwick/3dProfilometer/xpcc/ext/stm32f4xx_lib/CMSIS/Device/ST/STM32F4xx/Inclu
DEFINED SYMBOLS
                            *ABS*:00000000 startup.c
     /tmp/ccMa6YKw.s:20     .text.defaultHandler:00000000 $t
     /tmp/ccMa6YKw.s:25     .text.defaultHandler:00000000 defaultHandler
     /tmp/ccMa6YKw.s:25     .text.defaultHandler:00000000 MemManage_Handler
     /tmp/ccMa6YKw.s:25     .text.defaultHandler:00000000 BusFault_Handler
     /tmp/ccMa6YKw.s:25     .text.defaultHandler:00000000 UsageFault_Handler
     /tmp/ccMa6YKw.s:25     .text.defaultHandler:00000000 SVC_Handler
     /tmp/ccMa6YKw.s:25     .text.defaultHandler:00000000 DebugMon_Handler
     /tmp/ccMa6YKw.s:25     .text.defaultHandler:00000000 PendSV_Handler
     /tmp/ccMa6YKw.s:25     .text.defaultHandler:00000000 SysTick_Handler
     /tmp/ccMa6YKw.s:25     .text.defaultHandler:00000000 WWDG_IRQHandler
     /tmp/ccMa6YKw.s:25     .text.defaultHandler:00000000 PVD_IRQHandler
     /tmp/ccMa6YKw.s:25     .text.defaultHandler:00000000 TAMP_STAMP_IRQHandler
     /tmp/ccMa6YKw.s:25     .text.defaultHandler:00000000 RTC_WKUP_IRQHandler
     /tmp/ccMa6YKw.s:25     .text.defaultHandler:00000000 FLASH_IRQHandler
     /tmp/ccMa6YKw.s:25     .text.defaultHandler:00000000 RCC_IRQHandler
     /tmp/ccMa6YKw.s:25     .text.defaultHandler:00000000 EXTI0_IRQHandler
     /tmp/ccMa6YKw.s:25     .text.defaultHandler:00000000 EXTI1_IRQHandler
     /tmp/ccMa6YKw.s:25     .text.defaultHandler:00000000 EXTI2_IRQHandler
     /tmp/ccMa6YKw.s:25     .text.defaultHandler:00000000 EXTI3_IRQHandler
     /tmp/ccMa6YKw.s:25     .text.defaultHandler:00000000 EXTI4_IRQHandler
     /tmp/ccMa6YKw.s:25     .text.defaultHandler:00000000 DMA1_Stream0_IRQHandler
     /tmp/ccMa6YKw.s:25     .text.defaultHandler:00000000 DMA1_Stream1_IRQHandler
     /tmp/ccMa6YKw.s:25     .text.defaultHandler:00000000 DMA1_Stream2_IRQHandler
     /tmp/ccMa6YKw.s:25     .text.defaultHandler:00000000 DMA1_Stream3_IRQHandler
     /tmp/ccMa6YKw.s:25     .text.defaultHandler:00000000 DMA1_Stream4_IRQHandler
     /tmp/ccMa6YKw.s:25     .text.defaultHandler:00000000 DMA1_Stream5_IRQHandler
     /tmp/ccMa6YKw.s:25     .text.defaultHandler:00000000 DMA1_Stream6_IRQHandler
     /tmp/ccMa6YKw.s:25     .text.defaultHandler:00000000 ADC_IRQHandler
     /tmp/ccMa6YKw.s:25     .text.defaultHandler:00000000 CAN1_TX_IRQHandler
     /tmp/ccMa6YKw.s:25     .text.defaultHandler:00000000 CAN1_RX0_IRQHandler
     /tmp/ccMa6YKw.s:25     .text.defaultHandler:00000000 CAN1_RX1_IRQHandler
     /tmp/ccMa6YKw.s:25     .text.defaultHandler:00000000 CAN1_SCE_IRQHandler
     /tmp/ccMa6YKw.s:25     .text.defaultHandler:00000000 EXTI9_5_IRQHandler
     /tmp/ccMa6YKw.s:25     .text.defaultHandler:00000000 TIM1_BRK_TIM9_IRQHandler
     /tmp/ccMa6YKw.s:25     .text.defaultHandler:00000000 TIM1_UP_TIM10_IRQHandler
     /tmp/ccMa6YKw.s:25     .text.defaultHandler:00000000 TIM1_TRG_COM_TIM11_IRQHandler
     /tmp/ccMa6YKw.s:25     .text.defaultHandler:00000000 TIM1_CC_IRQHandler
     /tmp/ccMa6YKw.s:25     .text.defaultHandler:00000000 TIM2_IRQHandler
     /tmp/ccMa6YKw.s:25     .text.defaultHandler:00000000 TIM3_IRQHandler
     /tmp/ccMa6YKw.s:25     .text.defaultHandler:00000000 TIM4_IRQHandler
     /tmp/ccMa6YKw.s:25     .text.defaultHandler:00000000 I2C1_EV_IRQHandler
     /tmp/ccMa6YKw.s:25     .text.defaultHandler:00000000 I2C1_ER_IRQHandler
     /tmp/ccMa6YKw.s:25     .text.defaultHandler:00000000 I2C2_EV_IRQHandler
     /tmp/ccMa6YKw.s:25     .text.defaultHandler:00000000 I2C2_ER_IRQHandler
     /tmp/ccMa6YKw.s:25     .text.defaultHandler:00000000 SPI1_IRQHandler
     /tmp/ccMa6YKw.s:25     .text.defaultHandler:00000000 SPI2_IRQHandler
     /tmp/ccMa6YKw.s:25     .text.defaultHandler:00000000 USART1_IRQHandler
     /tmp/ccMa6YKw.s:25     .text.defaultHandler:00000000 USART2_IRQHandler
     /tmp/ccMa6YKw.s:25     .text.defaultHandler:00000000 USART3_IRQHandler
     /tmp/ccMa6YKw.s:25     .text.defaultHandler:00000000 EXTI15_10_IRQHandler
     /tmp/ccMa6YKw.s:25     .text.defaultHandler:00000000 RTCAlarm_IRQHandler
     /tmp/ccMa6YKw.s:25     .text.defaultHandler:00000000 OTG_FS_WKUP_IRQHandler
     /tmp/ccMa6YKw.s:25     .text.defaultHandler:00000000 TIM8_BRK_TIM12_IRQHandler
     /tmp/ccMa6YKw.s:25     .text.defaultHandler:00000000 TIM8_UP_TIM13_IRQHandler
     /tmp/ccMa6YKw.s:25     .text.defaultHandler:00000000 TIM8_TRG_COM_TIM14_IRQHandler
     /tmp/ccMa6YKw.s:25     .text.defaultHandler:00000000 TIM8_CC_IRQHandler
     /tmp/ccMa6YKw.s:25     .text.defaultHandler:00000000 DMA1_Stream7_IRQHandler
     /tmp/ccMa6YKw.s:25     .text.defaultHandler:00000000 FSMC_IRQHandler
     /tmp/ccMa6YKw.s:25     .text.defaultHandler:00000000 SDIO_IRQHandler
     /tmp/ccMa6YKw.s:25     .text.defaultHandler:00000000 TIM5_IRQHandler
     /tmp/ccMa6YKw.s:25     .text.defaultHandler:00000000 SPI3_IRQHandler
     /tmp/ccMa6YKw.s:25     .text.defaultHandler:00000000 UART4_IRQHandler
     /tmp/ccMa6YKw.s:25     .text.defaultHandler:00000000 UART5_IRQHandler
     /tmp/ccMa6YKw.s:25     .text.defaultHandler:00000000 TIM6_DAC_IRQHandler
     /tmp/ccMa6YKw.s:25     .text.defaultHandler:00000000 TIM7_IRQHandler
     /tmp/ccMa6YKw.s:25     .text.defaultHandler:00000000 DMA2_Stream0_IRQHandler
     /tmp/ccMa6YKw.s:25     .text.defaultHandler:00000000 DMA2_Stream1_IRQHandler
     /tmp/ccMa6YKw.s:25     .text.defaultHandler:00000000 DMA2_Stream2_IRQHandler
     /tmp/ccMa6YKw.s:25     .text.defaultHandler:00000000 DMA2_Stream3_IRQHandler
     /tmp/ccMa6YKw.s:25     .text.defaultHandler:00000000 DMA2_Stream4_IRQHandler
     /tmp/ccMa6YKw.s:25     .text.defaultHandler:00000000 ETH_IRQHandler
     /tmp/ccMa6YKw.s:25     .text.defaultHandler:00000000 ETH_WKUP_IRQHandler
     /tmp/ccMa6YKw.s:25     .text.defaultHandler:00000000 CAN2_TX_IRQHandler
     /tmp/ccMa6YKw.s:25     .text.defaultHandler:00000000 CAN2_RX0_IRQHandler
     /tmp/ccMa6YKw.s:25     .text.defaultHandler:00000000 CAN2_RX1_IRQHandler
     /tmp/ccMa6YKw.s:25     .text.defaultHandler:00000000 CAN2_SCE_IRQHandler
     /tmp/ccMa6YKw.s:25     .text.defaultHandler:00000000 OTG_FS_IRQHandler
     /tmp/ccMa6YKw.s:25     .text.defaultHandler:00000000 DMA2_Stream5_IRQHandler
     /tmp/ccMa6YKw.s:25     .text.defaultHandler:00000000 DMA2_Stream6_IRQHandler
     /tmp/ccMa6YKw.s:25     .text.defaultHandler:00000000 DMA2_Stream7_IRQHandler
     /tmp/ccMa6YKw.s:25     .text.defaultHandler:00000000 USART6_IRQHandler
     /tmp/ccMa6YKw.s:25     .text.defaultHandler:00000000 I2C3_EV_IRQHandler
     /tmp/ccMa6YKw.s:25     .text.defaultHandler:00000000 I2C3_ER_IRQHandler
     /tmp/ccMa6YKw.s:25     .text.defaultHandler:00000000 OTG_HS_EP1_OUT_IRQHandler
     /tmp/ccMa6YKw.s:25     .text.defaultHandler:00000000 OTG_HS_EP1_IN_IRQHandler
     /tmp/ccMa6YKw.s:25     .text.defaultHandler:00000000 OTG_HS_WKUP_IRQHandler
     /tmp/ccMa6YKw.s:25     .text.defaultHandler:00000000 OTG_HS_IRQHandler
     /tmp/ccMa6YKw.s:25     .text.defaultHandler:00000000 DCMI_IRQHandler
     /tmp/ccMa6YKw.s:25     .text.defaultHandler:00000000 CRYP_IRQHandler
     /tmp/ccMa6YKw.s:25     .text.defaultHandler:00000000 HASH_RNG_IRQHandler
     /tmp/ccMa6YKw.s:25     .text.defaultHandler:00000000 FPU_IRQHandler
     /tmp/ccMa6YKw.s:25     .text.defaultHandler:00000000 NMI_Handler
     /tmp/ccMa6YKw.s:220    .text.Reset_Handler:00000000 $t
     /tmp/ccMa6YKw.s:225    .text.Reset_Handler:00000000 Reset_Handler
     /tmp/ccMa6YKw.s:412    .text.Reset_Handler:000000e4 $d
     /tmp/ccMa6YKw.s:436    .reset:00000000 flashVectors
     /tmp/ccMa6YKw.s:433    .reset:00000000 $d
                     .debug_frame:00000010 $d

UNDEFINED SYMBOLS
__fastcode_start
__fastcode_end
__fastcode_load
__data_start
__data_end
__data_load
__bss_start
__bss_end
__libc_init_array
main
exit
__stack_end
HardFault_Handler
