   1              		.syntax unified
   2              		.cpu cortex-m4
   3              		.eabi_attribute 27, 3
   4              		.fpu fpv4-sp-d16
   5              		.eabi_attribute 20, 1
   6              		.eabi_attribute 21, 1
   7              		.eabi_attribute 23, 3
   8              		.eabi_attribute 24, 1
   9              		.eabi_attribute 25, 1
  10              		.eabi_attribute 26, 1
  11              		.eabi_attribute 30, 2
  12              		.eabi_attribute 34, 1
  13              		.eabi_attribute 18, 4
  14              		.thumb
  15              		.file	"fat.cpp"
  16              		.text
  17              	.Ltext0:
  18              		.cfi_sections	.debug_frame
  19              		.section	.text.get_fattime,"ax",%progbits
  20              		.align	2
  21              		.global	get_fattime
  22              		.thumb
  23              		.thumb_func
  25              	get_fattime:
  26              	.LFB4:
  27              		.file 1 "/home/jonas/warwick/3dProfilometer/xpcc/src/xpcc/driver/storage/fat.cpp"
   1:/home/jonas/warwick/3dProfilometer/xpcc/src/xpcc/driver/storage/fat.cpp **** // coding: utf-8
   2:/home/jonas/warwick/3dProfilometer/xpcc/src/xpcc/driver/storage/fat.cpp **** // ----------------------------------------------------------------------------
   3:/home/jonas/warwick/3dProfilometer/xpcc/src/xpcc/driver/storage/fat.cpp **** /* Copyright (c) 2011, Roboterclub Aachen e.V.
   4:/home/jonas/warwick/3dProfilometer/xpcc/src/xpcc/driver/storage/fat.cpp ****  * All rights reserved.
   5:/home/jonas/warwick/3dProfilometer/xpcc/src/xpcc/driver/storage/fat.cpp ****  *
   6:/home/jonas/warwick/3dProfilometer/xpcc/src/xpcc/driver/storage/fat.cpp ****  * Redistribution and use in source and binary forms, with or without
   7:/home/jonas/warwick/3dProfilometer/xpcc/src/xpcc/driver/storage/fat.cpp ****  * modification, are permitted provided that the following conditions are met:
   8:/home/jonas/warwick/3dProfilometer/xpcc/src/xpcc/driver/storage/fat.cpp ****  * 
   9:/home/jonas/warwick/3dProfilometer/xpcc/src/xpcc/driver/storage/fat.cpp ****  *     * Redistributions of source code must retain the above copyright
  10:/home/jonas/warwick/3dProfilometer/xpcc/src/xpcc/driver/storage/fat.cpp ****  *       notice, this list of conditions and the following disclaimer.
  11:/home/jonas/warwick/3dProfilometer/xpcc/src/xpcc/driver/storage/fat.cpp ****  *     * Redistributions in binary form must reproduce the above copyright
  12:/home/jonas/warwick/3dProfilometer/xpcc/src/xpcc/driver/storage/fat.cpp ****  *       notice, this list of conditions and the following disclaimer in the
  13:/home/jonas/warwick/3dProfilometer/xpcc/src/xpcc/driver/storage/fat.cpp ****  *       documentation and/or other materials provided with the distribution.
  14:/home/jonas/warwick/3dProfilometer/xpcc/src/xpcc/driver/storage/fat.cpp ****  *     * Neither the name of the Roboterclub Aachen e.V. nor the
  15:/home/jonas/warwick/3dProfilometer/xpcc/src/xpcc/driver/storage/fat.cpp ****  *       names of its contributors may be used to endorse or promote products
  16:/home/jonas/warwick/3dProfilometer/xpcc/src/xpcc/driver/storage/fat.cpp ****  *       derived from this software without specific prior written permission.
  17:/home/jonas/warwick/3dProfilometer/xpcc/src/xpcc/driver/storage/fat.cpp ****  *
  18:/home/jonas/warwick/3dProfilometer/xpcc/src/xpcc/driver/storage/fat.cpp ****  * THIS SOFTWARE IS PROVIDED BY ROBOTERCLUB AACHEN E.V. ''AS IS'' AND ANY
  19:/home/jonas/warwick/3dProfilometer/xpcc/src/xpcc/driver/storage/fat.cpp ****  * EXPRESS OR IMPLIED WARRANTIES, INCLUDING, BUT NOT LIMITED TO, THE IMPLIED
  20:/home/jonas/warwick/3dProfilometer/xpcc/src/xpcc/driver/storage/fat.cpp ****  * WARRANTIES OF MERCHANTABILITY AND FITNESS FOR A PARTICULAR PURPOSE ARE
  21:/home/jonas/warwick/3dProfilometer/xpcc/src/xpcc/driver/storage/fat.cpp ****  * DISCLAIMED. IN NO EVENT SHALL ROBOTERCLUB AACHEN E.V. BE LIABLE FOR ANY
  22:/home/jonas/warwick/3dProfilometer/xpcc/src/xpcc/driver/storage/fat.cpp ****  * DIRECT, INDIRECT, INCIDENTAL, SPECIAL, EXEMPLARY, OR CONSEQUENTIAL DAMAGES
  23:/home/jonas/warwick/3dProfilometer/xpcc/src/xpcc/driver/storage/fat.cpp ****  * (INCLUDING, BUT NOT LIMITED TO, PROCUREMENT OF SUBSTITUTE GOODS OR SERVICES;
  24:/home/jonas/warwick/3dProfilometer/xpcc/src/xpcc/driver/storage/fat.cpp ****  * LOSS OF USE, DATA, OR PROFITS; OR BUSINESS INTERRUPTION) HOWEVER CAUSED AND
  25:/home/jonas/warwick/3dProfilometer/xpcc/src/xpcc/driver/storage/fat.cpp ****  * ON ANY THEORY OF LIABILITY, WHETHER IN CONTRACT, STRICT LIABILITY, OR TORT
  26:/home/jonas/warwick/3dProfilometer/xpcc/src/xpcc/driver/storage/fat.cpp ****  * (INCLUDING NEGLIGENCE OR OTHERWISE) ARISING IN ANY WAY OUT OF THE USE OF
  27:/home/jonas/warwick/3dProfilometer/xpcc/src/xpcc/driver/storage/fat.cpp ****  * THIS SOFTWARE, EVEN IF ADVISED OF THE POSSIBILITY OF SUCH DAMAGE.
  28:/home/jonas/warwick/3dProfilometer/xpcc/src/xpcc/driver/storage/fat.cpp ****  */
  29:/home/jonas/warwick/3dProfilometer/xpcc/src/xpcc/driver/storage/fat.cpp **** // ----------------------------------------------------------------------------
  30:/home/jonas/warwick/3dProfilometer/xpcc/src/xpcc/driver/storage/fat.cpp **** 
  31:/home/jonas/warwick/3dProfilometer/xpcc/src/xpcc/driver/storage/fat.cpp **** #include <fatfs/diskio.h>
  32:/home/jonas/warwick/3dProfilometer/xpcc/src/xpcc/driver/storage/fat.cpp **** #include <fatfs/ffconf.h>
  33:/home/jonas/warwick/3dProfilometer/xpcc/src/xpcc/driver/storage/fat.cpp **** 
  34:/home/jonas/warwick/3dProfilometer/xpcc/src/xpcc/driver/storage/fat.cpp **** #include "fat.hpp"
  35:/home/jonas/warwick/3dProfilometer/xpcc/src/xpcc/driver/storage/fat.cpp **** 
  36:/home/jonas/warwick/3dProfilometer/xpcc/src/xpcc/driver/storage/fat.cpp **** // ----------------------------------------------------------------------------
  37:/home/jonas/warwick/3dProfilometer/xpcc/src/xpcc/driver/storage/fat.cpp **** // FatFs Backend
  38:/home/jonas/warwick/3dProfilometer/xpcc/src/xpcc/driver/storage/fat.cpp **** extern "C"
  39:/home/jonas/warwick/3dProfilometer/xpcc/src/xpcc/driver/storage/fat.cpp **** DWORD
  40:/home/jonas/warwick/3dProfilometer/xpcc/src/xpcc/driver/storage/fat.cpp **** get_fattime(void)
  41:/home/jonas/warwick/3dProfilometer/xpcc/src/xpcc/driver/storage/fat.cpp **** {
  28              		.loc 1 41 0
  29              		.cfi_startproc
  30              		@ args = 0, pretend = 0, frame = 0
  31              		@ frame_needed = 0, uses_anonymous_args = 0
  32              		@ link register save eliminated.
  42:/home/jonas/warwick/3dProfilometer/xpcc/src/xpcc/driver/storage/fat.cpp **** 	return (((2010L - 1980L) << 25) |
  43:/home/jonas/warwick/3dProfilometer/xpcc/src/xpcc/driver/storage/fat.cpp **** 			(5L << 21) |
  44:/home/jonas/warwick/3dProfilometer/xpcc/src/xpcc/driver/storage/fat.cpp **** 			(30L << 16) |
  45:/home/jonas/warwick/3dProfilometer/xpcc/src/xpcc/driver/storage/fat.cpp **** 			(16L << 11) |
  46:/home/jonas/warwick/3dProfilometer/xpcc/src/xpcc/driver/storage/fat.cpp **** 			(0 << 5) |
  47:/home/jonas/warwick/3dProfilometer/xpcc/src/xpcc/driver/storage/fat.cpp **** 			(0));
  48:/home/jonas/warwick/3dProfilometer/xpcc/src/xpcc/driver/storage/fat.cpp **** }
  33              		.loc 1 48 0
  34 0000 0048     		ldr	r0, .L2
  35 0002 7047     		bx	lr
  36              	.L3:
  37              		.align	2
  38              	.L2:
  39 0004 0080BE3C 		.word	1019117568
  40              		.cfi_endproc
  41              	.LFE4:
  43              		.section	.text.disk_initialize,"ax",%progbits
  44              		.align	2
  45              		.global	disk_initialize
  46              		.thumb
  47              		.thumb_func
  49              	disk_initialize:
  50              	.LFB5:
  49:/home/jonas/warwick/3dProfilometer/xpcc/src/xpcc/driver/storage/fat.cpp **** 
  50:/home/jonas/warwick/3dProfilometer/xpcc/src/xpcc/driver/storage/fat.cpp **** // ----------------------------------------------------------------------------
  51:/home/jonas/warwick/3dProfilometer/xpcc/src/xpcc/driver/storage/fat.cpp **** #if _VOLUMES == 1
  52:/home/jonas/warwick/3dProfilometer/xpcc/src/xpcc/driver/storage/fat.cpp **** 
  53:/home/jonas/warwick/3dProfilometer/xpcc/src/xpcc/driver/storage/fat.cpp **** static xpcc::fat::PhysicalVolume * globalVolume;
  54:/home/jonas/warwick/3dProfilometer/xpcc/src/xpcc/driver/storage/fat.cpp **** 
  55:/home/jonas/warwick/3dProfilometer/xpcc/src/xpcc/driver/storage/fat.cpp **** extern "C"
  56:/home/jonas/warwick/3dProfilometer/xpcc/src/xpcc/driver/storage/fat.cpp **** DSTATUS
  57:/home/jonas/warwick/3dProfilometer/xpcc/src/xpcc/driver/storage/fat.cpp **** disk_initialize(BYTE /*drive*/)
  58:/home/jonas/warwick/3dProfilometer/xpcc/src/xpcc/driver/storage/fat.cpp **** {
  51              		.loc 1 58 0
  52              		.cfi_startproc
  53              		@ args = 0, pretend = 0, frame = 0
  54              		@ frame_needed = 0, uses_anonymous_args = 0
  55 0000 08B5     		push	{r3, lr}
  56              	.LCFI0:
  57              		.cfi_def_cfa_offset 8
  58              		.cfi_offset 3, -8
  59              		.cfi_offset 14, -4
  59:/home/jonas/warwick/3dProfilometer/xpcc/src/xpcc/driver/storage/fat.cpp **** 	return globalVolume->initialize();
  60              		.loc 1 59 0
  61 0002 034B     		ldr	r3, .L5
  62 0004 1868     		ldr	r0, [r3, #0]
  63 0006 0368     		ldr	r3, [r0, #0]
  64 0008 9B68     		ldr	r3, [r3, #8]
  65 000a 9847     		blx	r3
  66              	.LVL0:
  60:/home/jonas/warwick/3dProfilometer/xpcc/src/xpcc/driver/storage/fat.cpp **** 	/*if (diskInterface->initialize()) {
  61:/home/jonas/warwick/3dProfilometer/xpcc/src/xpcc/driver/storage/fat.cpp **** 		return RES_OK;
  62:/home/jonas/warwick/3dProfilometer/xpcc/src/xpcc/driver/storage/fat.cpp **** 	}
  63:/home/jonas/warwick/3dProfilometer/xpcc/src/xpcc/driver/storage/fat.cpp **** 	else {
  64:/home/jonas/warwick/3dProfilometer/xpcc/src/xpcc/driver/storage/fat.cpp **** 		return RES_ERROR;
  65:/home/jonas/warwick/3dProfilometer/xpcc/src/xpcc/driver/storage/fat.cpp **** 	}*/
  66:/home/jonas/warwick/3dProfilometer/xpcc/src/xpcc/driver/storage/fat.cpp **** }
  67              		.loc 1 66 0
  68 000c 08BD     		pop	{r3, pc}
  69              	.L6:
  70 000e 00BF     		.align	2
  71              	.L5:
  72 0010 00000000 		.word	.LANCHOR0
  73              		.cfi_endproc
  74              	.LFE5:
  76              		.section	.text.disk_status,"ax",%progbits
  77              		.align	2
  78              		.global	disk_status
  79              		.thumb
  80              		.thumb_func
  82              	disk_status:
  83              	.LFB6:
  67:/home/jonas/warwick/3dProfilometer/xpcc/src/xpcc/driver/storage/fat.cpp **** 
  68:/home/jonas/warwick/3dProfilometer/xpcc/src/xpcc/driver/storage/fat.cpp **** extern "C"
  69:/home/jonas/warwick/3dProfilometer/xpcc/src/xpcc/driver/storage/fat.cpp **** DSTATUS
  70:/home/jonas/warwick/3dProfilometer/xpcc/src/xpcc/driver/storage/fat.cpp **** disk_status(BYTE /*drive*/)
  71:/home/jonas/warwick/3dProfilometer/xpcc/src/xpcc/driver/storage/fat.cpp **** {
  84              		.loc 1 71 0
  85              		.cfi_startproc
  86              		@ args = 0, pretend = 0, frame = 0
  87              		@ frame_needed = 0, uses_anonymous_args = 0
  88 0000 08B5     		push	{r3, lr}
  89              	.LCFI1:
  90              		.cfi_def_cfa_offset 8
  91              		.cfi_offset 3, -8
  92              		.cfi_offset 14, -4
  72:/home/jonas/warwick/3dProfilometer/xpcc/src/xpcc/driver/storage/fat.cpp **** 	return globalVolume->getStatus();
  93              		.loc 1 72 0
  94 0002 034B     		ldr	r3, .L8
  95 0004 1868     		ldr	r0, [r3, #0]
  96 0006 0368     		ldr	r3, [r0, #0]
  97 0008 DB68     		ldr	r3, [r3, #12]
  98 000a 9847     		blx	r3
  99              	.LVL1:
  73:/home/jonas/warwick/3dProfilometer/xpcc/src/xpcc/driver/storage/fat.cpp **** }
 100              		.loc 1 73 0
 101 000c 08BD     		pop	{r3, pc}
 102              	.L9:
 103 000e 00BF     		.align	2
 104              	.L8:
 105 0010 00000000 		.word	.LANCHOR0
 106              		.cfi_endproc
 107              	.LFE6:
 109              		.section	.text.disk_read,"ax",%progbits
 110              		.align	2
 111              		.global	disk_read
 112              		.thumb
 113              		.thumb_func
 115              	disk_read:
 116              	.LFB7:
  74:/home/jonas/warwick/3dProfilometer/xpcc/src/xpcc/driver/storage/fat.cpp **** 
  75:/home/jonas/warwick/3dProfilometer/xpcc/src/xpcc/driver/storage/fat.cpp **** extern "C"
  76:/home/jonas/warwick/3dProfilometer/xpcc/src/xpcc/driver/storage/fat.cpp **** DRESULT
  77:/home/jonas/warwick/3dProfilometer/xpcc/src/xpcc/driver/storage/fat.cpp **** disk_read(BYTE /*drive*/, BYTE* buffer, DWORD sectorNumber, BYTE sectorCount)
  78:/home/jonas/warwick/3dProfilometer/xpcc/src/xpcc/driver/storage/fat.cpp **** {
 117              		.loc 1 78 0
 118              		.cfi_startproc
 119              		@ args = 0, pretend = 0, frame = 0
 120              		@ frame_needed = 0, uses_anonymous_args = 0
 121              	.LVL2:
  79:/home/jonas/warwick/3dProfilometer/xpcc/src/xpcc/driver/storage/fat.cpp **** 	return globalVolume->read(buffer, sectorNumber, sectorCount);
 122              		.loc 1 79 0
 123 0000 0348     		ldr	r0, .L11
 124 0002 0068     		ldr	r0, [r0, #0]
  78:/home/jonas/warwick/3dProfilometer/xpcc/src/xpcc/driver/storage/fat.cpp **** {
 125              		.loc 1 78 0
 126 0004 10B5     		push	{r4, lr}
 127              	.LCFI2:
 128              		.cfi_def_cfa_offset 8
 129              		.cfi_offset 4, -8
 130              		.cfi_offset 14, -4
 131              		.loc 1 79 0
 132 0006 0468     		ldr	r4, [r0, #0]
 133 0008 2469     		ldr	r4, [r4, #16]
 134 000a A047     		blx	r4
 135              	.LVL3:
  80:/home/jonas/warwick/3dProfilometer/xpcc/src/xpcc/driver/storage/fat.cpp **** 	/*if (diskInterface->read(buffer, sectorNumber, sectorCount)) {
  81:/home/jonas/warwick/3dProfilometer/xpcc/src/xpcc/driver/storage/fat.cpp **** 		return RES_OK;
  82:/home/jonas/warwick/3dProfilometer/xpcc/src/xpcc/driver/storage/fat.cpp **** 	}
  83:/home/jonas/warwick/3dProfilometer/xpcc/src/xpcc/driver/storage/fat.cpp **** 	else {
  84:/home/jonas/warwick/3dProfilometer/xpcc/src/xpcc/driver/storage/fat.cpp **** 		return RES_ERROR;
  85:/home/jonas/warwick/3dProfilometer/xpcc/src/xpcc/driver/storage/fat.cpp **** 	}*/
  86:/home/jonas/warwick/3dProfilometer/xpcc/src/xpcc/driver/storage/fat.cpp **** }
 136              		.loc 1 86 0
 137 000c 10BD     		pop	{r4, pc}
 138              	.L12:
 139 000e 00BF     		.align	2
 140              	.L11:
 141 0010 00000000 		.word	.LANCHOR0
 142              		.cfi_endproc
 143              	.LFE7:
 145              		.section	.text.disk_write,"ax",%progbits
 146              		.align	2
 147              		.global	disk_write
 148              		.thumb
 149              		.thumb_func
 151              	disk_write:
 152              	.LFB8:
  87:/home/jonas/warwick/3dProfilometer/xpcc/src/xpcc/driver/storage/fat.cpp **** 
  88:/home/jonas/warwick/3dProfilometer/xpcc/src/xpcc/driver/storage/fat.cpp **** extern "C"
  89:/home/jonas/warwick/3dProfilometer/xpcc/src/xpcc/driver/storage/fat.cpp **** DRESULT
  90:/home/jonas/warwick/3dProfilometer/xpcc/src/xpcc/driver/storage/fat.cpp **** disk_write(BYTE /*drive*/, const BYTE* buffer, DWORD sectorNumber, BYTE sectorCount)
  91:/home/jonas/warwick/3dProfilometer/xpcc/src/xpcc/driver/storage/fat.cpp **** {
 153              		.loc 1 91 0
 154              		.cfi_startproc
 155              		@ args = 0, pretend = 0, frame = 0
 156              		@ frame_needed = 0, uses_anonymous_args = 0
 157              	.LVL4:
  92:/home/jonas/warwick/3dProfilometer/xpcc/src/xpcc/driver/storage/fat.cpp **** 	return globalVolume->write(buffer, sectorNumber, sectorCount);
 158              		.loc 1 92 0
 159 0000 0348     		ldr	r0, .L14
 160 0002 0068     		ldr	r0, [r0, #0]
  91:/home/jonas/warwick/3dProfilometer/xpcc/src/xpcc/driver/storage/fat.cpp **** {
 161              		.loc 1 91 0
 162 0004 10B5     		push	{r4, lr}
 163              	.LCFI3:
 164              		.cfi_def_cfa_offset 8
 165              		.cfi_offset 4, -8
 166              		.cfi_offset 14, -4
 167              		.loc 1 92 0
 168 0006 0468     		ldr	r4, [r0, #0]
 169 0008 6469     		ldr	r4, [r4, #20]
 170 000a A047     		blx	r4
 171              	.LVL5:
  93:/home/jonas/warwick/3dProfilometer/xpcc/src/xpcc/driver/storage/fat.cpp **** 	/*if (diskInterface->write(buffer, sectorNumber, sectorCount)) {
  94:/home/jonas/warwick/3dProfilometer/xpcc/src/xpcc/driver/storage/fat.cpp **** 		return RES_OK;
  95:/home/jonas/warwick/3dProfilometer/xpcc/src/xpcc/driver/storage/fat.cpp **** 	}
  96:/home/jonas/warwick/3dProfilometer/xpcc/src/xpcc/driver/storage/fat.cpp **** 	else {
  97:/home/jonas/warwick/3dProfilometer/xpcc/src/xpcc/driver/storage/fat.cpp **** 		return RES_ERROR;
  98:/home/jonas/warwick/3dProfilometer/xpcc/src/xpcc/driver/storage/fat.cpp **** 	}*/
  99:/home/jonas/warwick/3dProfilometer/xpcc/src/xpcc/driver/storage/fat.cpp **** }
 172              		.loc 1 99 0
 173 000c 10BD     		pop	{r4, pc}
 174              	.L15:
 175 000e 00BF     		.align	2
 176              	.L14:
 177 0010 00000000 		.word	.LANCHOR0
 178              		.cfi_endproc
 179              	.LFE8:
 181              		.section	.text.disk_ioctl,"ax",%progbits
 182              		.align	2
 183              		.global	disk_ioctl
 184              		.thumb
 185              		.thumb_func
 187              	disk_ioctl:
 188              	.LFB9:
 100:/home/jonas/warwick/3dProfilometer/xpcc/src/xpcc/driver/storage/fat.cpp **** 
 101:/home/jonas/warwick/3dProfilometer/xpcc/src/xpcc/driver/storage/fat.cpp **** extern "C"
 102:/home/jonas/warwick/3dProfilometer/xpcc/src/xpcc/driver/storage/fat.cpp **** DRESULT
 103:/home/jonas/warwick/3dProfilometer/xpcc/src/xpcc/driver/storage/fat.cpp **** disk_ioctl(BYTE /*drive*/, BYTE command, void* buffer)
 104:/home/jonas/warwick/3dProfilometer/xpcc/src/xpcc/driver/storage/fat.cpp **** {
 189              		.loc 1 104 0
 190              		.cfi_startproc
 191              		@ args = 0, pretend = 0, frame = 0
 192              		@ frame_needed = 0, uses_anonymous_args = 0
 193              	.LVL6:
 194 0000 08B5     		push	{r3, lr}
 195              	.LCFI4:
 196              		.cfi_def_cfa_offset 8
 197              		.cfi_offset 3, -8
 198              		.cfi_offset 14, -4
 105:/home/jonas/warwick/3dProfilometer/xpcc/src/xpcc/driver/storage/fat.cpp **** 	return globalVolume->ioctl(command, reinterpret_cast<uint32_t *>(buffer));
 199              		.loc 1 105 0
 200 0002 034B     		ldr	r3, .L17
 201 0004 1868     		ldr	r0, [r3, #0]
 202 0006 0368     		ldr	r3, [r0, #0]
 203 0008 9B69     		ldr	r3, [r3, #24]
 204 000a 9847     		blx	r3
 205              	.LVL7:
 106:/home/jonas/warwick/3dProfilometer/xpcc/src/xpcc/driver/storage/fat.cpp **** 	//return RES_ERROR;
 107:/home/jonas/warwick/3dProfilometer/xpcc/src/xpcc/driver/storage/fat.cpp **** }
 206              		.loc 1 107 0
 207 000c 08BD     		pop	{r3, pc}
 208              	.L18:
 209 000e 00BF     		.align	2
 210              	.L17:
 211 0010 00000000 		.word	.LANCHOR0
 212              		.cfi_endproc
 213              	.LFE9:
 215              		.section	.text._ZN4xpcc3fat10FileSystemC2EPNS0_14PhysicalVolumeEh,"ax",%progbits
 216              		.align	2
 217              		.global	_ZN4xpcc3fat10FileSystemC2EPNS0_14PhysicalVolumeEh
 218              		.thumb
 219              		.thumb_func
 221              	_ZN4xpcc3fat10FileSystemC2EPNS0_14PhysicalVolumeEh:
 222              	.LFB11:
 108:/home/jonas/warwick/3dProfilometer/xpcc/src/xpcc/driver/storage/fat.cpp **** 
 109:/home/jonas/warwick/3dProfilometer/xpcc/src/xpcc/driver/storage/fat.cpp **** #else
 110:/home/jonas/warwick/3dProfilometer/xpcc/src/xpcc/driver/storage/fat.cpp **** #	error "Only one FatFS drive supported at the moment!"
 111:/home/jonas/warwick/3dProfilometer/xpcc/src/xpcc/driver/storage/fat.cpp **** #endif
 112:/home/jonas/warwick/3dProfilometer/xpcc/src/xpcc/driver/storage/fat.cpp **** 
 113:/home/jonas/warwick/3dProfilometer/xpcc/src/xpcc/driver/storage/fat.cpp **** // ----------------------------------------------------------------------------
 114:/home/jonas/warwick/3dProfilometer/xpcc/src/xpcc/driver/storage/fat.cpp **** xpcc::fat::FileSystem::FileSystem(PhysicalVolume *volume,
 223              		.loc 1 114 0
 224              		.cfi_startproc
 225              		@ args = 0, pretend = 0, frame = 0
 226              		@ frame_needed = 0, uses_anonymous_args = 0
 227              	.LVL8:
 228              	.LBB5:
 115:/home/jonas/warwick/3dProfilometer/xpcc/src/xpcc/driver/storage/fat.cpp **** 		uint8_t drive)
 116:/home/jonas/warwick/3dProfilometer/xpcc/src/xpcc/driver/storage/fat.cpp **** {
 117:/home/jonas/warwick/3dProfilometer/xpcc/src/xpcc/driver/storage/fat.cpp **** 	globalVolume = volume;
 229              		.loc 1 117 0
 230 0000 054B     		ldr	r3, .L20
 231              	.LBE5:
 114:/home/jonas/warwick/3dProfilometer/xpcc/src/xpcc/driver/storage/fat.cpp **** xpcc::fat::FileSystem::FileSystem(PhysicalVolume *volume,
 232              		.loc 1 114 0
 233 0002 10B5     		push	{r4, lr}
 234              	.LCFI5:
 235              		.cfi_def_cfa_offset 8
 236              		.cfi_offset 4, -8
 237              		.cfi_offset 14, -4
 114:/home/jonas/warwick/3dProfilometer/xpcc/src/xpcc/driver/storage/fat.cpp **** xpcc::fat::FileSystem::FileSystem(PhysicalVolume *volume,
 238              		.loc 1 114 0
 239 0004 0446     		mov	r4, r0
 240              	.LBB6:
 241              		.loc 1 117 0
 242 0006 1960     		str	r1, [r3, #0]
 118:/home/jonas/warwick/3dProfilometer/xpcc/src/xpcc/driver/storage/fat.cpp **** 	this->fileSystem.drv = drive;
 243              		.loc 1 118 0
 244 0008 4270     		strb	r2, [r0, #1]
 119:/home/jonas/warwick/3dProfilometer/xpcc/src/xpcc/driver/storage/fat.cpp **** 	
 120:/home/jonas/warwick/3dProfilometer/xpcc/src/xpcc/driver/storage/fat.cpp **** 	f_mount(drive, &this->fileSystem);
 245              		.loc 1 120 0
 246 000a 2146     		mov	r1, r4
 247              	.LVL9:
 248 000c 1046     		mov	r0, r2
 249              	.LVL10:
 250 000e 034B     		ldr	r3, .L20+4
 251 0010 9847     		blx	r3
 252              	.LVL11:
 253              	.LBE6:
 121:/home/jonas/warwick/3dProfilometer/xpcc/src/xpcc/driver/storage/fat.cpp **** }
 254              		.loc 1 121 0
 255 0012 2046     		mov	r0, r4
 256 0014 10BD     		pop	{r4, pc}
 257              	.L21:
 258 0016 00BF     		.align	2
 259              	.L20:
 260 0018 00000000 		.word	.LANCHOR0
 261 001c 00000000 		.word	f_mount
 262              		.cfi_endproc
 263              	.LFE11:
 265              		.global	_ZN4xpcc3fat10FileSystemC1EPNS0_14PhysicalVolumeEh
 266              		.thumb_set _ZN4xpcc3fat10FileSystemC1EPNS0_14PhysicalVolumeEh,_ZN4xpcc3fat10FileSystemC2EPNS0_14Ph
 267              		.section	.text._ZN4xpcc3fat10FileSystemD2Ev,"ax",%progbits
 268              		.align	2
 269              		.global	_ZN4xpcc3fat10FileSystemD2Ev
 270              		.thumb
 271              		.thumb_func
 273              	_ZN4xpcc3fat10FileSystemD2Ev:
 274              	.LFB14:
 122:/home/jonas/warwick/3dProfilometer/xpcc/src/xpcc/driver/storage/fat.cpp **** 
 123:/home/jonas/warwick/3dProfilometer/xpcc/src/xpcc/driver/storage/fat.cpp **** xpcc::fat::FileSystem::~FileSystem()
 275              		.loc 1 123 0
 276              		.cfi_startproc
 277              		@ args = 0, pretend = 0, frame = 0
 278              		@ frame_needed = 0, uses_anonymous_args = 0
 279              	.LVL12:
 280 0000 10B5     		push	{r4, lr}
 281              	.LCFI6:
 282              		.cfi_def_cfa_offset 8
 283              		.cfi_offset 4, -8
 284              		.cfi_offset 14, -4
 285              	.LBB7:
 124:/home/jonas/warwick/3dProfilometer/xpcc/src/xpcc/driver/storage/fat.cpp **** {
 125:/home/jonas/warwick/3dProfilometer/xpcc/src/xpcc/driver/storage/fat.cpp **** 	f_mount(this->fileSystem.drv, 0);
 286              		.loc 1 125 0
 287 0002 0021     		movs	r1, #0
 288              	.LBE7:
 123:/home/jonas/warwick/3dProfilometer/xpcc/src/xpcc/driver/storage/fat.cpp **** xpcc::fat::FileSystem::~FileSystem()
 289              		.loc 1 123 0
 290 0004 0446     		mov	r4, r0
 291              	.LBB8:
 292              		.loc 1 125 0
 293 0006 024B     		ldr	r3, .L23
 294 0008 4078     		ldrb	r0, [r0, #1]	@ zero_extendqisi2
 295              	.LVL13:
 296 000a 9847     		blx	r3
 297              	.LVL14:
 298              	.LBE8:
 126:/home/jonas/warwick/3dProfilometer/xpcc/src/xpcc/driver/storage/fat.cpp **** }
 299              		.loc 1 126 0
 300 000c 2046     		mov	r0, r4
 301 000e 10BD     		pop	{r4, pc}
 302              	.L24:
 303              		.align	2
 304              	.L23:
 305 0010 00000000 		.word	f_mount
 306              		.cfi_endproc
 307              	.LFE14:
 309              		.global	_ZN4xpcc3fat10FileSystemD1Ev
 310              		.thumb_set _ZN4xpcc3fat10FileSystemD1Ev,_ZN4xpcc3fat10FileSystemD2Ev
 311              		.section	.text._ZN4xpcc3fat8FileInfoC2Ev,"ax",%progbits
 312              		.align	2
 313              		.global	_ZN4xpcc3fat8FileInfoC2Ev
 314              		.thumb
 315              		.thumb_func
 317              	_ZN4xpcc3fat8FileInfoC2Ev:
 318              	.LFB17:
 127:/home/jonas/warwick/3dProfilometer/xpcc/src/xpcc/driver/storage/fat.cpp **** 
 128:/home/jonas/warwick/3dProfilometer/xpcc/src/xpcc/driver/storage/fat.cpp **** // ----------------------------------------------------------------------------
 129:/home/jonas/warwick/3dProfilometer/xpcc/src/xpcc/driver/storage/fat.cpp **** xpcc::fat::FileInfo::FileInfo()
 319              		.loc 1 129 0
 320              		.cfi_startproc
 321              		@ args = 0, pretend = 0, frame = 0
 322              		@ frame_needed = 0, uses_anonymous_args = 0
 323              		@ link register save eliminated.
 324              	.LVL15:
 325              	.LBB9:
 130:/home/jonas/warwick/3dProfilometer/xpcc/src/xpcc/driver/storage/fat.cpp **** {
 131:/home/jonas/warwick/3dProfilometer/xpcc/src/xpcc/driver/storage/fat.cpp **** 	info.lfname = 0;
 326              		.loc 1 131 0
 327 0000 0022     		movs	r2, #0
 328 0002 8261     		str	r2, [r0, #24]
 132:/home/jonas/warwick/3dProfilometer/xpcc/src/xpcc/driver/storage/fat.cpp **** 	info.lfsize = 0;
 329              		.loc 1 132 0
 330 0004 C261     		str	r2, [r0, #28]
 331              	.LBE9:
 133:/home/jonas/warwick/3dProfilometer/xpcc/src/xpcc/driver/storage/fat.cpp **** }
 332              		.loc 1 133 0
 333 0006 7047     		bx	lr
 334              		.cfi_endproc
 335              	.LFE17:
 337              		.global	_ZN4xpcc3fat8FileInfoC1Ev
 338              		.thumb_set _ZN4xpcc3fat8FileInfoC1Ev,_ZN4xpcc3fat8FileInfoC2Ev
 339              		.section	.bss._ZL12globalVolume,"aw",%nobits
 340              		.align	2
 341              		.set	.LANCHOR0,. + 0
 344              	_ZL12globalVolume:
 345 0000 00000000 		.space	4
 346              		.text
 347              	.Letext0:
 348              		.file 2 "/opt/arm-2012.09/bin/../lib/gcc/arm-none-eabi/4.7.2/include/stddef.h"
 349              		.file 3 "/opt/arm-2012.09/bin/../lib/gcc/arm-none-eabi/4.7.2/../../../../arm-none-eabi/include/std
 350              		.file 4 "/home/jonas/warwick/3dProfilometer/xpcc/ext/fatfs/integer.h"
 351              		.file 5 "/home/jonas/warwick/3dProfilometer/xpcc/ext/fatfs/diskio.h"
 352              		.file 6 "/home/jonas/warwick/3dProfilometer/xpcc/ext/fatfs/ff.h"
 353              		.file 7 "/home/jonas/warwick/3dProfilometer/xpcc/src/xpcc/driver/storage/fat.hpp"