   1              		.syntax unified
   2              		.cpu cortex-m4
   3              		.eabi_attribute 27, 3
   4              		.fpu fpv4-sp-d16
   5              		.eabi_attribute 20, 1
   6              		.eabi_attribute 21, 1
   7              		.eabi_attribute 23, 3
   8              		.eabi_attribute 24, 1
   9              		.eabi_attribute 25, 1
  10              		.eabi_attribute 26, 1
  11              		.eabi_attribute 30, 2
  12              		.eabi_attribute 34, 1
  13              		.eabi_attribute 18, 4
  14              		.thumb
  15              		.file	"can_filter.cpp"
  16              		.text
  17              	.Ltext0:
  18              		.cfi_sections	.debug_frame
  19              		.section	.text._ZN4xpcc5stm329CanFilter13setFilterBaseEhmmm,"ax",%progbits
  20              		.align	2
  21              		.global	_ZN4xpcc5stm329CanFilter13setFilterBaseEhmmm
  22              		.thumb
  23              		.thumb_func
  25              	_ZN4xpcc5stm329CanFilter13setFilterBaseEhmmm:
  26              	.LFB166:
  27              		.file 1 "/home/jonas/warwick/3dProfilometer/xpcc/src/xpcc/architecture/platform/cortex_m3/stm32/ca
   1:/home/jonas/warwick/3dProfilometer/xpcc/src/xpcc/architecture/platform/cortex_m3/stm32/can/can_filter.cpp **** // coding: utf-8
   2:/home/jonas/warwick/3dProfilometer/xpcc/src/xpcc/architecture/platform/cortex_m3/stm32/can/can_filter.cpp **** // ----------------------------------------------------------------------------
   3:/home/jonas/warwick/3dProfilometer/xpcc/src/xpcc/architecture/platform/cortex_m3/stm32/can/can_filter.cpp **** /* Copyright (c) 2011, Roboterclub Aachen e.V.
   4:/home/jonas/warwick/3dProfilometer/xpcc/src/xpcc/architecture/platform/cortex_m3/stm32/can/can_filter.cpp ****  * All rights reserved.
   5:/home/jonas/warwick/3dProfilometer/xpcc/src/xpcc/architecture/platform/cortex_m3/stm32/can/can_filter.cpp ****  *
   6:/home/jonas/warwick/3dProfilometer/xpcc/src/xpcc/architecture/platform/cortex_m3/stm32/can/can_filter.cpp ****  * Redistribution and use in source and binary forms, with or without
   7:/home/jonas/warwick/3dProfilometer/xpcc/src/xpcc/architecture/platform/cortex_m3/stm32/can/can_filter.cpp ****  * modification, are permitted provided that the following conditions are met:
   8:/home/jonas/warwick/3dProfilometer/xpcc/src/xpcc/architecture/platform/cortex_m3/stm32/can/can_filter.cpp ****  *
   9:/home/jonas/warwick/3dProfilometer/xpcc/src/xpcc/architecture/platform/cortex_m3/stm32/can/can_filter.cpp ****  *     * Redistributions of source code must retain the above copyright
  10:/home/jonas/warwick/3dProfilometer/xpcc/src/xpcc/architecture/platform/cortex_m3/stm32/can/can_filter.cpp ****  *       notice, this list of conditions and the following disclaimer.
  11:/home/jonas/warwick/3dProfilometer/xpcc/src/xpcc/architecture/platform/cortex_m3/stm32/can/can_filter.cpp ****  *     * Redistributions in binary form must reproduce the above copyright
  12:/home/jonas/warwick/3dProfilometer/xpcc/src/xpcc/architecture/platform/cortex_m3/stm32/can/can_filter.cpp ****  *       notice, this list of conditions and the following disclaimer in the
  13:/home/jonas/warwick/3dProfilometer/xpcc/src/xpcc/architecture/platform/cortex_m3/stm32/can/can_filter.cpp ****  *       documentation and/or other materials provided with the distribution.
  14:/home/jonas/warwick/3dProfilometer/xpcc/src/xpcc/architecture/platform/cortex_m3/stm32/can/can_filter.cpp ****  *     * Neither the name of the Roboterclub Aachen e.V. nor the
  15:/home/jonas/warwick/3dProfilometer/xpcc/src/xpcc/architecture/platform/cortex_m3/stm32/can/can_filter.cpp ****  *       names of its contributors may be used to endorse or promote products
  16:/home/jonas/warwick/3dProfilometer/xpcc/src/xpcc/architecture/platform/cortex_m3/stm32/can/can_filter.cpp ****  *       derived from this software without specific prior written permission.
  17:/home/jonas/warwick/3dProfilometer/xpcc/src/xpcc/architecture/platform/cortex_m3/stm32/can/can_filter.cpp ****  *
  18:/home/jonas/warwick/3dProfilometer/xpcc/src/xpcc/architecture/platform/cortex_m3/stm32/can/can_filter.cpp ****  * THIS SOFTWARE IS PROVIDED BY ROBOTERCLUB AACHEN E.V. ''AS IS'' AND ANY
  19:/home/jonas/warwick/3dProfilometer/xpcc/src/xpcc/architecture/platform/cortex_m3/stm32/can/can_filter.cpp ****  * EXPRESS OR IMPLIED WARRANTIES, INCLUDING, BUT NOT LIMITED TO, THE IMPLIED
  20:/home/jonas/warwick/3dProfilometer/xpcc/src/xpcc/architecture/platform/cortex_m3/stm32/can/can_filter.cpp ****  * WARRANTIES OF MERCHANTABILITY AND FITNESS FOR A PARTICULAR PURPOSE ARE
  21:/home/jonas/warwick/3dProfilometer/xpcc/src/xpcc/architecture/platform/cortex_m3/stm32/can/can_filter.cpp ****  * DISCLAIMED. IN NO EVENT SHALL ROBOTERCLUB AACHEN E.V. BE LIABLE FOR ANY
  22:/home/jonas/warwick/3dProfilometer/xpcc/src/xpcc/architecture/platform/cortex_m3/stm32/can/can_filter.cpp ****  * DIRECT, INDIRECT, INCIDENTAL, SPECIAL, EXEMPLARY, OR CONSEQUENTIAL DAMAGES
  23:/home/jonas/warwick/3dProfilometer/xpcc/src/xpcc/architecture/platform/cortex_m3/stm32/can/can_filter.cpp ****  * (INCLUDING, BUT NOT LIMITED TO, PROCUREMENT OF SUBSTITUTE GOODS OR SERVICES;
  24:/home/jonas/warwick/3dProfilometer/xpcc/src/xpcc/architecture/platform/cortex_m3/stm32/can/can_filter.cpp ****  * LOSS OF USE, DATA, OR PROFITS; OR BUSINESS INTERRUPTION) HOWEVER CAUSED AND
  25:/home/jonas/warwick/3dProfilometer/xpcc/src/xpcc/architecture/platform/cortex_m3/stm32/can/can_filter.cpp ****  * ON ANY THEORY OF LIABILITY, WHETHER IN CONTRACT, STRICT LIABILITY, OR TORT
  26:/home/jonas/warwick/3dProfilometer/xpcc/src/xpcc/architecture/platform/cortex_m3/stm32/can/can_filter.cpp ****  * (INCLUDING NEGLIGENCE OR OTHERWISE) ARISING IN ANY WAY OUT OF THE USE OF
  27:/home/jonas/warwick/3dProfilometer/xpcc/src/xpcc/architecture/platform/cortex_m3/stm32/can/can_filter.cpp ****  * THIS SOFTWARE, EVEN IF ADVISED OF THE POSSIBILITY OF SUCH DAMAGE.
  28:/home/jonas/warwick/3dProfilometer/xpcc/src/xpcc/architecture/platform/cortex_m3/stm32/can/can_filter.cpp ****  */
  29:/home/jonas/warwick/3dProfilometer/xpcc/src/xpcc/architecture/platform/cortex_m3/stm32/can/can_filter.cpp **** // ----------------------------------------------------------------------------
  30:/home/jonas/warwick/3dProfilometer/xpcc/src/xpcc/architecture/platform/cortex_m3/stm32/can/can_filter.cpp **** 
  31:/home/jonas/warwick/3dProfilometer/xpcc/src/xpcc/architecture/platform/cortex_m3/stm32/can/can_filter.cpp **** #include "can_filter.hpp"
  32:/home/jonas/warwick/3dProfilometer/xpcc/src/xpcc/architecture/platform/cortex_m3/stm32/can/can_filter.cpp **** 
  33:/home/jonas/warwick/3dProfilometer/xpcc/src/xpcc/architecture/platform/cortex_m3/stm32/can/can_filter.cpp **** // ----------------------------------------------------------------------------
  34:/home/jonas/warwick/3dProfilometer/xpcc/src/xpcc/architecture/platform/cortex_m3/stm32/can/can_filter.cpp **** void
  35:/home/jonas/warwick/3dProfilometer/xpcc/src/xpcc/architecture/platform/cortex_m3/stm32/can/can_filter.cpp **** xpcc::stm32::CanFilter::setFilterBase(uint8_t bank, uint32_t flags, uint32_t fr1, uint32_t fr2)
  36:/home/jonas/warwick/3dProfilometer/xpcc/src/xpcc/architecture/platform/cortex_m3/stm32/can/can_filter.cpp **** {
  28              		.loc 1 36 0
  29              		.cfi_startproc
  30              		@ args = 0, pretend = 0, frame = 0
  31              		@ frame_needed = 0, uses_anonymous_args = 0
  32              		@ link register save eliminated.
  33              	.LVL0:
  34 0000 F0B4     		push	{r4, r5, r6, r7}
  35              	.LCFI0:
  36              		.cfi_def_cfa_offset 16
  37              		.cfi_offset 4, -16
  38              		.cfi_offset 5, -12
  39              		.cfi_offset 6, -8
  40              		.cfi_offset 7, -4
  41              	.LBB2:
  37:/home/jonas/warwick/3dProfilometer/xpcc/src/xpcc/architecture/platform/cortex_m3/stm32/can/can_filter.cpp **** 	uint32_t mask = (1UL << bank);
  38:/home/jonas/warwick/3dProfilometer/xpcc/src/xpcc/architecture/platform/cortex_m3/stm32/can/can_filter.cpp **** 	
  39:/home/jonas/warwick/3dProfilometer/xpcc/src/xpcc/architecture/platform/cortex_m3/stm32/can/can_filter.cpp **** 	// Initialization mode for the filter
  40:/home/jonas/warwick/3dProfilometer/xpcc/src/xpcc/architecture/platform/cortex_m3/stm32/can/can_filter.cpp **** 	CAN1->FMR |= CAN_FMR_FINIT;
  42              		.loc 1 40 0
  43 0002 234C     		ldr	r4, .L8
  44 0004 D4F80052 		ldr	r5, [r4, #512]
  45 0008 45F00105 		orr	r5, r5, #1
  46 000c C4F80052 		str	r5, [r4, #512]
  37:/home/jonas/warwick/3dProfilometer/xpcc/src/xpcc/architecture/platform/cortex_m3/stm32/can/can_filter.cpp **** 	uint32_t mask = (1UL << bank);
  47              		.loc 1 37 0
  48 0010 0125     		movs	r5, #1
  41:/home/jonas/warwick/3dProfilometer/xpcc/src/xpcc/architecture/platform/cortex_m3/stm32/can/can_filter.cpp **** 	
  42:/home/jonas/warwick/3dProfilometer/xpcc/src/xpcc/architecture/platform/cortex_m3/stm32/can/can_filter.cpp **** 	// Disable filter
  43:/home/jonas/warwick/3dProfilometer/xpcc/src/xpcc/architecture/platform/cortex_m3/stm32/can/can_filter.cpp **** 	CAN1->FA1R &= ~mask;
  49              		.loc 1 43 0
  50 0012 D4F81C72 		ldr	r7, [r4, #540]
  37:/home/jonas/warwick/3dProfilometer/xpcc/src/xpcc/architecture/platform/cortex_m3/stm32/can/can_filter.cpp **** 	uint32_t mask = (1UL << bank);
  51              		.loc 1 37 0
  52 0016 05FA00F5 		lsl	r5, r5, r0
  53              	.LVL1:
  54              		.loc 1 43 0
  55 001a EE43     		mvns	r6, r5
  56 001c 3740     		ands	r7, r7, r6
  57 001e C4F81C72 		str	r7, [r4, #540]
  44:/home/jonas/warwick/3dProfilometer/xpcc/src/xpcc/architecture/platform/cortex_m3/stm32/can/can_filter.cpp **** 	
  45:/home/jonas/warwick/3dProfilometer/xpcc/src/xpcc/architecture/platform/cortex_m3/stm32/can/can_filter.cpp **** 	if (flags & LIST_MODE) {
  46:/home/jonas/warwick/3dProfilometer/xpcc/src/xpcc/architecture/platform/cortex_m3/stm32/can/can_filter.cpp **** 		CAN1->FM1R |= mask;
  58              		.loc 1 46 0
  59 0022 D4F80472 		ldr	r7, [r4, #516]
  45:/home/jonas/warwick/3dProfilometer/xpcc/src/xpcc/architecture/platform/cortex_m3/stm32/can/can_filter.cpp **** 	if (flags & LIST_MODE) {
  60              		.loc 1 45 0
  61 0026 11F0020F 		tst	r1, #2
  62              		.loc 1 46 0
  63 002a 14BF     		ite	ne
  64 002c 2F43     		orrne	r7, r5, r7
  47:/home/jonas/warwick/3dProfilometer/xpcc/src/xpcc/architecture/platform/cortex_m3/stm32/can/can_filter.cpp **** 	}
  48:/home/jonas/warwick/3dProfilometer/xpcc/src/xpcc/architecture/platform/cortex_m3/stm32/can/can_filter.cpp **** 	else {
  49:/home/jonas/warwick/3dProfilometer/xpcc/src/xpcc/architecture/platform/cortex_m3/stm32/can/can_filter.cpp **** 		CAN1->FM1R &= ~mask;
  65              		.loc 1 49 0
  66 002e 3740     		andeq	r7, r6, r7
  67 0030 C4F80472 		str	r7, [r4, #516]
  50:/home/jonas/warwick/3dProfilometer/xpcc/src/xpcc/architecture/platform/cortex_m3/stm32/can/can_filter.cpp **** 	}
  51:/home/jonas/warwick/3dProfilometer/xpcc/src/xpcc/architecture/platform/cortex_m3/stm32/can/can_filter.cpp **** 	
  52:/home/jonas/warwick/3dProfilometer/xpcc/src/xpcc/architecture/platform/cortex_m3/stm32/can/can_filter.cpp **** 	if (flags & SINGLE_MODE) {
  53:/home/jonas/warwick/3dProfilometer/xpcc/src/xpcc/architecture/platform/cortex_m3/stm32/can/can_filter.cpp **** 		CAN1->FS1R |= mask;
  68              		.loc 1 53 0
  69 0034 164C     		ldr	r4, .L8
  70 0036 D4F80C72 		ldr	r7, [r4, #524]
  52:/home/jonas/warwick/3dProfilometer/xpcc/src/xpcc/architecture/platform/cortex_m3/stm32/can/can_filter.cpp **** 	if (flags & SINGLE_MODE) {
  71              		.loc 1 52 0
  72 003a 11F0040F 		tst	r1, #4
  73              		.loc 1 53 0
  74 003e 14BF     		ite	ne
  75 0040 2F43     		orrne	r7, r5, r7
  54:/home/jonas/warwick/3dProfilometer/xpcc/src/xpcc/architecture/platform/cortex_m3/stm32/can/can_filter.cpp **** 	}
  55:/home/jonas/warwick/3dProfilometer/xpcc/src/xpcc/architecture/platform/cortex_m3/stm32/can/can_filter.cpp **** 	else {
  56:/home/jonas/warwick/3dProfilometer/xpcc/src/xpcc/architecture/platform/cortex_m3/stm32/can/can_filter.cpp **** 		CAN1->FS1R &= ~mask;
  76              		.loc 1 56 0
  77 0042 3740     		andeq	r7, r6, r7
  57:/home/jonas/warwick/3dProfilometer/xpcc/src/xpcc/architecture/platform/cortex_m3/stm32/can/can_filter.cpp **** 	}
  58:/home/jonas/warwick/3dProfilometer/xpcc/src/xpcc/architecture/platform/cortex_m3/stm32/can/can_filter.cpp **** 	
  59:/home/jonas/warwick/3dProfilometer/xpcc/src/xpcc/architecture/platform/cortex_m3/stm32/can/can_filter.cpp **** 	if (flags & FIFO1) {
  78              		.loc 1 59 0
  79 0044 11F0010F 		tst	r1, #1
  60:/home/jonas/warwick/3dProfilometer/xpcc/src/xpcc/architecture/platform/cortex_m3/stm32/can/can_filter.cpp **** 		CAN1->FFA1R |= mask;
  80              		.loc 1 60 0
  81 0048 1149     		ldr	r1, .L8
  82              	.LVL2:
  56:/home/jonas/warwick/3dProfilometer/xpcc/src/xpcc/architecture/platform/cortex_m3/stm32/can/can_filter.cpp **** 		CAN1->FS1R &= ~mask;
  83              		.loc 1 56 0
  84 004a C4F80C72 		str	r7, [r4, #524]
  85              		.loc 1 60 0
  86 004e D1F81442 		ldr	r4, [r1, #532]
  87 0052 15BF     		itete	ne
  88 0054 2C43     		orrne	r4, r5, r4
  61:/home/jonas/warwick/3dProfilometer/xpcc/src/xpcc/architecture/platform/cortex_m3/stm32/can/can_filter.cpp **** 	}
  62:/home/jonas/warwick/3dProfilometer/xpcc/src/xpcc/architecture/platform/cortex_m3/stm32/can/can_filter.cpp **** 	else {
  63:/home/jonas/warwick/3dProfilometer/xpcc/src/xpcc/architecture/platform/cortex_m3/stm32/can/can_filter.cpp **** 		CAN1->FFA1R &= ~mask;
  89              		.loc 1 63 0
  90 0056 2640     		andeq	r6, r6, r4
  60:/home/jonas/warwick/3dProfilometer/xpcc/src/xpcc/architecture/platform/cortex_m3/stm32/can/can_filter.cpp **** 		CAN1->FFA1R |= mask;
  91              		.loc 1 60 0
  92 0058 C1F81442 		strne	r4, [r1, #532]
  93              		.loc 1 63 0
  94 005c C1F81462 		streq	r6, [r1, #532]
  64:/home/jonas/warwick/3dProfilometer/xpcc/src/xpcc/architecture/platform/cortex_m3/stm32/can/can_filter.cpp **** 	}
  65:/home/jonas/warwick/3dProfilometer/xpcc/src/xpcc/architecture/platform/cortex_m3/stm32/can/can_filter.cpp **** 	
  66:/home/jonas/warwick/3dProfilometer/xpcc/src/xpcc/architecture/platform/cortex_m3/stm32/can/can_filter.cpp **** 	CAN1->sFilterRegister[bank].FR1 = fr1;
  95              		.loc 1 66 0
  96 0060 4830     		adds	r0, r0, #72
  97              	.LVL3:
  67:/home/jonas/warwick/3dProfilometer/xpcc/src/xpcc/architecture/platform/cortex_m3/stm32/can/can_filter.cpp **** 	CAN1->sFilterRegister[bank].FR2 = fr2;
  98              		.loc 1 67 0
  99 0062 C400     		lsls	r4, r0, #3
  66:/home/jonas/warwick/3dProfilometer/xpcc/src/xpcc/architecture/platform/cortex_m3/stm32/can/can_filter.cpp **** 	CAN1->sFilterRegister[bank].FR1 = fr1;
 100              		.loc 1 66 0
 101 0064 0A49     		ldr	r1, .L8
 102              		.loc 1 67 0
 103 0066 04F18044 		add	r4, r4, #1073741824
 104 006a 04F5C844 		add	r4, r4, #25600
  66:/home/jonas/warwick/3dProfilometer/xpcc/src/xpcc/architecture/platform/cortex_m3/stm32/can/can_filter.cpp **** 	CAN1->sFilterRegister[bank].FR1 = fr1;
 105              		.loc 1 66 0
 106 006e 41F83020 		str	r2, [r1, r0, lsl #3]
 107              		.loc 1 67 0
 108 0072 6360     		str	r3, [r4, #4]
  68:/home/jonas/warwick/3dProfilometer/xpcc/src/xpcc/architecture/platform/cortex_m3/stm32/can/can_filter.cpp **** 	
  69:/home/jonas/warwick/3dProfilometer/xpcc/src/xpcc/architecture/platform/cortex_m3/stm32/can/can_filter.cpp **** 	// re-enable filter
  70:/home/jonas/warwick/3dProfilometer/xpcc/src/xpcc/architecture/platform/cortex_m3/stm32/can/can_filter.cpp **** 	CAN1->FA1R |= mask;
 109              		.loc 1 70 0
 110 0074 D1F81C32 		ldr	r3, [r1, #540]
 111              	.LVL4:
 112 0078 1D43     		orrs	r5, r5, r3
 113              	.LVL5:
 114 007a C1F81C52 		str	r5, [r1, #540]
  71:/home/jonas/warwick/3dProfilometer/xpcc/src/xpcc/architecture/platform/cortex_m3/stm32/can/can_filter.cpp **** 	
  72:/home/jonas/warwick/3dProfilometer/xpcc/src/xpcc/architecture/platform/cortex_m3/stm32/can/can_filter.cpp **** 	// Leave the initialization mode for the filter
  73:/home/jonas/warwick/3dProfilometer/xpcc/src/xpcc/architecture/platform/cortex_m3/stm32/can/can_filter.cpp **** 	CAN1->FMR &= ~CAN_FMR_FINIT;
 115              		.loc 1 73 0
 116 007e D1F80032 		ldr	r3, [r1, #512]
 117 0082 23F00103 		bic	r3, r3, #1
 118 0086 C1F80032 		str	r3, [r1, #512]
 119              	.LBE2:
  74:/home/jonas/warwick/3dProfilometer/xpcc/src/xpcc/architecture/platform/cortex_m3/stm32/can/can_filter.cpp **** }
 120              		.loc 1 74 0
 121 008a F0BC     		pop	{r4, r5, r6, r7}
 122 008c 7047     		bx	lr
 123              	.L9:
 124 008e 00BF     		.align	2
 125              	.L8:
 126 0090 00640040 		.word	1073767424
 127              		.cfi_endproc
 128              	.LFE166:
 130              		.section	.text._ZN4xpcc5stm329CanFilter13disableFilterEh,"ax",%progbits
 131              		.align	2
 132              		.global	_ZN4xpcc5stm329CanFilter13disableFilterEh
 133              		.thumb
 134              		.thumb_func
 136              	_ZN4xpcc5stm329CanFilter13disableFilterEh:
 137              	.LFB167:
  75:/home/jonas/warwick/3dProfilometer/xpcc/src/xpcc/architecture/platform/cortex_m3/stm32/can/can_filter.cpp **** 
  76:/home/jonas/warwick/3dProfilometer/xpcc/src/xpcc/architecture/platform/cortex_m3/stm32/can/can_filter.cpp **** void
  77:/home/jonas/warwick/3dProfilometer/xpcc/src/xpcc/architecture/platform/cortex_m3/stm32/can/can_filter.cpp **** xpcc::stm32::CanFilter::disableFilter(uint8_t id)
  78:/home/jonas/warwick/3dProfilometer/xpcc/src/xpcc/architecture/platform/cortex_m3/stm32/can/can_filter.cpp **** {
 138              		.loc 1 78 0
 139              		.cfi_startproc
 140              		@ args = 0, pretend = 0, frame = 0
 141              		@ frame_needed = 0, uses_anonymous_args = 0
 142              		@ link register save eliminated.
 143              	.LVL6:
 144              	.LBB3:
  79:/home/jonas/warwick/3dProfilometer/xpcc/src/xpcc/architecture/platform/cortex_m3/stm32/can/can_filter.cpp **** 	uint32_t mask = (1UL << id);
  80:/home/jonas/warwick/3dProfilometer/xpcc/src/xpcc/architecture/platform/cortex_m3/stm32/can/can_filter.cpp **** 	
  81:/home/jonas/warwick/3dProfilometer/xpcc/src/xpcc/architecture/platform/cortex_m3/stm32/can/can_filter.cpp **** 	// Initialization mode for the filter
  82:/home/jonas/warwick/3dProfilometer/xpcc/src/xpcc/architecture/platform/cortex_m3/stm32/can/can_filter.cpp **** 	CAN1->FMR |= CAN_FMR_FINIT;
 145              		.loc 1 82 0
 146 0000 0B4B     		ldr	r3, .L11
 147 0002 D3F80022 		ldr	r2, [r3, #512]
 148 0006 42F00102 		orr	r2, r2, #1
 149 000a C3F80022 		str	r2, [r3, #512]
  83:/home/jonas/warwick/3dProfilometer/xpcc/src/xpcc/architecture/platform/cortex_m3/stm32/can/can_filter.cpp **** 	
  84:/home/jonas/warwick/3dProfilometer/xpcc/src/xpcc/architecture/platform/cortex_m3/stm32/can/can_filter.cpp **** 	// Disable filter
  85:/home/jonas/warwick/3dProfilometer/xpcc/src/xpcc/architecture/platform/cortex_m3/stm32/can/can_filter.cpp **** 	CAN1->FA1R &= ~mask;
 150              		.loc 1 85 0
 151 000e D3F81C22 		ldr	r2, [r3, #540]
  79:/home/jonas/warwick/3dProfilometer/xpcc/src/xpcc/architecture/platform/cortex_m3/stm32/can/can_filter.cpp **** 	uint32_t mask = (1UL << id);
 152              		.loc 1 79 0
 153 0012 0121     		movs	r1, #1
 154 0014 01FA00F0 		lsl	r0, r1, r0
 155              	.LVL7:
 156              		.loc 1 85 0
 157 0018 22EA0002 		bic	r2, r2, r0
 158 001c C3F81C22 		str	r2, [r3, #540]
  86:/home/jonas/warwick/3dProfilometer/xpcc/src/xpcc/architecture/platform/cortex_m3/stm32/can/can_filter.cpp **** 	
  87:/home/jonas/warwick/3dProfilometer/xpcc/src/xpcc/architecture/platform/cortex_m3/stm32/can/can_filter.cpp **** 	// Leave the initialization mode for the filter
  88:/home/jonas/warwick/3dProfilometer/xpcc/src/xpcc/architecture/platform/cortex_m3/stm32/can/can_filter.cpp **** 	CAN1->FMR &= ~CAN_FMR_FINIT;
 159              		.loc 1 88 0
 160 0020 D3F80022 		ldr	r2, [r3, #512]
 161 0024 22F00102 		bic	r2, r2, #1
 162 0028 C3F80022 		str	r2, [r3, #512]
 163 002c 7047     		bx	lr
 164              	.L12:
 165 002e 00BF     		.align	2
 166              	.L11:
 167 0030 00640040 		.word	1073767424
 168              	.LBE3:
 169              		.cfi_endproc
 170              	.LFE167:
 172              		.text
 173              	.Letext0:
 174              		.file 2 "/opt/arm-2012.09/bin/../lib/gcc/arm-none-eabi/4.7.2/../../../../arm-none-eabi/include/std
 175              		.file 3 "/home/jonas/warwick/3dProfilometer/xpcc/src/xpcc/architecture/platform/cortex_m3/stm32/ca
 176              		.file 4 "/home/jonas/warwick/3dProfilometer/xpcc/ext/stm32f4xx_lib/CMSIS/Device/ST/STM32F4xx/Inclu
 177              		.file 5 "/home/jonas/warwick/3dProfilometer/xpcc/src/xpcc/driver/connectivity/can/message.hpp"
 178              		.file 6 "/home/jonas/warwick/3dProfilometer/xpcc/ext/stm32f4xx_lib/CMSIS/Include/core_cm4.h"