   1              		.syntax unified
   2              		.cpu cortex-m4
   3              		.eabi_attribute 27, 3
   4              		.fpu fpv4-sp-d16
   5              		.eabi_attribute 20, 1
   6              		.eabi_attribute 21, 1
   7              		.eabi_attribute 23, 3
   8              		.eabi_attribute 24, 1
   9              		.eabi_attribute 25, 1
  10              		.eabi_attribute 26, 1
  11              		.eabi_attribute 30, 2
  12              		.eabi_attribute 34, 1
  13              		.eabi_attribute 18, 4
  14              		.thumb
  15              		.file	"uart_4.cpp"
  16              		.text
  17              	.Ltext0:
  18              		.cfi_sections	.debug_frame
  19              		.section	.text._ZN4xpcc5stm325Uart413configurePinsENS1_7MappingE,"ax",%progbits
  20              		.align	2
  21              		.global	_ZN4xpcc5stm325Uart413configurePinsENS1_7MappingE
  22              		.thumb
  23              		.thumb_func
  25              	_ZN4xpcc5stm325Uart413configurePinsENS1_7MappingE:
  26              	.LFB174:
  27              		.file 1 "/home/jonas/warwick/3dProfilometer/xpcc/src/xpcc/architecture/platform/cortex_m3/stm32/ua
   1:/home/jonas/warwick/3dProfilometer/xpcc/src/xpcc/architecture/platform/cortex_m3/stm32/uart/uart_4.cpp **** // coding: utf-8
   2:/home/jonas/warwick/3dProfilometer/xpcc/src/xpcc/architecture/platform/cortex_m3/stm32/uart/uart_4.cpp **** // ----------------------------------------------------------------------------
   3:/home/jonas/warwick/3dProfilometer/xpcc/src/xpcc/architecture/platform/cortex_m3/stm32/uart/uart_4.cpp **** /* Copyright (c) 2011, Roboterclub Aachen e.V.
   4:/home/jonas/warwick/3dProfilometer/xpcc/src/xpcc/architecture/platform/cortex_m3/stm32/uart/uart_4.cpp ****  * All rights reserved.
   5:/home/jonas/warwick/3dProfilometer/xpcc/src/xpcc/architecture/platform/cortex_m3/stm32/uart/uart_4.cpp ****  *
   6:/home/jonas/warwick/3dProfilometer/xpcc/src/xpcc/architecture/platform/cortex_m3/stm32/uart/uart_4.cpp ****  * Redistribution and use in source and binary forms, with or without
   7:/home/jonas/warwick/3dProfilometer/xpcc/src/xpcc/architecture/platform/cortex_m3/stm32/uart/uart_4.cpp ****  * modification, are permitted provided that the following conditions are met:
   8:/home/jonas/warwick/3dProfilometer/xpcc/src/xpcc/architecture/platform/cortex_m3/stm32/uart/uart_4.cpp ****  * 
   9:/home/jonas/warwick/3dProfilometer/xpcc/src/xpcc/architecture/platform/cortex_m3/stm32/uart/uart_4.cpp ****  *     * Redistributions of source code must retain the above copyright
  10:/home/jonas/warwick/3dProfilometer/xpcc/src/xpcc/architecture/platform/cortex_m3/stm32/uart/uart_4.cpp ****  *       notice, this list of conditions and the following disclaimer.
  11:/home/jonas/warwick/3dProfilometer/xpcc/src/xpcc/architecture/platform/cortex_m3/stm32/uart/uart_4.cpp ****  *     * Redistributions in binary form must reproduce the above copyright
  12:/home/jonas/warwick/3dProfilometer/xpcc/src/xpcc/architecture/platform/cortex_m3/stm32/uart/uart_4.cpp ****  *       notice, this list of conditions and the following disclaimer in the
  13:/home/jonas/warwick/3dProfilometer/xpcc/src/xpcc/architecture/platform/cortex_m3/stm32/uart/uart_4.cpp ****  *       documentation and/or other materials provided with the distribution.
  14:/home/jonas/warwick/3dProfilometer/xpcc/src/xpcc/architecture/platform/cortex_m3/stm32/uart/uart_4.cpp ****  *     * Neither the name of the Roboterclub Aachen e.V. nor the
  15:/home/jonas/warwick/3dProfilometer/xpcc/src/xpcc/architecture/platform/cortex_m3/stm32/uart/uart_4.cpp ****  *       names of its contributors may be used to endorse or promote products
  16:/home/jonas/warwick/3dProfilometer/xpcc/src/xpcc/architecture/platform/cortex_m3/stm32/uart/uart_4.cpp ****  *       derived from this software without specific prior written permission.
  17:/home/jonas/warwick/3dProfilometer/xpcc/src/xpcc/architecture/platform/cortex_m3/stm32/uart/uart_4.cpp ****  *
  18:/home/jonas/warwick/3dProfilometer/xpcc/src/xpcc/architecture/platform/cortex_m3/stm32/uart/uart_4.cpp ****  * THIS SOFTWARE IS PROVIDED BY ROBOTERCLUB AACHEN E.V. ''AS IS'' AND ANY
  19:/home/jonas/warwick/3dProfilometer/xpcc/src/xpcc/architecture/platform/cortex_m3/stm32/uart/uart_4.cpp ****  * EXPRESS OR IMPLIED WARRANTIES, INCLUDING, BUT NOT LIMITED TO, THE IMPLIED
  20:/home/jonas/warwick/3dProfilometer/xpcc/src/xpcc/architecture/platform/cortex_m3/stm32/uart/uart_4.cpp ****  * WARRANTIES OF MERCHANTABILITY AND FITNESS FOR A PARTICULAR PURPOSE ARE
  21:/home/jonas/warwick/3dProfilometer/xpcc/src/xpcc/architecture/platform/cortex_m3/stm32/uart/uart_4.cpp ****  * DISCLAIMED. IN NO EVENT SHALL ROBOTERCLUB AACHEN E.V. BE LIABLE FOR ANY
  22:/home/jonas/warwick/3dProfilometer/xpcc/src/xpcc/architecture/platform/cortex_m3/stm32/uart/uart_4.cpp ****  * DIRECT, INDIRECT, INCIDENTAL, SPECIAL, EXEMPLARY, OR CONSEQUENTIAL DAMAGES
  23:/home/jonas/warwick/3dProfilometer/xpcc/src/xpcc/architecture/platform/cortex_m3/stm32/uart/uart_4.cpp ****  * (INCLUDING, BUT NOT LIMITED TO, PROCUREMENT OF SUBSTITUTE GOODS OR SERVICES;
  24:/home/jonas/warwick/3dProfilometer/xpcc/src/xpcc/architecture/platform/cortex_m3/stm32/uart/uart_4.cpp ****  * LOSS OF USE, DATA, OR PROFITS; OR BUSINESS INTERRUPTION) HOWEVER CAUSED AND
  25:/home/jonas/warwick/3dProfilometer/xpcc/src/xpcc/architecture/platform/cortex_m3/stm32/uart/uart_4.cpp ****  * ON ANY THEORY OF LIABILITY, WHETHER IN CONTRACT, STRICT LIABILITY, OR TORT
  26:/home/jonas/warwick/3dProfilometer/xpcc/src/xpcc/architecture/platform/cortex_m3/stm32/uart/uart_4.cpp ****  * (INCLUDING NEGLIGENCE OR OTHERWISE) ARISING IN ANY WAY OUT OF THE USE OF
  27:/home/jonas/warwick/3dProfilometer/xpcc/src/xpcc/architecture/platform/cortex_m3/stm32/uart/uart_4.cpp ****  * THIS SOFTWARE, EVEN IF ADVISED OF THE POSSIBILITY OF SUCH DAMAGE.
  28:/home/jonas/warwick/3dProfilometer/xpcc/src/xpcc/architecture/platform/cortex_m3/stm32/uart/uart_4.cpp ****  */
  29:/home/jonas/warwick/3dProfilometer/xpcc/src/xpcc/architecture/platform/cortex_m3/stm32/uart/uart_4.cpp **** // ----------------------------------------------------------------------------
  30:/home/jonas/warwick/3dProfilometer/xpcc/src/xpcc/architecture/platform/cortex_m3/stm32/uart/uart_4.cpp **** /*
  31:/home/jonas/warwick/3dProfilometer/xpcc/src/xpcc/architecture/platform/cortex_m3/stm32/uart/uart_4.cpp ****  * WARNING: This file is generated automatically, do not edit!
  32:/home/jonas/warwick/3dProfilometer/xpcc/src/xpcc/architecture/platform/cortex_m3/stm32/uart/uart_4.cpp ****  * Please modify the corresponding *.in file instead and rebuild this file. 
  33:/home/jonas/warwick/3dProfilometer/xpcc/src/xpcc/architecture/platform/cortex_m3/stm32/uart/uart_4.cpp ****  */
  34:/home/jonas/warwick/3dProfilometer/xpcc/src/xpcc/architecture/platform/cortex_m3/stm32/uart/uart_4.cpp **** // ----------------------------------------------------------------------------
  35:/home/jonas/warwick/3dProfilometer/xpcc/src/xpcc/architecture/platform/cortex_m3/stm32/uart/uart_4.cpp **** 
  36:/home/jonas/warwick/3dProfilometer/xpcc/src/xpcc/architecture/platform/cortex_m3/stm32/uart/uart_4.cpp **** #include "../gpio.hpp"
  37:/home/jonas/warwick/3dProfilometer/xpcc/src/xpcc/architecture/platform/cortex_m3/stm32/uart/uart_4.cpp **** #include "../device.h"
  38:/home/jonas/warwick/3dProfilometer/xpcc/src/xpcc/architecture/platform/cortex_m3/stm32/uart/uart_4.cpp **** 
  39:/home/jonas/warwick/3dProfilometer/xpcc/src/xpcc/architecture/platform/cortex_m3/stm32/uart/uart_4.cpp **** #include "uart_4.hpp"
  40:/home/jonas/warwick/3dProfilometer/xpcc/src/xpcc/architecture/platform/cortex_m3/stm32/uart/uart_4.cpp **** 
  41:/home/jonas/warwick/3dProfilometer/xpcc/src/xpcc/architecture/platform/cortex_m3/stm32/uart/uart_4.cpp **** #include <xpcc_config.hpp>
  42:/home/jonas/warwick/3dProfilometer/xpcc/src/xpcc/architecture/platform/cortex_m3/stm32/uart/uart_4.cpp **** 
  43:/home/jonas/warwick/3dProfilometer/xpcc/src/xpcc/architecture/platform/cortex_m3/stm32/uart/uart_4.cpp **** #if defined(STM32F10X_HD) || defined(STM32F10X_XL) || defined(STM32F10X_CL) || \
  44:/home/jonas/warwick/3dProfilometer/xpcc/src/xpcc/architecture/platform/cortex_m3/stm32/uart/uart_4.cpp **** 	defined(STM32F2XX) || defined(STM32F3XX) || defined(STM32F4XX)
  45:/home/jonas/warwick/3dProfilometer/xpcc/src/xpcc/architecture/platform/cortex_m3/stm32/uart/uart_4.cpp **** 
  46:/home/jonas/warwick/3dProfilometer/xpcc/src/xpcc/architecture/platform/cortex_m3/stm32/uart/uart_4.cpp **** namespace
  47:/home/jonas/warwick/3dProfilometer/xpcc/src/xpcc/architecture/platform/cortex_m3/stm32/uart/uart_4.cpp **** {
  48:/home/jonas/warwick/3dProfilometer/xpcc/src/xpcc/architecture/platform/cortex_m3/stm32/uart/uart_4.cpp **** 	#if defined(STM32F2XX) || defined(STM32F4XX)
  49:/home/jonas/warwick/3dProfilometer/xpcc/src/xpcc/architecture/platform/cortex_m3/stm32/uart/uart_4.cpp **** 	GPIO__OUTPUT(TxdA0, A, 0);
  50:/home/jonas/warwick/3dProfilometer/xpcc/src/xpcc/architecture/platform/cortex_m3/stm32/uart/uart_4.cpp **** 	GPIO__INPUT(RxdA1, A, 1);
  51:/home/jonas/warwick/3dProfilometer/xpcc/src/xpcc/architecture/platform/cortex_m3/stm32/uart/uart_4.cpp **** #endif
  52:/home/jonas/warwick/3dProfilometer/xpcc/src/xpcc/architecture/platform/cortex_m3/stm32/uart/uart_4.cpp **** 	
  53:/home/jonas/warwick/3dProfilometer/xpcc/src/xpcc/architecture/platform/cortex_m3/stm32/uart/uart_4.cpp **** 	GPIO__OUTPUT(TxdC10, C, 10);
  54:/home/jonas/warwick/3dProfilometer/xpcc/src/xpcc/architecture/platform/cortex_m3/stm32/uart/uart_4.cpp **** 	GPIO__INPUT(RxdC11, C, 11);
  55:/home/jonas/warwick/3dProfilometer/xpcc/src/xpcc/architecture/platform/cortex_m3/stm32/uart/uart_4.cpp **** }
  56:/home/jonas/warwick/3dProfilometer/xpcc/src/xpcc/architecture/platform/cortex_m3/stm32/uart/uart_4.cpp **** namespace
  57:/home/jonas/warwick/3dProfilometer/xpcc/src/xpcc/architecture/platform/cortex_m3/stm32/uart/uart_4.cpp **** {
  58:/home/jonas/warwick/3dProfilometer/xpcc/src/xpcc/architecture/platform/cortex_m3/stm32/uart/uart_4.cpp **** 	static const uint32_t apbClk = STM32_APB1_FREQUENCY;	// APB1
  59:/home/jonas/warwick/3dProfilometer/xpcc/src/xpcc/architecture/platform/cortex_m3/stm32/uart/uart_4.cpp **** }
  60:/home/jonas/warwick/3dProfilometer/xpcc/src/xpcc/architecture/platform/cortex_m3/stm32/uart/uart_4.cpp **** 
  61:/home/jonas/warwick/3dProfilometer/xpcc/src/xpcc/architecture/platform/cortex_m3/stm32/uart/uart_4.cpp **** // ----------------------------------------------------------------------------
  62:/home/jonas/warwick/3dProfilometer/xpcc/src/xpcc/architecture/platform/cortex_m3/stm32/uart/uart_4.cpp **** void
  63:/home/jonas/warwick/3dProfilometer/xpcc/src/xpcc/architecture/platform/cortex_m3/stm32/uart/uart_4.cpp **** xpcc::stm32::Uart4::configurePins(Mapping mapping)
  64:/home/jonas/warwick/3dProfilometer/xpcc/src/xpcc/architecture/platform/cortex_m3/stm32/uart/uart_4.cpp **** {
  28              		.loc 1 64 0
  29              		.cfi_startproc
  30              		@ args = 0, pretend = 0, frame = 0
  31              		@ frame_needed = 0, uses_anonymous_args = 0
  32              		@ link register save eliminated.
  33              	.LVL0:
  65:/home/jonas/warwick/3dProfilometer/xpcc/src/xpcc/architecture/platform/cortex_m3/stm32/uart/uart_4.cpp **** 	// Enable clock
  66:/home/jonas/warwick/3dProfilometer/xpcc/src/xpcc/architecture/platform/cortex_m3/stm32/uart/uart_4.cpp **** 	RCC->APB1ENR |= RCC_APB1ENR_UART4EN;
  34              		.loc 1 66 0
  35 0000 374B     		ldr	r3, .L6
  36 0002 1A6C     		ldr	r2, [r3, #64]
  67:/home/jonas/warwick/3dProfilometer/xpcc/src/xpcc/architecture/platform/cortex_m3/stm32/uart/uart_4.cpp **** 	
  68:/home/jonas/warwick/3dProfilometer/xpcc/src/xpcc/architecture/platform/cortex_m3/stm32/uart/uart_4.cpp **** 	// Initialize IO pins
  69:/home/jonas/warwick/3dProfilometer/xpcc/src/xpcc/architecture/platform/cortex_m3/stm32/uart/uart_4.cpp **** #if defined(STM32F2XX) || defined(STM32F3XX) || defined(STM32F4XX)
  70:/home/jonas/warwick/3dProfilometer/xpcc/src/xpcc/architecture/platform/cortex_m3/stm32/uart/uart_4.cpp **** 	#if defined(STM32F3XX)
  71:/home/jonas/warwick/3dProfilometer/xpcc/src/xpcc/architecture/platform/cortex_m3/stm32/uart/uart_4.cpp **** 	(void) mapping;		// avoid compiler warning
  72:/home/jonas/warwick/3dProfilometer/xpcc/src/xpcc/architecture/platform/cortex_m3/stm32/uart/uart_4.cpp **** 
  73:/home/jonas/warwick/3dProfilometer/xpcc/src/xpcc/architecture/platform/cortex_m3/stm32/uart/uart_4.cpp **** 	TxdC10::setAlternateFunction(AF_UART4, xpcc::stm32::PUSH_PULL);
  74:/home/jonas/warwick/3dProfilometer/xpcc/src/xpcc/architecture/platform/cortex_m3/stm32/uart/uart_4.cpp **** 	RxdC11::setAlternateFunction(AF_UART4);
  75:/home/jonas/warwick/3dProfilometer/xpcc/src/xpcc/architecture/platform/cortex_m3/stm32/uart/uart_4.cpp **** #else
  76:/home/jonas/warwick/3dProfilometer/xpcc/src/xpcc/architecture/platform/cortex_m3/stm32/uart/uart_4.cpp **** 	if (mapping == REMAP_PA0_PA1) {
  37              		.loc 1 76 0
  38 0004 0128     		cmp	r0, #1
  66:/home/jonas/warwick/3dProfilometer/xpcc/src/xpcc/architecture/platform/cortex_m3/stm32/uart/uart_4.cpp **** 	RCC->APB1ENR |= RCC_APB1ENR_UART4EN;
  39              		.loc 1 66 0
  40 0006 42F40022 		orr	r2, r2, #524288
  41 000a 1A64     		str	r2, [r3, #64]
  42              		.loc 1 76 0
  43 000c 33D0     		beq	.L5
  44              	.LVL1:
  45              	.LBB36:
  46              	.LBB37:
  53:/home/jonas/warwick/3dProfilometer/xpcc/src/xpcc/architecture/platform/cortex_m3/stm32/uart/uart_4.cpp **** 	GPIO__OUTPUT(TxdC10, C, 10);
  47              		.loc 1 53 0
  48 000e 354B     		ldr	r3, .L6+4
  49 0010 1A68     		ldr	r2, [r3, #0]
  50 0012 22F44012 		bic	r2, r2, #3145728
  51 0016 42F40012 		orr	r2, r2, #2097152
  52 001a 1A60     		str	r2, [r3, #0]
  53              	.LVL2:
  54              	.LBB38:
  55              	.LBB39:
  56              		.file 2 "/home/jonas/warwick/3dProfilometer/xpcc/src/xpcc/architecture/platform/cortex_m3/stm32/ua
   1:/home/jonas/warwick/3dProfilometer/xpcc/src/xpcc/architecture/platform/cortex_m3/stm32/uart/../stm32f2_4/gpio.hpp **** // coding: utf-8
   2:/home/jonas/warwick/3dProfilometer/xpcc/src/xpcc/architecture/platform/cortex_m3/stm32/uart/../stm32f2_4/gpio.hpp **** // ----------------------------------------------------------------------------
   3:/home/jonas/warwick/3dProfilometer/xpcc/src/xpcc/architecture/platform/cortex_m3/stm32/uart/../stm32f2_4/gpio.hpp **** /* Copyright (c) 2011, Roboterclub Aachen e.V.
   4:/home/jonas/warwick/3dProfilometer/xpcc/src/xpcc/architecture/platform/cortex_m3/stm32/uart/../stm32f2_4/gpio.hpp ****  * All rights reserved.
   5:/home/jonas/warwick/3dProfilometer/xpcc/src/xpcc/architecture/platform/cortex_m3/stm32/uart/../stm32f2_4/gpio.hpp ****  *
   6:/home/jonas/warwick/3dProfilometer/xpcc/src/xpcc/architecture/platform/cortex_m3/stm32/uart/../stm32f2_4/gpio.hpp ****  * Redistribution and use in source and binary forms, with or without
   7:/home/jonas/warwick/3dProfilometer/xpcc/src/xpcc/architecture/platform/cortex_m3/stm32/uart/../stm32f2_4/gpio.hpp ****  * modification, are permitted provided that the following conditions are met:
   8:/home/jonas/warwick/3dProfilometer/xpcc/src/xpcc/architecture/platform/cortex_m3/stm32/uart/../stm32f2_4/gpio.hpp ****  *
   9:/home/jonas/warwick/3dProfilometer/xpcc/src/xpcc/architecture/platform/cortex_m3/stm32/uart/../stm32f2_4/gpio.hpp ****  *     * Redistributions of source code must retain the above copyright
  10:/home/jonas/warwick/3dProfilometer/xpcc/src/xpcc/architecture/platform/cortex_m3/stm32/uart/../stm32f2_4/gpio.hpp ****  *       notice, this list of conditions and the following disclaimer.
  11:/home/jonas/warwick/3dProfilometer/xpcc/src/xpcc/architecture/platform/cortex_m3/stm32/uart/../stm32f2_4/gpio.hpp ****  *     * Redistributions in binary form must reproduce the above copyright
  12:/home/jonas/warwick/3dProfilometer/xpcc/src/xpcc/architecture/platform/cortex_m3/stm32/uart/../stm32f2_4/gpio.hpp ****  *       notice, this list of conditions and the following disclaimer in the
  13:/home/jonas/warwick/3dProfilometer/xpcc/src/xpcc/architecture/platform/cortex_m3/stm32/uart/../stm32f2_4/gpio.hpp ****  *       documentation and/or other materials provided with the distribution.
  14:/home/jonas/warwick/3dProfilometer/xpcc/src/xpcc/architecture/platform/cortex_m3/stm32/uart/../stm32f2_4/gpio.hpp ****  *     * Neither the name of the Roboterclub Aachen e.V. nor the
  15:/home/jonas/warwick/3dProfilometer/xpcc/src/xpcc/architecture/platform/cortex_m3/stm32/uart/../stm32f2_4/gpio.hpp ****  *       names of its contributors may be used to endorse or promote products
  16:/home/jonas/warwick/3dProfilometer/xpcc/src/xpcc/architecture/platform/cortex_m3/stm32/uart/../stm32f2_4/gpio.hpp ****  *       derived from this software without specific prior written permission.
  17:/home/jonas/warwick/3dProfilometer/xpcc/src/xpcc/architecture/platform/cortex_m3/stm32/uart/../stm32f2_4/gpio.hpp ****  *
  18:/home/jonas/warwick/3dProfilometer/xpcc/src/xpcc/architecture/platform/cortex_m3/stm32/uart/../stm32f2_4/gpio.hpp ****  * THIS SOFTWARE IS PROVIDED BY ROBOTERCLUB AACHEN E.V. ''AS IS'' AND ANY
  19:/home/jonas/warwick/3dProfilometer/xpcc/src/xpcc/architecture/platform/cortex_m3/stm32/uart/../stm32f2_4/gpio.hpp ****  * EXPRESS OR IMPLIED WARRANTIES, INCLUDING, BUT NOT LIMITED TO, THE IMPLIED
  20:/home/jonas/warwick/3dProfilometer/xpcc/src/xpcc/architecture/platform/cortex_m3/stm32/uart/../stm32f2_4/gpio.hpp ****  * WARRANTIES OF MERCHANTABILITY AND FITNESS FOR A PARTICULAR PURPOSE ARE
  21:/home/jonas/warwick/3dProfilometer/xpcc/src/xpcc/architecture/platform/cortex_m3/stm32/uart/../stm32f2_4/gpio.hpp ****  * DISCLAIMED. IN NO EVENT SHALL ROBOTERCLUB AACHEN E.V. BE LIABLE FOR ANY
  22:/home/jonas/warwick/3dProfilometer/xpcc/src/xpcc/architecture/platform/cortex_m3/stm32/uart/../stm32f2_4/gpio.hpp ****  * DIRECT, INDIRECT, INCIDENTAL, SPECIAL, EXEMPLARY, OR CONSEQUENTIAL DAMAGES
  23:/home/jonas/warwick/3dProfilometer/xpcc/src/xpcc/architecture/platform/cortex_m3/stm32/uart/../stm32f2_4/gpio.hpp ****  * (INCLUDING, BUT NOT LIMITED TO, PROCUREMENT OF SUBSTITUTE GOODS OR SERVICES;
  24:/home/jonas/warwick/3dProfilometer/xpcc/src/xpcc/architecture/platform/cortex_m3/stm32/uart/../stm32f2_4/gpio.hpp ****  * LOSS OF USE, DATA, OR PROFITS; OR BUSINESS INTERRUPTION) HOWEVER CAUSED AND
  25:/home/jonas/warwick/3dProfilometer/xpcc/src/xpcc/architecture/platform/cortex_m3/stm32/uart/../stm32f2_4/gpio.hpp ****  * ON ANY THEORY OF LIABILITY, WHETHER IN CONTRACT, STRICT LIABILITY, OR TORT
  26:/home/jonas/warwick/3dProfilometer/xpcc/src/xpcc/architecture/platform/cortex_m3/stm32/uart/../stm32f2_4/gpio.hpp ****  * (INCLUDING NEGLIGENCE OR OTHERWISE) ARISING IN ANY WAY OUT OF THE USE OF
  27:/home/jonas/warwick/3dProfilometer/xpcc/src/xpcc/architecture/platform/cortex_m3/stm32/uart/../stm32f2_4/gpio.hpp ****  * THIS SOFTWARE, EVEN IF ADVISED OF THE POSSIBILITY OF SUCH DAMAGE.
  28:/home/jonas/warwick/3dProfilometer/xpcc/src/xpcc/architecture/platform/cortex_m3/stm32/uart/../stm32f2_4/gpio.hpp ****  */
  29:/home/jonas/warwick/3dProfilometer/xpcc/src/xpcc/architecture/platform/cortex_m3/stm32/uart/../stm32f2_4/gpio.hpp **** // ----------------------------------------------------------------------------
  30:/home/jonas/warwick/3dProfilometer/xpcc/src/xpcc/architecture/platform/cortex_m3/stm32/uart/../stm32f2_4/gpio.hpp **** 
  31:/home/jonas/warwick/3dProfilometer/xpcc/src/xpcc/architecture/platform/cortex_m3/stm32/uart/../stm32f2_4/gpio.hpp **** #ifndef XPCC_STM32F2__GPIO_HPP
  32:/home/jonas/warwick/3dProfilometer/xpcc/src/xpcc/architecture/platform/cortex_m3/stm32/uart/../stm32f2_4/gpio.hpp **** #define XPCC_STM32F2__GPIO_HPP
  33:/home/jonas/warwick/3dProfilometer/xpcc/src/xpcc/architecture/platform/cortex_m3/stm32/uart/../stm32f2_4/gpio.hpp **** 
  34:/home/jonas/warwick/3dProfilometer/xpcc/src/xpcc/architecture/platform/cortex_m3/stm32/uart/../stm32f2_4/gpio.hpp **** #include <xpcc/architecture/driver/gpio.hpp>
  35:/home/jonas/warwick/3dProfilometer/xpcc/src/xpcc/architecture/platform/cortex_m3/stm32/uart/../stm32f2_4/gpio.hpp **** #include "../device.h"
  36:/home/jonas/warwick/3dProfilometer/xpcc/src/xpcc/architecture/platform/cortex_m3/stm32/uart/../stm32f2_4/gpio.hpp **** 
  37:/home/jonas/warwick/3dProfilometer/xpcc/src/xpcc/architecture/platform/cortex_m3/stm32/uart/../stm32f2_4/gpio.hpp **** /* 
  38:/home/jonas/warwick/3dProfilometer/xpcc/src/xpcc/architecture/platform/cortex_m3/stm32/uart/../stm32f2_4/gpio.hpp ****  * GPIO Ports
  39:/home/jonas/warwick/3dProfilometer/xpcc/src/xpcc/architecture/platform/cortex_m3/stm32/uart/../stm32f2_4/gpio.hpp ****  * ==========
  40:/home/jonas/warwick/3dProfilometer/xpcc/src/xpcc/architecture/platform/cortex_m3/stm32/uart/../stm32f2_4/gpio.hpp ****  * 
  41:/home/jonas/warwick/3dProfilometer/xpcc/src/xpcc/architecture/platform/cortex_m3/stm32/uart/../stm32f2_4/gpio.hpp ****  * Each port bit of the General Purpose IO (GPIO) Ports, can be
  42:/home/jonas/warwick/3dProfilometer/xpcc/src/xpcc/architecture/platform/cortex_m3/stm32/uart/../stm32f2_4/gpio.hpp ****  * individually configured by software in several modes:
  43:/home/jonas/warwick/3dProfilometer/xpcc/src/xpcc/architecture/platform/cortex_m3/stm32/uart/../stm32f2_4/gpio.hpp ****  * - Input floating
  44:/home/jonas/warwick/3dProfilometer/xpcc/src/xpcc/architecture/platform/cortex_m3/stm32/uart/../stm32f2_4/gpio.hpp ****  * - Input (with pull-up or pull-down)
  45:/home/jonas/warwick/3dProfilometer/xpcc/src/xpcc/architecture/platform/cortex_m3/stm32/uart/../stm32f2_4/gpio.hpp ****  * - Analog
  46:/home/jonas/warwick/3dProfilometer/xpcc/src/xpcc/architecture/platform/cortex_m3/stm32/uart/../stm32f2_4/gpio.hpp ****  * - Output open-drain (with pull-up or pull-down)
  47:/home/jonas/warwick/3dProfilometer/xpcc/src/xpcc/architecture/platform/cortex_m3/stm32/uart/../stm32f2_4/gpio.hpp ****  * - Output push-pull (with pull-up or pull-down)
  48:/home/jonas/warwick/3dProfilometer/xpcc/src/xpcc/architecture/platform/cortex_m3/stm32/uart/../stm32f2_4/gpio.hpp ****  * - Alternate function push-pull (with pull-up or pull-down)
  49:/home/jonas/warwick/3dProfilometer/xpcc/src/xpcc/architecture/platform/cortex_m3/stm32/uart/../stm32f2_4/gpio.hpp ****  * - Alternate function open-drain (with pull-up or pull-down)
  50:/home/jonas/warwick/3dProfilometer/xpcc/src/xpcc/architecture/platform/cortex_m3/stm32/uart/../stm32f2_4/gpio.hpp ****  * 
  51:/home/jonas/warwick/3dProfilometer/xpcc/src/xpcc/architecture/platform/cortex_m3/stm32/uart/../stm32f2_4/gpio.hpp ****  * GPIOx_MODER (32-bit)
  52:/home/jonas/warwick/3dProfilometer/xpcc/src/xpcc/architecture/platform/cortex_m3/stm32/uart/../stm32f2_4/gpio.hpp ****  *   00: Input
  53:/home/jonas/warwick/3dProfilometer/xpcc/src/xpcc/architecture/platform/cortex_m3/stm32/uart/../stm32f2_4/gpio.hpp ****  *   01: General purpose output mode
  54:/home/jonas/warwick/3dProfilometer/xpcc/src/xpcc/architecture/platform/cortex_m3/stm32/uart/../stm32f2_4/gpio.hpp ****  *   10: Alternate function mode
  55:/home/jonas/warwick/3dProfilometer/xpcc/src/xpcc/architecture/platform/cortex_m3/stm32/uart/../stm32f2_4/gpio.hpp ****  *   11: Analog mode
  56:/home/jonas/warwick/3dProfilometer/xpcc/src/xpcc/architecture/platform/cortex_m3/stm32/uart/../stm32f2_4/gpio.hpp ****  * GPIOx_OTYPER (16-bit)
  57:/home/jonas/warwick/3dProfilometer/xpcc/src/xpcc/architecture/platform/cortex_m3/stm32/uart/../stm32f2_4/gpio.hpp ****  *   0: Output push-pull
  58:/home/jonas/warwick/3dProfilometer/xpcc/src/xpcc/architecture/platform/cortex_m3/stm32/uart/../stm32f2_4/gpio.hpp ****  *   1: Output open-drain
  59:/home/jonas/warwick/3dProfilometer/xpcc/src/xpcc/architecture/platform/cortex_m3/stm32/uart/../stm32f2_4/gpio.hpp ****  * GPIOx_OSPEEDR (32-bit)
  60:/home/jonas/warwick/3dProfilometer/xpcc/src/xpcc/architecture/platform/cortex_m3/stm32/uart/../stm32f2_4/gpio.hpp ****  *   00: 2 MHz
  61:/home/jonas/warwick/3dProfilometer/xpcc/src/xpcc/architecture/platform/cortex_m3/stm32/uart/../stm32f2_4/gpio.hpp ****  *   01: 25 MHz
  62:/home/jonas/warwick/3dProfilometer/xpcc/src/xpcc/architecture/platform/cortex_m3/stm32/uart/../stm32f2_4/gpio.hpp ****  *   10: 50 MHz
  63:/home/jonas/warwick/3dProfilometer/xpcc/src/xpcc/architecture/platform/cortex_m3/stm32/uart/../stm32f2_4/gpio.hpp ****  *   11: 100 MHz
  64:/home/jonas/warwick/3dProfilometer/xpcc/src/xpcc/architecture/platform/cortex_m3/stm32/uart/../stm32f2_4/gpio.hpp ****  * GPIOx_PUPDR (32-bit)
  65:/home/jonas/warwick/3dProfilometer/xpcc/src/xpcc/architecture/platform/cortex_m3/stm32/uart/../stm32f2_4/gpio.hpp ****  *   00: No pull-up, pull-down
  66:/home/jonas/warwick/3dProfilometer/xpcc/src/xpcc/architecture/platform/cortex_m3/stm32/uart/../stm32f2_4/gpio.hpp ****  *   01: Pull-up
  67:/home/jonas/warwick/3dProfilometer/xpcc/src/xpcc/architecture/platform/cortex_m3/stm32/uart/../stm32f2_4/gpio.hpp ****  *   10: Pull-down
  68:/home/jonas/warwick/3dProfilometer/xpcc/src/xpcc/architecture/platform/cortex_m3/stm32/uart/../stm32f2_4/gpio.hpp ****  *   11: Reserved
  69:/home/jonas/warwick/3dProfilometer/xpcc/src/xpcc/architecture/platform/cortex_m3/stm32/uart/../stm32f2_4/gpio.hpp ****  * 
  70:/home/jonas/warwick/3dProfilometer/xpcc/src/xpcc/architecture/platform/cortex_m3/stm32/uart/../stm32f2_4/gpio.hpp ****  * GPIOx_IDR = input state (read-only) (16-bit)
  71:/home/jonas/warwick/3dProfilometer/xpcc/src/xpcc/architecture/platform/cortex_m3/stm32/uart/../stm32f2_4/gpio.hpp ****  * GPIOx_ODR = output state (16-bit)
  72:/home/jonas/warwick/3dProfilometer/xpcc/src/xpcc/architecture/platform/cortex_m3/stm32/uart/../stm32f2_4/gpio.hpp ****  * 
  73:/home/jonas/warwick/3dProfilometer/xpcc/src/xpcc/architecture/platform/cortex_m3/stm32/uart/../stm32f2_4/gpio.hpp ****  * GPIOx_BSRR = set and reset register (32-bit)
  74:/home/jonas/warwick/3dProfilometer/xpcc/src/xpcc/architecture/platform/cortex_m3/stm32/uart/../stm32f2_4/gpio.hpp ****  * - BSRR(i) sets
  75:/home/jonas/warwick/3dProfilometer/xpcc/src/xpcc/architecture/platform/cortex_m3/stm32/uart/../stm32f2_4/gpio.hpp ****  * - BSRR(i+16) resets
  76:/home/jonas/warwick/3dProfilometer/xpcc/src/xpcc/architecture/platform/cortex_m3/stm32/uart/../stm32f2_4/gpio.hpp ****  */
  77:/home/jonas/warwick/3dProfilometer/xpcc/src/xpcc/architecture/platform/cortex_m3/stm32/uart/../stm32f2_4/gpio.hpp **** 
  78:/home/jonas/warwick/3dProfilometer/xpcc/src/xpcc/architecture/platform/cortex_m3/stm32/uart/../stm32f2_4/gpio.hpp **** namespace xpcc
  79:/home/jonas/warwick/3dProfilometer/xpcc/src/xpcc/architecture/platform/cortex_m3/stm32/uart/../stm32f2_4/gpio.hpp **** {
  80:/home/jonas/warwick/3dProfilometer/xpcc/src/xpcc/architecture/platform/cortex_m3/stm32/uart/../stm32f2_4/gpio.hpp **** 	namespace stm32
  81:/home/jonas/warwick/3dProfilometer/xpcc/src/xpcc/architecture/platform/cortex_m3/stm32/uart/../stm32f2_4/gpio.hpp **** 	{
  82:/home/jonas/warwick/3dProfilometer/xpcc/src/xpcc/architecture/platform/cortex_m3/stm32/uart/../stm32f2_4/gpio.hpp **** 		/**
  83:/home/jonas/warwick/3dProfilometer/xpcc/src/xpcc/architecture/platform/cortex_m3/stm32/uart/../stm32f2_4/gpio.hpp **** 		 * \ingroup	stm32f2
  84:/home/jonas/warwick/3dProfilometer/xpcc/src/xpcc/architecture/platform/cortex_m3/stm32/uart/../stm32f2_4/gpio.hpp **** 		 */
  85:/home/jonas/warwick/3dProfilometer/xpcc/src/xpcc/architecture/platform/cortex_m3/stm32/uart/../stm32f2_4/gpio.hpp **** 		enum PullType
  86:/home/jonas/warwick/3dProfilometer/xpcc/src/xpcc/architecture/platform/cortex_m3/stm32/uart/../stm32f2_4/gpio.hpp **** 		{
  87:/home/jonas/warwick/3dProfilometer/xpcc/src/xpcc/architecture/platform/cortex_m3/stm32/uart/../stm32f2_4/gpio.hpp **** 			FLOATING = 0x0,
  88:/home/jonas/warwick/3dProfilometer/xpcc/src/xpcc/architecture/platform/cortex_m3/stm32/uart/../stm32f2_4/gpio.hpp **** 			PULLUP = 0x1,
  89:/home/jonas/warwick/3dProfilometer/xpcc/src/xpcc/architecture/platform/cortex_m3/stm32/uart/../stm32f2_4/gpio.hpp **** 			PULLDOWN = 0x2,
  90:/home/jonas/warwick/3dProfilometer/xpcc/src/xpcc/architecture/platform/cortex_m3/stm32/uart/../stm32f2_4/gpio.hpp **** 		};
  91:/home/jonas/warwick/3dProfilometer/xpcc/src/xpcc/architecture/platform/cortex_m3/stm32/uart/../stm32f2_4/gpio.hpp **** 		
  92:/home/jonas/warwick/3dProfilometer/xpcc/src/xpcc/architecture/platform/cortex_m3/stm32/uart/../stm32f2_4/gpio.hpp **** 		/**
  93:/home/jonas/warwick/3dProfilometer/xpcc/src/xpcc/architecture/platform/cortex_m3/stm32/uart/../stm32f2_4/gpio.hpp **** 		 * \ingroup	stm32f2
  94:/home/jonas/warwick/3dProfilometer/xpcc/src/xpcc/architecture/platform/cortex_m3/stm32/uart/../stm32f2_4/gpio.hpp **** 		 */
  95:/home/jonas/warwick/3dProfilometer/xpcc/src/xpcc/architecture/platform/cortex_m3/stm32/uart/../stm32f2_4/gpio.hpp **** 		enum OutputType
  96:/home/jonas/warwick/3dProfilometer/xpcc/src/xpcc/architecture/platform/cortex_m3/stm32/uart/../stm32f2_4/gpio.hpp **** 		{
  97:/home/jonas/warwick/3dProfilometer/xpcc/src/xpcc/architecture/platform/cortex_m3/stm32/uart/../stm32f2_4/gpio.hpp **** 			PUSH_PULL = 0x0,
  98:/home/jonas/warwick/3dProfilometer/xpcc/src/xpcc/architecture/platform/cortex_m3/stm32/uart/../stm32f2_4/gpio.hpp **** 			OPEN_DRAIN = 0x1,
  99:/home/jonas/warwick/3dProfilometer/xpcc/src/xpcc/architecture/platform/cortex_m3/stm32/uart/../stm32f2_4/gpio.hpp **** 		};
 100:/home/jonas/warwick/3dProfilometer/xpcc/src/xpcc/architecture/platform/cortex_m3/stm32/uart/../stm32f2_4/gpio.hpp **** 		
 101:/home/jonas/warwick/3dProfilometer/xpcc/src/xpcc/architecture/platform/cortex_m3/stm32/uart/../stm32f2_4/gpio.hpp **** 		/**
 102:/home/jonas/warwick/3dProfilometer/xpcc/src/xpcc/architecture/platform/cortex_m3/stm32/uart/../stm32f2_4/gpio.hpp **** 		 * \ingroup	stm32f2
 103:/home/jonas/warwick/3dProfilometer/xpcc/src/xpcc/architecture/platform/cortex_m3/stm32/uart/../stm32f2_4/gpio.hpp **** 		 */
 104:/home/jonas/warwick/3dProfilometer/xpcc/src/xpcc/architecture/platform/cortex_m3/stm32/uart/../stm32f2_4/gpio.hpp **** 		enum OutputSpeed
 105:/home/jonas/warwick/3dProfilometer/xpcc/src/xpcc/architecture/platform/cortex_m3/stm32/uart/../stm32f2_4/gpio.hpp **** 		{
 106:/home/jonas/warwick/3dProfilometer/xpcc/src/xpcc/architecture/platform/cortex_m3/stm32/uart/../stm32f2_4/gpio.hpp **** 			SPEED_2MHZ = 0x0,
 107:/home/jonas/warwick/3dProfilometer/xpcc/src/xpcc/architecture/platform/cortex_m3/stm32/uart/../stm32f2_4/gpio.hpp **** 			SPEED_25MHZ = 0x1,
 108:/home/jonas/warwick/3dProfilometer/xpcc/src/xpcc/architecture/platform/cortex_m3/stm32/uart/../stm32f2_4/gpio.hpp **** 			SPEED_50MHZ = 0x1,
 109:/home/jonas/warwick/3dProfilometer/xpcc/src/xpcc/architecture/platform/cortex_m3/stm32/uart/../stm32f2_4/gpio.hpp **** 			SPEED_100MHZ = 0x3,
 110:/home/jonas/warwick/3dProfilometer/xpcc/src/xpcc/architecture/platform/cortex_m3/stm32/uart/../stm32f2_4/gpio.hpp **** 		};
 111:/home/jonas/warwick/3dProfilometer/xpcc/src/xpcc/architecture/platform/cortex_m3/stm32/uart/../stm32f2_4/gpio.hpp **** 		
 112:/home/jonas/warwick/3dProfilometer/xpcc/src/xpcc/architecture/platform/cortex_m3/stm32/uart/../stm32f2_4/gpio.hpp **** 		/**
 113:/home/jonas/warwick/3dProfilometer/xpcc/src/xpcc/architecture/platform/cortex_m3/stm32/uart/../stm32f2_4/gpio.hpp **** 		 * \ingroup	stm32f2
 114:/home/jonas/warwick/3dProfilometer/xpcc/src/xpcc/architecture/platform/cortex_m3/stm32/uart/../stm32f2_4/gpio.hpp **** 		 */
 115:/home/jonas/warwick/3dProfilometer/xpcc/src/xpcc/architecture/platform/cortex_m3/stm32/uart/../stm32f2_4/gpio.hpp **** 		// 0..7 = AFRL[31:0]
 116:/home/jonas/warwick/3dProfilometer/xpcc/src/xpcc/architecture/platform/cortex_m3/stm32/uart/../stm32f2_4/gpio.hpp **** 		// 8..15 = AFRH[31:0]
 117:/home/jonas/warwick/3dProfilometer/xpcc/src/xpcc/architecture/platform/cortex_m3/stm32/uart/../stm32f2_4/gpio.hpp **** 		enum AlternateFunction
 118:/home/jonas/warwick/3dProfilometer/xpcc/src/xpcc/architecture/platform/cortex_m3/stm32/uart/../stm32f2_4/gpio.hpp **** 		{
 119:/home/jonas/warwick/3dProfilometer/xpcc/src/xpcc/architecture/platform/cortex_m3/stm32/uart/../stm32f2_4/gpio.hpp **** 			AF_RTC_50Hz = 0x00,	///< RTC_50Hz Alternate Function mapping
 120:/home/jonas/warwick/3dProfilometer/xpcc/src/xpcc/architecture/platform/cortex_m3/stm32/uart/../stm32f2_4/gpio.hpp **** 			AF_MCO = 0x00,		///< MCO (MCO1 and MCO2) Alternate Function mapping
 121:/home/jonas/warwick/3dProfilometer/xpcc/src/xpcc/architecture/platform/cortex_m3/stm32/uart/../stm32f2_4/gpio.hpp **** 			AF_TAMPER = 0x00,	///< TAMPER (TAMPER_1 and TAMPER_2) Alternate Function mapping
 122:/home/jonas/warwick/3dProfilometer/xpcc/src/xpcc/architecture/platform/cortex_m3/stm32/uart/../stm32f2_4/gpio.hpp **** 			AF_SWJ = 0x00,		///< SWJ (SWD and JTAG) Alternate Function mapping
 123:/home/jonas/warwick/3dProfilometer/xpcc/src/xpcc/architecture/platform/cortex_m3/stm32/uart/../stm32f2_4/gpio.hpp **** 			AF_TRACE = 0x00,	///< TRACE Alternate Function mapping
 124:/home/jonas/warwick/3dProfilometer/xpcc/src/xpcc/architecture/platform/cortex_m3/stm32/uart/../stm32f2_4/gpio.hpp **** 			
 125:/home/jonas/warwick/3dProfilometer/xpcc/src/xpcc/architecture/platform/cortex_m3/stm32/uart/../stm32f2_4/gpio.hpp **** 			// AF 1 selection  
 126:/home/jonas/warwick/3dProfilometer/xpcc/src/xpcc/architecture/platform/cortex_m3/stm32/uart/../stm32f2_4/gpio.hpp **** 			AF_TIM1 = 0x01,		///< TIM1 Alternate Function mapping
 127:/home/jonas/warwick/3dProfilometer/xpcc/src/xpcc/architecture/platform/cortex_m3/stm32/uart/../stm32f2_4/gpio.hpp **** 			AF_TIM2 = 0x01,		///< TIM2 Alternate Function mapping
 128:/home/jonas/warwick/3dProfilometer/xpcc/src/xpcc/architecture/platform/cortex_m3/stm32/uart/../stm32f2_4/gpio.hpp **** 			
 129:/home/jonas/warwick/3dProfilometer/xpcc/src/xpcc/architecture/platform/cortex_m3/stm32/uart/../stm32f2_4/gpio.hpp **** 			// AF 2 selection  
 130:/home/jonas/warwick/3dProfilometer/xpcc/src/xpcc/architecture/platform/cortex_m3/stm32/uart/../stm32f2_4/gpio.hpp **** 			AF_TIM3 = 0x02,		///< TIM3 Alternate Function mapping
 131:/home/jonas/warwick/3dProfilometer/xpcc/src/xpcc/architecture/platform/cortex_m3/stm32/uart/../stm32f2_4/gpio.hpp **** 			AF_TIM4 = 0x02,		///< TIM4 Alternate Function mapping
 132:/home/jonas/warwick/3dProfilometer/xpcc/src/xpcc/architecture/platform/cortex_m3/stm32/uart/../stm32f2_4/gpio.hpp **** 			AF_TIM5 = 0x02,		///< TIM5 Alternate Function mapping
 133:/home/jonas/warwick/3dProfilometer/xpcc/src/xpcc/architecture/platform/cortex_m3/stm32/uart/../stm32f2_4/gpio.hpp **** 			
 134:/home/jonas/warwick/3dProfilometer/xpcc/src/xpcc/architecture/platform/cortex_m3/stm32/uart/../stm32f2_4/gpio.hpp **** 			// AF 3 selection  
 135:/home/jonas/warwick/3dProfilometer/xpcc/src/xpcc/architecture/platform/cortex_m3/stm32/uart/../stm32f2_4/gpio.hpp **** 			AF_TIM8 = 0x03,		///< TIM8 Alternate Function mapping
 136:/home/jonas/warwick/3dProfilometer/xpcc/src/xpcc/architecture/platform/cortex_m3/stm32/uart/../stm32f2_4/gpio.hpp **** 			AF_TIM9 = 0x03,		///< TIM9 Alternate Function mapping
 137:/home/jonas/warwick/3dProfilometer/xpcc/src/xpcc/architecture/platform/cortex_m3/stm32/uart/../stm32f2_4/gpio.hpp **** 			AF_TIM10 = 0x03,	///< TIM10 Alternate Function mapping
 138:/home/jonas/warwick/3dProfilometer/xpcc/src/xpcc/architecture/platform/cortex_m3/stm32/uart/../stm32f2_4/gpio.hpp **** 			AF_TIM11 = 0x03,	///< TIM11 Alternate Function mapping
 139:/home/jonas/warwick/3dProfilometer/xpcc/src/xpcc/architecture/platform/cortex_m3/stm32/uart/../stm32f2_4/gpio.hpp **** 			
 140:/home/jonas/warwick/3dProfilometer/xpcc/src/xpcc/architecture/platform/cortex_m3/stm32/uart/../stm32f2_4/gpio.hpp **** 			// AF 4 selection  
 141:/home/jonas/warwick/3dProfilometer/xpcc/src/xpcc/architecture/platform/cortex_m3/stm32/uart/../stm32f2_4/gpio.hpp **** 			AF_I2C1 = 0x04,		///< I2C1 Alternate Function mapping
 142:/home/jonas/warwick/3dProfilometer/xpcc/src/xpcc/architecture/platform/cortex_m3/stm32/uart/../stm32f2_4/gpio.hpp **** 			AF_I2C2 = 0x04,		///< I2C2 Alternate Function mapping
 143:/home/jonas/warwick/3dProfilometer/xpcc/src/xpcc/architecture/platform/cortex_m3/stm32/uart/../stm32f2_4/gpio.hpp **** 			AF_I2C3 = 0x04,		///< I2C3 Alternate Function mapping
 144:/home/jonas/warwick/3dProfilometer/xpcc/src/xpcc/architecture/platform/cortex_m3/stm32/uart/../stm32f2_4/gpio.hpp **** 			
 145:/home/jonas/warwick/3dProfilometer/xpcc/src/xpcc/architecture/platform/cortex_m3/stm32/uart/../stm32f2_4/gpio.hpp **** 			// AF 5 selection  
 146:/home/jonas/warwick/3dProfilometer/xpcc/src/xpcc/architecture/platform/cortex_m3/stm32/uart/../stm32f2_4/gpio.hpp **** 			AF_SPI1 = 0x05,		///< SPI1 Alternate Function mapping
 147:/home/jonas/warwick/3dProfilometer/xpcc/src/xpcc/architecture/platform/cortex_m3/stm32/uart/../stm32f2_4/gpio.hpp **** 			AF_SPI2 = 0x05,		///< SPI2/I2S2 Alternate Function mapping
 148:/home/jonas/warwick/3dProfilometer/xpcc/src/xpcc/architecture/platform/cortex_m3/stm32/uart/../stm32f2_4/gpio.hpp **** 			
 149:/home/jonas/warwick/3dProfilometer/xpcc/src/xpcc/architecture/platform/cortex_m3/stm32/uart/../stm32f2_4/gpio.hpp **** 			// AF 6 selection  
 150:/home/jonas/warwick/3dProfilometer/xpcc/src/xpcc/architecture/platform/cortex_m3/stm32/uart/../stm32f2_4/gpio.hpp **** 			AF_SPI3 = 0x06,		///< SPI3/I2S3 Alternate Function mapping
 151:/home/jonas/warwick/3dProfilometer/xpcc/src/xpcc/architecture/platform/cortex_m3/stm32/uart/../stm32f2_4/gpio.hpp **** 			
 152:/home/jonas/warwick/3dProfilometer/xpcc/src/xpcc/architecture/platform/cortex_m3/stm32/uart/../stm32f2_4/gpio.hpp **** 			// AF 7 selection  
 153:/home/jonas/warwick/3dProfilometer/xpcc/src/xpcc/architecture/platform/cortex_m3/stm32/uart/../stm32f2_4/gpio.hpp **** 			AF_USART1 = 0x07,	///< USART1 Alternate Function mapping
 154:/home/jonas/warwick/3dProfilometer/xpcc/src/xpcc/architecture/platform/cortex_m3/stm32/uart/../stm32f2_4/gpio.hpp **** 			AF_USART2 = 0x07,	///< USART2 Alternate Function mapping
 155:/home/jonas/warwick/3dProfilometer/xpcc/src/xpcc/architecture/platform/cortex_m3/stm32/uart/../stm32f2_4/gpio.hpp **** 			AF_USART3 = 0x07,	///< USART3 Alternate Function mapping
 156:/home/jonas/warwick/3dProfilometer/xpcc/src/xpcc/architecture/platform/cortex_m3/stm32/uart/../stm32f2_4/gpio.hpp **** 			
 157:/home/jonas/warwick/3dProfilometer/xpcc/src/xpcc/architecture/platform/cortex_m3/stm32/uart/../stm32f2_4/gpio.hpp **** 			// AF 8 selection  
 158:/home/jonas/warwick/3dProfilometer/xpcc/src/xpcc/architecture/platform/cortex_m3/stm32/uart/../stm32f2_4/gpio.hpp **** 			AF_UART4 = 0x08,	///< UART4 Alternate Function mapping
 159:/home/jonas/warwick/3dProfilometer/xpcc/src/xpcc/architecture/platform/cortex_m3/stm32/uart/../stm32f2_4/gpio.hpp **** 			AF_UART5 = 0x08,	///< UART5 Alternate Function mapping
 160:/home/jonas/warwick/3dProfilometer/xpcc/src/xpcc/architecture/platform/cortex_m3/stm32/uart/../stm32f2_4/gpio.hpp **** 			AF_USART6 = 0x08,	///< USART6 Alternate Function mapping
 161:/home/jonas/warwick/3dProfilometer/xpcc/src/xpcc/architecture/platform/cortex_m3/stm32/uart/../stm32f2_4/gpio.hpp **** 			
 162:/home/jonas/warwick/3dProfilometer/xpcc/src/xpcc/architecture/platform/cortex_m3/stm32/uart/../stm32f2_4/gpio.hpp **** 			// AF 9 selection 
 163:/home/jonas/warwick/3dProfilometer/xpcc/src/xpcc/architecture/platform/cortex_m3/stm32/uart/../stm32f2_4/gpio.hpp **** 			AF_CAN1 = 0x09,		///< CAN1 Alternate Function mapping
 164:/home/jonas/warwick/3dProfilometer/xpcc/src/xpcc/architecture/platform/cortex_m3/stm32/uart/../stm32f2_4/gpio.hpp **** 			AF_CAN2 = 0x09,		///< CAN2 Alternate Function mapping
 165:/home/jonas/warwick/3dProfilometer/xpcc/src/xpcc/architecture/platform/cortex_m3/stm32/uart/../stm32f2_4/gpio.hpp **** 			AF_TIM12 = 0x09,	///< TIM12 Alternate Function mapping
 166:/home/jonas/warwick/3dProfilometer/xpcc/src/xpcc/architecture/platform/cortex_m3/stm32/uart/../stm32f2_4/gpio.hpp **** 			AF_TIM13 = 0x09,	///< TIM13 Alternate Function mapping
 167:/home/jonas/warwick/3dProfilometer/xpcc/src/xpcc/architecture/platform/cortex_m3/stm32/uart/../stm32f2_4/gpio.hpp **** 			AF_TIM14 = 0x09,	///< TIM14 Alternate Function mapping
 168:/home/jonas/warwick/3dProfilometer/xpcc/src/xpcc/architecture/platform/cortex_m3/stm32/uart/../stm32f2_4/gpio.hpp **** 			
 169:/home/jonas/warwick/3dProfilometer/xpcc/src/xpcc/architecture/platform/cortex_m3/stm32/uart/../stm32f2_4/gpio.hpp **** 			// AF 10 selection  
 170:/home/jonas/warwick/3dProfilometer/xpcc/src/xpcc/architecture/platform/cortex_m3/stm32/uart/../stm32f2_4/gpio.hpp **** 			AF_OTG_FS = 0xA,	///< OTG_FS Alternate Function mapping
 171:/home/jonas/warwick/3dProfilometer/xpcc/src/xpcc/architecture/platform/cortex_m3/stm32/uart/../stm32f2_4/gpio.hpp **** 			AF_OTG_HS = 0xA,	///< OTG_HS Alternate Function mapping
 172:/home/jonas/warwick/3dProfilometer/xpcc/src/xpcc/architecture/platform/cortex_m3/stm32/uart/../stm32f2_4/gpio.hpp **** 			
 173:/home/jonas/warwick/3dProfilometer/xpcc/src/xpcc/architecture/platform/cortex_m3/stm32/uart/../stm32f2_4/gpio.hpp **** 			// AF 11 selection  
 174:/home/jonas/warwick/3dProfilometer/xpcc/src/xpcc/architecture/platform/cortex_m3/stm32/uart/../stm32f2_4/gpio.hpp **** 			AF_ETH = 0x0B,		///< ETHERNET Alternate Function mapping
 175:/home/jonas/warwick/3dProfilometer/xpcc/src/xpcc/architecture/platform/cortex_m3/stm32/uart/../stm32f2_4/gpio.hpp **** 			
 176:/home/jonas/warwick/3dProfilometer/xpcc/src/xpcc/architecture/platform/cortex_m3/stm32/uart/../stm32f2_4/gpio.hpp **** 			// AF 12 selection  
 177:/home/jonas/warwick/3dProfilometer/xpcc/src/xpcc/architecture/platform/cortex_m3/stm32/uart/../stm32f2_4/gpio.hpp **** 			AF_FSMC = 0xC,		///< FSMC Alternate Function mapping
 178:/home/jonas/warwick/3dProfilometer/xpcc/src/xpcc/architecture/platform/cortex_m3/stm32/uart/../stm32f2_4/gpio.hpp **** 			AF_OTG_HS_FS = 0xC,	///< OTG HS configured in FS, Alternate Function mapping
 179:/home/jonas/warwick/3dProfilometer/xpcc/src/xpcc/architecture/platform/cortex_m3/stm32/uart/../stm32f2_4/gpio.hpp **** 			AF_SDIO = 0xC,		///< SDIO Alternate Function mapping
 180:/home/jonas/warwick/3dProfilometer/xpcc/src/xpcc/architecture/platform/cortex_m3/stm32/uart/../stm32f2_4/gpio.hpp **** 			
 181:/home/jonas/warwick/3dProfilometer/xpcc/src/xpcc/architecture/platform/cortex_m3/stm32/uart/../stm32f2_4/gpio.hpp **** 			// AF 13 selection  
 182:/home/jonas/warwick/3dProfilometer/xpcc/src/xpcc/architecture/platform/cortex_m3/stm32/uart/../stm32f2_4/gpio.hpp **** 			AF_DCMI = 0x0D,		///< DCMI Alternate Function mapping
 183:/home/jonas/warwick/3dProfilometer/xpcc/src/xpcc/architecture/platform/cortex_m3/stm32/uart/../stm32f2_4/gpio.hpp **** 			
 184:/home/jonas/warwick/3dProfilometer/xpcc/src/xpcc/architecture/platform/cortex_m3/stm32/uart/../stm32f2_4/gpio.hpp **** 			// AF 15 selection  
 185:/home/jonas/warwick/3dProfilometer/xpcc/src/xpcc/architecture/platform/cortex_m3/stm32/uart/../stm32f2_4/gpio.hpp **** 			AF_EVENTOUT = 0x0F,	///< EVENTOUT Alternate Function mapping
 186:/home/jonas/warwick/3dProfilometer/xpcc/src/xpcc/architecture/platform/cortex_m3/stm32/uart/../stm32f2_4/gpio.hpp **** 			
 187:/home/jonas/warwick/3dProfilometer/xpcc/src/xpcc/architecture/platform/cortex_m3/stm32/uart/../stm32f2_4/gpio.hpp **** 			AF_0 = 0x00,		///< System
 188:/home/jonas/warwick/3dProfilometer/xpcc/src/xpcc/architecture/platform/cortex_m3/stm32/uart/../stm32f2_4/gpio.hpp **** 			AF_1 = 0x01,		///< TIM1/2
 189:/home/jonas/warwick/3dProfilometer/xpcc/src/xpcc/architecture/platform/cortex_m3/stm32/uart/../stm32f2_4/gpio.hpp **** 			AF_2 = 0x02,		///< TIM3..5
 190:/home/jonas/warwick/3dProfilometer/xpcc/src/xpcc/architecture/platform/cortex_m3/stm32/uart/../stm32f2_4/gpio.hpp **** 			AF_3 = 0x03,		///< TIM8...11
 191:/home/jonas/warwick/3dProfilometer/xpcc/src/xpcc/architecture/platform/cortex_m3/stm32/uart/../stm32f2_4/gpio.hpp **** 			AF_4 = 0x04,		///< I2C1..3
 192:/home/jonas/warwick/3dProfilometer/xpcc/src/xpcc/architecture/platform/cortex_m3/stm32/uart/../stm32f2_4/gpio.hpp **** 			AF_5 = 0x05,		///< SPI1/2
 193:/home/jonas/warwick/3dProfilometer/xpcc/src/xpcc/architecture/platform/cortex_m3/stm32/uart/../stm32f2_4/gpio.hpp **** 			AF_6 = 0x06,		///< SPI3
 194:/home/jonas/warwick/3dProfilometer/xpcc/src/xpcc/architecture/platform/cortex_m3/stm32/uart/../stm32f2_4/gpio.hpp **** 			AF_7 = 0x07,		///< USART1..3
 195:/home/jonas/warwick/3dProfilometer/xpcc/src/xpcc/architecture/platform/cortex_m3/stm32/uart/../stm32f2_4/gpio.hpp **** 			AF_8 = 0x08,		///< USART4..6
 196:/home/jonas/warwick/3dProfilometer/xpcc/src/xpcc/architecture/platform/cortex_m3/stm32/uart/../stm32f2_4/gpio.hpp **** 			AF_9 = 0x09,		///< CAN1/2, TIM12..14
 197:/home/jonas/warwick/3dProfilometer/xpcc/src/xpcc/architecture/platform/cortex_m3/stm32/uart/../stm32f2_4/gpio.hpp **** 			AF_10 = 0x0a,		///< OTG_FS, OTG_HS
 198:/home/jonas/warwick/3dProfilometer/xpcc/src/xpcc/architecture/platform/cortex_m3/stm32/uart/../stm32f2_4/gpio.hpp **** 			AF_11 = 0x0b,		///< ETH
 199:/home/jonas/warwick/3dProfilometer/xpcc/src/xpcc/architecture/platform/cortex_m3/stm32/uart/../stm32f2_4/gpio.hpp **** 			AF_12 = 0x0c,		///< FSMC, SDIO, OTG_HS (configured as FS)
 200:/home/jonas/warwick/3dProfilometer/xpcc/src/xpcc/architecture/platform/cortex_m3/stm32/uart/../stm32f2_4/gpio.hpp **** 			AF_13 = 0x0d,		///< DCMI
 201:/home/jonas/warwick/3dProfilometer/xpcc/src/xpcc/architecture/platform/cortex_m3/stm32/uart/../stm32f2_4/gpio.hpp **** 			AF_14 = 0x0e,		///< Reserved
 202:/home/jonas/warwick/3dProfilometer/xpcc/src/xpcc/architecture/platform/cortex_m3/stm32/uart/../stm32f2_4/gpio.hpp **** 			AF_15 = 0x0f,		///< EVENTOUT
 203:/home/jonas/warwick/3dProfilometer/xpcc/src/xpcc/architecture/platform/cortex_m3/stm32/uart/../stm32f2_4/gpio.hpp **** 		};
 204:/home/jonas/warwick/3dProfilometer/xpcc/src/xpcc/architecture/platform/cortex_m3/stm32/uart/../stm32f2_4/gpio.hpp **** 		
 205:/home/jonas/warwick/3dProfilometer/xpcc/src/xpcc/architecture/platform/cortex_m3/stm32/uart/../stm32f2_4/gpio.hpp **** 		/** \internal */
 206:/home/jonas/warwick/3dProfilometer/xpcc/src/xpcc/architecture/platform/cortex_m3/stm32/uart/../stm32f2_4/gpio.hpp **** 		template<unsigned int P, unsigned char N, bool = (N >= 8)>
 207:/home/jonas/warwick/3dProfilometer/xpcc/src/xpcc/architecture/platform/cortex_m3/stm32/uart/../stm32f2_4/gpio.hpp **** 		struct AlternateMode {
 208:/home/jonas/warwick/3dProfilometer/xpcc/src/xpcc/architecture/platform/cortex_m3/stm32/uart/../stm32f2_4/gpio.hpp **** 			ALWAYS_INLINE static void setMode(AlternateFunction m) {
 209:/home/jonas/warwick/3dProfilometer/xpcc/src/xpcc/architecture/platform/cortex_m3/stm32/uart/../stm32f2_4/gpio.hpp **** 				uint32_t tmp = reinterpret_cast<GPIO_TypeDef*>(P)->AFR[1];
  57              		.loc 2 209 0
  58 001c 5A6A     		ldr	r2, [r3, #36]
  59              	.LVL3:
 210:/home/jonas/warwick/3dProfilometer/xpcc/src/xpcc/architecture/platform/cortex_m3/stm32/uart/../stm32f2_4/gpio.hpp **** 				tmp &= ~(0xf << ((N - 8) * 4));
  60              		.loc 2 210 0
  61 001e 22F47062 		bic	r2, r2, #3840
  62              	.LVL4:
 211:/home/jonas/warwick/3dProfilometer/xpcc/src/xpcc/architecture/platform/cortex_m3/stm32/uart/../stm32f2_4/gpio.hpp **** 				tmp |= (m << ((N - 8) * 4));
  63              		.loc 2 211 0
  64 0022 42F40062 		orr	r2, r2, #2048
  65              	.LVL5:
 212:/home/jonas/warwick/3dProfilometer/xpcc/src/xpcc/architecture/platform/cortex_m3/stm32/uart/../stm32f2_4/gpio.hpp **** 				reinterpret_cast<GPIO_TypeDef*>(P)->AFR[1] = tmp;
  66              		.loc 2 212 0
  67 0026 5A62     		str	r2, [r3, #36]
  68              	.LBE39:
  69              	.LBE38:
  53:/home/jonas/warwick/3dProfilometer/xpcc/src/xpcc/architecture/platform/cortex_m3/stm32/uart/uart_4.cpp **** 	GPIO__OUTPUT(TxdC10, C, 10);
  70              		.loc 1 53 0
  71 0028 5A68     		ldr	r2, [r3, #4]
  72              	.LVL6:
  73 002a 22F48062 		bic	r2, r2, #1024
  74 002e 5A60     		str	r2, [r3, #4]
  75 0030 9A68     		ldr	r2, [r3, #8]
  76 0032 22F44012 		bic	r2, r2, #3145728
  77 0036 42F48012 		orr	r2, r2, #1048576
  78 003a 9A60     		str	r2, [r3, #8]
  79 003c DA68     		ldr	r2, [r3, #12]
  80 003e 22F44012 		bic	r2, r2, #3145728
  81 0042 DA60     		str	r2, [r3, #12]
  82              	.LVL7:
  83              	.LBE37:
  84              	.LBE36:
  85              	.LBB40:
  86              	.LBB41:
  54:/home/jonas/warwick/3dProfilometer/xpcc/src/xpcc/architecture/platform/cortex_m3/stm32/uart/uart_4.cpp **** 	GPIO__INPUT(RxdC11, C, 11);
  87              		.loc 1 54 0
  88 0044 1A68     		ldr	r2, [r3, #0]
  89 0046 22F44002 		bic	r2, r2, #12582912
  90 004a 42F40002 		orr	r2, r2, #8388608
  91 004e 1A60     		str	r2, [r3, #0]
  92              	.LVL8:
  93              	.LBB42:
  94              	.LBB43:
 209:/home/jonas/warwick/3dProfilometer/xpcc/src/xpcc/architecture/platform/cortex_m3/stm32/uart/../stm32f2_4/gpio.hpp **** 				uint32_t tmp = reinterpret_cast<GPIO_TypeDef*>(P)->AFR[1];
  95              		.loc 2 209 0
  96 0050 5A6A     		ldr	r2, [r3, #36]
  97              	.LVL9:
 210:/home/jonas/warwick/3dProfilometer/xpcc/src/xpcc/architecture/platform/cortex_m3/stm32/uart/../stm32f2_4/gpio.hpp **** 				tmp &= ~(0xf << ((N - 8) * 4));
  98              		.loc 2 210 0
  99 0052 22F47042 		bic	r2, r2, #61440
 100              	.LVL10:
 211:/home/jonas/warwick/3dProfilometer/xpcc/src/xpcc/architecture/platform/cortex_m3/stm32/uart/../stm32f2_4/gpio.hpp **** 				tmp |= (m << ((N - 8) * 4));
 101              		.loc 2 211 0
 102 0056 42F40042 		orr	r2, r2, #32768
 103              	.LVL11:
 104              		.loc 2 212 0
 105 005a 5A62     		str	r2, [r3, #36]
 106              	.LBE43:
 107              	.LBE42:
  54:/home/jonas/warwick/3dProfilometer/xpcc/src/xpcc/architecture/platform/cortex_m3/stm32/uart/uart_4.cpp **** 	GPIO__INPUT(RxdC11, C, 11);
 108              		.loc 1 54 0
 109 005c 5A68     		ldr	r2, [r3, #4]
 110              	.LVL12:
 111 005e 22F40062 		bic	r2, r2, #2048
 112 0062 5A60     		str	r2, [r3, #4]
 113 0064 9A68     		ldr	r2, [r3, #8]
 114 0066 22F44002 		bic	r2, r2, #12582912
 115 006a 9A60     		str	r2, [r3, #8]
 116 006c DA68     		ldr	r2, [r3, #12]
 117 006e 22F44002 		bic	r2, r2, #12582912
 118 0072 DA60     		str	r2, [r3, #12]
 119 0074 7047     		bx	lr
 120              	.LVL13:
 121              	.L5:
 122              	.LBE41:
 123              	.LBE40:
 124              	.LBB44:
 125              	.LBB45:
  49:/home/jonas/warwick/3dProfilometer/xpcc/src/xpcc/architecture/platform/cortex_m3/stm32/uart/uart_4.cpp **** 	GPIO__OUTPUT(TxdA0, A, 0);
 126              		.loc 1 49 0
 127 0076 A3F56053 		sub	r3, r3, #14336
 128 007a 1A68     		ldr	r2, [r3, #0]
 129 007c 22F00302 		bic	r2, r2, #3
 130 0080 42F00202 		orr	r2, r2, #2
 131 0084 1A60     		str	r2, [r3, #0]
 132              	.LVL14:
 133              	.LBB46:
 134              	.LBB47:
 213:/home/jonas/warwick/3dProfilometer/xpcc/src/xpcc/architecture/platform/cortex_m3/stm32/uart/../stm32f2_4/gpio.hpp **** 			}
 214:/home/jonas/warwick/3dProfilometer/xpcc/src/xpcc/architecture/platform/cortex_m3/stm32/uart/../stm32f2_4/gpio.hpp **** 		};
 215:/home/jonas/warwick/3dProfilometer/xpcc/src/xpcc/architecture/platform/cortex_m3/stm32/uart/../stm32f2_4/gpio.hpp **** 		
 216:/home/jonas/warwick/3dProfilometer/xpcc/src/xpcc/architecture/platform/cortex_m3/stm32/uart/../stm32f2_4/gpio.hpp **** 		/** \internal */
 217:/home/jonas/warwick/3dProfilometer/xpcc/src/xpcc/architecture/platform/cortex_m3/stm32/uart/../stm32f2_4/gpio.hpp **** 		template<unsigned int P, unsigned char N>
 218:/home/jonas/warwick/3dProfilometer/xpcc/src/xpcc/architecture/platform/cortex_m3/stm32/uart/../stm32f2_4/gpio.hpp **** 		struct AlternateMode<P, N, false> {
 219:/home/jonas/warwick/3dProfilometer/xpcc/src/xpcc/architecture/platform/cortex_m3/stm32/uart/../stm32f2_4/gpio.hpp **** 			ALWAYS_INLINE static void setMode(AlternateFunction m) {
 220:/home/jonas/warwick/3dProfilometer/xpcc/src/xpcc/architecture/platform/cortex_m3/stm32/uart/../stm32f2_4/gpio.hpp **** 				uint32_t tmp = reinterpret_cast<GPIO_TypeDef*>(P)->AFR[0];
 135              		.loc 2 220 0
 136 0086 1A6A     		ldr	r2, [r3, #32]
 137              	.LVL15:
 221:/home/jonas/warwick/3dProfilometer/xpcc/src/xpcc/architecture/platform/cortex_m3/stm32/uart/../stm32f2_4/gpio.hpp **** 				tmp &= ~(0xf << (N * 4));
 138              		.loc 2 221 0
 139 0088 22F00F02 		bic	r2, r2, #15
 140              	.LVL16:
 222:/home/jonas/warwick/3dProfilometer/xpcc/src/xpcc/architecture/platform/cortex_m3/stm32/uart/../stm32f2_4/gpio.hpp **** 				tmp |= m << (N * 4);
 141              		.loc 2 222 0
 142 008c 42F00802 		orr	r2, r2, #8
 143              	.LVL17:
 223:/home/jonas/warwick/3dProfilometer/xpcc/src/xpcc/architecture/platform/cortex_m3/stm32/uart/../stm32f2_4/gpio.hpp **** 				reinterpret_cast<GPIO_TypeDef*>(P)->AFR[0] = tmp;
 144              		.loc 2 223 0
 145 0090 1A62     		str	r2, [r3, #32]
 146              	.LBE47:
 147              	.LBE46:
  49:/home/jonas/warwick/3dProfilometer/xpcc/src/xpcc/architecture/platform/cortex_m3/stm32/uart/uart_4.cpp **** 	GPIO__OUTPUT(TxdA0, A, 0);
 148              		.loc 1 49 0
 149 0092 5A68     		ldr	r2, [r3, #4]
 150              	.LVL18:
 151 0094 22F00102 		bic	r2, r2, #1
 152 0098 5A60     		str	r2, [r3, #4]
 153 009a 9A68     		ldr	r2, [r3, #8]
 154 009c 22F00302 		bic	r2, r2, #3
 155 00a0 42F00102 		orr	r2, r2, #1
 156 00a4 9A60     		str	r2, [r3, #8]
 157 00a6 DA68     		ldr	r2, [r3, #12]
 158 00a8 22F00302 		bic	r2, r2, #3
 159 00ac DA60     		str	r2, [r3, #12]
 160              	.LVL19:
 161              	.LBE45:
 162              	.LBE44:
 163              	.LBB48:
 164              	.LBB49:
  50:/home/jonas/warwick/3dProfilometer/xpcc/src/xpcc/architecture/platform/cortex_m3/stm32/uart/uart_4.cpp **** 	GPIO__INPUT(RxdA1, A, 1);
 165              		.loc 1 50 0
 166 00ae 1A68     		ldr	r2, [r3, #0]
 167 00b0 22F00C02 		bic	r2, r2, #12
 168 00b4 42F00802 		orr	r2, r2, #8
 169 00b8 1A60     		str	r2, [r3, #0]
 170              	.LVL20:
 171              	.LBB50:
 172              	.LBB51:
 220:/home/jonas/warwick/3dProfilometer/xpcc/src/xpcc/architecture/platform/cortex_m3/stm32/uart/../stm32f2_4/gpio.hpp **** 				uint32_t tmp = reinterpret_cast<GPIO_TypeDef*>(P)->AFR[0];
 173              		.loc 2 220 0
 174 00ba 1A6A     		ldr	r2, [r3, #32]
 175              	.LVL21:
 221:/home/jonas/warwick/3dProfilometer/xpcc/src/xpcc/architecture/platform/cortex_m3/stm32/uart/../stm32f2_4/gpio.hpp **** 				tmp &= ~(0xf << (N * 4));
 176              		.loc 2 221 0
 177 00bc 22F0F002 		bic	r2, r2, #240
 178              	.LVL22:
 222:/home/jonas/warwick/3dProfilometer/xpcc/src/xpcc/architecture/platform/cortex_m3/stm32/uart/../stm32f2_4/gpio.hpp **** 				tmp |= m << (N * 4);
 179              		.loc 2 222 0
 180 00c0 42F08002 		orr	r2, r2, #128
 181              	.LVL23:
 182              		.loc 2 223 0
 183 00c4 1A62     		str	r2, [r3, #32]
 184              	.LBE51:
 185              	.LBE50:
  50:/home/jonas/warwick/3dProfilometer/xpcc/src/xpcc/architecture/platform/cortex_m3/stm32/uart/uart_4.cpp **** 	GPIO__INPUT(RxdA1, A, 1);
 186              		.loc 1 50 0
 187 00c6 5A68     		ldr	r2, [r3, #4]
 188              	.LVL24:
 189 00c8 22F00202 		bic	r2, r2, #2
 190 00cc 5A60     		str	r2, [r3, #4]
 191 00ce 9A68     		ldr	r2, [r3, #8]
 192 00d0 22F00C02 		bic	r2, r2, #12
 193 00d4 9A60     		str	r2, [r3, #8]
 194 00d6 DA68     		ldr	r2, [r3, #12]
 195 00d8 22F00C02 		bic	r2, r2, #12
 196 00dc DA60     		str	r2, [r3, #12]
 197 00de 7047     		bx	lr
 198              	.L7:
 199              		.align	2
 200              	.L6:
 201 00e0 00380240 		.word	1073887232
 202 00e4 00080240 		.word	1073874944
 203              	.LBE49:
 204              	.LBE48:
 205              		.cfi_endproc
 206              	.LFE174:
 208              		.section	.text._ZN4xpcc5stm325Uart411setBaudrateEm,"ax",%progbits
 209              		.align	2
 210              		.global	_ZN4xpcc5stm325Uart411setBaudrateEm
 211              		.thumb
 212              		.thumb_func
 214              	_ZN4xpcc5stm325Uart411setBaudrateEm:
 215              	.LFB175:
  77:/home/jonas/warwick/3dProfilometer/xpcc/src/xpcc/architecture/platform/cortex_m3/stm32/uart/uart_4.cpp **** 		TxdA0::setAlternateFunction(AF_UART4, xpcc::stm32::PUSH_PULL);
  78:/home/jonas/warwick/3dProfilometer/xpcc/src/xpcc/architecture/platform/cortex_m3/stm32/uart/uart_4.cpp **** 		RxdA1::setAlternateFunction(AF_UART4);
  79:/home/jonas/warwick/3dProfilometer/xpcc/src/xpcc/architecture/platform/cortex_m3/stm32/uart/uart_4.cpp **** 	}
  80:/home/jonas/warwick/3dProfilometer/xpcc/src/xpcc/architecture/platform/cortex_m3/stm32/uart/uart_4.cpp **** 	else {
  81:/home/jonas/warwick/3dProfilometer/xpcc/src/xpcc/architecture/platform/cortex_m3/stm32/uart/uart_4.cpp **** 		TxdC10::setAlternateFunction(AF_UART4, xpcc::stm32::PUSH_PULL);
  82:/home/jonas/warwick/3dProfilometer/xpcc/src/xpcc/architecture/platform/cortex_m3/stm32/uart/uart_4.cpp **** 		RxdC11::setAlternateFunction(AF_UART4);
  83:/home/jonas/warwick/3dProfilometer/xpcc/src/xpcc/architecture/platform/cortex_m3/stm32/uart/uart_4.cpp **** 	}
  84:/home/jonas/warwick/3dProfilometer/xpcc/src/xpcc/architecture/platform/cortex_m3/stm32/uart/uart_4.cpp **** #endif
  85:/home/jonas/warwick/3dProfilometer/xpcc/src/xpcc/architecture/platform/cortex_m3/stm32/uart/uart_4.cpp **** #else
  86:/home/jonas/warwick/3dProfilometer/xpcc/src/xpcc/architecture/platform/cortex_m3/stm32/uart/uart_4.cpp **** 	(void) mapping;		// avoid compiler warning
  87:/home/jonas/warwick/3dProfilometer/xpcc/src/xpcc/architecture/platform/cortex_m3/stm32/uart/uart_4.cpp **** 	
  88:/home/jonas/warwick/3dProfilometer/xpcc/src/xpcc/architecture/platform/cortex_m3/stm32/uart/uart_4.cpp **** 	TxdC10::setAlternateFunction(xpcc::stm32::PUSH_PULL);
  89:/home/jonas/warwick/3dProfilometer/xpcc/src/xpcc/architecture/platform/cortex_m3/stm32/uart/uart_4.cpp **** 	RxdC11::setInput();
  90:/home/jonas/warwick/3dProfilometer/xpcc/src/xpcc/architecture/platform/cortex_m3/stm32/uart/uart_4.cpp **** #endif
  91:/home/jonas/warwick/3dProfilometer/xpcc/src/xpcc/architecture/platform/cortex_m3/stm32/uart/uart_4.cpp **** }
  92:/home/jonas/warwick/3dProfilometer/xpcc/src/xpcc/architecture/platform/cortex_m3/stm32/uart/uart_4.cpp **** 
  93:/home/jonas/warwick/3dProfilometer/xpcc/src/xpcc/architecture/platform/cortex_m3/stm32/uart/uart_4.cpp **** // ----------------------------------------------------------------------------
  94:/home/jonas/warwick/3dProfilometer/xpcc/src/xpcc/architecture/platform/cortex_m3/stm32/uart/uart_4.cpp **** void
  95:/home/jonas/warwick/3dProfilometer/xpcc/src/xpcc/architecture/platform/cortex_m3/stm32/uart/uart_4.cpp **** xpcc::stm32::Uart4::setBaudrate(uint32_t baudrate)
  96:/home/jonas/warwick/3dProfilometer/xpcc/src/xpcc/architecture/platform/cortex_m3/stm32/uart/uart_4.cpp **** {
 216              		.loc 1 96 0
 217              		.cfi_startproc
 218              		@ args = 0, pretend = 0, frame = 0
 219              		@ frame_needed = 0, uses_anonymous_args = 0
 220              	.LVL25:
 221 0000 38B5     		push	{r3, r4, r5, lr}
 222              	.LCFI0:
 223              		.cfi_def_cfa_offset 16
 224              		.cfi_offset 3, -16
 225              		.cfi_offset 4, -12
 226              		.cfi_offset 5, -8
 227              		.cfi_offset 14, -4
  97:/home/jonas/warwick/3dProfilometer/xpcc/src/xpcc/architecture/platform/cortex_m3/stm32/uart/uart_4.cpp **** 	// Enable clock
  98:/home/jonas/warwick/3dProfilometer/xpcc/src/xpcc/architecture/platform/cortex_m3/stm32/uart/uart_4.cpp **** 	// FIXME: there seems to be a bug in the stm32f3xxlib which does not provide
  99:/home/jonas/warwick/3dProfilometer/xpcc/src/xpcc/architecture/platform/cortex_m3/stm32/uart/uart_4.cpp **** 	//        the necessary RCC_APB1ENR_UART5EN define and probably defines
 100:/home/jonas/warwick/3dProfilometer/xpcc/src/xpcc/architecture/platform/cortex_m3/stm32/uart/uart_4.cpp **** 	//        RCC_APB1ENR_UART4EN incorrectly (0x00100000 instead of 0x00080000)
 101:/home/jonas/warwick/3dProfilometer/xpcc/src/xpcc/architecture/platform/cortex_m3/stm32/uart/uart_4.cpp **** 	RCC->APB1ENR |= RCC_APB1ENR_UART4EN;
 228              		.loc 1 101 0
 229 0002 0D4B     		ldr	r3, .L9
 102:/home/jonas/warwick/3dProfilometer/xpcc/src/xpcc/architecture/platform/cortex_m3/stm32/uart/uart_4.cpp **** 	
 103:/home/jonas/warwick/3dProfilometer/xpcc/src/xpcc/architecture/platform/cortex_m3/stm32/uart/uart_4.cpp **** 	UART4->CR1 = 0;
 230              		.loc 1 103 0
 231 0004 0D4C     		ldr	r4, .L9+4
 101:/home/jonas/warwick/3dProfilometer/xpcc/src/xpcc/architecture/platform/cortex_m3/stm32/uart/uart_4.cpp **** 	RCC->APB1ENR |= RCC_APB1ENR_UART4EN;
 232              		.loc 1 101 0
 233 0006 1A6C     		ldr	r2, [r3, #64]
 234              		.loc 1 103 0
 235 0008 0025     		movs	r5, #0
 101:/home/jonas/warwick/3dProfilometer/xpcc/src/xpcc/architecture/platform/cortex_m3/stm32/uart/uart_4.cpp **** 	RCC->APB1ENR |= RCC_APB1ENR_UART4EN;
 236              		.loc 1 101 0
 237 000a 42F40022 		orr	r2, r2, #524288
 238 000e 1A64     		str	r2, [r3, #64]
  96:/home/jonas/warwick/3dProfilometer/xpcc/src/xpcc/architecture/platform/cortex_m3/stm32/uart/uart_4.cpp **** {
 239              		.loc 1 96 0
 240 0010 0146     		mov	r1, r0
 104:/home/jonas/warwick/3dProfilometer/xpcc/src/xpcc/architecture/platform/cortex_m3/stm32/uart/uart_4.cpp **** 	
 105:/home/jonas/warwick/3dProfilometer/xpcc/src/xpcc/architecture/platform/cortex_m3/stm32/uart/uart_4.cpp **** 	// Set baudrate
 106:/home/jonas/warwick/3dProfilometer/xpcc/src/xpcc/architecture/platform/cortex_m3/stm32/uart/uart_4.cpp **** 	UART4->BRR = calculateBaudrateSettings(apbClk, baudrate);
 241              		.loc 1 106 0
 242 0012 0B4B     		ldr	r3, .L9+8
 243 0014 0B48     		ldr	r0, .L9+12
 244              	.LVL26:
 103:/home/jonas/warwick/3dProfilometer/xpcc/src/xpcc/architecture/platform/cortex_m3/stm32/uart/uart_4.cpp **** 	UART4->CR1 = 0;
 245              		.loc 1 103 0
 246 0016 A581     		strh	r5, [r4, #12]	@ movhi
 247              		.loc 1 106 0
 248 0018 9847     		blx	r3
 249              	.LVL27:
 250 001a 2081     		strh	r0, [r4, #8]	@ movhi
 107:/home/jonas/warwick/3dProfilometer/xpcc/src/xpcc/architecture/platform/cortex_m3/stm32/uart/uart_4.cpp **** 	
 108:/home/jonas/warwick/3dProfilometer/xpcc/src/xpcc/architecture/platform/cortex_m3/stm32/uart/uart_4.cpp **** 	// Transmitter & Receiver-Enable, 8 Data Bits, 1 Stop Bit
 109:/home/jonas/warwick/3dProfilometer/xpcc/src/xpcc/architecture/platform/cortex_m3/stm32/uart/uart_4.cpp **** 	UART4->CR1 |= USART_CR1_TE | USART_CR1_RE;
 251              		.loc 1 109 0
 252 001c A389     		ldrh	r3, [r4, #12]
 253 001e 9BB2     		uxth	r3, r3
 254 0020 43F00C03 		orr	r3, r3, #12
 255 0024 A381     		strh	r3, [r4, #12]	@ movhi
 110:/home/jonas/warwick/3dProfilometer/xpcc/src/xpcc/architecture/platform/cortex_m3/stm32/uart/uart_4.cpp **** 	UART4->CR2 = 0;
 256              		.loc 1 110 0
 257 0026 2582     		strh	r5, [r4, #16]	@ movhi
 111:/home/jonas/warwick/3dProfilometer/xpcc/src/xpcc/architecture/platform/cortex_m3/stm32/uart/uart_4.cpp **** 	UART4->CR3 = 0;
 258              		.loc 1 111 0
 259 0028 A582     		strh	r5, [r4, #20]	@ movhi
 112:/home/jonas/warwick/3dProfilometer/xpcc/src/xpcc/architecture/platform/cortex_m3/stm32/uart/uart_4.cpp **** 	
 113:/home/jonas/warwick/3dProfilometer/xpcc/src/xpcc/architecture/platform/cortex_m3/stm32/uart/uart_4.cpp **** 	UART4->CR1 |= USART_CR1_UE;		// Uart Enable
 260              		.loc 1 113 0
 261 002a A389     		ldrh	r3, [r4, #12]
 262 002c 9BB2     		uxth	r3, r3
 263 002e 43F40053 		orr	r3, r3, #8192
 264 0032 A381     		strh	r3, [r4, #12]	@ movhi
 265 0034 38BD     		pop	{r3, r4, r5, pc}
 266              	.L10:
 267 0036 00BF     		.align	2
 268              	.L9:
 269 0038 00380240 		.word	1073887232
 270 003c 004C0040 		.word	1073761280
 271 0040 00000000 		.word	_ZN4xpcc5stm328UartBase25calculateBaudrateSettingsEmm
 272 0044 80DE8002 		.word	42000000
 273              		.cfi_endproc
 274              	.LFE175:
 276              		.section	.text._ZN4xpcc5stm325Uart45writeEh,"ax",%progbits
 277              		.align	2
 278              		.global	_ZN4xpcc5stm325Uart45writeEh
 279              		.thumb
 280              		.thumb_func
 282              	_ZN4xpcc5stm325Uart45writeEh:
 283              	.LFB176:
 114:/home/jonas/warwick/3dProfilometer/xpcc/src/xpcc/architecture/platform/cortex_m3/stm32/uart/uart_4.cpp **** }
 115:/home/jonas/warwick/3dProfilometer/xpcc/src/xpcc/architecture/platform/cortex_m3/stm32/uart/uart_4.cpp **** 
 116:/home/jonas/warwick/3dProfilometer/xpcc/src/xpcc/architecture/platform/cortex_m3/stm32/uart/uart_4.cpp **** // ----------------------------------------------------------------------------
 117:/home/jonas/warwick/3dProfilometer/xpcc/src/xpcc/architecture/platform/cortex_m3/stm32/uart/uart_4.cpp **** void
 118:/home/jonas/warwick/3dProfilometer/xpcc/src/xpcc/architecture/platform/cortex_m3/stm32/uart/uart_4.cpp **** xpcc::stm32::Uart4::write(uint8_t data)
 119:/home/jonas/warwick/3dProfilometer/xpcc/src/xpcc/architecture/platform/cortex_m3/stm32/uart/uart_4.cpp **** {
 284              		.loc 1 119 0
 285              		.cfi_startproc
 286              		@ args = 0, pretend = 0, frame = 0
 287              		@ frame_needed = 0, uses_anonymous_args = 0
 288              		@ link register save eliminated.
 289              	.LVL28:
 290              	.L12:
 120:/home/jonas/warwick/3dProfilometer/xpcc/src/xpcc/architecture/platform/cortex_m3/stm32/uart/uart_4.cpp **** #if defined(STM32F3XX)
 121:/home/jonas/warwick/3dProfilometer/xpcc/src/xpcc/architecture/platform/cortex_m3/stm32/uart/uart_4.cpp **** 	while (!(UART4->ISR & USART_ISR_TXE)) {
 122:/home/jonas/warwick/3dProfilometer/xpcc/src/xpcc/architecture/platform/cortex_m3/stm32/uart/uart_4.cpp **** 		// wait until the data register becomes empty
 123:/home/jonas/warwick/3dProfilometer/xpcc/src/xpcc/architecture/platform/cortex_m3/stm32/uart/uart_4.cpp **** 	}
 124:/home/jonas/warwick/3dProfilometer/xpcc/src/xpcc/architecture/platform/cortex_m3/stm32/uart/uart_4.cpp **** 
 125:/home/jonas/warwick/3dProfilometer/xpcc/src/xpcc/architecture/platform/cortex_m3/stm32/uart/uart_4.cpp **** 	UART4->TDR = data;
 126:/home/jonas/warwick/3dProfilometer/xpcc/src/xpcc/architecture/platform/cortex_m3/stm32/uart/uart_4.cpp **** #else
 127:/home/jonas/warwick/3dProfilometer/xpcc/src/xpcc/architecture/platform/cortex_m3/stm32/uart/uart_4.cpp **** 	while (!(UART4->SR & USART_SR_TXE)) {
 291              		.loc 1 127 0 discriminator 1
 292 0000 044B     		ldr	r3, .L17
 293 0002 1A88     		ldrh	r2, [r3, #0]
 294 0004 02F08002 		and	r2, r2, #128
 295 0008 92B2     		uxth	r2, r2
 296 000a 002A     		cmp	r2, #0
 297 000c F8D0     		beq	.L12
 128:/home/jonas/warwick/3dProfilometer/xpcc/src/xpcc/architecture/platform/cortex_m3/stm32/uart/uart_4.cpp **** 		// wait until the data register becomes empty
 129:/home/jonas/warwick/3dProfilometer/xpcc/src/xpcc/architecture/platform/cortex_m3/stm32/uart/uart_4.cpp **** 	}
 130:/home/jonas/warwick/3dProfilometer/xpcc/src/xpcc/architecture/platform/cortex_m3/stm32/uart/uart_4.cpp **** 	
 131:/home/jonas/warwick/3dProfilometer/xpcc/src/xpcc/architecture/platform/cortex_m3/stm32/uart/uart_4.cpp **** 	UART4->DR = data;
 298              		.loc 1 131 0
 299 000e 9880     		strh	r0, [r3, #4]	@ movhi
 300 0010 7047     		bx	lr
 301              	.L18:
 302 0012 00BF     		.align	2
 303              	.L17:
 304 0014 004C0040 		.word	1073761280
 305              		.cfi_endproc
 306              	.LFE176:
 308              		.section	.text._ZN4xpcc5stm325Uart45writeEPKhh,"ax",%progbits
 309              		.align	2
 310              		.global	_ZN4xpcc5stm325Uart45writeEPKhh
 311              		.thumb
 312              		.thumb_func
 314              	_ZN4xpcc5stm325Uart45writeEPKhh:
 315              	.LFB177:
 132:/home/jonas/warwick/3dProfilometer/xpcc/src/xpcc/architecture/platform/cortex_m3/stm32/uart/uart_4.cpp **** #endif
 133:/home/jonas/warwick/3dProfilometer/xpcc/src/xpcc/architecture/platform/cortex_m3/stm32/uart/uart_4.cpp **** }
 134:/home/jonas/warwick/3dProfilometer/xpcc/src/xpcc/architecture/platform/cortex_m3/stm32/uart/uart_4.cpp **** 
 135:/home/jonas/warwick/3dProfilometer/xpcc/src/xpcc/architecture/platform/cortex_m3/stm32/uart/uart_4.cpp **** // ----------------------------------------------------------------------------
 136:/home/jonas/warwick/3dProfilometer/xpcc/src/xpcc/architecture/platform/cortex_m3/stm32/uart/uart_4.cpp **** void
 137:/home/jonas/warwick/3dProfilometer/xpcc/src/xpcc/architecture/platform/cortex_m3/stm32/uart/uart_4.cpp **** xpcc::stm32::Uart4::write(const uint8_t *s, uint8_t n)
 138:/home/jonas/warwick/3dProfilometer/xpcc/src/xpcc/architecture/platform/cortex_m3/stm32/uart/uart_4.cpp **** {
 316              		.loc 1 138 0
 317              		.cfi_startproc
 318              		@ args = 0, pretend = 0, frame = 0
 319              		@ frame_needed = 0, uses_anonymous_args = 0
 320              		@ link register save eliminated.
 321              	.LVL29:
 322 0000 10B4     		push	{r4}
 323              	.LCFI1:
 324              		.cfi_def_cfa_offset 4
 325              		.cfi_offset 4, -4
 139:/home/jonas/warwick/3dProfilometer/xpcc/src/xpcc/architecture/platform/cortex_m3/stm32/uart/uart_4.cpp **** 	while (n-- != 0) {
 326              		.loc 1 139 0
 327 0002 4C1E     		subs	r4, r1, #1
 328 0004 E4B2     		uxtb	r4, r4
 329              	.LVL30:
 330 0006 71B1     		cbz	r1, .L19
 331              	.LVL31:
 332              	.L28:
 140:/home/jonas/warwick/3dProfilometer/xpcc/src/xpcc/architecture/platform/cortex_m3/stm32/uart/uart_4.cpp **** 		write(*s++);
 333              		.loc 1 140 0
 334 0008 10F8011B 		ldrb	r1, [r0], #1	@ zero_extendqisi2
 335              	.LVL32:
 336              	.L21:
 337              	.LBB52:
 338              	.LBB53:
 127:/home/jonas/warwick/3dProfilometer/xpcc/src/xpcc/architecture/platform/cortex_m3/stm32/uart/uart_4.cpp **** 	while (!(UART4->SR & USART_SR_TXE)) {
 339              		.loc 1 127 0
 340 000c 074B     		ldr	r3, .L30
 341 000e 1A88     		ldrh	r2, [r3, #0]
 342 0010 02F08002 		and	r2, r2, #128
 343 0014 92B2     		uxth	r2, r2
 344 0016 002A     		cmp	r2, #0
 345 0018 F8D0     		beq	.L21
 346              	.LBE53:
 347              	.LBE52:
 139:/home/jonas/warwick/3dProfilometer/xpcc/src/xpcc/architecture/platform/cortex_m3/stm32/uart/uart_4.cpp **** 	while (n-- != 0) {
 348              		.loc 1 139 0
 349 001a 621E     		subs	r2, r4, #1
 350              	.LBB55:
 351              	.LBB54:
 131:/home/jonas/warwick/3dProfilometer/xpcc/src/xpcc/architecture/platform/cortex_m3/stm32/uart/uart_4.cpp **** 	UART4->DR = data;
 352              		.loc 1 131 0
 353 001c 9980     		strh	r1, [r3, #4]	@ movhi
 354              	.LVL33:
 355              	.LBE54:
 356              	.LBE55:
 139:/home/jonas/warwick/3dProfilometer/xpcc/src/xpcc/architecture/platform/cortex_m3/stm32/uart/uart_4.cpp **** 	while (n-- != 0) {
 357              		.loc 1 139 0
 358 001e D2B2     		uxtb	r2, r2
 359              	.LVL34:
 360 0020 0CB1     		cbz	r4, .L19
 361 0022 1446     		mov	r4, r2
 362 0024 F0E7     		b	.L28
 363              	.LVL35:
 364              	.L19:
 141:/home/jonas/warwick/3dProfilometer/xpcc/src/xpcc/architecture/platform/cortex_m3/stm32/uart/uart_4.cpp **** 	}
 142:/home/jonas/warwick/3dProfilometer/xpcc/src/xpcc/architecture/platform/cortex_m3/stm32/uart/uart_4.cpp **** }
 365              		.loc 1 142 0
 366 0026 10BC     		pop	{r4}
 367 0028 7047     		bx	lr
 368              	.L31:
 369 002a 00BF     		.align	2
 370              	.L30:
 371 002c 004C0040 		.word	1073761280
 372              		.cfi_endproc
 373              	.LFE177:
 375              		.section	.text._ZN4xpcc5stm325Uart44readERh,"ax",%progbits
 376              		.align	2
 377              		.global	_ZN4xpcc5stm325Uart44readERh
 378              		.thumb
 379              		.thumb_func
 381              	_ZN4xpcc5stm325Uart44readERh:
 382              	.LFB178:
 143:/home/jonas/warwick/3dProfilometer/xpcc/src/xpcc/architecture/platform/cortex_m3/stm32/uart/uart_4.cpp **** 
 144:/home/jonas/warwick/3dProfilometer/xpcc/src/xpcc/architecture/platform/cortex_m3/stm32/uart/uart_4.cpp **** // ----------------------------------------------------------------------------
 145:/home/jonas/warwick/3dProfilometer/xpcc/src/xpcc/architecture/platform/cortex_m3/stm32/uart/uart_4.cpp **** bool
 146:/home/jonas/warwick/3dProfilometer/xpcc/src/xpcc/architecture/platform/cortex_m3/stm32/uart/uart_4.cpp **** xpcc::stm32::Uart4::read(uint8_t& c)
 147:/home/jonas/warwick/3dProfilometer/xpcc/src/xpcc/architecture/platform/cortex_m3/stm32/uart/uart_4.cpp **** {
 383              		.loc 1 147 0
 384              		.cfi_startproc
 385              		@ args = 0, pretend = 0, frame = 0
 386              		@ frame_needed = 0, uses_anonymous_args = 0
 387              		@ link register save eliminated.
 388              	.LVL36:
 148:/home/jonas/warwick/3dProfilometer/xpcc/src/xpcc/architecture/platform/cortex_m3/stm32/uart/uart_4.cpp **** #if defined(STM32F3XX)
 149:/home/jonas/warwick/3dProfilometer/xpcc/src/xpcc/architecture/platform/cortex_m3/stm32/uart/uart_4.cpp **** 	if (UART4->ISR & USART_ISR_RXNE)
 150:/home/jonas/warwick/3dProfilometer/xpcc/src/xpcc/architecture/platform/cortex_m3/stm32/uart/uart_4.cpp **** 	{
 151:/home/jonas/warwick/3dProfilometer/xpcc/src/xpcc/architecture/platform/cortex_m3/stm32/uart/uart_4.cpp **** 		c = UART4->RDR;
 152:/home/jonas/warwick/3dProfilometer/xpcc/src/xpcc/architecture/platform/cortex_m3/stm32/uart/uart_4.cpp **** 		return true;
 153:/home/jonas/warwick/3dProfilometer/xpcc/src/xpcc/architecture/platform/cortex_m3/stm32/uart/uart_4.cpp **** 	}
 154:/home/jonas/warwick/3dProfilometer/xpcc/src/xpcc/architecture/platform/cortex_m3/stm32/uart/uart_4.cpp **** #else
 155:/home/jonas/warwick/3dProfilometer/xpcc/src/xpcc/architecture/platform/cortex_m3/stm32/uart/uart_4.cpp **** 	if (UART4->SR & USART_SR_RXNE)
 389              		.loc 1 155 0
 390 0000 054B     		ldr	r3, .L35
 391 0002 1A88     		ldrh	r2, [r3, #0]
 392 0004 02F02002 		and	r2, r2, #32
 393 0008 92B2     		uxth	r2, r2
 394 000a 12B1     		cbz	r2, .L33
 156:/home/jonas/warwick/3dProfilometer/xpcc/src/xpcc/architecture/platform/cortex_m3/stm32/uart/uart_4.cpp **** 	{
 157:/home/jonas/warwick/3dProfilometer/xpcc/src/xpcc/architecture/platform/cortex_m3/stm32/uart/uart_4.cpp **** 		c = UART4->DR;
 395              		.loc 1 157 0
 396 000c 9B88     		ldrh	r3, [r3, #4]
 158:/home/jonas/warwick/3dProfilometer/xpcc/src/xpcc/architecture/platform/cortex_m3/stm32/uart/uart_4.cpp **** 		return true;
 397              		.loc 1 158 0
 398 000e 0122     		movs	r2, #1
 157:/home/jonas/warwick/3dProfilometer/xpcc/src/xpcc/architecture/platform/cortex_m3/stm32/uart/uart_4.cpp **** 		c = UART4->DR;
 399              		.loc 1 157 0
 400 0010 0370     		strb	r3, [r0, #0]
 401              	.L33:
 159:/home/jonas/warwick/3dProfilometer/xpcc/src/xpcc/architecture/platform/cortex_m3/stm32/uart/uart_4.cpp **** 	}
 160:/home/jonas/warwick/3dProfilometer/xpcc/src/xpcc/architecture/platform/cortex_m3/stm32/uart/uart_4.cpp **** #endif
 161:/home/jonas/warwick/3dProfilometer/xpcc/src/xpcc/architecture/platform/cortex_m3/stm32/uart/uart_4.cpp **** 	return false;
 162:/home/jonas/warwick/3dProfilometer/xpcc/src/xpcc/architecture/platform/cortex_m3/stm32/uart/uart_4.cpp **** }
 402              		.loc 1 162 0
 403 0012 1046     		mov	r0, r2
 404              	.LVL37:
 405 0014 7047     		bx	lr
 406              	.L36:
 407 0016 00BF     		.align	2
 408              	.L35:
 409 0018 004C0040 		.word	1073761280
 410              		.cfi_endproc
 411              	.LFE178:
 413              		.section	.text._ZN4xpcc5stm325Uart44readEPhh,"ax",%progbits
 414              		.align	2
 415              		.global	_ZN4xpcc5stm325Uart44readEPhh
 416              		.thumb
 417              		.thumb_func
 419              	_ZN4xpcc5stm325Uart44readEPhh:
 420              	.LFB179:
 163:/home/jonas/warwick/3dProfilometer/xpcc/src/xpcc/architecture/platform/cortex_m3/stm32/uart/uart_4.cpp **** 
 164:/home/jonas/warwick/3dProfilometer/xpcc/src/xpcc/architecture/platform/cortex_m3/stm32/uart/uart_4.cpp **** // ----------------------------------------------------------------------------
 165:/home/jonas/warwick/3dProfilometer/xpcc/src/xpcc/architecture/platform/cortex_m3/stm32/uart/uart_4.cpp **** uint8_t
 166:/home/jonas/warwick/3dProfilometer/xpcc/src/xpcc/architecture/platform/cortex_m3/stm32/uart/uart_4.cpp **** xpcc::stm32::Uart4::read(uint8_t *buffer, uint8_t n)
 167:/home/jonas/warwick/3dProfilometer/xpcc/src/xpcc/architecture/platform/cortex_m3/stm32/uart/uart_4.cpp **** {
 421              		.loc 1 167 0
 422              		.cfi_startproc
 423              		@ args = 0, pretend = 0, frame = 0
 424              		@ frame_needed = 0, uses_anonymous_args = 0
 425              		@ link register save eliminated.
 426              	.LVL38:
 427 0000 10B4     		push	{r4}
 428              	.LCFI2:
 429              		.cfi_def_cfa_offset 4
 430              		.cfi_offset 4, -4
 431              		.loc 1 167 0
 432 0002 0346     		mov	r3, r0
 433              	.LBB56:
 168:/home/jonas/warwick/3dProfilometer/xpcc/src/xpcc/architecture/platform/cortex_m3/stm32/uart/uart_4.cpp **** 	for (uint8_t i = 0; i < n; ++i)
 434              		.loc 1 168 0
 435 0004 E9B1     		cbz	r1, .L46
 436              	.LVL39:
 437              	.LBB57:
 438              	.LBB58:
 155:/home/jonas/warwick/3dProfilometer/xpcc/src/xpcc/architecture/platform/cortex_m3/stm32/uart/uart_4.cpp **** 	if (UART4->SR & USART_SR_RXNE)
 439              		.loc 1 155 0
 440 0006 104A     		ldr	r2, .L47
 441 0008 1088     		ldrh	r0, [r2, #0]
 442              	.LVL40:
 443 000a 00F02000 		and	r0, r0, #32
 444 000e 80B2     		uxth	r0, r0
 445 0010 80B9     		cbnz	r0, .L44
 446              	.LBE58:
 447              	.LBE57:
 448              		.loc 1 168 0
 449 0012 0130     		adds	r0, r0, #1
 450 0014 C0B2     		uxtb	r0, r0
 169:/home/jonas/warwick/3dProfilometer/xpcc/src/xpcc/architecture/platform/cortex_m3/stm32/uart/uart_4.cpp **** 	{
 170:/home/jonas/warwick/3dProfilometer/xpcc/src/xpcc/architecture/platform/cortex_m3/stm32/uart/uart_4.cpp **** 		if (read(*buffer++)) {
 451              		.loc 1 170 0
 452 0016 0133     		adds	r3, r3, #1
 453              	.LVL41:
 168:/home/jonas/warwick/3dProfilometer/xpcc/src/xpcc/architecture/platform/cortex_m3/stm32/uart/uart_4.cpp **** 	for (uint8_t i = 0; i < n; ++i)
 454              		.loc 1 168 0
 455 0018 8142     		cmp	r1, r0
 456 001a 12D9     		bls	.L46
 457              	.LVL42:
 458              	.L42:
 459              	.LBB63:
 460              	.LBB59:
 155:/home/jonas/warwick/3dProfilometer/xpcc/src/xpcc/architecture/platform/cortex_m3/stm32/uart/uart_4.cpp **** 	if (UART4->SR & USART_SR_RXNE)
 461              		.loc 1 155 0
 462 001c 0A4A     		ldr	r2, .L47
 463 001e 1288     		ldrh	r2, [r2, #0]
 464 0020 02F02002 		and	r2, r2, #32
 465 0024 92B2     		uxth	r2, r2
 466              	.LBE59:
 467              	.LBE63:
 468              		.loc 1 170 0
 469 0026 5C1C     		adds	r4, r3, #1
 470              	.LVL43:
 471              	.LBB64:
 472              	.LBB60:
 155:/home/jonas/warwick/3dProfilometer/xpcc/src/xpcc/architecture/platform/cortex_m3/stm32/uart/uart_4.cpp **** 	if (UART4->SR & USART_SR_RXNE)
 473              		.loc 1 155 0
 474 0028 32B1     		cbz	r2, .L43
 475              	.LVL44:
 476              	.L41:
 157:/home/jonas/warwick/3dProfilometer/xpcc/src/xpcc/architecture/platform/cortex_m3/stm32/uart/uart_4.cpp **** 		c = UART4->DR;
 477              		.loc 1 157 0
 478 002a 074A     		ldr	r2, .L47
 479 002c 9288     		ldrh	r2, [r2, #4]
 480 002e 1A70     		strb	r2, [r3, #0]
 481              	.L45:
 482              	.LBE60:
 483              	.LBE64:
 484              	.LBE56:
 171:/home/jonas/warwick/3dProfilometer/xpcc/src/xpcc/architecture/platform/cortex_m3/stm32/uart/uart_4.cpp **** 			return i;
 172:/home/jonas/warwick/3dProfilometer/xpcc/src/xpcc/architecture/platform/cortex_m3/stm32/uart/uart_4.cpp **** 		}
 173:/home/jonas/warwick/3dProfilometer/xpcc/src/xpcc/architecture/platform/cortex_m3/stm32/uart/uart_4.cpp **** 	}
 174:/home/jonas/warwick/3dProfilometer/xpcc/src/xpcc/architecture/platform/cortex_m3/stm32/uart/uart_4.cpp **** 	
 175:/home/jonas/warwick/3dProfilometer/xpcc/src/xpcc/architecture/platform/cortex_m3/stm32/uart/uart_4.cpp **** 	return n;
 176:/home/jonas/warwick/3dProfilometer/xpcc/src/xpcc/architecture/platform/cortex_m3/stm32/uart/uart_4.cpp **** }
 485              		.loc 1 176 0
 486 0030 10BC     		pop	{r4}
 487 0032 7047     		bx	lr
 488              	.LVL45:
 489              	.L44:
 490              	.LBB67:
 491              	.LBB65:
 492              	.LBB61:
 168:/home/jonas/warwick/3dProfilometer/xpcc/src/xpcc/architecture/platform/cortex_m3/stm32/uart/uart_4.cpp **** 	for (uint8_t i = 0; i < n; ++i)
 493              		.loc 1 168 0
 494 0034 0020     		movs	r0, #0
 495 0036 F8E7     		b	.L41
 496              	.LVL46:
 497              	.L43:
 498              	.LBE61:
 499              	.LBE65:
 500 0038 0130     		adds	r0, r0, #1
 501 003a C0B2     		uxtb	r0, r0
 502 003c 8142     		cmp	r1, r0
 503              	.LBB66:
 504              	.LBB62:
 170:/home/jonas/warwick/3dProfilometer/xpcc/src/xpcc/architecture/platform/cortex_m3/stm32/uart/uart_4.cpp **** 		if (read(*buffer++)) {
 505              		.loc 1 170 0
 506 003e 2346     		mov	r3, r4
 507              	.LVL47:
 508              	.LBE62:
 509              	.LBE66:
 168:/home/jonas/warwick/3dProfilometer/xpcc/src/xpcc/architecture/platform/cortex_m3/stm32/uart/uart_4.cpp **** 	for (uint8_t i = 0; i < n; ++i)
 510              		.loc 1 168 0
 511 0040 ECD8     		bhi	.L42
 512              	.LVL48:
 513              	.L46:
 514 0042 0846     		mov	r0, r1
 515 0044 F4E7     		b	.L45
 516              	.L48:
 517 0046 00BF     		.align	2
 518              	.L47:
 519 0048 004C0040 		.word	1073761280
 520              	.LBE67:
 521              		.cfi_endproc
 522              	.LFE179:
 524              		.text
 525              	.Letext0:
 526              		.file 3 "/opt/arm-2012.09/bin/../lib/gcc/arm-none-eabi/4.7.2/../../../../arm-none-eabi/include/std
 527              		.file 4 "/home/jonas/warwick/3dProfilometer/xpcc/src/xpcc/architecture/driver/gpio.hpp"
 528              		.file 5 "/home/jonas/warwick/3dProfilometer/xpcc/src/xpcc/architecture/platform/cortex_m3/stm32/ua
 529              		.file 6 "/home/jonas/warwick/3dProfilometer/xpcc/ext/stm32f4xx_lib/CMSIS/Device/ST/STM32F4xx/Inclu
 530              		.file 7 "/home/jonas/warwick/3dProfilometer/xpcc/ext/stm32f4xx_lib/CMSIS/Include/core_cm4.h"