   1              		.syntax unified
   2              		.cpu cortex-m4
   3              		.eabi_attribute 27, 3
   4              		.fpu fpv4-sp-d16
   5              		.eabi_attribute 20, 1
   6              		.eabi_attribute 21, 1
   7              		.eabi_attribute 23, 3
   8              		.eabi_attribute 24, 1
   9              		.eabi_attribute 25, 1
  10              		.eabi_attribute 26, 1
  11              		.eabi_attribute 30, 2
  12              		.eabi_attribute 34, 1
  13              		.eabi_attribute 18, 4
  14              		.thumb
  15              		.file	"flag.cpp"
  16              		.text
  17              	.Ltext0:
  18              		.cfi_sections	.debug_frame
  19              		.section	.text._ZN4xpcc6atomic4FlagC2Eb,"ax",%progbits
  20              		.align	2
  21              		.global	_ZN4xpcc6atomic4FlagC2Eb
  22              		.thumb
  23              		.thumb_func
  25              	_ZN4xpcc6atomic4FlagC2Eb:
  26              	.LFB17:
  27              		.file 1 "/home/jonas/warwick/3dProfilometer/xpcc/src/xpcc/architecture/driver/atomic/flag.cpp"
   1:/home/jonas/warwick/3dProfilometer/xpcc/src/xpcc/architecture/driver/atomic/flag.cpp **** // coding: utf-8
   2:/home/jonas/warwick/3dProfilometer/xpcc/src/xpcc/architecture/driver/atomic/flag.cpp **** // ----------------------------------------------------------------------------
   3:/home/jonas/warwick/3dProfilometer/xpcc/src/xpcc/architecture/driver/atomic/flag.cpp **** /* Copyright (c) 2009, Roboterclub Aachen e.V.
   4:/home/jonas/warwick/3dProfilometer/xpcc/src/xpcc/architecture/driver/atomic/flag.cpp ****  * All rights reserved.
   5:/home/jonas/warwick/3dProfilometer/xpcc/src/xpcc/architecture/driver/atomic/flag.cpp ****  *
   6:/home/jonas/warwick/3dProfilometer/xpcc/src/xpcc/architecture/driver/atomic/flag.cpp ****  * Redistribution and use in source and binary forms, with or without
   7:/home/jonas/warwick/3dProfilometer/xpcc/src/xpcc/architecture/driver/atomic/flag.cpp ****  * modification, are permitted provided that the following conditions are met:
   8:/home/jonas/warwick/3dProfilometer/xpcc/src/xpcc/architecture/driver/atomic/flag.cpp ****  *     * Redistributions of source code must retain the above copyright
   9:/home/jonas/warwick/3dProfilometer/xpcc/src/xpcc/architecture/driver/atomic/flag.cpp ****  *       notice, this list of conditions and the following disclaimer.
  10:/home/jonas/warwick/3dProfilometer/xpcc/src/xpcc/architecture/driver/atomic/flag.cpp ****  *     * Redistributions in binary form must reproduce the above copyright
  11:/home/jonas/warwick/3dProfilometer/xpcc/src/xpcc/architecture/driver/atomic/flag.cpp ****  *       notice, this list of conditions and the following disclaimer in the
  12:/home/jonas/warwick/3dProfilometer/xpcc/src/xpcc/architecture/driver/atomic/flag.cpp ****  *       documentation and/or other materials provided with the distribution.
  13:/home/jonas/warwick/3dProfilometer/xpcc/src/xpcc/architecture/driver/atomic/flag.cpp ****  *     * Neither the name of the Roboterclub Aachen e.V. nor the
  14:/home/jonas/warwick/3dProfilometer/xpcc/src/xpcc/architecture/driver/atomic/flag.cpp ****  *       names of its contributors may be used to endorse or promote products
  15:/home/jonas/warwick/3dProfilometer/xpcc/src/xpcc/architecture/driver/atomic/flag.cpp ****  *       derived from this software without specific prior written permission.
  16:/home/jonas/warwick/3dProfilometer/xpcc/src/xpcc/architecture/driver/atomic/flag.cpp ****  *
  17:/home/jonas/warwick/3dProfilometer/xpcc/src/xpcc/architecture/driver/atomic/flag.cpp ****  * THIS SOFTWARE IS PROVIDED BY ROBOTERCLUB AACHEN E.V. ''AS IS'' AND ANY
  18:/home/jonas/warwick/3dProfilometer/xpcc/src/xpcc/architecture/driver/atomic/flag.cpp ****  * EXPRESS OR IMPLIED WARRANTIES, INCLUDING, BUT NOT LIMITED TO, THE IMPLIED
  19:/home/jonas/warwick/3dProfilometer/xpcc/src/xpcc/architecture/driver/atomic/flag.cpp ****  * WARRANTIES OF MERCHANTABILITY AND FITNESS FOR A PARTICULAR PURPOSE ARE
  20:/home/jonas/warwick/3dProfilometer/xpcc/src/xpcc/architecture/driver/atomic/flag.cpp ****  * DISCLAIMED. IN NO EVENT SHALL ROBOTERCLUB AACHEN E.V. BE LIABLE FOR ANY
  21:/home/jonas/warwick/3dProfilometer/xpcc/src/xpcc/architecture/driver/atomic/flag.cpp ****  * DIRECT, INDIRECT, INCIDENTAL, SPECIAL, EXEMPLARY, OR CONSEQUENTIAL DAMAGES
  22:/home/jonas/warwick/3dProfilometer/xpcc/src/xpcc/architecture/driver/atomic/flag.cpp ****  * (INCLUDING, BUT NOT LIMITED TO, PROCUREMENT OF SUBSTITUTE GOODS OR SERVICES;
  23:/home/jonas/warwick/3dProfilometer/xpcc/src/xpcc/architecture/driver/atomic/flag.cpp ****  * LOSS OF USE, DATA, OR PROFITS; OR BUSINESS INTERRUPTION) HOWEVER CAUSED AND
  24:/home/jonas/warwick/3dProfilometer/xpcc/src/xpcc/architecture/driver/atomic/flag.cpp ****  * ON ANY THEORY OF LIABILITY, WHETHER IN CONTRACT, STRICT LIABILITY, OR TORT
  25:/home/jonas/warwick/3dProfilometer/xpcc/src/xpcc/architecture/driver/atomic/flag.cpp ****  * (INCLUDING NEGLIGENCE OR OTHERWISE) ARISING IN ANY WAY OUT OF THE USE OF
  26:/home/jonas/warwick/3dProfilometer/xpcc/src/xpcc/architecture/driver/atomic/flag.cpp ****  * THIS SOFTWARE, EVEN IF ADVISED OF THE POSSIBILITY OF SUCH DAMAGE.
  27:/home/jonas/warwick/3dProfilometer/xpcc/src/xpcc/architecture/driver/atomic/flag.cpp ****  */
  28:/home/jonas/warwick/3dProfilometer/xpcc/src/xpcc/architecture/driver/atomic/flag.cpp **** // ----------------------------------------------------------------------------
  29:/home/jonas/warwick/3dProfilometer/xpcc/src/xpcc/architecture/driver/atomic/flag.cpp **** 
  30:/home/jonas/warwick/3dProfilometer/xpcc/src/xpcc/architecture/driver/atomic/flag.cpp **** #include "flag.hpp"
  31:/home/jonas/warwick/3dProfilometer/xpcc/src/xpcc/architecture/driver/atomic/flag.cpp **** 
  32:/home/jonas/warwick/3dProfilometer/xpcc/src/xpcc/architecture/driver/atomic/flag.cpp **** xpcc::atomic::Flag::Flag(bool inState) : 
  28              		.loc 1 32 0
  29              		.cfi_startproc
  30              		@ args = 0, pretend = 0, frame = 0
  31              		@ frame_needed = 0, uses_anonymous_args = 0
  32              		@ link register save eliminated.
  33              	.LVL0:
  34              	.LBB2:
  33:/home/jonas/warwick/3dProfilometer/xpcc/src/xpcc/architecture/driver/atomic/flag.cpp **** 	state(inState)
  35              		.loc 1 33 0
  36 0000 0170     		strb	r1, [r0, #0]
  37              	.LBE2:
  34:/home/jonas/warwick/3dProfilometer/xpcc/src/xpcc/architecture/driver/atomic/flag.cpp **** {
  35:/home/jonas/warwick/3dProfilometer/xpcc/src/xpcc/architecture/driver/atomic/flag.cpp **** }
  38              		.loc 1 35 0
  39 0002 7047     		bx	lr
  40              		.cfi_endproc
  41              	.LFE17:
  43              		.global	_ZN4xpcc6atomic4FlagC1Eb
  44              		.thumb_set _ZN4xpcc6atomic4FlagC1Eb,_ZN4xpcc6atomic4FlagC2Eb
  45              		.section	.text._ZN4xpcc6atomic4FlagC2ERKS1_,"ax",%progbits
  46              		.align	2
  47              		.global	_ZN4xpcc6atomic4FlagC2ERKS1_
  48              		.thumb
  49              		.thumb_func
  51              	_ZN4xpcc6atomic4FlagC2ERKS1_:
  52              	.LFB20:
  36:/home/jonas/warwick/3dProfilometer/xpcc/src/xpcc/architecture/driver/atomic/flag.cpp **** 
  37:/home/jonas/warwick/3dProfilometer/xpcc/src/xpcc/architecture/driver/atomic/flag.cpp **** xpcc::atomic::Flag::Flag(const Flag& other) :
  53              		.loc 1 37 0
  54              		.cfi_startproc
  55              		@ args = 0, pretend = 0, frame = 0
  56              		@ frame_needed = 0, uses_anonymous_args = 0
  57              		@ link register save eliminated.
  58              	.LVL1:
  59              	.LBB3:
  38:/home/jonas/warwick/3dProfilometer/xpcc/src/xpcc/architecture/driver/atomic/flag.cpp **** 	state(other.state)
  60              		.loc 1 38 0
  61 0000 0A78     		ldrb	r2, [r1, #0]	@ zero_extendqisi2
  62 0002 0270     		strb	r2, [r0, #0]
  63              	.LBE3:
  39:/home/jonas/warwick/3dProfilometer/xpcc/src/xpcc/architecture/driver/atomic/flag.cpp **** {
  40:/home/jonas/warwick/3dProfilometer/xpcc/src/xpcc/architecture/driver/atomic/flag.cpp **** }
  64              		.loc 1 40 0
  65 0004 7047     		bx	lr
  66              		.cfi_endproc
  67              	.LFE20:
  69              		.global	_ZN4xpcc6atomic4FlagC1ERKS1_
  70              		.thumb_set _ZN4xpcc6atomic4FlagC1ERKS1_,_ZN4xpcc6atomic4FlagC2ERKS1_
  71 0006 00BF     		.section	.text._ZN4xpcc6atomic4FlagaSERKS1_,"ax",%progbits
  72              		.align	2
  73              		.global	_ZN4xpcc6atomic4FlagaSERKS1_
  74              		.thumb
  75              		.thumb_func
  77              	_ZN4xpcc6atomic4FlagaSERKS1_:
  78              	.LFB22:
  41:/home/jonas/warwick/3dProfilometer/xpcc/src/xpcc/architecture/driver/atomic/flag.cpp **** 
  42:/home/jonas/warwick/3dProfilometer/xpcc/src/xpcc/architecture/driver/atomic/flag.cpp **** xpcc::atomic::Flag&
  43:/home/jonas/warwick/3dProfilometer/xpcc/src/xpcc/architecture/driver/atomic/flag.cpp **** xpcc::atomic::Flag::operator = (const Flag& other)
  44:/home/jonas/warwick/3dProfilometer/xpcc/src/xpcc/architecture/driver/atomic/flag.cpp **** {
  79              		.loc 1 44 0
  80              		.cfi_startproc
  81              		@ args = 0, pretend = 0, frame = 0
  82              		@ frame_needed = 0, uses_anonymous_args = 0
  83              		@ link register save eliminated.
  84              	.LVL2:
  45:/home/jonas/warwick/3dProfilometer/xpcc/src/xpcc/architecture/driver/atomic/flag.cpp **** 	this->state = other.state;
  85              		.loc 1 45 0
  86 0000 0A78     		ldrb	r2, [r1, #0]	@ zero_extendqisi2
  87 0002 0270     		strb	r2, [r0, #0]
  46:/home/jonas/warwick/3dProfilometer/xpcc/src/xpcc/architecture/driver/atomic/flag.cpp **** 	return *this;
  47:/home/jonas/warwick/3dProfilometer/xpcc/src/xpcc/architecture/driver/atomic/flag.cpp **** }
  88              		.loc 1 47 0
  89 0004 7047     		bx	lr
  90              		.cfi_endproc
  91              	.LFE22:
  93 0006 00BF     		.text
  94              	.Letext0:
  95              		.file 2 "/home/jonas/warwick/3dProfilometer/xpcc/src/xpcc/architecture/driver/atomic/flag.hpp"
  96              		.file 3 "/home/jonas/warwick/3dProfilometer/xpcc/src/xpcc/architecture/driver/atomic/lock.hpp"