   1              		.syntax unified
   2              		.cpu cortex-m4
   3              		.eabi_attribute 27, 3
   4              		.fpu fpv4-sp-d16
   5              		.eabi_attribute 20, 1
   6              		.eabi_attribute 21, 1
   7              		.eabi_attribute 23, 3
   8              		.eabi_attribute 24, 1
   9              		.eabi_attribute 25, 1
  10              		.eabi_attribute 26, 1
  11              		.eabi_attribute 30, 2
  12              		.eabi_attribute 34, 1
  13              		.eabi_attribute 18, 4
  14              		.thumb
  15              		.file	"angle.cpp"
  16              		.text
  17              	.Ltext0:
  18              		.cfi_sections	.debug_frame
  19              		.section	.text._ZN4xpcc5Angle9normalizeEf,"ax",%progbits
  20              		.align	2
  21              		.global	_ZN4xpcc5Angle9normalizeEf
  22              		.thumb
  23              		.thumb_func
  25              	_ZN4xpcc5Angle9normalizeEf:
  26              	.LFB122:
  27              		.file 1 "/home/jonas/warwick/3dProfilometer/xpcc/src/xpcc/math/geometry/angle.cpp"
   1:/home/jonas/warwick/3dProfilometer/xpcc/src/xpcc/math/geometry/angle.cpp **** // coding: utf-8
   2:/home/jonas/warwick/3dProfilometer/xpcc/src/xpcc/math/geometry/angle.cpp **** // ----------------------------------------------------------------------------
   3:/home/jonas/warwick/3dProfilometer/xpcc/src/xpcc/math/geometry/angle.cpp **** /* Copyright (c) 2009, Roboterclub Aachen e.V.
   4:/home/jonas/warwick/3dProfilometer/xpcc/src/xpcc/math/geometry/angle.cpp ****  * All rights reserved.
   5:/home/jonas/warwick/3dProfilometer/xpcc/src/xpcc/math/geometry/angle.cpp ****  *
   6:/home/jonas/warwick/3dProfilometer/xpcc/src/xpcc/math/geometry/angle.cpp ****  * Redistribution and use in source and binary forms, with or without
   7:/home/jonas/warwick/3dProfilometer/xpcc/src/xpcc/math/geometry/angle.cpp ****  * modification, are permitted provided that the following conditions are met:
   8:/home/jonas/warwick/3dProfilometer/xpcc/src/xpcc/math/geometry/angle.cpp ****  *
   9:/home/jonas/warwick/3dProfilometer/xpcc/src/xpcc/math/geometry/angle.cpp ****  *     * Redistributions of source code must retain the above copyright
  10:/home/jonas/warwick/3dProfilometer/xpcc/src/xpcc/math/geometry/angle.cpp ****  *       notice, this list of conditions and the following disclaimer.
  11:/home/jonas/warwick/3dProfilometer/xpcc/src/xpcc/math/geometry/angle.cpp ****  *     * Redistributions in binary form must reproduce the above copyright
  12:/home/jonas/warwick/3dProfilometer/xpcc/src/xpcc/math/geometry/angle.cpp ****  *       notice, this list of conditions and the following disclaimer in the
  13:/home/jonas/warwick/3dProfilometer/xpcc/src/xpcc/math/geometry/angle.cpp ****  *       documentation and/or other materials provided with the distribution.
  14:/home/jonas/warwick/3dProfilometer/xpcc/src/xpcc/math/geometry/angle.cpp ****  *     * Neither the name of the Roboterclub Aachen e.V. nor the
  15:/home/jonas/warwick/3dProfilometer/xpcc/src/xpcc/math/geometry/angle.cpp ****  *       names of its contributors may be used to endorse or promote products
  16:/home/jonas/warwick/3dProfilometer/xpcc/src/xpcc/math/geometry/angle.cpp ****  *       derived from this software without specific prior written permission.
  17:/home/jonas/warwick/3dProfilometer/xpcc/src/xpcc/math/geometry/angle.cpp ****  *
  18:/home/jonas/warwick/3dProfilometer/xpcc/src/xpcc/math/geometry/angle.cpp ****  * THIS SOFTWARE IS PROVIDED BY ROBOTERCLUB AACHEN E.V. ''AS IS'' AND ANY
  19:/home/jonas/warwick/3dProfilometer/xpcc/src/xpcc/math/geometry/angle.cpp ****  * EXPRESS OR IMPLIED WARRANTIES, INCLUDING, BUT NOT LIMITED TO, THE IMPLIED
  20:/home/jonas/warwick/3dProfilometer/xpcc/src/xpcc/math/geometry/angle.cpp ****  * WARRANTIES OF MERCHANTABILITY AND FITNESS FOR A PARTICULAR PURPOSE ARE
  21:/home/jonas/warwick/3dProfilometer/xpcc/src/xpcc/math/geometry/angle.cpp ****  * DISCLAIMED. IN NO EVENT SHALL ROBOTERCLUB AACHEN E.V. BE LIABLE FOR ANY
  22:/home/jonas/warwick/3dProfilometer/xpcc/src/xpcc/math/geometry/angle.cpp ****  * DIRECT, INDIRECT, INCIDENTAL, SPECIAL, EXEMPLARY, OR CONSEQUENTIAL DAMAGES
  23:/home/jonas/warwick/3dProfilometer/xpcc/src/xpcc/math/geometry/angle.cpp ****  * (INCLUDING, BUT NOT LIMITED TO, PROCUREMENT OF SUBSTITUTE GOODS OR SERVICES;
  24:/home/jonas/warwick/3dProfilometer/xpcc/src/xpcc/math/geometry/angle.cpp ****  * LOSS OF USE, DATA, OR PROFITS; OR BUSINESS INTERRUPTION) HOWEVER CAUSED AND
  25:/home/jonas/warwick/3dProfilometer/xpcc/src/xpcc/math/geometry/angle.cpp ****  * ON ANY THEORY OF LIABILITY, WHETHER IN CONTRACT, STRICT LIABILITY, OR TORT
  26:/home/jonas/warwick/3dProfilometer/xpcc/src/xpcc/math/geometry/angle.cpp ****  * (INCLUDING NEGLIGENCE OR OTHERWISE) ARISING IN ANY WAY OUT OF THE USE OF
  27:/home/jonas/warwick/3dProfilometer/xpcc/src/xpcc/math/geometry/angle.cpp ****  * THIS SOFTWARE, EVEN IF ADVISED OF THE POSSIBILITY OF SUCH DAMAGE.
  28:/home/jonas/warwick/3dProfilometer/xpcc/src/xpcc/math/geometry/angle.cpp ****  */
  29:/home/jonas/warwick/3dProfilometer/xpcc/src/xpcc/math/geometry/angle.cpp **** // ----------------------------------------------------------------------------
  30:/home/jonas/warwick/3dProfilometer/xpcc/src/xpcc/math/geometry/angle.cpp **** 
  31:/home/jonas/warwick/3dProfilometer/xpcc/src/xpcc/math/geometry/angle.cpp **** #include <xpcc/math/utils/misc.hpp>
  32:/home/jonas/warwick/3dProfilometer/xpcc/src/xpcc/math/geometry/angle.cpp **** 
  33:/home/jonas/warwick/3dProfilometer/xpcc/src/xpcc/math/geometry/angle.cpp **** #include "angle.hpp"
  34:/home/jonas/warwick/3dProfilometer/xpcc/src/xpcc/math/geometry/angle.cpp **** 
  35:/home/jonas/warwick/3dProfilometer/xpcc/src/xpcc/math/geometry/angle.cpp **** // ----------------------------------------------------------------------------
  36:/home/jonas/warwick/3dProfilometer/xpcc/src/xpcc/math/geometry/angle.cpp **** float
  37:/home/jonas/warwick/3dProfilometer/xpcc/src/xpcc/math/geometry/angle.cpp **** xpcc::Angle::normalize(float angle)
  38:/home/jonas/warwick/3dProfilometer/xpcc/src/xpcc/math/geometry/angle.cpp **** {
  28              		.loc 1 38 0
  29              		.cfi_startproc
  30              		@ args = 0, pretend = 0, frame = 0
  31              		@ frame_needed = 0, uses_anonymous_args = 0
  32              		@ link register save eliminated.
  33              	.LVL0:
  34              		.loc 1 38 0
  35 0000 07EE900A 		fmsr	s15, r0
  39:/home/jonas/warwick/3dProfilometer/xpcc/src/xpcc/math/geometry/angle.cpp **** 	if (isPositive(angle))
  36              		.loc 1 39 0
  37 0004 F5EEC07A 		fcmpezs	s15
  38 0008 F1EE10FA 		fmstat
  39 000c 18DD     		ble	.L12
  40:/home/jonas/warwick/3dProfilometer/xpcc/src/xpcc/math/geometry/angle.cpp **** 	{
  41:/home/jonas/warwick/3dProfilometer/xpcc/src/xpcc/math/geometry/angle.cpp **** 		while (angle > M_PI) {
  40              		.loc 1 41 0 discriminator 1
  41 000e 9FED117A 		flds	s14, .L14
  42 0012 F4EEC77A 		fcmpes	s15, s14
  43 0016 F1EE10FA 		fmstat
  44 001a 0ADD     		ble	.L4
  45              	.LVL1:
  46              	.L8:
  42:/home/jonas/warwick/3dProfilometer/xpcc/src/xpcc/math/geometry/angle.cpp **** 			angle -= 2 * M_PI;
  47              		.loc 1 42 0
  48 001c 9FED0E7A 		flds	s14, .L14+4
  49 0020 77EEC77A 		fsubs	s15, s15, s14
  50              	.LVL2:
  41:/home/jonas/warwick/3dProfilometer/xpcc/src/xpcc/math/geometry/angle.cpp **** 		while (angle > M_PI) {
  51              		.loc 1 41 0
  52 0024 9FED0B7A 		flds	s14, .L14
  53 0028 F4EEC77A 		fcmpes	s15, s14
  54 002c F1EE10FA 		fmstat
  55 0030 F4DC     		bgt	.L8
  56              	.L4:
  43:/home/jonas/warwick/3dProfilometer/xpcc/src/xpcc/math/geometry/angle.cpp **** 		}
  44:/home/jonas/warwick/3dProfilometer/xpcc/src/xpcc/math/geometry/angle.cpp **** 	}
  45:/home/jonas/warwick/3dProfilometer/xpcc/src/xpcc/math/geometry/angle.cpp **** 	else {
  46:/home/jonas/warwick/3dProfilometer/xpcc/src/xpcc/math/geometry/angle.cpp **** 		while (angle < -M_PI) {
  47:/home/jonas/warwick/3dProfilometer/xpcc/src/xpcc/math/geometry/angle.cpp **** 			angle += 2 * M_PI;
  48:/home/jonas/warwick/3dProfilometer/xpcc/src/xpcc/math/geometry/angle.cpp **** 		}
  49:/home/jonas/warwick/3dProfilometer/xpcc/src/xpcc/math/geometry/angle.cpp **** 	}
  50:/home/jonas/warwick/3dProfilometer/xpcc/src/xpcc/math/geometry/angle.cpp **** 	
  51:/home/jonas/warwick/3dProfilometer/xpcc/src/xpcc/math/geometry/angle.cpp **** 	return angle;
  52:/home/jonas/warwick/3dProfilometer/xpcc/src/xpcc/math/geometry/angle.cpp **** }
  57              		.loc 1 52 0
  58 0032 17EE900A 		fmrs	r0, s15
  59 0036 7047     		bx	lr
  60              	.L9:
  47:/home/jonas/warwick/3dProfilometer/xpcc/src/xpcc/math/geometry/angle.cpp **** 			angle += 2 * M_PI;
  61              		.loc 1 47 0
  62 0038 9FED077A 		flds	s14, .L14+4
  63 003c 77EE877A 		fadds	s15, s15, s14
  64              	.LVL3:
  65              	.L12:
  46:/home/jonas/warwick/3dProfilometer/xpcc/src/xpcc/math/geometry/angle.cpp **** 		while (angle < -M_PI) {
  66              		.loc 1 46 0
  67 0040 9FED067A 		flds	s14, .L14+8
  68 0044 F4EEC77A 		fcmpes	s15, s14
  69 0048 F1EE10FA 		fmstat
  70 004c F4D4     		bmi	.L9
  71              		.loc 1 52 0
  72 004e 17EE900A 		fmrs	r0, s15
  73 0052 7047     		bx	lr
  74              	.L15:
  75              		.align	2
  76              	.L14:
  77 0054 DB0F4940 		.word	1078530011
  78 0058 DB0FC940 		.word	1086918619
  79 005c DB0F49C0 		.word	-1068953637
  80              		.cfi_endproc
  81              	.LFE122:
  83              		.section	.text._ZN4xpcc5Angle7reverseEf,"ax",%progbits
  84              		.align	2
  85              		.global	_ZN4xpcc5Angle7reverseEf
  86              		.thumb
  87              		.thumb_func
  89              	_ZN4xpcc5Angle7reverseEf:
  90              	.LFB123:
  53:/home/jonas/warwick/3dProfilometer/xpcc/src/xpcc/math/geometry/angle.cpp **** 
  54:/home/jonas/warwick/3dProfilometer/xpcc/src/xpcc/math/geometry/angle.cpp **** // ----------------------------------------------------------------------------
  55:/home/jonas/warwick/3dProfilometer/xpcc/src/xpcc/math/geometry/angle.cpp **** float
  56:/home/jonas/warwick/3dProfilometer/xpcc/src/xpcc/math/geometry/angle.cpp **** xpcc::Angle::reverse(float angle)
  57:/home/jonas/warwick/3dProfilometer/xpcc/src/xpcc/math/geometry/angle.cpp **** {
  91              		.loc 1 57 0
  92              		.cfi_startproc
  93              		@ args = 0, pretend = 0, frame = 0
  94              		@ frame_needed = 0, uses_anonymous_args = 0
  95              		@ link register save eliminated.
  96              	.LVL4:
  97              		.loc 1 57 0
  98 0000 07EE900A 		fmsr	s15, r0
  58:/home/jonas/warwick/3dProfilometer/xpcc/src/xpcc/math/geometry/angle.cpp **** 	if (isPositive(angle))
  59:/home/jonas/warwick/3dProfilometer/xpcc/src/xpcc/math/geometry/angle.cpp **** 	{
  60:/home/jonas/warwick/3dProfilometer/xpcc/src/xpcc/math/geometry/angle.cpp **** 		angle -= M_PI;
  99              		.loc 1 60 0
 100 0004 9FED067A 		flds	s14, .L22
  58:/home/jonas/warwick/3dProfilometer/xpcc/src/xpcc/math/geometry/angle.cpp **** 	if (isPositive(angle))
 101              		.loc 1 58 0
 102 0008 F5EEC07A 		fcmpezs	s15
 103 000c F1EE10FA 		fmstat
 104              		.loc 1 60 0
 105 0010 CCBF     		ite	gt
 106 0012 77EEC77A 		fsubsgt	s15, s15, s14
 107              	.LVL5:
  61:/home/jonas/warwick/3dProfilometer/xpcc/src/xpcc/math/geometry/angle.cpp **** 	}
  62:/home/jonas/warwick/3dProfilometer/xpcc/src/xpcc/math/geometry/angle.cpp **** 	else {
  63:/home/jonas/warwick/3dProfilometer/xpcc/src/xpcc/math/geometry/angle.cpp **** 		angle += M_PI;
 108              		.loc 1 63 0
 109 0016 77EE877A 		faddsle	s15, s15, s14
 110              	.LVL6:
  64:/home/jonas/warwick/3dProfilometer/xpcc/src/xpcc/math/geometry/angle.cpp **** 	}
  65:/home/jonas/warwick/3dProfilometer/xpcc/src/xpcc/math/geometry/angle.cpp **** 	
  66:/home/jonas/warwick/3dProfilometer/xpcc/src/xpcc/math/geometry/angle.cpp **** 	return angle;
  67:/home/jonas/warwick/3dProfilometer/xpcc/src/xpcc/math/geometry/angle.cpp **** }
 111              		.loc 1 67 0
 112 001a 17EE900A 		fmrs	r0, s15
 113 001e 7047     		bx	lr
 114              	.L23:
 115              		.align	2
 116              	.L22:
 117 0020 DB0F4940 		.word	1078530011
 118              		.cfi_endproc
 119              	.LFE123:
 121              		.section	.text._ZN4xpcc5Angle13perpendicularEfb,"ax",%progbits
 122              		.align	2
 123              		.global	_ZN4xpcc5Angle13perpendicularEfb
 124              		.thumb
 125              		.thumb_func
 127              	_ZN4xpcc5Angle13perpendicularEfb:
 128              	.LFB124:
  68:/home/jonas/warwick/3dProfilometer/xpcc/src/xpcc/math/geometry/angle.cpp **** 
  69:/home/jonas/warwick/3dProfilometer/xpcc/src/xpcc/math/geometry/angle.cpp **** // ----------------------------------------------------------------------------
  70:/home/jonas/warwick/3dProfilometer/xpcc/src/xpcc/math/geometry/angle.cpp **** float
  71:/home/jonas/warwick/3dProfilometer/xpcc/src/xpcc/math/geometry/angle.cpp **** xpcc::Angle::perpendicular(float angle, const bool cw)
  72:/home/jonas/warwick/3dProfilometer/xpcc/src/xpcc/math/geometry/angle.cpp **** {
 129              		.loc 1 72 0
 130              		.cfi_startproc
 131              		@ args = 0, pretend = 0, frame = 0
 132              		@ frame_needed = 0, uses_anonymous_args = 0
 133              		@ link register save eliminated.
 134              	.LVL7:
 135              		.loc 1 72 0
 136 0000 07EE900A 		fmsr	s15, r0
  73:/home/jonas/warwick/3dProfilometer/xpcc/src/xpcc/math/geometry/angle.cpp **** 	if (cw)
  74:/home/jonas/warwick/3dProfilometer/xpcc/src/xpcc/math/geometry/angle.cpp **** 	{
  75:/home/jonas/warwick/3dProfilometer/xpcc/src/xpcc/math/geometry/angle.cpp **** 		angle = xpcc::Angle::normalize(angle - M_PI_2);
 137              		.loc 1 75 0
 138 0004 9FED2B7A 		flds	s14, .L47
  73:/home/jonas/warwick/3dProfilometer/xpcc/src/xpcc/math/geometry/angle.cpp **** 	if (cw)
 139              		.loc 1 73 0
 140 0008 49B3     		cbz	r1, .L25
 141              		.loc 1 75 0
 142 000a 77EEC77A 		fsubs	s15, s15, s14
 143              	.LVL8:
 144              	.LBB10:
 145              	.LBB11:
  39:/home/jonas/warwick/3dProfilometer/xpcc/src/xpcc/math/geometry/angle.cpp **** 	if (isPositive(angle))
 146              		.loc 1 39 0
 147 000e F5EEC07A 		fcmpezs	s15
 148 0012 F1EE10FA 		fmstat
 149 0016 18DD     		ble	.L45
  41:/home/jonas/warwick/3dProfilometer/xpcc/src/xpcc/math/geometry/angle.cpp **** 		while (angle > M_PI) {
 150              		.loc 1 41 0
 151 0018 9FED277A 		flds	s14, .L47+4
 152 001c F4EEC77A 		fcmpes	s15, s14
 153 0020 F1EE10FA 		fmstat
 154 0024 0ADD     		ble	.L28
 155              	.L37:
  42:/home/jonas/warwick/3dProfilometer/xpcc/src/xpcc/math/geometry/angle.cpp **** 			angle -= 2 * M_PI;
 156              		.loc 1 42 0
 157 0026 9FED257A 		flds	s14, .L47+8
 158 002a 77EEC77A 		fsubs	s15, s15, s14
 159              	.LVL9:
  41:/home/jonas/warwick/3dProfilometer/xpcc/src/xpcc/math/geometry/angle.cpp **** 		while (angle > M_PI) {
 160              		.loc 1 41 0
 161 002e 9FED227A 		flds	s14, .L47+4
 162 0032 F4EEC77A 		fcmpes	s15, s14
 163 0036 F1EE10FA 		fmstat
 164 003a F4DC     		bgt	.L37
 165              	.LVL10:
 166              	.L28:
 167              	.LBE11:
 168              	.LBE10:
  76:/home/jonas/warwick/3dProfilometer/xpcc/src/xpcc/math/geometry/angle.cpp **** 	}
  77:/home/jonas/warwick/3dProfilometer/xpcc/src/xpcc/math/geometry/angle.cpp **** 	else {
  78:/home/jonas/warwick/3dProfilometer/xpcc/src/xpcc/math/geometry/angle.cpp **** 		angle = xpcc::Angle::normalize(angle + M_PI_2);
  79:/home/jonas/warwick/3dProfilometer/xpcc/src/xpcc/math/geometry/angle.cpp **** 	}
  80:/home/jonas/warwick/3dProfilometer/xpcc/src/xpcc/math/geometry/angle.cpp **** 
  81:/home/jonas/warwick/3dProfilometer/xpcc/src/xpcc/math/geometry/angle.cpp **** 	return angle;
  82:/home/jonas/warwick/3dProfilometer/xpcc/src/xpcc/math/geometry/angle.cpp **** }
 169              		.loc 1 82 0
 170 003c 17EE900A 		fmrs	r0, s15
 171 0040 7047     		bx	lr
 172              	.LVL11:
 173              	.L38:
 174              	.LBB13:
 175              	.LBB12:
  47:/home/jonas/warwick/3dProfilometer/xpcc/src/xpcc/math/geometry/angle.cpp **** 			angle += 2 * M_PI;
 176              		.loc 1 47 0
 177 0042 9FED1E7A 		flds	s14, .L47+8
 178 0046 77EE877A 		fadds	s15, s15, s14
 179              	.LVL12:
 180              	.L45:
  46:/home/jonas/warwick/3dProfilometer/xpcc/src/xpcc/math/geometry/angle.cpp **** 		while (angle < -M_PI) {
 181              		.loc 1 46 0
 182 004a 9FED1D7A 		flds	s14, .L47+12
 183 004e F4EEC77A 		fcmpes	s15, s14
 184 0052 F1EE10FA 		fmstat
 185 0056 F4D4     		bmi	.L38
 186              	.LVL13:
 187              	.LBE12:
 188              	.LBE13:
 189              		.loc 1 82 0
 190 0058 17EE900A 		fmrs	r0, s15
 191 005c 7047     		bx	lr
 192              	.LVL14:
 193              	.L25:
  78:/home/jonas/warwick/3dProfilometer/xpcc/src/xpcc/math/geometry/angle.cpp **** 		angle = xpcc::Angle::normalize(angle + M_PI_2);
 194              		.loc 1 78 0
 195 005e 77EE877A 		fadds	s15, s15, s14
 196              	.LVL15:
 197              	.LBB14:
 198              	.LBB15:
  39:/home/jonas/warwick/3dProfilometer/xpcc/src/xpcc/math/geometry/angle.cpp **** 	if (isPositive(angle))
 199              		.loc 1 39 0
 200 0062 F5EEC07A 		fcmpezs	s15
 201 0066 F1EE10FA 		fmstat
 202 006a 18DD     		ble	.L46
  41:/home/jonas/warwick/3dProfilometer/xpcc/src/xpcc/math/geometry/angle.cpp **** 		while (angle > M_PI) {
 203              		.loc 1 41 0
 204 006c 9FED127A 		flds	s14, .L47+4
 205 0070 F4EEC77A 		fcmpes	s15, s14
 206 0074 F1EE10FA 		fmstat
 207 0078 E0DD     		ble	.L28
 208              	.L39:
  42:/home/jonas/warwick/3dProfilometer/xpcc/src/xpcc/math/geometry/angle.cpp **** 			angle -= 2 * M_PI;
 209              		.loc 1 42 0
 210 007a 9FED107A 		flds	s14, .L47+8
 211 007e 77EEC77A 		fsubs	s15, s15, s14
 212              	.LVL16:
  41:/home/jonas/warwick/3dProfilometer/xpcc/src/xpcc/math/geometry/angle.cpp **** 		while (angle > M_PI) {
 213              		.loc 1 41 0
 214 0082 9FED0D7A 		flds	s14, .L47+4
 215 0086 F4EEC77A 		fcmpes	s15, s14
 216 008a F1EE10FA 		fmstat
 217 008e F4DC     		bgt	.L39
 218              	.LVL17:
 219              	.LBE15:
 220              	.LBE14:
 221              		.loc 1 82 0
 222 0090 17EE900A 		fmrs	r0, s15
 223 0094 7047     		bx	lr
 224              	.LVL18:
 225              	.L40:
 226              	.LBB17:
 227              	.LBB16:
  47:/home/jonas/warwick/3dProfilometer/xpcc/src/xpcc/math/geometry/angle.cpp **** 			angle += 2 * M_PI;
 228              		.loc 1 47 0
 229 0096 9FED097A 		flds	s14, .L47+8
 230 009a 77EE877A 		fadds	s15, s15, s14
 231              	.LVL19:
 232              	.L46:
  46:/home/jonas/warwick/3dProfilometer/xpcc/src/xpcc/math/geometry/angle.cpp **** 		while (angle < -M_PI) {
 233              		.loc 1 46 0
 234 009e 9FED087A 		flds	s14, .L47+12
 235 00a2 F4EEC77A 		fcmpes	s15, s14
 236 00a6 F1EE10FA 		fmstat
 237 00aa F4D4     		bmi	.L40
 238              	.LVL20:
 239              	.LBE16:
 240              	.LBE17:
 241              		.loc 1 82 0
 242 00ac 17EE900A 		fmrs	r0, s15
 243 00b0 7047     		bx	lr
 244              	.L48:
 245 00b2 00BF     		.align	2
 246              	.L47:
 247 00b4 DB0FC93F 		.word	1070141403
 248 00b8 DB0F4940 		.word	1078530011
 249 00bc DB0FC940 		.word	1086918619
 250 00c0 DB0F49C0 		.word	-1068953637
 251              		.cfi_endproc
 252              	.LFE124:
 254              		.text
 255              	.Letext0:
 256              		.file 2 "/home/jonas/warwick/3dProfilometer/xpcc/src/xpcc/math/geometry/angle.hpp"
 257              		.file 3 "<built-in>"
 258              		.file 4 "/opt/arm-2012.09/bin/../lib/gcc/arm-none-eabi/4.7.2/../../../../arm-none-eabi/include/c++
 259              		.file 5 "/home/jonas/warwick/3dProfilometer/xpcc/src/xpcc/math/utils/misc.hpp"