   1              		.syntax unified
   2              		.cpu cortex-m4
   3              		.eabi_attribute 27, 3
   4              		.fpu fpv4-sp-d16
   5              		.eabi_attribute 20, 1
   6              		.eabi_attribute 21, 1
   7              		.eabi_attribute 23, 3
   8              		.eabi_attribute 24, 1
   9              		.eabi_attribute 25, 1
  10              		.eabi_attribute 26, 1
  11              		.eabi_attribute 30, 2
  12              		.eabi_attribute 34, 1
  13              		.eabi_attribute 18, 4
  14              		.thumb
  15              		.file	"vector2.cpp"
  16              		.text
  17              	.Ltext0:
  18              		.cfi_sections	.debug_frame
  19              		.section	.text._ZNK4xpcc6VectorIsLh2EE9getLengthEv,"ax",%progbits
  20              		.align	2
  21              		.global	_ZNK4xpcc6VectorIsLh2EE9getLengthEv
  22              		.thumb
  23              		.thumb_func
  25              	_ZNK4xpcc6VectorIsLh2EE9getLengthEv:
  26              	.LFB908:
  27              		.file 1 "/home/jonas/warwick/3dProfilometer/xpcc/src/xpcc/math/geometry/vector2.cpp"
   1:/home/jonas/warwick/3dProfilometer/xpcc/src/xpcc/math/geometry/vector2.cpp **** // coding: utf-8
   2:/home/jonas/warwick/3dProfilometer/xpcc/src/xpcc/math/geometry/vector2.cpp **** // ----------------------------------------------------------------------------
   3:/home/jonas/warwick/3dProfilometer/xpcc/src/xpcc/math/geometry/vector2.cpp **** /* Copyright (c) 2009, Roboterclub Aachen e.V.
   4:/home/jonas/warwick/3dProfilometer/xpcc/src/xpcc/math/geometry/vector2.cpp ****  * All rights reserved.
   5:/home/jonas/warwick/3dProfilometer/xpcc/src/xpcc/math/geometry/vector2.cpp ****  *
   6:/home/jonas/warwick/3dProfilometer/xpcc/src/xpcc/math/geometry/vector2.cpp ****  * Redistribution and use in source and binary forms, with or without
   7:/home/jonas/warwick/3dProfilometer/xpcc/src/xpcc/math/geometry/vector2.cpp ****  * modification, are permitted provided that the following conditions are met:
   8:/home/jonas/warwick/3dProfilometer/xpcc/src/xpcc/math/geometry/vector2.cpp ****  *
   9:/home/jonas/warwick/3dProfilometer/xpcc/src/xpcc/math/geometry/vector2.cpp ****  *     * Redistributions of source code must retain the above copyright
  10:/home/jonas/warwick/3dProfilometer/xpcc/src/xpcc/math/geometry/vector2.cpp ****  *       notice, this list of conditions and the following disclaimer.
  11:/home/jonas/warwick/3dProfilometer/xpcc/src/xpcc/math/geometry/vector2.cpp ****  *     * Redistributions in binary form must reproduce the above copyright
  12:/home/jonas/warwick/3dProfilometer/xpcc/src/xpcc/math/geometry/vector2.cpp ****  *       notice, this list of conditions and the following disclaimer in the
  13:/home/jonas/warwick/3dProfilometer/xpcc/src/xpcc/math/geometry/vector2.cpp ****  *       documentation and/or other materials provided with the distribution.
  14:/home/jonas/warwick/3dProfilometer/xpcc/src/xpcc/math/geometry/vector2.cpp ****  *     * Neither the name of the Roboterclub Aachen e.V. nor the
  15:/home/jonas/warwick/3dProfilometer/xpcc/src/xpcc/math/geometry/vector2.cpp ****  *       names of its contributors may be used to endorse or promote products
  16:/home/jonas/warwick/3dProfilometer/xpcc/src/xpcc/math/geometry/vector2.cpp ****  *       derived from this software without specific prior written permission.
  17:/home/jonas/warwick/3dProfilometer/xpcc/src/xpcc/math/geometry/vector2.cpp ****  *
  18:/home/jonas/warwick/3dProfilometer/xpcc/src/xpcc/math/geometry/vector2.cpp ****  * THIS SOFTWARE IS PROVIDED BY ROBOTERCLUB AACHEN E.V. ''AS IS'' AND ANY
  19:/home/jonas/warwick/3dProfilometer/xpcc/src/xpcc/math/geometry/vector2.cpp ****  * EXPRESS OR IMPLIED WARRANTIES, INCLUDING, BUT NOT LIMITED TO, THE IMPLIED
  20:/home/jonas/warwick/3dProfilometer/xpcc/src/xpcc/math/geometry/vector2.cpp ****  * WARRANTIES OF MERCHANTABILITY AND FITNESS FOR A PARTICULAR PURPOSE ARE
  21:/home/jonas/warwick/3dProfilometer/xpcc/src/xpcc/math/geometry/vector2.cpp ****  * DISCLAIMED. IN NO EVENT SHALL ROBOTERCLUB AACHEN E.V. BE LIABLE FOR ANY
  22:/home/jonas/warwick/3dProfilometer/xpcc/src/xpcc/math/geometry/vector2.cpp ****  * DIRECT, INDIRECT, INCIDENTAL, SPECIAL, EXEMPLARY, OR CONSEQUENTIAL DAMAGES
  23:/home/jonas/warwick/3dProfilometer/xpcc/src/xpcc/math/geometry/vector2.cpp ****  * (INCLUDING, BUT NOT LIMITED TO, PROCUREMENT OF SUBSTITUTE GOODS OR SERVICES;
  24:/home/jonas/warwick/3dProfilometer/xpcc/src/xpcc/math/geometry/vector2.cpp ****  * LOSS OF USE, DATA, OR PROFITS; OR BUSINESS INTERRUPTION) HOWEVER CAUSED AND
  25:/home/jonas/warwick/3dProfilometer/xpcc/src/xpcc/math/geometry/vector2.cpp ****  * ON ANY THEORY OF LIABILITY, WHETHER IN CONTRACT, STRICT LIABILITY, OR TORT
  26:/home/jonas/warwick/3dProfilometer/xpcc/src/xpcc/math/geometry/vector2.cpp ****  * (INCLUDING NEGLIGENCE OR OTHERWISE) ARISING IN ANY WAY OUT OF THE USE OF
  27:/home/jonas/warwick/3dProfilometer/xpcc/src/xpcc/math/geometry/vector2.cpp ****  * THIS SOFTWARE, EVEN IF ADVISED OF THE POSSIBILITY OF SUCH DAMAGE.
  28:/home/jonas/warwick/3dProfilometer/xpcc/src/xpcc/math/geometry/vector2.cpp ****  */
  29:/home/jonas/warwick/3dProfilometer/xpcc/src/xpcc/math/geometry/vector2.cpp **** // ----------------------------------------------------------------------------
  30:/home/jonas/warwick/3dProfilometer/xpcc/src/xpcc/math/geometry/vector2.cpp **** 
  31:/home/jonas/warwick/3dProfilometer/xpcc/src/xpcc/math/geometry/vector2.cpp **** #include <xpcc/math/utils/operator.hpp>
  32:/home/jonas/warwick/3dProfilometer/xpcc/src/xpcc/math/geometry/vector2.cpp **** 
  33:/home/jonas/warwick/3dProfilometer/xpcc/src/xpcc/math/geometry/vector2.cpp **** #include "vector2.hpp"
  34:/home/jonas/warwick/3dProfilometer/xpcc/src/xpcc/math/geometry/vector2.cpp **** 
  35:/home/jonas/warwick/3dProfilometer/xpcc/src/xpcc/math/geometry/vector2.cpp **** // this explicit namespace is needed here, otherwise we get an error about 
  36:/home/jonas/warwick/3dProfilometer/xpcc/src/xpcc/math/geometry/vector2.cpp **** // "specialization of ... in different namespace"
  37:/home/jonas/warwick/3dProfilometer/xpcc/src/xpcc/math/geometry/vector2.cpp **** namespace xpcc
  38:/home/jonas/warwick/3dProfilometer/xpcc/src/xpcc/math/geometry/vector2.cpp **** {
  39:/home/jonas/warwick/3dProfilometer/xpcc/src/xpcc/math/geometry/vector2.cpp **** 	template<>
  40:/home/jonas/warwick/3dProfilometer/xpcc/src/xpcc/math/geometry/vector2.cpp **** 	int16_t
  41:/home/jonas/warwick/3dProfilometer/xpcc/src/xpcc/math/geometry/vector2.cpp **** 	Vector<int16_t, 2>::getLength() const
  42:/home/jonas/warwick/3dProfilometer/xpcc/src/xpcc/math/geometry/vector2.cpp **** 	{
  28              		.loc 1 42 0
  29              		.cfi_startproc
  30              		@ args = 0, pretend = 0, frame = 0
  31              		@ frame_needed = 0, uses_anonymous_args = 0
  32              	.LVL0:
  33 0000 08B5     		push	{r3, lr}
  34              	.LCFI0:
  35              		.cfi_def_cfa_offset 8
  36              		.cfi_offset 3, -8
  37              		.cfi_offset 14, -4
  38              	.LBB28:
  43:/home/jonas/warwick/3dProfilometer/xpcc/src/xpcc/math/geometry/vector2.cpp **** 		int32_t t;
  44:/home/jonas/warwick/3dProfilometer/xpcc/src/xpcc/math/geometry/vector2.cpp **** 		
  45:/home/jonas/warwick/3dProfilometer/xpcc/src/xpcc/math/geometry/vector2.cpp **** 		t = math::mul(this->x, this->x);
  46:/home/jonas/warwick/3dProfilometer/xpcc/src/xpcc/math/geometry/vector2.cpp **** 		t = math::mac(t, this-> y, this->y);
  39              		.loc 1 46 0
  40 0002 4388     		ldrh	r3, [r0, #2]
  45:/home/jonas/warwick/3dProfilometer/xpcc/src/xpcc/math/geometry/vector2.cpp **** 		t = math::mul(this->x, this->x);
  41              		.loc 1 45 0
  42 0004 0088     		ldrh	r0, [r0, #0]
  43              	.LVL1:
  44              	.LBB29:
  45              	.LBB30:
  46              		.file 2 "/home/jonas/warwick/3dProfilometer/xpcc/src/xpcc/math/utils/operator_impl.hpp"
   1:/home/jonas/warwick/3dProfilometer/xpcc/src/xpcc/math/utils/operator_impl.hpp **** // coding: utf-8
   2:/home/jonas/warwick/3dProfilometer/xpcc/src/xpcc/math/utils/operator_impl.hpp **** // ----------------------------------------------------------------------------
   3:/home/jonas/warwick/3dProfilometer/xpcc/src/xpcc/math/utils/operator_impl.hpp **** /* Copyright (c) 2009, Roboterclub Aachen e.V.
   4:/home/jonas/warwick/3dProfilometer/xpcc/src/xpcc/math/utils/operator_impl.hpp ****  * All rights reserved.
   5:/home/jonas/warwick/3dProfilometer/xpcc/src/xpcc/math/utils/operator_impl.hpp ****  *
   6:/home/jonas/warwick/3dProfilometer/xpcc/src/xpcc/math/utils/operator_impl.hpp ****  * Redistribution and use in source and binary forms, with or without
   7:/home/jonas/warwick/3dProfilometer/xpcc/src/xpcc/math/utils/operator_impl.hpp ****  * modification, are permitted provided that the following conditions are met:
   8:/home/jonas/warwick/3dProfilometer/xpcc/src/xpcc/math/utils/operator_impl.hpp ****  *
   9:/home/jonas/warwick/3dProfilometer/xpcc/src/xpcc/math/utils/operator_impl.hpp ****  *     * Redistributions of source code must retain the above copyright
  10:/home/jonas/warwick/3dProfilometer/xpcc/src/xpcc/math/utils/operator_impl.hpp ****  *       notice, this list of conditions and the following disclaimer.
  11:/home/jonas/warwick/3dProfilometer/xpcc/src/xpcc/math/utils/operator_impl.hpp ****  *     * Redistributions in binary form must reproduce the above copyright
  12:/home/jonas/warwick/3dProfilometer/xpcc/src/xpcc/math/utils/operator_impl.hpp ****  *       notice, this list of conditions and the following disclaimer in the
  13:/home/jonas/warwick/3dProfilometer/xpcc/src/xpcc/math/utils/operator_impl.hpp ****  *       documentation and/or other materials provided with the distribution.
  14:/home/jonas/warwick/3dProfilometer/xpcc/src/xpcc/math/utils/operator_impl.hpp ****  *     * Neither the name of the Roboterclub Aachen e.V. nor the
  15:/home/jonas/warwick/3dProfilometer/xpcc/src/xpcc/math/utils/operator_impl.hpp ****  *       names of its contributors may be used to endorse or promote products
  16:/home/jonas/warwick/3dProfilometer/xpcc/src/xpcc/math/utils/operator_impl.hpp ****  *       derived from this software without specific prior written permission.
  17:/home/jonas/warwick/3dProfilometer/xpcc/src/xpcc/math/utils/operator_impl.hpp ****  *
  18:/home/jonas/warwick/3dProfilometer/xpcc/src/xpcc/math/utils/operator_impl.hpp ****  * THIS SOFTWARE IS PROVIDED BY ROBOTERCLUB AACHEN E.V. ''AS IS'' AND ANY
  19:/home/jonas/warwick/3dProfilometer/xpcc/src/xpcc/math/utils/operator_impl.hpp ****  * EXPRESS OR IMPLIED WARRANTIES, INCLUDING, BUT NOT LIMITED TO, THE IMPLIED
  20:/home/jonas/warwick/3dProfilometer/xpcc/src/xpcc/math/utils/operator_impl.hpp ****  * WARRANTIES OF MERCHANTABILITY AND FITNESS FOR A PARTICULAR PURPOSE ARE
  21:/home/jonas/warwick/3dProfilometer/xpcc/src/xpcc/math/utils/operator_impl.hpp ****  * DISCLAIMED. IN NO EVENT SHALL ROBOTERCLUB AACHEN E.V. BE LIABLE FOR ANY
  22:/home/jonas/warwick/3dProfilometer/xpcc/src/xpcc/math/utils/operator_impl.hpp ****  * DIRECT, INDIRECT, INCIDENTAL, SPECIAL, EXEMPLARY, OR CONSEQUENTIAL DAMAGES
  23:/home/jonas/warwick/3dProfilometer/xpcc/src/xpcc/math/utils/operator_impl.hpp ****  * (INCLUDING, BUT NOT LIMITED TO, PROCUREMENT OF SUBSTITUTE GOODS OR SERVICES;
  24:/home/jonas/warwick/3dProfilometer/xpcc/src/xpcc/math/utils/operator_impl.hpp ****  * LOSS OF USE, DATA, OR PROFITS; OR BUSINESS INTERRUPTION) HOWEVER CAUSED AND
  25:/home/jonas/warwick/3dProfilometer/xpcc/src/xpcc/math/utils/operator_impl.hpp ****  * ON ANY THEORY OF LIABILITY, WHETHER IN CONTRACT, STRICT LIABILITY, OR TORT
  26:/home/jonas/warwick/3dProfilometer/xpcc/src/xpcc/math/utils/operator_impl.hpp ****  * (INCLUDING NEGLIGENCE OR OTHERWISE) ARISING IN ANY WAY OUT OF THE USE OF
  27:/home/jonas/warwick/3dProfilometer/xpcc/src/xpcc/math/utils/operator_impl.hpp ****  * THIS SOFTWARE, EVEN IF ADVISED OF THE POSSIBILITY OF SUCH DAMAGE.
  28:/home/jonas/warwick/3dProfilometer/xpcc/src/xpcc/math/utils/operator_impl.hpp ****  */
  29:/home/jonas/warwick/3dProfilometer/xpcc/src/xpcc/math/utils/operator_impl.hpp **** // ----------------------------------------------------------------------------
  30:/home/jonas/warwick/3dProfilometer/xpcc/src/xpcc/math/utils/operator_impl.hpp **** 
  31:/home/jonas/warwick/3dProfilometer/xpcc/src/xpcc/math/utils/operator_impl.hpp **** #ifndef	XPCC_MATH__OPERATOR_HPP
  32:/home/jonas/warwick/3dProfilometer/xpcc/src/xpcc/math/utils/operator_impl.hpp **** 	#error	"Don't include this file directly, use 'operator.hpp' instead!"
  33:/home/jonas/warwick/3dProfilometer/xpcc/src/xpcc/math/utils/operator_impl.hpp **** #endif
  34:/home/jonas/warwick/3dProfilometer/xpcc/src/xpcc/math/utils/operator_impl.hpp **** 
  35:/home/jonas/warwick/3dProfilometer/xpcc/src/xpcc/math/utils/operator_impl.hpp **** inline uint32_t
  36:/home/jonas/warwick/3dProfilometer/xpcc/src/xpcc/math/utils/operator_impl.hpp **** xpcc::math::mul(uint16_t a, uint16_t b)
  37:/home/jonas/warwick/3dProfilometer/xpcc/src/xpcc/math/utils/operator_impl.hpp **** {
  38:/home/jonas/warwick/3dProfilometer/xpcc/src/xpcc/math/utils/operator_impl.hpp **** 	return static_cast<uint32_t>(a) * static_cast<uint32_t>(b);
  39:/home/jonas/warwick/3dProfilometer/xpcc/src/xpcc/math/utils/operator_impl.hpp **** }
  40:/home/jonas/warwick/3dProfilometer/xpcc/src/xpcc/math/utils/operator_impl.hpp **** 
  41:/home/jonas/warwick/3dProfilometer/xpcc/src/xpcc/math/utils/operator_impl.hpp **** inline int32_t
  42:/home/jonas/warwick/3dProfilometer/xpcc/src/xpcc/math/utils/operator_impl.hpp **** xpcc::math::mul(int16_t a, int16_t b)
  43:/home/jonas/warwick/3dProfilometer/xpcc/src/xpcc/math/utils/operator_impl.hpp **** {
  44:/home/jonas/warwick/3dProfilometer/xpcc/src/xpcc/math/utils/operator_impl.hpp **** 	return static_cast<int32_t>(a) * static_cast<int32_t>(b);
  45:/home/jonas/warwick/3dProfilometer/xpcc/src/xpcc/math/utils/operator_impl.hpp **** }
  46:/home/jonas/warwick/3dProfilometer/xpcc/src/xpcc/math/utils/operator_impl.hpp **** 
  47:/home/jonas/warwick/3dProfilometer/xpcc/src/xpcc/math/utils/operator_impl.hpp **** inline int32_t
  48:/home/jonas/warwick/3dProfilometer/xpcc/src/xpcc/math/utils/operator_impl.hpp **** xpcc::math::mac(int32_t result, int16_t a, int16_t b)
  49:/home/jonas/warwick/3dProfilometer/xpcc/src/xpcc/math/utils/operator_impl.hpp **** {
  50:/home/jonas/warwick/3dProfilometer/xpcc/src/xpcc/math/utils/operator_impl.hpp **** 	return result + static_cast<int32_t>(a) * static_cast<int32_t>(b);
  47              		.loc 2 50 0
  48 0006 13FB03F3 		smulbb	r3, r3, r3
  49              	.LVL2:
  50              	.LBE30:
  51              	.LBE29:
  52              	.LBB31:
  53              	.LBB32:
  54              		.file 3 "/home/jonas/warwick/3dProfilometer/xpcc/src/xpcc/math/utils/operator.hpp"
   1:/home/jonas/warwick/3dProfilometer/xpcc/src/xpcc/math/utils/operator.hpp **** // coding: utf-8
   2:/home/jonas/warwick/3dProfilometer/xpcc/src/xpcc/math/utils/operator.hpp **** // ----------------------------------------------------------------------------
   3:/home/jonas/warwick/3dProfilometer/xpcc/src/xpcc/math/utils/operator.hpp **** /* Copyright (c) 2009, Roboterclub Aachen e.V.
   4:/home/jonas/warwick/3dProfilometer/xpcc/src/xpcc/math/utils/operator.hpp ****  * All rights reserved.
   5:/home/jonas/warwick/3dProfilometer/xpcc/src/xpcc/math/utils/operator.hpp ****  *
   6:/home/jonas/warwick/3dProfilometer/xpcc/src/xpcc/math/utils/operator.hpp ****  * Redistribution and use in source and binary forms, with or without
   7:/home/jonas/warwick/3dProfilometer/xpcc/src/xpcc/math/utils/operator.hpp ****  * modification, are permitted provided that the following conditions are met:
   8:/home/jonas/warwick/3dProfilometer/xpcc/src/xpcc/math/utils/operator.hpp ****  *
   9:/home/jonas/warwick/3dProfilometer/xpcc/src/xpcc/math/utils/operator.hpp ****  *     * Redistributions of source code must retain the above copyright
  10:/home/jonas/warwick/3dProfilometer/xpcc/src/xpcc/math/utils/operator.hpp ****  *       notice, this list of conditions and the following disclaimer.
  11:/home/jonas/warwick/3dProfilometer/xpcc/src/xpcc/math/utils/operator.hpp ****  *     * Redistributions in binary form must reproduce the above copyright
  12:/home/jonas/warwick/3dProfilometer/xpcc/src/xpcc/math/utils/operator.hpp ****  *       notice, this list of conditions and the following disclaimer in the
  13:/home/jonas/warwick/3dProfilometer/xpcc/src/xpcc/math/utils/operator.hpp ****  *       documentation and/or other materials provided with the distribution.
  14:/home/jonas/warwick/3dProfilometer/xpcc/src/xpcc/math/utils/operator.hpp ****  *     * Neither the name of the Roboterclub Aachen e.V. nor the
  15:/home/jonas/warwick/3dProfilometer/xpcc/src/xpcc/math/utils/operator.hpp ****  *       names of its contributors may be used to endorse or promote products
  16:/home/jonas/warwick/3dProfilometer/xpcc/src/xpcc/math/utils/operator.hpp ****  *       derived from this software without specific prior written permission.
  17:/home/jonas/warwick/3dProfilometer/xpcc/src/xpcc/math/utils/operator.hpp ****  *
  18:/home/jonas/warwick/3dProfilometer/xpcc/src/xpcc/math/utils/operator.hpp ****  * THIS SOFTWARE IS PROVIDED BY ROBOTERCLUB AACHEN E.V. ''AS IS'' AND ANY
  19:/home/jonas/warwick/3dProfilometer/xpcc/src/xpcc/math/utils/operator.hpp ****  * EXPRESS OR IMPLIED WARRANTIES, INCLUDING, BUT NOT LIMITED TO, THE IMPLIED
  20:/home/jonas/warwick/3dProfilometer/xpcc/src/xpcc/math/utils/operator.hpp ****  * WARRANTIES OF MERCHANTABILITY AND FITNESS FOR A PARTICULAR PURPOSE ARE
  21:/home/jonas/warwick/3dProfilometer/xpcc/src/xpcc/math/utils/operator.hpp ****  * DISCLAIMED. IN NO EVENT SHALL ROBOTERCLUB AACHEN E.V. BE LIABLE FOR ANY
  22:/home/jonas/warwick/3dProfilometer/xpcc/src/xpcc/math/utils/operator.hpp ****  * DIRECT, INDIRECT, INCIDENTAL, SPECIAL, EXEMPLARY, OR CONSEQUENTIAL DAMAGES
  23:/home/jonas/warwick/3dProfilometer/xpcc/src/xpcc/math/utils/operator.hpp ****  * (INCLUDING, BUT NOT LIMITED TO, PROCUREMENT OF SUBSTITUTE GOODS OR SERVICES;
  24:/home/jonas/warwick/3dProfilometer/xpcc/src/xpcc/math/utils/operator.hpp ****  * LOSS OF USE, DATA, OR PROFITS; OR BUSINESS INTERRUPTION) HOWEVER CAUSED AND
  25:/home/jonas/warwick/3dProfilometer/xpcc/src/xpcc/math/utils/operator.hpp ****  * ON ANY THEORY OF LIABILITY, WHETHER IN CONTRACT, STRICT LIABILITY, OR TORT
  26:/home/jonas/warwick/3dProfilometer/xpcc/src/xpcc/math/utils/operator.hpp ****  * (INCLUDING NEGLIGENCE OR OTHERWISE) ARISING IN ANY WAY OUT OF THE USE OF
  27:/home/jonas/warwick/3dProfilometer/xpcc/src/xpcc/math/utils/operator.hpp ****  * THIS SOFTWARE, EVEN IF ADVISED OF THE POSSIBILITY OF SUCH DAMAGE.
  28:/home/jonas/warwick/3dProfilometer/xpcc/src/xpcc/math/utils/operator.hpp ****  */
  29:/home/jonas/warwick/3dProfilometer/xpcc/src/xpcc/math/utils/operator.hpp **** // ----------------------------------------------------------------------------
  30:/home/jonas/warwick/3dProfilometer/xpcc/src/xpcc/math/utils/operator.hpp **** 
  31:/home/jonas/warwick/3dProfilometer/xpcc/src/xpcc/math/utils/operator.hpp **** #ifndef	XPCC_MATH__OPERATOR_HPP
  32:/home/jonas/warwick/3dProfilometer/xpcc/src/xpcc/math/utils/operator.hpp **** #define	XPCC_MATH__OPERATOR_HPP
  33:/home/jonas/warwick/3dProfilometer/xpcc/src/xpcc/math/utils/operator.hpp **** 
  34:/home/jonas/warwick/3dProfilometer/xpcc/src/xpcc/math/utils/operator.hpp **** #include <cmath>
  35:/home/jonas/warwick/3dProfilometer/xpcc/src/xpcc/math/utils/operator.hpp **** #include <stdint.h>
  36:/home/jonas/warwick/3dProfilometer/xpcc/src/xpcc/math/utils/operator.hpp **** 
  37:/home/jonas/warwick/3dProfilometer/xpcc/src/xpcc/math/utils/operator.hpp **** #include <xpcc/architecture/utils.hpp>
  38:/home/jonas/warwick/3dProfilometer/xpcc/src/xpcc/math/utils/operator.hpp **** 
  39:/home/jonas/warwick/3dProfilometer/xpcc/src/xpcc/math/utils/operator.hpp **** extern "C" uint16_t xpcc__sqrt32(uint32_t a);
  40:/home/jonas/warwick/3dProfilometer/xpcc/src/xpcc/math/utils/operator.hpp **** 
  41:/home/jonas/warwick/3dProfilometer/xpcc/src/xpcc/math/utils/operator.hpp **** namespace xpcc
  42:/home/jonas/warwick/3dProfilometer/xpcc/src/xpcc/math/utils/operator.hpp **** {
  43:/home/jonas/warwick/3dProfilometer/xpcc/src/xpcc/math/utils/operator.hpp **** 	namespace math
  44:/home/jonas/warwick/3dProfilometer/xpcc/src/xpcc/math/utils/operator.hpp **** 	{
  45:/home/jonas/warwick/3dProfilometer/xpcc/src/xpcc/math/utils/operator.hpp **** 		/**
  46:/home/jonas/warwick/3dProfilometer/xpcc/src/xpcc/math/utils/operator.hpp **** 		 * \brief	Fast AVR integer square root assembly routines
  47:/home/jonas/warwick/3dProfilometer/xpcc/src/xpcc/math/utils/operator.hpp **** 		 * 
  48:/home/jonas/warwick/3dProfilometer/xpcc/src/xpcc/math/utils/operator.hpp **** 		 * Square root calculation based on a implementation by Ruud v Gessel.
  49:/home/jonas/warwick/3dProfilometer/xpcc/src/xpcc/math/utils/operator.hpp **** 		 * The maximum execution time is 310 clock cycles (inclusive CALL+RET)
  50:/home/jonas/warwick/3dProfilometer/xpcc/src/xpcc/math/utils/operator.hpp **** 		 * 
  51:/home/jonas/warwick/3dProfilometer/xpcc/src/xpcc/math/utils/operator.hpp **** 		 * \see		<a href="http://www.mikrocontroller.net/articles/AVR_Arithmetik#avr-gcc_Implementierung_
  52:/home/jonas/warwick/3dProfilometer/xpcc/src/xpcc/math/utils/operator.hpp **** 		 * 			Article on microcontroller.net</a>
  53:/home/jonas/warwick/3dProfilometer/xpcc/src/xpcc/math/utils/operator.hpp **** 		 * \see		<a href="http://members.chello.nl/j.beentjes3/Ruud/sqrt32avr.htm" target="_blank">
  54:/home/jonas/warwick/3dProfilometer/xpcc/src/xpcc/math/utils/operator.hpp **** 		 * 			Original implementation</a>
  55:/home/jonas/warwick/3dProfilometer/xpcc/src/xpcc/math/utils/operator.hpp **** 		 * 
  56:/home/jonas/warwick/3dProfilometer/xpcc/src/xpcc/math/utils/operator.hpp **** 		 * \ingroup	math
  57:/home/jonas/warwick/3dProfilometer/xpcc/src/xpcc/math/utils/operator.hpp **** 		 */
  58:/home/jonas/warwick/3dProfilometer/xpcc/src/xpcc/math/utils/operator.hpp **** 		inline uint16_t
  59:/home/jonas/warwick/3dProfilometer/xpcc/src/xpcc/math/utils/operator.hpp **** 		sqrt(uint32_t a)
  60:/home/jonas/warwick/3dProfilometer/xpcc/src/xpcc/math/utils/operator.hpp **** 		{
  61:/home/jonas/warwick/3dProfilometer/xpcc/src/xpcc/math/utils/operator.hpp **** 			return xpcc__sqrt32(a);
  55              		.loc 3 61 0
  56 000a 10FB0030 		smlabb	r0, r0, r0, r3
  57              	.LVL3:
  58 000e 024B     		ldr	r3, .L2
  59 0010 9847     		blx	r3
  60              	.LVL4:
  61              	.LBE32:
  62              	.LBE31:
  63              	.LBE28:
  47:/home/jonas/warwick/3dProfilometer/xpcc/src/xpcc/math/geometry/vector2.cpp **** 		
  48:/home/jonas/warwick/3dProfilometer/xpcc/src/xpcc/math/geometry/vector2.cpp **** 		return math::sqrt(t);
  49:/home/jonas/warwick/3dProfilometer/xpcc/src/xpcc/math/geometry/vector2.cpp **** 	}
  64              		.loc 1 49 0
  65 0012 00B2     		sxth	r0, r0
  66 0014 08BD     		pop	{r3, pc}
  67              	.L3:
  68 0016 00BF     		.align	2
  69              	.L2:
  70 0018 00000000 		.word	xpcc__sqrt32
  71              		.cfi_endproc
  72              	.LFE908:
  74              		.section	.text._ZNK4xpcc6VectorIsLh2EE16getLengthSquaredEv,"ax",%progbits
  75              		.align	2
  76              		.global	_ZNK4xpcc6VectorIsLh2EE16getLengthSquaredEv
  77              		.thumb
  78              		.thumb_func
  80              	_ZNK4xpcc6VectorIsLh2EE16getLengthSquaredEv:
  81              	.LFB909:
  50:/home/jonas/warwick/3dProfilometer/xpcc/src/xpcc/math/geometry/vector2.cpp **** 
  51:/home/jonas/warwick/3dProfilometer/xpcc/src/xpcc/math/geometry/vector2.cpp **** 	template<>
  52:/home/jonas/warwick/3dProfilometer/xpcc/src/xpcc/math/geometry/vector2.cpp **** 	int32_t
  53:/home/jonas/warwick/3dProfilometer/xpcc/src/xpcc/math/geometry/vector2.cpp **** 	Vector<int16_t, 2>::getLengthSquared() const
  54:/home/jonas/warwick/3dProfilometer/xpcc/src/xpcc/math/geometry/vector2.cpp **** 	{
  82              		.loc 1 54 0
  83              		.cfi_startproc
  84              		@ args = 0, pretend = 0, frame = 0
  85              		@ frame_needed = 0, uses_anonymous_args = 0
  86              		@ link register save eliminated.
  87              	.LVL5:
  88              	.LBB33:
  55:/home/jonas/warwick/3dProfilometer/xpcc/src/xpcc/math/geometry/vector2.cpp **** 		int32_t t;
  56:/home/jonas/warwick/3dProfilometer/xpcc/src/xpcc/math/geometry/vector2.cpp **** 		
  57:/home/jonas/warwick/3dProfilometer/xpcc/src/xpcc/math/geometry/vector2.cpp **** 		t = math::mul(this->x, this->x);
  58:/home/jonas/warwick/3dProfilometer/xpcc/src/xpcc/math/geometry/vector2.cpp **** 		t = math::mac(t,this-> y, this->y);
  89              		.loc 1 58 0
  90 0000 4388     		ldrh	r3, [r0, #2]
  57:/home/jonas/warwick/3dProfilometer/xpcc/src/xpcc/math/geometry/vector2.cpp **** 		t = math::mul(this->x, this->x);
  91              		.loc 1 57 0
  92 0002 0088     		ldrh	r0, [r0, #0]
  93              	.LVL6:
  94              	.LBB34:
  95              	.LBB35:
  96              		.loc 2 50 0
  97 0004 13FB03F3 		smulbb	r3, r3, r3
  98              	.LBE35:
  99              	.LBE34:
 100              	.LBE33:
  59:/home/jonas/warwick/3dProfilometer/xpcc/src/xpcc/math/geometry/vector2.cpp **** 		
  60:/home/jonas/warwick/3dProfilometer/xpcc/src/xpcc/math/geometry/vector2.cpp **** 		return t;
  61:/home/jonas/warwick/3dProfilometer/xpcc/src/xpcc/math/geometry/vector2.cpp **** 	}
 101              		.loc 1 61 0
 102 0008 10FB0030 		smlabb	r0, r0, r0, r3
 103              	.LVL7:
 104 000c 7047     		bx	lr
 105              		.cfi_endproc
 106              	.LFE909:
 108 000e 00BF     		.section	.text._ZNK4xpcc6VectorIsLh2EE3dotERKS1_,"ax",%progbits
 109              		.align	2
 110              		.global	_ZNK4xpcc6VectorIsLh2EE3dotERKS1_
 111              		.thumb
 112              		.thumb_func
 114              	_ZNK4xpcc6VectorIsLh2EE3dotERKS1_:
 115              	.LFB910:
  62:/home/jonas/warwick/3dProfilometer/xpcc/src/xpcc/math/geometry/vector2.cpp **** 	
  63:/home/jonas/warwick/3dProfilometer/xpcc/src/xpcc/math/geometry/vector2.cpp **** 	template<>
  64:/home/jonas/warwick/3dProfilometer/xpcc/src/xpcc/math/geometry/vector2.cpp **** 	int32_t
  65:/home/jonas/warwick/3dProfilometer/xpcc/src/xpcc/math/geometry/vector2.cpp **** 	Vector<int16_t, 2>::dot(const xpcc::Vector<int16_t, 2>& other) const
  66:/home/jonas/warwick/3dProfilometer/xpcc/src/xpcc/math/geometry/vector2.cpp **** 	{
 116              		.loc 1 66 0
 117              		.cfi_startproc
 118              		@ args = 0, pretend = 0, frame = 0
 119              		@ frame_needed = 0, uses_anonymous_args = 0
 120              		@ link register save eliminated.
 121              	.LVL8:
 122 0000 10B4     		push	{r4}
 123              	.LCFI1:
 124              		.cfi_def_cfa_offset 4
 125              		.cfi_offset 4, -4
 126              	.LBB36:
  67:/home/jonas/warwick/3dProfilometer/xpcc/src/xpcc/math/geometry/vector2.cpp **** 		int32_t t;
  68:/home/jonas/warwick/3dProfilometer/xpcc/src/xpcc/math/geometry/vector2.cpp **** 		
  69:/home/jonas/warwick/3dProfilometer/xpcc/src/xpcc/math/geometry/vector2.cpp **** 		t = math::mul(this->x, other.x);
  70:/home/jonas/warwick/3dProfilometer/xpcc/src/xpcc/math/geometry/vector2.cpp **** 		t = math::mac(t,this->y, other.y);
 127              		.loc 1 70 0
 128 0002 4B88     		ldrh	r3, [r1, #2]
 129 0004 4488     		ldrh	r4, [r0, #2]
  69:/home/jonas/warwick/3dProfilometer/xpcc/src/xpcc/math/geometry/vector2.cpp **** 		t = math::mul(this->x, other.x);
 130              		.loc 1 69 0
 131 0006 0A88     		ldrh	r2, [r1, #0]
 132 0008 0088     		ldrh	r0, [r0, #0]
 133              	.LVL9:
 134              	.LBB37:
 135              	.LBB38:
 136              		.loc 2 50 0
 137 000a 14FB03F3 		smulbb	r3, r4, r3
 138              	.LBE38:
 139              	.LBE37:
 140              	.LBE36:
  71:/home/jonas/warwick/3dProfilometer/xpcc/src/xpcc/math/geometry/vector2.cpp **** 		
  72:/home/jonas/warwick/3dProfilometer/xpcc/src/xpcc/math/geometry/vector2.cpp **** 		return t;
  73:/home/jonas/warwick/3dProfilometer/xpcc/src/xpcc/math/geometry/vector2.cpp **** 	}
 141              		.loc 1 73 0
 142 000e 10FB0230 		smlabb	r0, r0, r2, r3
 143              	.LVL10:
 144 0012 10BC     		pop	{r4}
 145 0014 7047     		bx	lr
 146              		.cfi_endproc
 147              	.LFE910:
 149              		.global	__aeabi_f2d
 150 0016 00BF     		.section	.text._ZNK4xpcc6VectorIfLh2EE7convertIdEENS0_IT_Lh2EEEv,"ax",%progbits
 151              		.align	2
 152              		.global	_ZNK4xpcc6VectorIfLh2EE7convertIdEENS0_IT_Lh2EEEv
 153              		.thumb
 154              		.thumb_func
 156              	_ZNK4xpcc6VectorIfLh2EE7convertIdEENS0_IT_Lh2EEEv:
 157              	.LFB911:
  74:/home/jonas/warwick/3dProfilometer/xpcc/src/xpcc/math/geometry/vector2.cpp **** 	
  75:/home/jonas/warwick/3dProfilometer/xpcc/src/xpcc/math/geometry/vector2.cpp **** 	// ------------------------------------------------------------------------
  76:/home/jonas/warwick/3dProfilometer/xpcc/src/xpcc/math/geometry/vector2.cpp **** 	template<>
  77:/home/jonas/warwick/3dProfilometer/xpcc/src/xpcc/math/geometry/vector2.cpp **** 	template<>
  78:/home/jonas/warwick/3dProfilometer/xpcc/src/xpcc/math/geometry/vector2.cpp **** 	Vector<double, 2>
  79:/home/jonas/warwick/3dProfilometer/xpcc/src/xpcc/math/geometry/vector2.cpp **** 	Vector<float, 2>::convert() const
  80:/home/jonas/warwick/3dProfilometer/xpcc/src/xpcc/math/geometry/vector2.cpp **** 	{
 158              		.loc 1 80 0
 159              		.cfi_startproc
 160              		@ args = 0, pretend = 0, frame = 0
 161              		@ frame_needed = 0, uses_anonymous_args = 0
 162              	.LVL11:
 163 0000 2DE9F041 		push	{r4, r5, r6, r7, r8, lr}
 164              	.LCFI2:
 165              		.cfi_def_cfa_offset 24
 166              		.cfi_offset 4, -24
 167              		.cfi_offset 5, -20
 168              		.cfi_offset 6, -16
 169              		.cfi_offset 7, -12
 170              		.cfi_offset 8, -8
 171              		.cfi_offset 14, -4
 172              		.loc 1 80 0
 173 0004 0646     		mov	r6, r0
  81:/home/jonas/warwick/3dProfilometer/xpcc/src/xpcc/math/geometry/vector2.cpp **** 		return Vector<double, 2>(this->x, this->y);
 174              		.loc 1 81 0
 175 0006 084F     		ldr	r7, .L7
 176 0008 4868     		ldr	r0, [r1, #4]	@ float
 177              	.LVL12:
  80:/home/jonas/warwick/3dProfilometer/xpcc/src/xpcc/math/geometry/vector2.cpp **** 	{
 178              		.loc 1 80 0
 179 000a 8846     		mov	r8, r1
 180              		.loc 1 81 0
 181 000c B847     		blx	r7
 182              	.LVL13:
 183 000e 0446     		mov	r4, r0
 184 0010 D8F80000 		ldr	r0, [r8, #0]	@ float
 185 0014 0D46     		mov	r5, r1
 186              	.LVL14:
 187 0016 B847     		blx	r7
 188              	.LVL15:
 189              	.LBB39:
 190              	.LBB40:
 191              		.file 4 "/home/jonas/warwick/3dProfilometer/xpcc/src/xpcc/math/geometry/vector2_impl.hpp"
   1:/home/jonas/warwick/3dProfilometer/xpcc/src/xpcc/math/geometry/vector2_impl.hpp **** // coding: utf-8
   2:/home/jonas/warwick/3dProfilometer/xpcc/src/xpcc/math/geometry/vector2_impl.hpp **** // ----------------------------------------------------------------------------
   3:/home/jonas/warwick/3dProfilometer/xpcc/src/xpcc/math/geometry/vector2_impl.hpp **** /* Copyright (c) 2011, Roboterclub Aachen e.V.
   4:/home/jonas/warwick/3dProfilometer/xpcc/src/xpcc/math/geometry/vector2_impl.hpp ****  * All rights reserved.
   5:/home/jonas/warwick/3dProfilometer/xpcc/src/xpcc/math/geometry/vector2_impl.hpp ****  *
   6:/home/jonas/warwick/3dProfilometer/xpcc/src/xpcc/math/geometry/vector2_impl.hpp ****  * Redistribution and use in source and binary forms, with or without
   7:/home/jonas/warwick/3dProfilometer/xpcc/src/xpcc/math/geometry/vector2_impl.hpp ****  * modification, are permitted provided that the following conditions are met:
   8:/home/jonas/warwick/3dProfilometer/xpcc/src/xpcc/math/geometry/vector2_impl.hpp ****  *
   9:/home/jonas/warwick/3dProfilometer/xpcc/src/xpcc/math/geometry/vector2_impl.hpp ****  *     * Redistributions of source code must retain the above copyright
  10:/home/jonas/warwick/3dProfilometer/xpcc/src/xpcc/math/geometry/vector2_impl.hpp ****  *       notice, this list of conditions and the following disclaimer.
  11:/home/jonas/warwick/3dProfilometer/xpcc/src/xpcc/math/geometry/vector2_impl.hpp ****  *     * Redistributions in binary form must reproduce the above copyright
  12:/home/jonas/warwick/3dProfilometer/xpcc/src/xpcc/math/geometry/vector2_impl.hpp ****  *       notice, this list of conditions and the following disclaimer in the
  13:/home/jonas/warwick/3dProfilometer/xpcc/src/xpcc/math/geometry/vector2_impl.hpp ****  *       documentation and/or other materials provided with the distribution.
  14:/home/jonas/warwick/3dProfilometer/xpcc/src/xpcc/math/geometry/vector2_impl.hpp ****  *     * Neither the name of the Roboterclub Aachen e.V. nor the
  15:/home/jonas/warwick/3dProfilometer/xpcc/src/xpcc/math/geometry/vector2_impl.hpp ****  *       names of its contributors may be used to endorse or promote products
  16:/home/jonas/warwick/3dProfilometer/xpcc/src/xpcc/math/geometry/vector2_impl.hpp ****  *       derived from this software without specific prior written permission.
  17:/home/jonas/warwick/3dProfilometer/xpcc/src/xpcc/math/geometry/vector2_impl.hpp ****  *
  18:/home/jonas/warwick/3dProfilometer/xpcc/src/xpcc/math/geometry/vector2_impl.hpp ****  * THIS SOFTWARE IS PROVIDED BY ROBOTERCLUB AACHEN E.V. ''AS IS'' AND ANY
  19:/home/jonas/warwick/3dProfilometer/xpcc/src/xpcc/math/geometry/vector2_impl.hpp ****  * EXPRESS OR IMPLIED WARRANTIES, INCLUDING, BUT NOT LIMITED TO, THE IMPLIED
  20:/home/jonas/warwick/3dProfilometer/xpcc/src/xpcc/math/geometry/vector2_impl.hpp ****  * WARRANTIES OF MERCHANTABILITY AND FITNESS FOR A PARTICULAR PURPOSE ARE
  21:/home/jonas/warwick/3dProfilometer/xpcc/src/xpcc/math/geometry/vector2_impl.hpp ****  * DISCLAIMED. IN NO EVENT SHALL ROBOTERCLUB AACHEN E.V. BE LIABLE FOR ANY
  22:/home/jonas/warwick/3dProfilometer/xpcc/src/xpcc/math/geometry/vector2_impl.hpp ****  * DIRECT, INDIRECT, INCIDENTAL, SPECIAL, EXEMPLARY, OR CONSEQUENTIAL DAMAGES
  23:/home/jonas/warwick/3dProfilometer/xpcc/src/xpcc/math/geometry/vector2_impl.hpp ****  * (INCLUDING, BUT NOT LIMITED TO, PROCUREMENT OF SUBSTITUTE GOODS OR SERVICES;
  24:/home/jonas/warwick/3dProfilometer/xpcc/src/xpcc/math/geometry/vector2_impl.hpp ****  * LOSS OF USE, DATA, OR PROFITS; OR BUSINESS INTERRUPTION) HOWEVER CAUSED AND
  25:/home/jonas/warwick/3dProfilometer/xpcc/src/xpcc/math/geometry/vector2_impl.hpp ****  * ON ANY THEORY OF LIABILITY, WHETHER IN CONTRACT, STRICT LIABILITY, OR TORT
  26:/home/jonas/warwick/3dProfilometer/xpcc/src/xpcc/math/geometry/vector2_impl.hpp ****  * (INCLUDING NEGLIGENCE OR OTHERWISE) ARISING IN ANY WAY OUT OF THE USE OF
  27:/home/jonas/warwick/3dProfilometer/xpcc/src/xpcc/math/geometry/vector2_impl.hpp ****  * THIS SOFTWARE, EVEN IF ADVISED OF THE POSSIBILITY OF SUCH DAMAGE.
  28:/home/jonas/warwick/3dProfilometer/xpcc/src/xpcc/math/geometry/vector2_impl.hpp ****  */
  29:/home/jonas/warwick/3dProfilometer/xpcc/src/xpcc/math/geometry/vector2_impl.hpp **** // ----------------------------------------------------------------------------
  30:/home/jonas/warwick/3dProfilometer/xpcc/src/xpcc/math/geometry/vector2_impl.hpp **** 
  31:/home/jonas/warwick/3dProfilometer/xpcc/src/xpcc/math/geometry/vector2_impl.hpp **** #ifndef XPCC__VECTOR2_HPP
  32:/home/jonas/warwick/3dProfilometer/xpcc/src/xpcc/math/geometry/vector2_impl.hpp **** 	#error	"Don't include this file directly, use 'vector2.hpp' instead!"
  33:/home/jonas/warwick/3dProfilometer/xpcc/src/xpcc/math/geometry/vector2_impl.hpp **** #endif
  34:/home/jonas/warwick/3dProfilometer/xpcc/src/xpcc/math/geometry/vector2_impl.hpp **** 
  35:/home/jonas/warwick/3dProfilometer/xpcc/src/xpcc/math/geometry/vector2_impl.hpp **** #include <cmath>
  36:/home/jonas/warwick/3dProfilometer/xpcc/src/xpcc/math/geometry/vector2_impl.hpp **** 
  37:/home/jonas/warwick/3dProfilometer/xpcc/src/xpcc/math/geometry/vector2_impl.hpp **** // ----------------------------------------------------------------------------
  38:/home/jonas/warwick/3dProfilometer/xpcc/src/xpcc/math/geometry/vector2_impl.hpp **** template<typename T>
  39:/home/jonas/warwick/3dProfilometer/xpcc/src/xpcc/math/geometry/vector2_impl.hpp **** xpcc::Vector<T, 2>::Vector() :
  40:/home/jonas/warwick/3dProfilometer/xpcc/src/xpcc/math/geometry/vector2_impl.hpp **** 	x(),
  41:/home/jonas/warwick/3dProfilometer/xpcc/src/xpcc/math/geometry/vector2_impl.hpp **** 	y()
  42:/home/jonas/warwick/3dProfilometer/xpcc/src/xpcc/math/geometry/vector2_impl.hpp **** {
  43:/home/jonas/warwick/3dProfilometer/xpcc/src/xpcc/math/geometry/vector2_impl.hpp **** }
  44:/home/jonas/warwick/3dProfilometer/xpcc/src/xpcc/math/geometry/vector2_impl.hpp **** 
  45:/home/jonas/warwick/3dProfilometer/xpcc/src/xpcc/math/geometry/vector2_impl.hpp **** // ----------------------------------------------------------------------------
  46:/home/jonas/warwick/3dProfilometer/xpcc/src/xpcc/math/geometry/vector2_impl.hpp **** template<typename T>
  47:/home/jonas/warwick/3dProfilometer/xpcc/src/xpcc/math/geometry/vector2_impl.hpp **** xpcc::Vector<T, 2>::Vector(const T& inX, const T& inY) :
  48:/home/jonas/warwick/3dProfilometer/xpcc/src/xpcc/math/geometry/vector2_impl.hpp **** 	x(inX),
  49:/home/jonas/warwick/3dProfilometer/xpcc/src/xpcc/math/geometry/vector2_impl.hpp **** 	y(inY)
 192              		.loc 4 49 0
 193 0018 C6E90245 		strd	r4, [r6, #8]
 194              	.LBE40:
 195              	.LBE39:
 196              		.loc 1 81 0
 197 001c C6E90001 		strd	r0, [r6]
  82:/home/jonas/warwick/3dProfilometer/xpcc/src/xpcc/math/geometry/vector2.cpp **** 	}
 198              		.loc 1 82 0
 199 0020 3046     		mov	r0, r6
 200 0022 BDE8F081 		pop	{r4, r5, r6, r7, r8, pc}
 201              	.L8:
 202 0026 00BF     		.align	2
 203              	.L7:
 204 0028 00000000 		.word	__aeabi_f2d
 205              		.cfi_endproc
 206              	.LFE911:
 208              		.global	__aeabi_d2f
 209              		.section	.text._ZNK4xpcc6VectorIdLh2EE7convertIfEENS0_IT_Lh2EEEv,"ax",%progbits
 210              		.align	2
 211              		.global	_ZNK4xpcc6VectorIdLh2EE7convertIfEENS0_IT_Lh2EEEv
 212              		.thumb
 213              		.thumb_func
 215              	_ZNK4xpcc6VectorIdLh2EE7convertIfEENS0_IT_Lh2EEEv:
 216              	.LFB912:
  83:/home/jonas/warwick/3dProfilometer/xpcc/src/xpcc/math/geometry/vector2.cpp **** 	
  84:/home/jonas/warwick/3dProfilometer/xpcc/src/xpcc/math/geometry/vector2.cpp **** 	template<>
  85:/home/jonas/warwick/3dProfilometer/xpcc/src/xpcc/math/geometry/vector2.cpp **** 	template<>
  86:/home/jonas/warwick/3dProfilometer/xpcc/src/xpcc/math/geometry/vector2.cpp **** 	Vector<float, 2>
  87:/home/jonas/warwick/3dProfilometer/xpcc/src/xpcc/math/geometry/vector2.cpp **** 	Vector<double, 2>::convert() const
  88:/home/jonas/warwick/3dProfilometer/xpcc/src/xpcc/math/geometry/vector2.cpp **** 	{
 217              		.loc 1 88 0
 218              		.cfi_startproc
 219              		@ args = 0, pretend = 0, frame = 0
 220              		@ frame_needed = 0, uses_anonymous_args = 0
 221              	.LVL16:
 222 0000 F8B5     		push	{r3, r4, r5, r6, r7, lr}
 223              	.LCFI3:
 224              		.cfi_def_cfa_offset 24
 225              		.cfi_offset 3, -24
 226              		.cfi_offset 4, -20
 227              		.cfi_offset 5, -16
 228              		.cfi_offset 6, -12
 229              		.cfi_offset 7, -8
 230              		.cfi_offset 14, -4
 231              		.loc 1 88 0
 232 0002 0446     		mov	r4, r0
 233 0004 0E46     		mov	r6, r1
  89:/home/jonas/warwick/3dProfilometer/xpcc/src/xpcc/math/geometry/vector2.cpp **** 		return Vector<float, 2>(this->x, this->y);
 234              		.loc 1 89 0
 235 0006 064D     		ldr	r5, .L10
 236 0008 D1E90201 		ldrd	r0, [r1, #8]
 237              	.LVL17:
 238 000c A847     		blx	r5
 239              	.LVL18:
 240 000e 0746     		mov	r7, r0	@ float
 241              	.LVL19:
 242 0010 D6E90001 		ldrd	r0, [r6]
 243 0014 A847     		blx	r5
 244              	.LVL20:
 245              	.LBB41:
 246              	.LBB42:
 247              		.loc 4 49 0
 248 0016 6760     		str	r7, [r4, #4]	@ float
 249              	.LBE42:
 250              	.LBE41:
 251              		.loc 1 89 0
 252 0018 2060     		str	r0, [r4, #0]	@ float
  90:/home/jonas/warwick/3dProfilometer/xpcc/src/xpcc/math/geometry/vector2.cpp **** 	}
 253              		.loc 1 90 0
 254 001a 2046     		mov	r0, r4
 255 001c F8BD     		pop	{r3, r4, r5, r6, r7, pc}
 256              	.L11:
 257 001e 00BF     		.align	2
 258              	.L10:
 259 0020 00000000 		.word	__aeabi_d2f
 260              		.cfi_endproc
 261              	.LFE912:
 263              		.text
 264              	.Letext0:
 265              		.file 5 "/opt/arm-2012.09/bin/../lib/gcc/arm-none-eabi/4.7.2/../../../../arm-none-eabi/include/c++
 266              		.file 6 "/opt/arm-2012.09/bin/../lib/gcc/arm-none-eabi/4.7.2/../../../../arm-none-eabi/include/std
 267              		.file 7 "/home/jonas/warwick/3dProfilometer/xpcc/src/xpcc/math/geometry/geometric_traits.hpp"
 268              		.file 8 "/home/jonas/warwick/3dProfilometer/xpcc/src/xpcc/math/geometry/vector2.hpp"
 269              		.file 9 "/home/jonas/warwick/3dProfilometer/xpcc/src/xpcc/io/iodevice.hpp"
 270              		.file 10 "/home/jonas/warwick/3dProfilometer/xpcc/src/xpcc/math/geometry/vector1.hpp"
 271              		.file 11 "/home/jonas/warwick/3dProfilometer/xpcc/src/xpcc/math/geometry/vector1_impl.hpp"
 272              		.file 12 "/home/jonas/warwick/3dProfilometer/xpcc/src/xpcc/math/matrix.hpp"
 273              		.file 13 "/home/jonas/warwick/3dProfilometer/xpcc/src/xpcc/math/matrix_impl.hpp"
 274              		.file 14 "/opt/arm-2012.09/bin/../lib/gcc/arm-none-eabi/4.7.2/include/stddef.h"
 275              		.file 15 "/opt/arm-2012.09/bin/../lib/gcc/arm-none-eabi/4.7.2/../../../../arm-none-eabi/include/st
 276              		.file 16 "<built-in>"
 277              		.file 17 "/opt/arm-2012.09/bin/../lib/gcc/arm-none-eabi/4.7.2/../../../../arm-none-eabi/include/c+
 278              		.file 18 "/home/jonas/warwick/3dProfilometer/xpcc/src/xpcc/utils/template_metaprogramming.hpp"