   1              		.syntax unified
   2              		.cpu cortex-m4
   3              		.eabi_attribute 27, 3
   4              		.fpu fpv4-sp-d16
   5              		.eabi_attribute 20, 1
   6              		.eabi_attribute 21, 1
   7              		.eabi_attribute 23, 3
   8              		.eabi_attribute 24, 1
   9              		.eabi_attribute 25, 1
  10              		.eabi_attribute 26, 1
  11              		.eabi_attribute 30, 2
  12              		.eabi_attribute 34, 1
  13              		.eabi_attribute 18, 4
  14              		.thumb
  15              		.file	"spi_3.cpp"
  16              		.text
  17              	.Ltext0:
  18              		.cfi_sections	.debug_frame
  19              		.section	.text._ZN4xpcc5stm3210SpiMaster313configurePinsENS1_7MappingE,"ax",%progbits
  20              		.align	2
  21              		.global	_ZN4xpcc5stm3210SpiMaster313configurePinsENS1_7MappingE
  22              		.thumb
  23              		.thumb_func
  25              	_ZN4xpcc5stm3210SpiMaster313configurePinsENS1_7MappingE:
  26              	.LFB176:
  27              		.file 1 "/home/jonas/warwick/3dProfilometer/xpcc/src/xpcc/architecture/platform/cortex_m3/stm32/sp
   1:/home/jonas/warwick/3dProfilometer/xpcc/src/xpcc/architecture/platform/cortex_m3/stm32/spi/spi_3.cpp **** // coding: utf-8
   2:/home/jonas/warwick/3dProfilometer/xpcc/src/xpcc/architecture/platform/cortex_m3/stm32/spi/spi_3.cpp **** // ----------------------------------------------------------------------------
   3:/home/jonas/warwick/3dProfilometer/xpcc/src/xpcc/architecture/platform/cortex_m3/stm32/spi/spi_3.cpp **** /* Copyright (c) 2011, Roboterclub Aachen e.V.
   4:/home/jonas/warwick/3dProfilometer/xpcc/src/xpcc/architecture/platform/cortex_m3/stm32/spi/spi_3.cpp ****  * All rights reserved.
   5:/home/jonas/warwick/3dProfilometer/xpcc/src/xpcc/architecture/platform/cortex_m3/stm32/spi/spi_3.cpp ****  *
   6:/home/jonas/warwick/3dProfilometer/xpcc/src/xpcc/architecture/platform/cortex_m3/stm32/spi/spi_3.cpp ****  * Redistribution and use in source and binary forms, with or without
   7:/home/jonas/warwick/3dProfilometer/xpcc/src/xpcc/architecture/platform/cortex_m3/stm32/spi/spi_3.cpp ****  * modification, are permitted provided that the following conditions are met:
   8:/home/jonas/warwick/3dProfilometer/xpcc/src/xpcc/architecture/platform/cortex_m3/stm32/spi/spi_3.cpp ****  * 
   9:/home/jonas/warwick/3dProfilometer/xpcc/src/xpcc/architecture/platform/cortex_m3/stm32/spi/spi_3.cpp ****  *     * Redistributions of source code must retain the above copyright
  10:/home/jonas/warwick/3dProfilometer/xpcc/src/xpcc/architecture/platform/cortex_m3/stm32/spi/spi_3.cpp ****  *       notice, this list of conditions and the following disclaimer.
  11:/home/jonas/warwick/3dProfilometer/xpcc/src/xpcc/architecture/platform/cortex_m3/stm32/spi/spi_3.cpp ****  *     * Redistributions in binary form must reproduce the above copyright
  12:/home/jonas/warwick/3dProfilometer/xpcc/src/xpcc/architecture/platform/cortex_m3/stm32/spi/spi_3.cpp ****  *       notice, this list of conditions and the following disclaimer in the
  13:/home/jonas/warwick/3dProfilometer/xpcc/src/xpcc/architecture/platform/cortex_m3/stm32/spi/spi_3.cpp ****  *       documentation and/or other materials provided with the distribution.
  14:/home/jonas/warwick/3dProfilometer/xpcc/src/xpcc/architecture/platform/cortex_m3/stm32/spi/spi_3.cpp ****  *     * Neither the name of the Roboterclub Aachen e.V. nor the
  15:/home/jonas/warwick/3dProfilometer/xpcc/src/xpcc/architecture/platform/cortex_m3/stm32/spi/spi_3.cpp ****  *       names of its contributors may be used to endorse or promote products
  16:/home/jonas/warwick/3dProfilometer/xpcc/src/xpcc/architecture/platform/cortex_m3/stm32/spi/spi_3.cpp ****  *       derived from this software without specific prior written permission.
  17:/home/jonas/warwick/3dProfilometer/xpcc/src/xpcc/architecture/platform/cortex_m3/stm32/spi/spi_3.cpp ****  *
  18:/home/jonas/warwick/3dProfilometer/xpcc/src/xpcc/architecture/platform/cortex_m3/stm32/spi/spi_3.cpp ****  * THIS SOFTWARE IS PROVIDED BY ROBOTERCLUB AACHEN E.V. ''AS IS'' AND ANY
  19:/home/jonas/warwick/3dProfilometer/xpcc/src/xpcc/architecture/platform/cortex_m3/stm32/spi/spi_3.cpp ****  * EXPRESS OR IMPLIED WARRANTIES, INCLUDING, BUT NOT LIMITED TO, THE IMPLIED
  20:/home/jonas/warwick/3dProfilometer/xpcc/src/xpcc/architecture/platform/cortex_m3/stm32/spi/spi_3.cpp ****  * WARRANTIES OF MERCHANTABILITY AND FITNESS FOR A PARTICULAR PURPOSE ARE
  21:/home/jonas/warwick/3dProfilometer/xpcc/src/xpcc/architecture/platform/cortex_m3/stm32/spi/spi_3.cpp ****  * DISCLAIMED. IN NO EVENT SHALL ROBOTERCLUB AACHEN E.V. BE LIABLE FOR ANY
  22:/home/jonas/warwick/3dProfilometer/xpcc/src/xpcc/architecture/platform/cortex_m3/stm32/spi/spi_3.cpp ****  * DIRECT, INDIRECT, INCIDENTAL, SPECIAL, EXEMPLARY, OR CONSEQUENTIAL DAMAGES
  23:/home/jonas/warwick/3dProfilometer/xpcc/src/xpcc/architecture/platform/cortex_m3/stm32/spi/spi_3.cpp ****  * (INCLUDING, BUT NOT LIMITED TO, PROCUREMENT OF SUBSTITUTE GOODS OR SERVICES;
  24:/home/jonas/warwick/3dProfilometer/xpcc/src/xpcc/architecture/platform/cortex_m3/stm32/spi/spi_3.cpp ****  * LOSS OF USE, DATA, OR PROFITS; OR BUSINESS INTERRUPTION) HOWEVER CAUSED AND
  25:/home/jonas/warwick/3dProfilometer/xpcc/src/xpcc/architecture/platform/cortex_m3/stm32/spi/spi_3.cpp ****  * ON ANY THEORY OF LIABILITY, WHETHER IN CONTRACT, STRICT LIABILITY, OR TORT
  26:/home/jonas/warwick/3dProfilometer/xpcc/src/xpcc/architecture/platform/cortex_m3/stm32/spi/spi_3.cpp ****  * (INCLUDING NEGLIGENCE OR OTHERWISE) ARISING IN ANY WAY OUT OF THE USE OF
  27:/home/jonas/warwick/3dProfilometer/xpcc/src/xpcc/architecture/platform/cortex_m3/stm32/spi/spi_3.cpp ****  * THIS SOFTWARE, EVEN IF ADVISED OF THE POSSIBILITY OF SUCH DAMAGE.
  28:/home/jonas/warwick/3dProfilometer/xpcc/src/xpcc/architecture/platform/cortex_m3/stm32/spi/spi_3.cpp ****  */
  29:/home/jonas/warwick/3dProfilometer/xpcc/src/xpcc/architecture/platform/cortex_m3/stm32/spi/spi_3.cpp **** // ----------------------------------------------------------------------------
  30:/home/jonas/warwick/3dProfilometer/xpcc/src/xpcc/architecture/platform/cortex_m3/stm32/spi/spi_3.cpp **** /*
  31:/home/jonas/warwick/3dProfilometer/xpcc/src/xpcc/architecture/platform/cortex_m3/stm32/spi/spi_3.cpp ****  * WARNING: This file is generated automatically, do not edit!
  32:/home/jonas/warwick/3dProfilometer/xpcc/src/xpcc/architecture/platform/cortex_m3/stm32/spi/spi_3.cpp ****  * Please modify the corresponding *.in file instead and rebuild this file. 
  33:/home/jonas/warwick/3dProfilometer/xpcc/src/xpcc/architecture/platform/cortex_m3/stm32/spi/spi_3.cpp ****  */
  34:/home/jonas/warwick/3dProfilometer/xpcc/src/xpcc/architecture/platform/cortex_m3/stm32/spi/spi_3.cpp **** // ----------------------------------------------------------------------------
  35:/home/jonas/warwick/3dProfilometer/xpcc/src/xpcc/architecture/platform/cortex_m3/stm32/spi/spi_3.cpp **** 
  36:/home/jonas/warwick/3dProfilometer/xpcc/src/xpcc/architecture/platform/cortex_m3/stm32/spi/spi_3.cpp **** #include "../gpio.hpp"
  37:/home/jonas/warwick/3dProfilometer/xpcc/src/xpcc/architecture/platform/cortex_m3/stm32/spi/spi_3.cpp **** #include "spi_3.hpp"
  38:/home/jonas/warwick/3dProfilometer/xpcc/src/xpcc/architecture/platform/cortex_m3/stm32/spi/spi_3.cpp **** 
  39:/home/jonas/warwick/3dProfilometer/xpcc/src/xpcc/architecture/platform/cortex_m3/stm32/spi/spi_3.cpp **** #if !defined(STM32F10X_LD) && !defined(STM32F10X_MD)
  40:/home/jonas/warwick/3dProfilometer/xpcc/src/xpcc/architecture/platform/cortex_m3/stm32/spi/spi_3.cpp **** 
  41:/home/jonas/warwick/3dProfilometer/xpcc/src/xpcc/architecture/platform/cortex_m3/stm32/spi/spi_3.cpp **** namespace
  42:/home/jonas/warwick/3dProfilometer/xpcc/src/xpcc/architecture/platform/cortex_m3/stm32/spi/spi_3.cpp **** {
  43:/home/jonas/warwick/3dProfilometer/xpcc/src/xpcc/architecture/platform/cortex_m3/stm32/spi/spi_3.cpp **** 	GPIO__OUTPUT(SckB3, B, 3);
  44:/home/jonas/warwick/3dProfilometer/xpcc/src/xpcc/architecture/platform/cortex_m3/stm32/spi/spi_3.cpp **** 	GPIO__INPUT(MisoB4, B, 4);
  45:/home/jonas/warwick/3dProfilometer/xpcc/src/xpcc/architecture/platform/cortex_m3/stm32/spi/spi_3.cpp **** 	GPIO__OUTPUT(MosiB5, B, 5);
  46:/home/jonas/warwick/3dProfilometer/xpcc/src/xpcc/architecture/platform/cortex_m3/stm32/spi/spi_3.cpp **** 	
  47:/home/jonas/warwick/3dProfilometer/xpcc/src/xpcc/architecture/platform/cortex_m3/stm32/spi/spi_3.cpp **** 	GPIO__OUTPUT(SckC10, C, 10);
  48:/home/jonas/warwick/3dProfilometer/xpcc/src/xpcc/architecture/platform/cortex_m3/stm32/spi/spi_3.cpp **** 	GPIO__INPUT(MisoC11, C, 11);
  49:/home/jonas/warwick/3dProfilometer/xpcc/src/xpcc/architecture/platform/cortex_m3/stm32/spi/spi_3.cpp **** 	GPIO__OUTPUT(MosiC12, C, 12);
  50:/home/jonas/warwick/3dProfilometer/xpcc/src/xpcc/architecture/platform/cortex_m3/stm32/spi/spi_3.cpp **** 	
  51:/home/jonas/warwick/3dProfilometer/xpcc/src/xpcc/architecture/platform/cortex_m3/stm32/spi/spi_3.cpp **** 	static uint8_t* transmitBuffer(0);
  52:/home/jonas/warwick/3dProfilometer/xpcc/src/xpcc/architecture/platform/cortex_m3/stm32/spi/spi_3.cpp **** 	static uint8_t* receiveBuffer(0);
  53:/home/jonas/warwick/3dProfilometer/xpcc/src/xpcc/architecture/platform/cortex_m3/stm32/spi/spi_3.cpp **** 	static uint16_t bufferLength(0);
  54:/home/jonas/warwick/3dProfilometer/xpcc/src/xpcc/architecture/platform/cortex_m3/stm32/spi/spi_3.cpp **** 	enum
  55:/home/jonas/warwick/3dProfilometer/xpcc/src/xpcc/architecture/platform/cortex_m3/stm32/spi/spi_3.cpp **** 	{
  56:/home/jonas/warwick/3dProfilometer/xpcc/src/xpcc/architecture/platform/cortex_m3/stm32/spi/spi_3.cpp **** 		BUFFER_TRANSMIT_INCR_bm = 0x01,
  57:/home/jonas/warwick/3dProfilometer/xpcc/src/xpcc/architecture/platform/cortex_m3/stm32/spi/spi_3.cpp **** 		BUFFER_RECEIVE_INCR_bm = 0x02,
  58:/home/jonas/warwick/3dProfilometer/xpcc/src/xpcc/architecture/platform/cortex_m3/stm32/spi/spi_3.cpp **** 		BUFFER_TRANSMIT_IS_NOT_ZERO_bm = 0x04,
  59:/home/jonas/warwick/3dProfilometer/xpcc/src/xpcc/architecture/platform/cortex_m3/stm32/spi/spi_3.cpp **** 		BUFFER_RECEIVE_IS_NOT_ZERO_bm = 0x08,
  60:/home/jonas/warwick/3dProfilometer/xpcc/src/xpcc/architecture/platform/cortex_m3/stm32/spi/spi_3.cpp **** 		BUFFER_IS_DUMMY_bm = 0x10,
  61:/home/jonas/warwick/3dProfilometer/xpcc/src/xpcc/architecture/platform/cortex_m3/stm32/spi/spi_3.cpp **** 		BUFFER_IS_BUSY_SYNC_bm = 0x20
  62:/home/jonas/warwick/3dProfilometer/xpcc/src/xpcc/architecture/platform/cortex_m3/stm32/spi/spi_3.cpp **** 	};
  63:/home/jonas/warwick/3dProfilometer/xpcc/src/xpcc/architecture/platform/cortex_m3/stm32/spi/spi_3.cpp **** 	static uint8_t status(0);
  64:/home/jonas/warwick/3dProfilometer/xpcc/src/xpcc/architecture/platform/cortex_m3/stm32/spi/spi_3.cpp **** }
  65:/home/jonas/warwick/3dProfilometer/xpcc/src/xpcc/architecture/platform/cortex_m3/stm32/spi/spi_3.cpp **** 
  66:/home/jonas/warwick/3dProfilometer/xpcc/src/xpcc/architecture/platform/cortex_m3/stm32/spi/spi_3.cpp **** // ----------------------------------------------------------------------------
  67:/home/jonas/warwick/3dProfilometer/xpcc/src/xpcc/architecture/platform/cortex_m3/stm32/spi/spi_3.cpp **** void
  68:/home/jonas/warwick/3dProfilometer/xpcc/src/xpcc/architecture/platform/cortex_m3/stm32/spi/spi_3.cpp **** xpcc::stm32::SpiMaster3::configurePins(Mapping mapping)
  69:/home/jonas/warwick/3dProfilometer/xpcc/src/xpcc/architecture/platform/cortex_m3/stm32/spi/spi_3.cpp **** {
  28              		.loc 1 69 0
  29              		.cfi_startproc
  30              		@ args = 0, pretend = 0, frame = 0
  31              		@ frame_needed = 0, uses_anonymous_args = 0
  32              		@ link register save eliminated.
  33              	.LVL0:
  70:/home/jonas/warwick/3dProfilometer/xpcc/src/xpcc/architecture/platform/cortex_m3/stm32/spi/spi_3.cpp **** 	// Enable clock
  71:/home/jonas/warwick/3dProfilometer/xpcc/src/xpcc/architecture/platform/cortex_m3/stm32/spi/spi_3.cpp **** 	RCC->APB1ENR |= RCC_APB1ENR_SPI3EN;
  34              		.loc 1 71 0
  35 0000 514B     		ldr	r3, .L6
  36 0002 1A6C     		ldr	r2, [r3, #64]
  37 0004 42F40042 		orr	r2, r2, #32768
  38 0008 1A64     		str	r2, [r3, #64]
  72:/home/jonas/warwick/3dProfilometer/xpcc/src/xpcc/architecture/platform/cortex_m3/stm32/spi/spi_3.cpp **** 	
  73:/home/jonas/warwick/3dProfilometer/xpcc/src/xpcc/architecture/platform/cortex_m3/stm32/spi/spi_3.cpp **** 	// Initialize IO pins
  74:/home/jonas/warwick/3dProfilometer/xpcc/src/xpcc/architecture/platform/cortex_m3/stm32/spi/spi_3.cpp **** #if defined(STM32F2XX) || defined(STM32F4XX)
  75:/home/jonas/warwick/3dProfilometer/xpcc/src/xpcc/architecture/platform/cortex_m3/stm32/spi/spi_3.cpp **** 	if (mapping == REMAP_PB3_PB4_PB5) {
  39              		.loc 1 75 0
  40 000a 0028     		cmp	r0, #0
  41 000c 4DD0     		beq	.L5
  42              	.LVL1:
  43              	.LBB50:
  44              	.LBB51:
  47:/home/jonas/warwick/3dProfilometer/xpcc/src/xpcc/architecture/platform/cortex_m3/stm32/spi/spi_3.cpp **** 	GPIO__OUTPUT(SckC10, C, 10);
  45              		.loc 1 47 0
  46 000e 4F4B     		ldr	r3, .L6+4
  47 0010 1A68     		ldr	r2, [r3, #0]
  48 0012 22F44012 		bic	r2, r2, #3145728
  49 0016 42F40012 		orr	r2, r2, #2097152
  50 001a 1A60     		str	r2, [r3, #0]
  51              	.LVL2:
  52              	.LBB52:
  53              	.LBB53:
  54              		.file 2 "/home/jonas/warwick/3dProfilometer/xpcc/src/xpcc/architecture/platform/cortex_m3/stm32/sp
   1:/home/jonas/warwick/3dProfilometer/xpcc/src/xpcc/architecture/platform/cortex_m3/stm32/spi/../stm32f2_4/gpio.hpp **** // coding: utf-8
   2:/home/jonas/warwick/3dProfilometer/xpcc/src/xpcc/architecture/platform/cortex_m3/stm32/spi/../stm32f2_4/gpio.hpp **** // ----------------------------------------------------------------------------
   3:/home/jonas/warwick/3dProfilometer/xpcc/src/xpcc/architecture/platform/cortex_m3/stm32/spi/../stm32f2_4/gpio.hpp **** /* Copyright (c) 2011, Roboterclub Aachen e.V.
   4:/home/jonas/warwick/3dProfilometer/xpcc/src/xpcc/architecture/platform/cortex_m3/stm32/spi/../stm32f2_4/gpio.hpp ****  * All rights reserved.
   5:/home/jonas/warwick/3dProfilometer/xpcc/src/xpcc/architecture/platform/cortex_m3/stm32/spi/../stm32f2_4/gpio.hpp ****  *
   6:/home/jonas/warwick/3dProfilometer/xpcc/src/xpcc/architecture/platform/cortex_m3/stm32/spi/../stm32f2_4/gpio.hpp ****  * Redistribution and use in source and binary forms, with or without
   7:/home/jonas/warwick/3dProfilometer/xpcc/src/xpcc/architecture/platform/cortex_m3/stm32/spi/../stm32f2_4/gpio.hpp ****  * modification, are permitted provided that the following conditions are met:
   8:/home/jonas/warwick/3dProfilometer/xpcc/src/xpcc/architecture/platform/cortex_m3/stm32/spi/../stm32f2_4/gpio.hpp ****  *
   9:/home/jonas/warwick/3dProfilometer/xpcc/src/xpcc/architecture/platform/cortex_m3/stm32/spi/../stm32f2_4/gpio.hpp ****  *     * Redistributions of source code must retain the above copyright
  10:/home/jonas/warwick/3dProfilometer/xpcc/src/xpcc/architecture/platform/cortex_m3/stm32/spi/../stm32f2_4/gpio.hpp ****  *       notice, this list of conditions and the following disclaimer.
  11:/home/jonas/warwick/3dProfilometer/xpcc/src/xpcc/architecture/platform/cortex_m3/stm32/spi/../stm32f2_4/gpio.hpp ****  *     * Redistributions in binary form must reproduce the above copyright
  12:/home/jonas/warwick/3dProfilometer/xpcc/src/xpcc/architecture/platform/cortex_m3/stm32/spi/../stm32f2_4/gpio.hpp ****  *       notice, this list of conditions and the following disclaimer in the
  13:/home/jonas/warwick/3dProfilometer/xpcc/src/xpcc/architecture/platform/cortex_m3/stm32/spi/../stm32f2_4/gpio.hpp ****  *       documentation and/or other materials provided with the distribution.
  14:/home/jonas/warwick/3dProfilometer/xpcc/src/xpcc/architecture/platform/cortex_m3/stm32/spi/../stm32f2_4/gpio.hpp ****  *     * Neither the name of the Roboterclub Aachen e.V. nor the
  15:/home/jonas/warwick/3dProfilometer/xpcc/src/xpcc/architecture/platform/cortex_m3/stm32/spi/../stm32f2_4/gpio.hpp ****  *       names of its contributors may be used to endorse or promote products
  16:/home/jonas/warwick/3dProfilometer/xpcc/src/xpcc/architecture/platform/cortex_m3/stm32/spi/../stm32f2_4/gpio.hpp ****  *       derived from this software without specific prior written permission.
  17:/home/jonas/warwick/3dProfilometer/xpcc/src/xpcc/architecture/platform/cortex_m3/stm32/spi/../stm32f2_4/gpio.hpp ****  *
  18:/home/jonas/warwick/3dProfilometer/xpcc/src/xpcc/architecture/platform/cortex_m3/stm32/spi/../stm32f2_4/gpio.hpp ****  * THIS SOFTWARE IS PROVIDED BY ROBOTERCLUB AACHEN E.V. ''AS IS'' AND ANY
  19:/home/jonas/warwick/3dProfilometer/xpcc/src/xpcc/architecture/platform/cortex_m3/stm32/spi/../stm32f2_4/gpio.hpp ****  * EXPRESS OR IMPLIED WARRANTIES, INCLUDING, BUT NOT LIMITED TO, THE IMPLIED
  20:/home/jonas/warwick/3dProfilometer/xpcc/src/xpcc/architecture/platform/cortex_m3/stm32/spi/../stm32f2_4/gpio.hpp ****  * WARRANTIES OF MERCHANTABILITY AND FITNESS FOR A PARTICULAR PURPOSE ARE
  21:/home/jonas/warwick/3dProfilometer/xpcc/src/xpcc/architecture/platform/cortex_m3/stm32/spi/../stm32f2_4/gpio.hpp ****  * DISCLAIMED. IN NO EVENT SHALL ROBOTERCLUB AACHEN E.V. BE LIABLE FOR ANY
  22:/home/jonas/warwick/3dProfilometer/xpcc/src/xpcc/architecture/platform/cortex_m3/stm32/spi/../stm32f2_4/gpio.hpp ****  * DIRECT, INDIRECT, INCIDENTAL, SPECIAL, EXEMPLARY, OR CONSEQUENTIAL DAMAGES
  23:/home/jonas/warwick/3dProfilometer/xpcc/src/xpcc/architecture/platform/cortex_m3/stm32/spi/../stm32f2_4/gpio.hpp ****  * (INCLUDING, BUT NOT LIMITED TO, PROCUREMENT OF SUBSTITUTE GOODS OR SERVICES;
  24:/home/jonas/warwick/3dProfilometer/xpcc/src/xpcc/architecture/platform/cortex_m3/stm32/spi/../stm32f2_4/gpio.hpp ****  * LOSS OF USE, DATA, OR PROFITS; OR BUSINESS INTERRUPTION) HOWEVER CAUSED AND
  25:/home/jonas/warwick/3dProfilometer/xpcc/src/xpcc/architecture/platform/cortex_m3/stm32/spi/../stm32f2_4/gpio.hpp ****  * ON ANY THEORY OF LIABILITY, WHETHER IN CONTRACT, STRICT LIABILITY, OR TORT
  26:/home/jonas/warwick/3dProfilometer/xpcc/src/xpcc/architecture/platform/cortex_m3/stm32/spi/../stm32f2_4/gpio.hpp ****  * (INCLUDING NEGLIGENCE OR OTHERWISE) ARISING IN ANY WAY OUT OF THE USE OF
  27:/home/jonas/warwick/3dProfilometer/xpcc/src/xpcc/architecture/platform/cortex_m3/stm32/spi/../stm32f2_4/gpio.hpp ****  * THIS SOFTWARE, EVEN IF ADVISED OF THE POSSIBILITY OF SUCH DAMAGE.
  28:/home/jonas/warwick/3dProfilometer/xpcc/src/xpcc/architecture/platform/cortex_m3/stm32/spi/../stm32f2_4/gpio.hpp ****  */
  29:/home/jonas/warwick/3dProfilometer/xpcc/src/xpcc/architecture/platform/cortex_m3/stm32/spi/../stm32f2_4/gpio.hpp **** // ----------------------------------------------------------------------------
  30:/home/jonas/warwick/3dProfilometer/xpcc/src/xpcc/architecture/platform/cortex_m3/stm32/spi/../stm32f2_4/gpio.hpp **** 
  31:/home/jonas/warwick/3dProfilometer/xpcc/src/xpcc/architecture/platform/cortex_m3/stm32/spi/../stm32f2_4/gpio.hpp **** #ifndef XPCC_STM32F2__GPIO_HPP
  32:/home/jonas/warwick/3dProfilometer/xpcc/src/xpcc/architecture/platform/cortex_m3/stm32/spi/../stm32f2_4/gpio.hpp **** #define XPCC_STM32F2__GPIO_HPP
  33:/home/jonas/warwick/3dProfilometer/xpcc/src/xpcc/architecture/platform/cortex_m3/stm32/spi/../stm32f2_4/gpio.hpp **** 
  34:/home/jonas/warwick/3dProfilometer/xpcc/src/xpcc/architecture/platform/cortex_m3/stm32/spi/../stm32f2_4/gpio.hpp **** #include <xpcc/architecture/driver/gpio.hpp>
  35:/home/jonas/warwick/3dProfilometer/xpcc/src/xpcc/architecture/platform/cortex_m3/stm32/spi/../stm32f2_4/gpio.hpp **** #include "../device.h"
  36:/home/jonas/warwick/3dProfilometer/xpcc/src/xpcc/architecture/platform/cortex_m3/stm32/spi/../stm32f2_4/gpio.hpp **** 
  37:/home/jonas/warwick/3dProfilometer/xpcc/src/xpcc/architecture/platform/cortex_m3/stm32/spi/../stm32f2_4/gpio.hpp **** /* 
  38:/home/jonas/warwick/3dProfilometer/xpcc/src/xpcc/architecture/platform/cortex_m3/stm32/spi/../stm32f2_4/gpio.hpp ****  * GPIO Ports
  39:/home/jonas/warwick/3dProfilometer/xpcc/src/xpcc/architecture/platform/cortex_m3/stm32/spi/../stm32f2_4/gpio.hpp ****  * ==========
  40:/home/jonas/warwick/3dProfilometer/xpcc/src/xpcc/architecture/platform/cortex_m3/stm32/spi/../stm32f2_4/gpio.hpp ****  * 
  41:/home/jonas/warwick/3dProfilometer/xpcc/src/xpcc/architecture/platform/cortex_m3/stm32/spi/../stm32f2_4/gpio.hpp ****  * Each port bit of the General Purpose IO (GPIO) Ports, can be
  42:/home/jonas/warwick/3dProfilometer/xpcc/src/xpcc/architecture/platform/cortex_m3/stm32/spi/../stm32f2_4/gpio.hpp ****  * individually configured by software in several modes:
  43:/home/jonas/warwick/3dProfilometer/xpcc/src/xpcc/architecture/platform/cortex_m3/stm32/spi/../stm32f2_4/gpio.hpp ****  * - Input floating
  44:/home/jonas/warwick/3dProfilometer/xpcc/src/xpcc/architecture/platform/cortex_m3/stm32/spi/../stm32f2_4/gpio.hpp ****  * - Input (with pull-up or pull-down)
  45:/home/jonas/warwick/3dProfilometer/xpcc/src/xpcc/architecture/platform/cortex_m3/stm32/spi/../stm32f2_4/gpio.hpp ****  * - Analog
  46:/home/jonas/warwick/3dProfilometer/xpcc/src/xpcc/architecture/platform/cortex_m3/stm32/spi/../stm32f2_4/gpio.hpp ****  * - Output open-drain (with pull-up or pull-down)
  47:/home/jonas/warwick/3dProfilometer/xpcc/src/xpcc/architecture/platform/cortex_m3/stm32/spi/../stm32f2_4/gpio.hpp ****  * - Output push-pull (with pull-up or pull-down)
  48:/home/jonas/warwick/3dProfilometer/xpcc/src/xpcc/architecture/platform/cortex_m3/stm32/spi/../stm32f2_4/gpio.hpp ****  * - Alternate function push-pull (with pull-up or pull-down)
  49:/home/jonas/warwick/3dProfilometer/xpcc/src/xpcc/architecture/platform/cortex_m3/stm32/spi/../stm32f2_4/gpio.hpp ****  * - Alternate function open-drain (with pull-up or pull-down)
  50:/home/jonas/warwick/3dProfilometer/xpcc/src/xpcc/architecture/platform/cortex_m3/stm32/spi/../stm32f2_4/gpio.hpp ****  * 
  51:/home/jonas/warwick/3dProfilometer/xpcc/src/xpcc/architecture/platform/cortex_m3/stm32/spi/../stm32f2_4/gpio.hpp ****  * GPIOx_MODER (32-bit)
  52:/home/jonas/warwick/3dProfilometer/xpcc/src/xpcc/architecture/platform/cortex_m3/stm32/spi/../stm32f2_4/gpio.hpp ****  *   00: Input
  53:/home/jonas/warwick/3dProfilometer/xpcc/src/xpcc/architecture/platform/cortex_m3/stm32/spi/../stm32f2_4/gpio.hpp ****  *   01: General purpose output mode
  54:/home/jonas/warwick/3dProfilometer/xpcc/src/xpcc/architecture/platform/cortex_m3/stm32/spi/../stm32f2_4/gpio.hpp ****  *   10: Alternate function mode
  55:/home/jonas/warwick/3dProfilometer/xpcc/src/xpcc/architecture/platform/cortex_m3/stm32/spi/../stm32f2_4/gpio.hpp ****  *   11: Analog mode
  56:/home/jonas/warwick/3dProfilometer/xpcc/src/xpcc/architecture/platform/cortex_m3/stm32/spi/../stm32f2_4/gpio.hpp ****  * GPIOx_OTYPER (16-bit)
  57:/home/jonas/warwick/3dProfilometer/xpcc/src/xpcc/architecture/platform/cortex_m3/stm32/spi/../stm32f2_4/gpio.hpp ****  *   0: Output push-pull
  58:/home/jonas/warwick/3dProfilometer/xpcc/src/xpcc/architecture/platform/cortex_m3/stm32/spi/../stm32f2_4/gpio.hpp ****  *   1: Output open-drain
  59:/home/jonas/warwick/3dProfilometer/xpcc/src/xpcc/architecture/platform/cortex_m3/stm32/spi/../stm32f2_4/gpio.hpp ****  * GPIOx_OSPEEDR (32-bit)
  60:/home/jonas/warwick/3dProfilometer/xpcc/src/xpcc/architecture/platform/cortex_m3/stm32/spi/../stm32f2_4/gpio.hpp ****  *   00: 2 MHz
  61:/home/jonas/warwick/3dProfilometer/xpcc/src/xpcc/architecture/platform/cortex_m3/stm32/spi/../stm32f2_4/gpio.hpp ****  *   01: 25 MHz
  62:/home/jonas/warwick/3dProfilometer/xpcc/src/xpcc/architecture/platform/cortex_m3/stm32/spi/../stm32f2_4/gpio.hpp ****  *   10: 50 MHz
  63:/home/jonas/warwick/3dProfilometer/xpcc/src/xpcc/architecture/platform/cortex_m3/stm32/spi/../stm32f2_4/gpio.hpp ****  *   11: 100 MHz
  64:/home/jonas/warwick/3dProfilometer/xpcc/src/xpcc/architecture/platform/cortex_m3/stm32/spi/../stm32f2_4/gpio.hpp ****  * GPIOx_PUPDR (32-bit)
  65:/home/jonas/warwick/3dProfilometer/xpcc/src/xpcc/architecture/platform/cortex_m3/stm32/spi/../stm32f2_4/gpio.hpp ****  *   00: No pull-up, pull-down
  66:/home/jonas/warwick/3dProfilometer/xpcc/src/xpcc/architecture/platform/cortex_m3/stm32/spi/../stm32f2_4/gpio.hpp ****  *   01: Pull-up
  67:/home/jonas/warwick/3dProfilometer/xpcc/src/xpcc/architecture/platform/cortex_m3/stm32/spi/../stm32f2_4/gpio.hpp ****  *   10: Pull-down
  68:/home/jonas/warwick/3dProfilometer/xpcc/src/xpcc/architecture/platform/cortex_m3/stm32/spi/../stm32f2_4/gpio.hpp ****  *   11: Reserved
  69:/home/jonas/warwick/3dProfilometer/xpcc/src/xpcc/architecture/platform/cortex_m3/stm32/spi/../stm32f2_4/gpio.hpp ****  * 
  70:/home/jonas/warwick/3dProfilometer/xpcc/src/xpcc/architecture/platform/cortex_m3/stm32/spi/../stm32f2_4/gpio.hpp ****  * GPIOx_IDR = input state (read-only) (16-bit)
  71:/home/jonas/warwick/3dProfilometer/xpcc/src/xpcc/architecture/platform/cortex_m3/stm32/spi/../stm32f2_4/gpio.hpp ****  * GPIOx_ODR = output state (16-bit)
  72:/home/jonas/warwick/3dProfilometer/xpcc/src/xpcc/architecture/platform/cortex_m3/stm32/spi/../stm32f2_4/gpio.hpp ****  * 
  73:/home/jonas/warwick/3dProfilometer/xpcc/src/xpcc/architecture/platform/cortex_m3/stm32/spi/../stm32f2_4/gpio.hpp ****  * GPIOx_BSRR = set and reset register (32-bit)
  74:/home/jonas/warwick/3dProfilometer/xpcc/src/xpcc/architecture/platform/cortex_m3/stm32/spi/../stm32f2_4/gpio.hpp ****  * - BSRR(i) sets
  75:/home/jonas/warwick/3dProfilometer/xpcc/src/xpcc/architecture/platform/cortex_m3/stm32/spi/../stm32f2_4/gpio.hpp ****  * - BSRR(i+16) resets
  76:/home/jonas/warwick/3dProfilometer/xpcc/src/xpcc/architecture/platform/cortex_m3/stm32/spi/../stm32f2_4/gpio.hpp ****  */
  77:/home/jonas/warwick/3dProfilometer/xpcc/src/xpcc/architecture/platform/cortex_m3/stm32/spi/../stm32f2_4/gpio.hpp **** 
  78:/home/jonas/warwick/3dProfilometer/xpcc/src/xpcc/architecture/platform/cortex_m3/stm32/spi/../stm32f2_4/gpio.hpp **** namespace xpcc
  79:/home/jonas/warwick/3dProfilometer/xpcc/src/xpcc/architecture/platform/cortex_m3/stm32/spi/../stm32f2_4/gpio.hpp **** {
  80:/home/jonas/warwick/3dProfilometer/xpcc/src/xpcc/architecture/platform/cortex_m3/stm32/spi/../stm32f2_4/gpio.hpp **** 	namespace stm32
  81:/home/jonas/warwick/3dProfilometer/xpcc/src/xpcc/architecture/platform/cortex_m3/stm32/spi/../stm32f2_4/gpio.hpp **** 	{
  82:/home/jonas/warwick/3dProfilometer/xpcc/src/xpcc/architecture/platform/cortex_m3/stm32/spi/../stm32f2_4/gpio.hpp **** 		/**
  83:/home/jonas/warwick/3dProfilometer/xpcc/src/xpcc/architecture/platform/cortex_m3/stm32/spi/../stm32f2_4/gpio.hpp **** 		 * \ingroup	stm32f2
  84:/home/jonas/warwick/3dProfilometer/xpcc/src/xpcc/architecture/platform/cortex_m3/stm32/spi/../stm32f2_4/gpio.hpp **** 		 */
  85:/home/jonas/warwick/3dProfilometer/xpcc/src/xpcc/architecture/platform/cortex_m3/stm32/spi/../stm32f2_4/gpio.hpp **** 		enum PullType
  86:/home/jonas/warwick/3dProfilometer/xpcc/src/xpcc/architecture/platform/cortex_m3/stm32/spi/../stm32f2_4/gpio.hpp **** 		{
  87:/home/jonas/warwick/3dProfilometer/xpcc/src/xpcc/architecture/platform/cortex_m3/stm32/spi/../stm32f2_4/gpio.hpp **** 			FLOATING = 0x0,
  88:/home/jonas/warwick/3dProfilometer/xpcc/src/xpcc/architecture/platform/cortex_m3/stm32/spi/../stm32f2_4/gpio.hpp **** 			PULLUP = 0x1,
  89:/home/jonas/warwick/3dProfilometer/xpcc/src/xpcc/architecture/platform/cortex_m3/stm32/spi/../stm32f2_4/gpio.hpp **** 			PULLDOWN = 0x2,
  90:/home/jonas/warwick/3dProfilometer/xpcc/src/xpcc/architecture/platform/cortex_m3/stm32/spi/../stm32f2_4/gpio.hpp **** 		};
  91:/home/jonas/warwick/3dProfilometer/xpcc/src/xpcc/architecture/platform/cortex_m3/stm32/spi/../stm32f2_4/gpio.hpp **** 		
  92:/home/jonas/warwick/3dProfilometer/xpcc/src/xpcc/architecture/platform/cortex_m3/stm32/spi/../stm32f2_4/gpio.hpp **** 		/**
  93:/home/jonas/warwick/3dProfilometer/xpcc/src/xpcc/architecture/platform/cortex_m3/stm32/spi/../stm32f2_4/gpio.hpp **** 		 * \ingroup	stm32f2
  94:/home/jonas/warwick/3dProfilometer/xpcc/src/xpcc/architecture/platform/cortex_m3/stm32/spi/../stm32f2_4/gpio.hpp **** 		 */
  95:/home/jonas/warwick/3dProfilometer/xpcc/src/xpcc/architecture/platform/cortex_m3/stm32/spi/../stm32f2_4/gpio.hpp **** 		enum OutputType
  96:/home/jonas/warwick/3dProfilometer/xpcc/src/xpcc/architecture/platform/cortex_m3/stm32/spi/../stm32f2_4/gpio.hpp **** 		{
  97:/home/jonas/warwick/3dProfilometer/xpcc/src/xpcc/architecture/platform/cortex_m3/stm32/spi/../stm32f2_4/gpio.hpp **** 			PUSH_PULL = 0x0,
  98:/home/jonas/warwick/3dProfilometer/xpcc/src/xpcc/architecture/platform/cortex_m3/stm32/spi/../stm32f2_4/gpio.hpp **** 			OPEN_DRAIN = 0x1,
  99:/home/jonas/warwick/3dProfilometer/xpcc/src/xpcc/architecture/platform/cortex_m3/stm32/spi/../stm32f2_4/gpio.hpp **** 		};
 100:/home/jonas/warwick/3dProfilometer/xpcc/src/xpcc/architecture/platform/cortex_m3/stm32/spi/../stm32f2_4/gpio.hpp **** 		
 101:/home/jonas/warwick/3dProfilometer/xpcc/src/xpcc/architecture/platform/cortex_m3/stm32/spi/../stm32f2_4/gpio.hpp **** 		/**
 102:/home/jonas/warwick/3dProfilometer/xpcc/src/xpcc/architecture/platform/cortex_m3/stm32/spi/../stm32f2_4/gpio.hpp **** 		 * \ingroup	stm32f2
 103:/home/jonas/warwick/3dProfilometer/xpcc/src/xpcc/architecture/platform/cortex_m3/stm32/spi/../stm32f2_4/gpio.hpp **** 		 */
 104:/home/jonas/warwick/3dProfilometer/xpcc/src/xpcc/architecture/platform/cortex_m3/stm32/spi/../stm32f2_4/gpio.hpp **** 		enum OutputSpeed
 105:/home/jonas/warwick/3dProfilometer/xpcc/src/xpcc/architecture/platform/cortex_m3/stm32/spi/../stm32f2_4/gpio.hpp **** 		{
 106:/home/jonas/warwick/3dProfilometer/xpcc/src/xpcc/architecture/platform/cortex_m3/stm32/spi/../stm32f2_4/gpio.hpp **** 			SPEED_2MHZ = 0x0,
 107:/home/jonas/warwick/3dProfilometer/xpcc/src/xpcc/architecture/platform/cortex_m3/stm32/spi/../stm32f2_4/gpio.hpp **** 			SPEED_25MHZ = 0x1,
 108:/home/jonas/warwick/3dProfilometer/xpcc/src/xpcc/architecture/platform/cortex_m3/stm32/spi/../stm32f2_4/gpio.hpp **** 			SPEED_50MHZ = 0x1,
 109:/home/jonas/warwick/3dProfilometer/xpcc/src/xpcc/architecture/platform/cortex_m3/stm32/spi/../stm32f2_4/gpio.hpp **** 			SPEED_100MHZ = 0x3,
 110:/home/jonas/warwick/3dProfilometer/xpcc/src/xpcc/architecture/platform/cortex_m3/stm32/spi/../stm32f2_4/gpio.hpp **** 		};
 111:/home/jonas/warwick/3dProfilometer/xpcc/src/xpcc/architecture/platform/cortex_m3/stm32/spi/../stm32f2_4/gpio.hpp **** 		
 112:/home/jonas/warwick/3dProfilometer/xpcc/src/xpcc/architecture/platform/cortex_m3/stm32/spi/../stm32f2_4/gpio.hpp **** 		/**
 113:/home/jonas/warwick/3dProfilometer/xpcc/src/xpcc/architecture/platform/cortex_m3/stm32/spi/../stm32f2_4/gpio.hpp **** 		 * \ingroup	stm32f2
 114:/home/jonas/warwick/3dProfilometer/xpcc/src/xpcc/architecture/platform/cortex_m3/stm32/spi/../stm32f2_4/gpio.hpp **** 		 */
 115:/home/jonas/warwick/3dProfilometer/xpcc/src/xpcc/architecture/platform/cortex_m3/stm32/spi/../stm32f2_4/gpio.hpp **** 		// 0..7 = AFRL[31:0]
 116:/home/jonas/warwick/3dProfilometer/xpcc/src/xpcc/architecture/platform/cortex_m3/stm32/spi/../stm32f2_4/gpio.hpp **** 		// 8..15 = AFRH[31:0]
 117:/home/jonas/warwick/3dProfilometer/xpcc/src/xpcc/architecture/platform/cortex_m3/stm32/spi/../stm32f2_4/gpio.hpp **** 		enum AlternateFunction
 118:/home/jonas/warwick/3dProfilometer/xpcc/src/xpcc/architecture/platform/cortex_m3/stm32/spi/../stm32f2_4/gpio.hpp **** 		{
 119:/home/jonas/warwick/3dProfilometer/xpcc/src/xpcc/architecture/platform/cortex_m3/stm32/spi/../stm32f2_4/gpio.hpp **** 			AF_RTC_50Hz = 0x00,	///< RTC_50Hz Alternate Function mapping
 120:/home/jonas/warwick/3dProfilometer/xpcc/src/xpcc/architecture/platform/cortex_m3/stm32/spi/../stm32f2_4/gpio.hpp **** 			AF_MCO = 0x00,		///< MCO (MCO1 and MCO2) Alternate Function mapping
 121:/home/jonas/warwick/3dProfilometer/xpcc/src/xpcc/architecture/platform/cortex_m3/stm32/spi/../stm32f2_4/gpio.hpp **** 			AF_TAMPER = 0x00,	///< TAMPER (TAMPER_1 and TAMPER_2) Alternate Function mapping
 122:/home/jonas/warwick/3dProfilometer/xpcc/src/xpcc/architecture/platform/cortex_m3/stm32/spi/../stm32f2_4/gpio.hpp **** 			AF_SWJ = 0x00,		///< SWJ (SWD and JTAG) Alternate Function mapping
 123:/home/jonas/warwick/3dProfilometer/xpcc/src/xpcc/architecture/platform/cortex_m3/stm32/spi/../stm32f2_4/gpio.hpp **** 			AF_TRACE = 0x00,	///< TRACE Alternate Function mapping
 124:/home/jonas/warwick/3dProfilometer/xpcc/src/xpcc/architecture/platform/cortex_m3/stm32/spi/../stm32f2_4/gpio.hpp **** 			
 125:/home/jonas/warwick/3dProfilometer/xpcc/src/xpcc/architecture/platform/cortex_m3/stm32/spi/../stm32f2_4/gpio.hpp **** 			// AF 1 selection  
 126:/home/jonas/warwick/3dProfilometer/xpcc/src/xpcc/architecture/platform/cortex_m3/stm32/spi/../stm32f2_4/gpio.hpp **** 			AF_TIM1 = 0x01,		///< TIM1 Alternate Function mapping
 127:/home/jonas/warwick/3dProfilometer/xpcc/src/xpcc/architecture/platform/cortex_m3/stm32/spi/../stm32f2_4/gpio.hpp **** 			AF_TIM2 = 0x01,		///< TIM2 Alternate Function mapping
 128:/home/jonas/warwick/3dProfilometer/xpcc/src/xpcc/architecture/platform/cortex_m3/stm32/spi/../stm32f2_4/gpio.hpp **** 			
 129:/home/jonas/warwick/3dProfilometer/xpcc/src/xpcc/architecture/platform/cortex_m3/stm32/spi/../stm32f2_4/gpio.hpp **** 			// AF 2 selection  
 130:/home/jonas/warwick/3dProfilometer/xpcc/src/xpcc/architecture/platform/cortex_m3/stm32/spi/../stm32f2_4/gpio.hpp **** 			AF_TIM3 = 0x02,		///< TIM3 Alternate Function mapping
 131:/home/jonas/warwick/3dProfilometer/xpcc/src/xpcc/architecture/platform/cortex_m3/stm32/spi/../stm32f2_4/gpio.hpp **** 			AF_TIM4 = 0x02,		///< TIM4 Alternate Function mapping
 132:/home/jonas/warwick/3dProfilometer/xpcc/src/xpcc/architecture/platform/cortex_m3/stm32/spi/../stm32f2_4/gpio.hpp **** 			AF_TIM5 = 0x02,		///< TIM5 Alternate Function mapping
 133:/home/jonas/warwick/3dProfilometer/xpcc/src/xpcc/architecture/platform/cortex_m3/stm32/spi/../stm32f2_4/gpio.hpp **** 			
 134:/home/jonas/warwick/3dProfilometer/xpcc/src/xpcc/architecture/platform/cortex_m3/stm32/spi/../stm32f2_4/gpio.hpp **** 			// AF 3 selection  
 135:/home/jonas/warwick/3dProfilometer/xpcc/src/xpcc/architecture/platform/cortex_m3/stm32/spi/../stm32f2_4/gpio.hpp **** 			AF_TIM8 = 0x03,		///< TIM8 Alternate Function mapping
 136:/home/jonas/warwick/3dProfilometer/xpcc/src/xpcc/architecture/platform/cortex_m3/stm32/spi/../stm32f2_4/gpio.hpp **** 			AF_TIM9 = 0x03,		///< TIM9 Alternate Function mapping
 137:/home/jonas/warwick/3dProfilometer/xpcc/src/xpcc/architecture/platform/cortex_m3/stm32/spi/../stm32f2_4/gpio.hpp **** 			AF_TIM10 = 0x03,	///< TIM10 Alternate Function mapping
 138:/home/jonas/warwick/3dProfilometer/xpcc/src/xpcc/architecture/platform/cortex_m3/stm32/spi/../stm32f2_4/gpio.hpp **** 			AF_TIM11 = 0x03,	///< TIM11 Alternate Function mapping
 139:/home/jonas/warwick/3dProfilometer/xpcc/src/xpcc/architecture/platform/cortex_m3/stm32/spi/../stm32f2_4/gpio.hpp **** 			
 140:/home/jonas/warwick/3dProfilometer/xpcc/src/xpcc/architecture/platform/cortex_m3/stm32/spi/../stm32f2_4/gpio.hpp **** 			// AF 4 selection  
 141:/home/jonas/warwick/3dProfilometer/xpcc/src/xpcc/architecture/platform/cortex_m3/stm32/spi/../stm32f2_4/gpio.hpp **** 			AF_I2C1 = 0x04,		///< I2C1 Alternate Function mapping
 142:/home/jonas/warwick/3dProfilometer/xpcc/src/xpcc/architecture/platform/cortex_m3/stm32/spi/../stm32f2_4/gpio.hpp **** 			AF_I2C2 = 0x04,		///< I2C2 Alternate Function mapping
 143:/home/jonas/warwick/3dProfilometer/xpcc/src/xpcc/architecture/platform/cortex_m3/stm32/spi/../stm32f2_4/gpio.hpp **** 			AF_I2C3 = 0x04,		///< I2C3 Alternate Function mapping
 144:/home/jonas/warwick/3dProfilometer/xpcc/src/xpcc/architecture/platform/cortex_m3/stm32/spi/../stm32f2_4/gpio.hpp **** 			
 145:/home/jonas/warwick/3dProfilometer/xpcc/src/xpcc/architecture/platform/cortex_m3/stm32/spi/../stm32f2_4/gpio.hpp **** 			// AF 5 selection  
 146:/home/jonas/warwick/3dProfilometer/xpcc/src/xpcc/architecture/platform/cortex_m3/stm32/spi/../stm32f2_4/gpio.hpp **** 			AF_SPI1 = 0x05,		///< SPI1 Alternate Function mapping
 147:/home/jonas/warwick/3dProfilometer/xpcc/src/xpcc/architecture/platform/cortex_m3/stm32/spi/../stm32f2_4/gpio.hpp **** 			AF_SPI2 = 0x05,		///< SPI2/I2S2 Alternate Function mapping
 148:/home/jonas/warwick/3dProfilometer/xpcc/src/xpcc/architecture/platform/cortex_m3/stm32/spi/../stm32f2_4/gpio.hpp **** 			
 149:/home/jonas/warwick/3dProfilometer/xpcc/src/xpcc/architecture/platform/cortex_m3/stm32/spi/../stm32f2_4/gpio.hpp **** 			// AF 6 selection  
 150:/home/jonas/warwick/3dProfilometer/xpcc/src/xpcc/architecture/platform/cortex_m3/stm32/spi/../stm32f2_4/gpio.hpp **** 			AF_SPI3 = 0x06,		///< SPI3/I2S3 Alternate Function mapping
 151:/home/jonas/warwick/3dProfilometer/xpcc/src/xpcc/architecture/platform/cortex_m3/stm32/spi/../stm32f2_4/gpio.hpp **** 			
 152:/home/jonas/warwick/3dProfilometer/xpcc/src/xpcc/architecture/platform/cortex_m3/stm32/spi/../stm32f2_4/gpio.hpp **** 			// AF 7 selection  
 153:/home/jonas/warwick/3dProfilometer/xpcc/src/xpcc/architecture/platform/cortex_m3/stm32/spi/../stm32f2_4/gpio.hpp **** 			AF_USART1 = 0x07,	///< USART1 Alternate Function mapping
 154:/home/jonas/warwick/3dProfilometer/xpcc/src/xpcc/architecture/platform/cortex_m3/stm32/spi/../stm32f2_4/gpio.hpp **** 			AF_USART2 = 0x07,	///< USART2 Alternate Function mapping
 155:/home/jonas/warwick/3dProfilometer/xpcc/src/xpcc/architecture/platform/cortex_m3/stm32/spi/../stm32f2_4/gpio.hpp **** 			AF_USART3 = 0x07,	///< USART3 Alternate Function mapping
 156:/home/jonas/warwick/3dProfilometer/xpcc/src/xpcc/architecture/platform/cortex_m3/stm32/spi/../stm32f2_4/gpio.hpp **** 			
 157:/home/jonas/warwick/3dProfilometer/xpcc/src/xpcc/architecture/platform/cortex_m3/stm32/spi/../stm32f2_4/gpio.hpp **** 			// AF 8 selection  
 158:/home/jonas/warwick/3dProfilometer/xpcc/src/xpcc/architecture/platform/cortex_m3/stm32/spi/../stm32f2_4/gpio.hpp **** 			AF_UART4 = 0x08,	///< UART4 Alternate Function mapping
 159:/home/jonas/warwick/3dProfilometer/xpcc/src/xpcc/architecture/platform/cortex_m3/stm32/spi/../stm32f2_4/gpio.hpp **** 			AF_UART5 = 0x08,	///< UART5 Alternate Function mapping
 160:/home/jonas/warwick/3dProfilometer/xpcc/src/xpcc/architecture/platform/cortex_m3/stm32/spi/../stm32f2_4/gpio.hpp **** 			AF_USART6 = 0x08,	///< USART6 Alternate Function mapping
 161:/home/jonas/warwick/3dProfilometer/xpcc/src/xpcc/architecture/platform/cortex_m3/stm32/spi/../stm32f2_4/gpio.hpp **** 			
 162:/home/jonas/warwick/3dProfilometer/xpcc/src/xpcc/architecture/platform/cortex_m3/stm32/spi/../stm32f2_4/gpio.hpp **** 			// AF 9 selection 
 163:/home/jonas/warwick/3dProfilometer/xpcc/src/xpcc/architecture/platform/cortex_m3/stm32/spi/../stm32f2_4/gpio.hpp **** 			AF_CAN1 = 0x09,		///< CAN1 Alternate Function mapping
 164:/home/jonas/warwick/3dProfilometer/xpcc/src/xpcc/architecture/platform/cortex_m3/stm32/spi/../stm32f2_4/gpio.hpp **** 			AF_CAN2 = 0x09,		///< CAN2 Alternate Function mapping
 165:/home/jonas/warwick/3dProfilometer/xpcc/src/xpcc/architecture/platform/cortex_m3/stm32/spi/../stm32f2_4/gpio.hpp **** 			AF_TIM12 = 0x09,	///< TIM12 Alternate Function mapping
 166:/home/jonas/warwick/3dProfilometer/xpcc/src/xpcc/architecture/platform/cortex_m3/stm32/spi/../stm32f2_4/gpio.hpp **** 			AF_TIM13 = 0x09,	///< TIM13 Alternate Function mapping
 167:/home/jonas/warwick/3dProfilometer/xpcc/src/xpcc/architecture/platform/cortex_m3/stm32/spi/../stm32f2_4/gpio.hpp **** 			AF_TIM14 = 0x09,	///< TIM14 Alternate Function mapping
 168:/home/jonas/warwick/3dProfilometer/xpcc/src/xpcc/architecture/platform/cortex_m3/stm32/spi/../stm32f2_4/gpio.hpp **** 			
 169:/home/jonas/warwick/3dProfilometer/xpcc/src/xpcc/architecture/platform/cortex_m3/stm32/spi/../stm32f2_4/gpio.hpp **** 			// AF 10 selection  
 170:/home/jonas/warwick/3dProfilometer/xpcc/src/xpcc/architecture/platform/cortex_m3/stm32/spi/../stm32f2_4/gpio.hpp **** 			AF_OTG_FS = 0xA,	///< OTG_FS Alternate Function mapping
 171:/home/jonas/warwick/3dProfilometer/xpcc/src/xpcc/architecture/platform/cortex_m3/stm32/spi/../stm32f2_4/gpio.hpp **** 			AF_OTG_HS = 0xA,	///< OTG_HS Alternate Function mapping
 172:/home/jonas/warwick/3dProfilometer/xpcc/src/xpcc/architecture/platform/cortex_m3/stm32/spi/../stm32f2_4/gpio.hpp **** 			
 173:/home/jonas/warwick/3dProfilometer/xpcc/src/xpcc/architecture/platform/cortex_m3/stm32/spi/../stm32f2_4/gpio.hpp **** 			// AF 11 selection  
 174:/home/jonas/warwick/3dProfilometer/xpcc/src/xpcc/architecture/platform/cortex_m3/stm32/spi/../stm32f2_4/gpio.hpp **** 			AF_ETH = 0x0B,		///< ETHERNET Alternate Function mapping
 175:/home/jonas/warwick/3dProfilometer/xpcc/src/xpcc/architecture/platform/cortex_m3/stm32/spi/../stm32f2_4/gpio.hpp **** 			
 176:/home/jonas/warwick/3dProfilometer/xpcc/src/xpcc/architecture/platform/cortex_m3/stm32/spi/../stm32f2_4/gpio.hpp **** 			// AF 12 selection  
 177:/home/jonas/warwick/3dProfilometer/xpcc/src/xpcc/architecture/platform/cortex_m3/stm32/spi/../stm32f2_4/gpio.hpp **** 			AF_FSMC = 0xC,		///< FSMC Alternate Function mapping
 178:/home/jonas/warwick/3dProfilometer/xpcc/src/xpcc/architecture/platform/cortex_m3/stm32/spi/../stm32f2_4/gpio.hpp **** 			AF_OTG_HS_FS = 0xC,	///< OTG HS configured in FS, Alternate Function mapping
 179:/home/jonas/warwick/3dProfilometer/xpcc/src/xpcc/architecture/platform/cortex_m3/stm32/spi/../stm32f2_4/gpio.hpp **** 			AF_SDIO = 0xC,		///< SDIO Alternate Function mapping
 180:/home/jonas/warwick/3dProfilometer/xpcc/src/xpcc/architecture/platform/cortex_m3/stm32/spi/../stm32f2_4/gpio.hpp **** 			
 181:/home/jonas/warwick/3dProfilometer/xpcc/src/xpcc/architecture/platform/cortex_m3/stm32/spi/../stm32f2_4/gpio.hpp **** 			// AF 13 selection  
 182:/home/jonas/warwick/3dProfilometer/xpcc/src/xpcc/architecture/platform/cortex_m3/stm32/spi/../stm32f2_4/gpio.hpp **** 			AF_DCMI = 0x0D,		///< DCMI Alternate Function mapping
 183:/home/jonas/warwick/3dProfilometer/xpcc/src/xpcc/architecture/platform/cortex_m3/stm32/spi/../stm32f2_4/gpio.hpp **** 			
 184:/home/jonas/warwick/3dProfilometer/xpcc/src/xpcc/architecture/platform/cortex_m3/stm32/spi/../stm32f2_4/gpio.hpp **** 			// AF 15 selection  
 185:/home/jonas/warwick/3dProfilometer/xpcc/src/xpcc/architecture/platform/cortex_m3/stm32/spi/../stm32f2_4/gpio.hpp **** 			AF_EVENTOUT = 0x0F,	///< EVENTOUT Alternate Function mapping
 186:/home/jonas/warwick/3dProfilometer/xpcc/src/xpcc/architecture/platform/cortex_m3/stm32/spi/../stm32f2_4/gpio.hpp **** 			
 187:/home/jonas/warwick/3dProfilometer/xpcc/src/xpcc/architecture/platform/cortex_m3/stm32/spi/../stm32f2_4/gpio.hpp **** 			AF_0 = 0x00,		///< System
 188:/home/jonas/warwick/3dProfilometer/xpcc/src/xpcc/architecture/platform/cortex_m3/stm32/spi/../stm32f2_4/gpio.hpp **** 			AF_1 = 0x01,		///< TIM1/2
 189:/home/jonas/warwick/3dProfilometer/xpcc/src/xpcc/architecture/platform/cortex_m3/stm32/spi/../stm32f2_4/gpio.hpp **** 			AF_2 = 0x02,		///< TIM3..5
 190:/home/jonas/warwick/3dProfilometer/xpcc/src/xpcc/architecture/platform/cortex_m3/stm32/spi/../stm32f2_4/gpio.hpp **** 			AF_3 = 0x03,		///< TIM8...11
 191:/home/jonas/warwick/3dProfilometer/xpcc/src/xpcc/architecture/platform/cortex_m3/stm32/spi/../stm32f2_4/gpio.hpp **** 			AF_4 = 0x04,		///< I2C1..3
 192:/home/jonas/warwick/3dProfilometer/xpcc/src/xpcc/architecture/platform/cortex_m3/stm32/spi/../stm32f2_4/gpio.hpp **** 			AF_5 = 0x05,		///< SPI1/2
 193:/home/jonas/warwick/3dProfilometer/xpcc/src/xpcc/architecture/platform/cortex_m3/stm32/spi/../stm32f2_4/gpio.hpp **** 			AF_6 = 0x06,		///< SPI3
 194:/home/jonas/warwick/3dProfilometer/xpcc/src/xpcc/architecture/platform/cortex_m3/stm32/spi/../stm32f2_4/gpio.hpp **** 			AF_7 = 0x07,		///< USART1..3
 195:/home/jonas/warwick/3dProfilometer/xpcc/src/xpcc/architecture/platform/cortex_m3/stm32/spi/../stm32f2_4/gpio.hpp **** 			AF_8 = 0x08,		///< USART4..6
 196:/home/jonas/warwick/3dProfilometer/xpcc/src/xpcc/architecture/platform/cortex_m3/stm32/spi/../stm32f2_4/gpio.hpp **** 			AF_9 = 0x09,		///< CAN1/2, TIM12..14
 197:/home/jonas/warwick/3dProfilometer/xpcc/src/xpcc/architecture/platform/cortex_m3/stm32/spi/../stm32f2_4/gpio.hpp **** 			AF_10 = 0x0a,		///< OTG_FS, OTG_HS
 198:/home/jonas/warwick/3dProfilometer/xpcc/src/xpcc/architecture/platform/cortex_m3/stm32/spi/../stm32f2_4/gpio.hpp **** 			AF_11 = 0x0b,		///< ETH
 199:/home/jonas/warwick/3dProfilometer/xpcc/src/xpcc/architecture/platform/cortex_m3/stm32/spi/../stm32f2_4/gpio.hpp **** 			AF_12 = 0x0c,		///< FSMC, SDIO, OTG_HS (configured as FS)
 200:/home/jonas/warwick/3dProfilometer/xpcc/src/xpcc/architecture/platform/cortex_m3/stm32/spi/../stm32f2_4/gpio.hpp **** 			AF_13 = 0x0d,		///< DCMI
 201:/home/jonas/warwick/3dProfilometer/xpcc/src/xpcc/architecture/platform/cortex_m3/stm32/spi/../stm32f2_4/gpio.hpp **** 			AF_14 = 0x0e,		///< Reserved
 202:/home/jonas/warwick/3dProfilometer/xpcc/src/xpcc/architecture/platform/cortex_m3/stm32/spi/../stm32f2_4/gpio.hpp **** 			AF_15 = 0x0f,		///< EVENTOUT
 203:/home/jonas/warwick/3dProfilometer/xpcc/src/xpcc/architecture/platform/cortex_m3/stm32/spi/../stm32f2_4/gpio.hpp **** 		};
 204:/home/jonas/warwick/3dProfilometer/xpcc/src/xpcc/architecture/platform/cortex_m3/stm32/spi/../stm32f2_4/gpio.hpp **** 		
 205:/home/jonas/warwick/3dProfilometer/xpcc/src/xpcc/architecture/platform/cortex_m3/stm32/spi/../stm32f2_4/gpio.hpp **** 		/** \internal */
 206:/home/jonas/warwick/3dProfilometer/xpcc/src/xpcc/architecture/platform/cortex_m3/stm32/spi/../stm32f2_4/gpio.hpp **** 		template<unsigned int P, unsigned char N, bool = (N >= 8)>
 207:/home/jonas/warwick/3dProfilometer/xpcc/src/xpcc/architecture/platform/cortex_m3/stm32/spi/../stm32f2_4/gpio.hpp **** 		struct AlternateMode {
 208:/home/jonas/warwick/3dProfilometer/xpcc/src/xpcc/architecture/platform/cortex_m3/stm32/spi/../stm32f2_4/gpio.hpp **** 			ALWAYS_INLINE static void setMode(AlternateFunction m) {
 209:/home/jonas/warwick/3dProfilometer/xpcc/src/xpcc/architecture/platform/cortex_m3/stm32/spi/../stm32f2_4/gpio.hpp **** 				uint32_t tmp = reinterpret_cast<GPIO_TypeDef*>(P)->AFR[1];
  55              		.loc 2 209 0
  56 001c 5A6A     		ldr	r2, [r3, #36]
  57              	.LVL3:
 210:/home/jonas/warwick/3dProfilometer/xpcc/src/xpcc/architecture/platform/cortex_m3/stm32/spi/../stm32f2_4/gpio.hpp **** 				tmp &= ~(0xf << ((N - 8) * 4));
  58              		.loc 2 210 0
  59 001e 22F47062 		bic	r2, r2, #3840
  60              	.LVL4:
 211:/home/jonas/warwick/3dProfilometer/xpcc/src/xpcc/architecture/platform/cortex_m3/stm32/spi/../stm32f2_4/gpio.hpp **** 				tmp |= (m << ((N - 8) * 4));
  61              		.loc 2 211 0
  62 0022 42F4C062 		orr	r2, r2, #1536
  63              	.LVL5:
 212:/home/jonas/warwick/3dProfilometer/xpcc/src/xpcc/architecture/platform/cortex_m3/stm32/spi/../stm32f2_4/gpio.hpp **** 				reinterpret_cast<GPIO_TypeDef*>(P)->AFR[1] = tmp;
  64              		.loc 2 212 0
  65 0026 5A62     		str	r2, [r3, #36]
  66              	.LBE53:
  67              	.LBE52:
  47:/home/jonas/warwick/3dProfilometer/xpcc/src/xpcc/architecture/platform/cortex_m3/stm32/spi/spi_3.cpp **** 	GPIO__OUTPUT(SckC10, C, 10);
  68              		.loc 1 47 0
  69 0028 5A68     		ldr	r2, [r3, #4]
  70              	.LVL6:
  71 002a 22F48062 		bic	r2, r2, #1024
  72 002e 5A60     		str	r2, [r3, #4]
  73 0030 9A68     		ldr	r2, [r3, #8]
  74 0032 22F44012 		bic	r2, r2, #3145728
  75 0036 42F48012 		orr	r2, r2, #1048576
  76 003a 9A60     		str	r2, [r3, #8]
  77 003c DA68     		ldr	r2, [r3, #12]
  78 003e 22F44012 		bic	r2, r2, #3145728
  79 0042 DA60     		str	r2, [r3, #12]
  80              	.LVL7:
  81              	.LBE51:
  82              	.LBE50:
  83              	.LBB54:
  84              	.LBB55:
  48:/home/jonas/warwick/3dProfilometer/xpcc/src/xpcc/architecture/platform/cortex_m3/stm32/spi/spi_3.cpp **** 	GPIO__INPUT(MisoC11, C, 11);
  85              		.loc 1 48 0
  86 0044 1A68     		ldr	r2, [r3, #0]
  87 0046 22F44002 		bic	r2, r2, #12582912
  88 004a 42F40002 		orr	r2, r2, #8388608
  89 004e 1A60     		str	r2, [r3, #0]
  90              	.LVL8:
  91              	.LBB56:
  92              	.LBB57:
 209:/home/jonas/warwick/3dProfilometer/xpcc/src/xpcc/architecture/platform/cortex_m3/stm32/spi/../stm32f2_4/gpio.hpp **** 				uint32_t tmp = reinterpret_cast<GPIO_TypeDef*>(P)->AFR[1];
  93              		.loc 2 209 0
  94 0050 5A6A     		ldr	r2, [r3, #36]
  95              	.LVL9:
 210:/home/jonas/warwick/3dProfilometer/xpcc/src/xpcc/architecture/platform/cortex_m3/stm32/spi/../stm32f2_4/gpio.hpp **** 				tmp &= ~(0xf << ((N - 8) * 4));
  96              		.loc 2 210 0
  97 0052 22F47042 		bic	r2, r2, #61440
  98              	.LVL10:
 211:/home/jonas/warwick/3dProfilometer/xpcc/src/xpcc/architecture/platform/cortex_m3/stm32/spi/../stm32f2_4/gpio.hpp **** 				tmp |= (m << ((N - 8) * 4));
  99              		.loc 2 211 0
 100 0056 42F4C042 		orr	r2, r2, #24576
 101              	.LVL11:
 102              		.loc 2 212 0
 103 005a 5A62     		str	r2, [r3, #36]
 104              	.LBE57:
 105              	.LBE56:
  48:/home/jonas/warwick/3dProfilometer/xpcc/src/xpcc/architecture/platform/cortex_m3/stm32/spi/spi_3.cpp **** 	GPIO__INPUT(MisoC11, C, 11);
 106              		.loc 1 48 0
 107 005c 5A68     		ldr	r2, [r3, #4]
 108              	.LVL12:
 109 005e 22F40062 		bic	r2, r2, #2048
 110 0062 5A60     		str	r2, [r3, #4]
 111 0064 9A68     		ldr	r2, [r3, #8]
 112 0066 22F44002 		bic	r2, r2, #12582912
 113 006a 9A60     		str	r2, [r3, #8]
 114 006c DA68     		ldr	r2, [r3, #12]
 115 006e 22F44002 		bic	r2, r2, #12582912
 116 0072 DA60     		str	r2, [r3, #12]
 117              	.LVL13:
 118              	.LBE55:
 119              	.LBE54:
 120              	.LBB58:
 121              	.LBB59:
  49:/home/jonas/warwick/3dProfilometer/xpcc/src/xpcc/architecture/platform/cortex_m3/stm32/spi/spi_3.cpp **** 	GPIO__OUTPUT(MosiC12, C, 12);
 122              		.loc 1 49 0
 123 0074 1A68     		ldr	r2, [r3, #0]
 124 0076 22F04072 		bic	r2, r2, #50331648
 125 007a 42F00072 		orr	r2, r2, #33554432
 126 007e 1A60     		str	r2, [r3, #0]
 127              	.LVL14:
 128              	.LBB60:
 129              	.LBB61:
 209:/home/jonas/warwick/3dProfilometer/xpcc/src/xpcc/architecture/platform/cortex_m3/stm32/spi/../stm32f2_4/gpio.hpp **** 				uint32_t tmp = reinterpret_cast<GPIO_TypeDef*>(P)->AFR[1];
 130              		.loc 2 209 0
 131 0080 5A6A     		ldr	r2, [r3, #36]
 132              	.LVL15:
 210:/home/jonas/warwick/3dProfilometer/xpcc/src/xpcc/architecture/platform/cortex_m3/stm32/spi/../stm32f2_4/gpio.hpp **** 				tmp &= ~(0xf << ((N - 8) * 4));
 133              		.loc 2 210 0
 134 0082 22F47022 		bic	r2, r2, #983040
 135              	.LVL16:
 211:/home/jonas/warwick/3dProfilometer/xpcc/src/xpcc/architecture/platform/cortex_m3/stm32/spi/../stm32f2_4/gpio.hpp **** 				tmp |= (m << ((N - 8) * 4));
 136              		.loc 2 211 0
 137 0086 42F4C022 		orr	r2, r2, #393216
 138              	.LVL17:
 139              		.loc 2 212 0
 140 008a 5A62     		str	r2, [r3, #36]
 141              	.LBE61:
 142              	.LBE60:
  49:/home/jonas/warwick/3dProfilometer/xpcc/src/xpcc/architecture/platform/cortex_m3/stm32/spi/spi_3.cpp **** 	GPIO__OUTPUT(MosiC12, C, 12);
 143              		.loc 1 49 0
 144 008c 5A68     		ldr	r2, [r3, #4]
 145              	.LVL18:
 146 008e 22F48052 		bic	r2, r2, #4096
 147 0092 5A60     		str	r2, [r3, #4]
 148 0094 9A68     		ldr	r2, [r3, #8]
 149 0096 22F04072 		bic	r2, r2, #50331648
 150 009a 42F08072 		orr	r2, r2, #16777216
 151 009e 9A60     		str	r2, [r3, #8]
 152 00a0 DA68     		ldr	r2, [r3, #12]
 153 00a2 22F04072 		bic	r2, r2, #50331648
 154 00a6 DA60     		str	r2, [r3, #12]
 155 00a8 7047     		bx	lr
 156              	.LVL19:
 157              	.L5:
 158              	.LBE59:
 159              	.LBE58:
 160              	.LBB62:
 161              	.LBB63:
  43:/home/jonas/warwick/3dProfilometer/xpcc/src/xpcc/architecture/platform/cortex_m3/stm32/spi/spi_3.cpp **** 	GPIO__OUTPUT(SckB3, B, 3);
 162              		.loc 1 43 0
 163 00aa A3F55053 		sub	r3, r3, #13312
 164 00ae 1A68     		ldr	r2, [r3, #0]
 165 00b0 22F0C002 		bic	r2, r2, #192
 166 00b4 42F08002 		orr	r2, r2, #128
 167 00b8 1A60     		str	r2, [r3, #0]
 168              	.LVL20:
 169              	.LBB64:
 170              	.LBB65:
 213:/home/jonas/warwick/3dProfilometer/xpcc/src/xpcc/architecture/platform/cortex_m3/stm32/spi/../stm32f2_4/gpio.hpp **** 			}
 214:/home/jonas/warwick/3dProfilometer/xpcc/src/xpcc/architecture/platform/cortex_m3/stm32/spi/../stm32f2_4/gpio.hpp **** 		};
 215:/home/jonas/warwick/3dProfilometer/xpcc/src/xpcc/architecture/platform/cortex_m3/stm32/spi/../stm32f2_4/gpio.hpp **** 		
 216:/home/jonas/warwick/3dProfilometer/xpcc/src/xpcc/architecture/platform/cortex_m3/stm32/spi/../stm32f2_4/gpio.hpp **** 		/** \internal */
 217:/home/jonas/warwick/3dProfilometer/xpcc/src/xpcc/architecture/platform/cortex_m3/stm32/spi/../stm32f2_4/gpio.hpp **** 		template<unsigned int P, unsigned char N>
 218:/home/jonas/warwick/3dProfilometer/xpcc/src/xpcc/architecture/platform/cortex_m3/stm32/spi/../stm32f2_4/gpio.hpp **** 		struct AlternateMode<P, N, false> {
 219:/home/jonas/warwick/3dProfilometer/xpcc/src/xpcc/architecture/platform/cortex_m3/stm32/spi/../stm32f2_4/gpio.hpp **** 			ALWAYS_INLINE static void setMode(AlternateFunction m) {
 220:/home/jonas/warwick/3dProfilometer/xpcc/src/xpcc/architecture/platform/cortex_m3/stm32/spi/../stm32f2_4/gpio.hpp **** 				uint32_t tmp = reinterpret_cast<GPIO_TypeDef*>(P)->AFR[0];
 171              		.loc 2 220 0
 172 00ba 1A6A     		ldr	r2, [r3, #32]
 173              	.LVL21:
 221:/home/jonas/warwick/3dProfilometer/xpcc/src/xpcc/architecture/platform/cortex_m3/stm32/spi/../stm32f2_4/gpio.hpp **** 				tmp &= ~(0xf << (N * 4));
 174              		.loc 2 221 0
 175 00bc 22F47042 		bic	r2, r2, #61440
 176              	.LVL22:
 222:/home/jonas/warwick/3dProfilometer/xpcc/src/xpcc/architecture/platform/cortex_m3/stm32/spi/../stm32f2_4/gpio.hpp **** 				tmp |= m << (N * 4);
 177              		.loc 2 222 0
 178 00c0 42F4C042 		orr	r2, r2, #24576
 179              	.LVL23:
 223:/home/jonas/warwick/3dProfilometer/xpcc/src/xpcc/architecture/platform/cortex_m3/stm32/spi/../stm32f2_4/gpio.hpp **** 				reinterpret_cast<GPIO_TypeDef*>(P)->AFR[0] = tmp;
 180              		.loc 2 223 0
 181 00c4 1A62     		str	r2, [r3, #32]
 182              	.LBE65:
 183              	.LBE64:
  43:/home/jonas/warwick/3dProfilometer/xpcc/src/xpcc/architecture/platform/cortex_m3/stm32/spi/spi_3.cpp **** 	GPIO__OUTPUT(SckB3, B, 3);
 184              		.loc 1 43 0
 185 00c6 5A68     		ldr	r2, [r3, #4]
 186              	.LVL24:
 187 00c8 22F00802 		bic	r2, r2, #8
 188 00cc 5A60     		str	r2, [r3, #4]
 189 00ce 9A68     		ldr	r2, [r3, #8]
 190 00d0 22F0C002 		bic	r2, r2, #192
 191 00d4 42F04002 		orr	r2, r2, #64
 192 00d8 9A60     		str	r2, [r3, #8]
 193 00da DA68     		ldr	r2, [r3, #12]
 194 00dc 22F0C002 		bic	r2, r2, #192
 195 00e0 DA60     		str	r2, [r3, #12]
 196              	.LVL25:
 197              	.LBE63:
 198              	.LBE62:
 199              	.LBB66:
 200              	.LBB67:
  44:/home/jonas/warwick/3dProfilometer/xpcc/src/xpcc/architecture/platform/cortex_m3/stm32/spi/spi_3.cpp **** 	GPIO__INPUT(MisoB4, B, 4);
 201              		.loc 1 44 0
 202 00e2 1A68     		ldr	r2, [r3, #0]
 203 00e4 22F44072 		bic	r2, r2, #768
 204 00e8 42F40072 		orr	r2, r2, #512
 205 00ec 1A60     		str	r2, [r3, #0]
 206              	.LVL26:
 207              	.LBB68:
 208              	.LBB69:
 220:/home/jonas/warwick/3dProfilometer/xpcc/src/xpcc/architecture/platform/cortex_m3/stm32/spi/../stm32f2_4/gpio.hpp **** 				uint32_t tmp = reinterpret_cast<GPIO_TypeDef*>(P)->AFR[0];
 209              		.loc 2 220 0
 210 00ee 1A6A     		ldr	r2, [r3, #32]
 211              	.LVL27:
 221:/home/jonas/warwick/3dProfilometer/xpcc/src/xpcc/architecture/platform/cortex_m3/stm32/spi/../stm32f2_4/gpio.hpp **** 				tmp &= ~(0xf << (N * 4));
 212              		.loc 2 221 0
 213 00f0 22F47022 		bic	r2, r2, #983040
 214              	.LVL28:
 222:/home/jonas/warwick/3dProfilometer/xpcc/src/xpcc/architecture/platform/cortex_m3/stm32/spi/../stm32f2_4/gpio.hpp **** 				tmp |= m << (N * 4);
 215              		.loc 2 222 0
 216 00f4 42F4C022 		orr	r2, r2, #393216
 217              	.LVL29:
 218              		.loc 2 223 0
 219 00f8 1A62     		str	r2, [r3, #32]
 220              	.LBE69:
 221              	.LBE68:
  44:/home/jonas/warwick/3dProfilometer/xpcc/src/xpcc/architecture/platform/cortex_m3/stm32/spi/spi_3.cpp **** 	GPIO__INPUT(MisoB4, B, 4);
 222              		.loc 1 44 0
 223 00fa 5A68     		ldr	r2, [r3, #4]
 224              	.LVL30:
 225 00fc 22F01002 		bic	r2, r2, #16
 226 0100 5A60     		str	r2, [r3, #4]
 227 0102 9A68     		ldr	r2, [r3, #8]
 228 0104 22F44072 		bic	r2, r2, #768
 229 0108 9A60     		str	r2, [r3, #8]
 230 010a DA68     		ldr	r2, [r3, #12]
 231 010c 22F44072 		bic	r2, r2, #768
 232 0110 DA60     		str	r2, [r3, #12]
 233              	.LVL31:
 234              	.LBE67:
 235              	.LBE66:
 236              	.LBB70:
 237              	.LBB71:
  45:/home/jonas/warwick/3dProfilometer/xpcc/src/xpcc/architecture/platform/cortex_m3/stm32/spi/spi_3.cpp **** 	GPIO__OUTPUT(MosiB5, B, 5);
 238              		.loc 1 45 0
 239 0112 1A68     		ldr	r2, [r3, #0]
 240 0114 22F44062 		bic	r2, r2, #3072
 241 0118 42F40062 		orr	r2, r2, #2048
 242 011c 1A60     		str	r2, [r3, #0]
 243              	.LVL32:
 244              	.LBB72:
 245              	.LBB73:
 220:/home/jonas/warwick/3dProfilometer/xpcc/src/xpcc/architecture/platform/cortex_m3/stm32/spi/../stm32f2_4/gpio.hpp **** 				uint32_t tmp = reinterpret_cast<GPIO_TypeDef*>(P)->AFR[0];
 246              		.loc 2 220 0
 247 011e 1A6A     		ldr	r2, [r3, #32]
 248              	.LVL33:
 221:/home/jonas/warwick/3dProfilometer/xpcc/src/xpcc/architecture/platform/cortex_m3/stm32/spi/../stm32f2_4/gpio.hpp **** 				tmp &= ~(0xf << (N * 4));
 249              		.loc 2 221 0
 250 0120 22F47002 		bic	r2, r2, #15728640
 251              	.LVL34:
 222:/home/jonas/warwick/3dProfilometer/xpcc/src/xpcc/architecture/platform/cortex_m3/stm32/spi/../stm32f2_4/gpio.hpp **** 				tmp |= m << (N * 4);
 252              		.loc 2 222 0
 253 0124 42F4C002 		orr	r2, r2, #6291456
 254              	.LVL35:
 255              		.loc 2 223 0
 256 0128 1A62     		str	r2, [r3, #32]
 257              	.LBE73:
 258              	.LBE72:
  45:/home/jonas/warwick/3dProfilometer/xpcc/src/xpcc/architecture/platform/cortex_m3/stm32/spi/spi_3.cpp **** 	GPIO__OUTPUT(MosiB5, B, 5);
 259              		.loc 1 45 0
 260 012a 5A68     		ldr	r2, [r3, #4]
 261              	.LVL36:
 262 012c 22F02002 		bic	r2, r2, #32
 263 0130 5A60     		str	r2, [r3, #4]
 264 0132 9A68     		ldr	r2, [r3, #8]
 265 0134 22F44062 		bic	r2, r2, #3072
 266 0138 42F48062 		orr	r2, r2, #1024
 267 013c 9A60     		str	r2, [r3, #8]
 268 013e DA68     		ldr	r2, [r3, #12]
 269 0140 22F44062 		bic	r2, r2, #3072
 270 0144 DA60     		str	r2, [r3, #12]
 271 0146 7047     		bx	lr
 272              	.L7:
 273              		.align	2
 274              	.L6:
 275 0148 00380240 		.word	1073887232
 276 014c 00080240 		.word	1073874944
 277              	.LBE71:
 278              	.LBE70:
 279              		.cfi_endproc
 280              	.LFE176:
 282              		.section	.text._ZN4xpcc5stm3210SpiMaster310initializeENS1_4ModeENS1_9PrescalerE,"ax",%progbits
 283              		.align	2
 284              		.global	_ZN4xpcc5stm3210SpiMaster310initializeENS1_4ModeENS1_9PrescalerE
 285              		.thumb
 286              		.thumb_func
 288              	_ZN4xpcc5stm3210SpiMaster310initializeENS1_4ModeENS1_9PrescalerE:
 289              	.LFB177:
  76:/home/jonas/warwick/3dProfilometer/xpcc/src/xpcc/architecture/platform/cortex_m3/stm32/spi/spi_3.cpp **** 		SckB3::setAlternateFunction(AF_SPI3, xpcc::stm32::PUSH_PULL);
  77:/home/jonas/warwick/3dProfilometer/xpcc/src/xpcc/architecture/platform/cortex_m3/stm32/spi/spi_3.cpp **** 		MisoB4::setAlternateFunction(AF_SPI3);
  78:/home/jonas/warwick/3dProfilometer/xpcc/src/xpcc/architecture/platform/cortex_m3/stm32/spi/spi_3.cpp **** 		MosiB5::setAlternateFunction(AF_SPI3, xpcc::stm32::PUSH_PULL);
  79:/home/jonas/warwick/3dProfilometer/xpcc/src/xpcc/architecture/platform/cortex_m3/stm32/spi/spi_3.cpp **** 	}
  80:/home/jonas/warwick/3dProfilometer/xpcc/src/xpcc/architecture/platform/cortex_m3/stm32/spi/spi_3.cpp **** 	else {
  81:/home/jonas/warwick/3dProfilometer/xpcc/src/xpcc/architecture/platform/cortex_m3/stm32/spi/spi_3.cpp **** 		SckC10::setAlternateFunction(AF_SPI3, xpcc::stm32::PUSH_PULL);
  82:/home/jonas/warwick/3dProfilometer/xpcc/src/xpcc/architecture/platform/cortex_m3/stm32/spi/spi_3.cpp **** 		MisoC11::setAlternateFunction(AF_SPI3);
  83:/home/jonas/warwick/3dProfilometer/xpcc/src/xpcc/architecture/platform/cortex_m3/stm32/spi/spi_3.cpp **** 		MosiC12::setAlternateFunction(AF_SPI3, xpcc::stm32::PUSH_PULL);
  84:/home/jonas/warwick/3dProfilometer/xpcc/src/xpcc/architecture/platform/cortex_m3/stm32/spi/spi_3.cpp **** 	}
  85:/home/jonas/warwick/3dProfilometer/xpcc/src/xpcc/architecture/platform/cortex_m3/stm32/spi/spi_3.cpp **** #else
  86:/home/jonas/warwick/3dProfilometer/xpcc/src/xpcc/architecture/platform/cortex_m3/stm32/spi/spi_3.cpp **** 	(void) mapping;		// avoid compiler warning
  87:/home/jonas/warwick/3dProfilometer/xpcc/src/xpcc/architecture/platform/cortex_m3/stm32/spi/spi_3.cpp **** 	
  88:/home/jonas/warwick/3dProfilometer/xpcc/src/xpcc/architecture/platform/cortex_m3/stm32/spi/spi_3.cpp **** #if defined(STM32F10X_CL)
  89:/home/jonas/warwick/3dProfilometer/xpcc/src/xpcc/architecture/platform/cortex_m3/stm32/spi/spi_3.cpp **** 	AFIO->MAPR = (AFIO->MAPR & ~AFIO_MAPR_SPI3_REMAP) | mapping;
  90:/home/jonas/warwick/3dProfilometer/xpcc/src/xpcc/architecture/platform/cortex_m3/stm32/spi/spi_3.cpp **** 	if (mapping == REMAP_PB3_PB4_PB5) {
  91:/home/jonas/warwick/3dProfilometer/xpcc/src/xpcc/architecture/platform/cortex_m3/stm32/spi/spi_3.cpp **** #endif
  92:/home/jonas/warwick/3dProfilometer/xpcc/src/xpcc/architecture/platform/cortex_m3/stm32/spi/spi_3.cpp **** 		SckB3::setAlternateFunction(xpcc::stm32::PUSH_PULL);
  93:/home/jonas/warwick/3dProfilometer/xpcc/src/xpcc/architecture/platform/cortex_m3/stm32/spi/spi_3.cpp **** 		MisoB4::setInput(xpcc::stm32::FLOATING);
  94:/home/jonas/warwick/3dProfilometer/xpcc/src/xpcc/architecture/platform/cortex_m3/stm32/spi/spi_3.cpp **** 		MosiB5::setAlternateFunction(xpcc::stm32::PUSH_PULL);
  95:/home/jonas/warwick/3dProfilometer/xpcc/src/xpcc/architecture/platform/cortex_m3/stm32/spi/spi_3.cpp **** #if defined(STM32F10X_CL)
  96:/home/jonas/warwick/3dProfilometer/xpcc/src/xpcc/architecture/platform/cortex_m3/stm32/spi/spi_3.cpp **** 	}
  97:/home/jonas/warwick/3dProfilometer/xpcc/src/xpcc/architecture/platform/cortex_m3/stm32/spi/spi_3.cpp **** 	else {
  98:/home/jonas/warwick/3dProfilometer/xpcc/src/xpcc/architecture/platform/cortex_m3/stm32/spi/spi_3.cpp **** 		SckC10::setAlternateFunction(xpcc::stm32::PUSH_PULL);
  99:/home/jonas/warwick/3dProfilometer/xpcc/src/xpcc/architecture/platform/cortex_m3/stm32/spi/spi_3.cpp **** 		MisoC11::setInput(xpcc::stm32::FLOATING);
 100:/home/jonas/warwick/3dProfilometer/xpcc/src/xpcc/architecture/platform/cortex_m3/stm32/spi/spi_3.cpp **** 		MosiC12::setAlternateFunction(xpcc::stm32::PUSH_PULL);
 101:/home/jonas/warwick/3dProfilometer/xpcc/src/xpcc/architecture/platform/cortex_m3/stm32/spi/spi_3.cpp **** 	}
 102:/home/jonas/warwick/3dProfilometer/xpcc/src/xpcc/architecture/platform/cortex_m3/stm32/spi/spi_3.cpp **** #endif
 103:/home/jonas/warwick/3dProfilometer/xpcc/src/xpcc/architecture/platform/cortex_m3/stm32/spi/spi_3.cpp **** #endif
 104:/home/jonas/warwick/3dProfilometer/xpcc/src/xpcc/architecture/platform/cortex_m3/stm32/spi/spi_3.cpp **** }
 105:/home/jonas/warwick/3dProfilometer/xpcc/src/xpcc/architecture/platform/cortex_m3/stm32/spi/spi_3.cpp **** 
 106:/home/jonas/warwick/3dProfilometer/xpcc/src/xpcc/architecture/platform/cortex_m3/stm32/spi/spi_3.cpp **** 
 107:/home/jonas/warwick/3dProfilometer/xpcc/src/xpcc/architecture/platform/cortex_m3/stm32/spi/spi_3.cpp **** // ----------------------------------------------------------------------------
 108:/home/jonas/warwick/3dProfilometer/xpcc/src/xpcc/architecture/platform/cortex_m3/stm32/spi/spi_3.cpp **** void
 109:/home/jonas/warwick/3dProfilometer/xpcc/src/xpcc/architecture/platform/cortex_m3/stm32/spi/spi_3.cpp **** xpcc::stm32::SpiMaster3::initialize(Mode mode, Prescaler prescaler)
 110:/home/jonas/warwick/3dProfilometer/xpcc/src/xpcc/architecture/platform/cortex_m3/stm32/spi/spi_3.cpp **** {
 290              		.loc 1 110 0
 291              		.cfi_startproc
 292              		@ args = 0, pretend = 0, frame = 0
 293              		@ frame_needed = 0, uses_anonymous_args = 0
 294              		@ link register save eliminated.
 295              	.LVL37:
 111:/home/jonas/warwick/3dProfilometer/xpcc/src/xpcc/architecture/platform/cortex_m3/stm32/spi/spi_3.cpp **** 	RCC->APB1ENR |= RCC_APB1ENR_SPI3EN;
 296              		.loc 1 111 0
 297 0000 124A     		ldr	r2, .L9
 112:/home/jonas/warwick/3dProfilometer/xpcc/src/xpcc/architecture/platform/cortex_m3/stm32/spi/spi_3.cpp **** 	
 113:/home/jonas/warwick/3dProfilometer/xpcc/src/xpcc/architecture/platform/cortex_m3/stm32/spi/spi_3.cpp **** 	RCC->APB1RSTR |=  RCC_APB1RSTR_SPI3RST;
 114:/home/jonas/warwick/3dProfilometer/xpcc/src/xpcc/architecture/platform/cortex_m3/stm32/spi/spi_3.cpp **** 	RCC->APB1RSTR &= ~RCC_APB1RSTR_SPI3RST;
 115:/home/jonas/warwick/3dProfilometer/xpcc/src/xpcc/architecture/platform/cortex_m3/stm32/spi/spi_3.cpp **** 	
 116:/home/jonas/warwick/3dProfilometer/xpcc/src/xpcc/architecture/platform/cortex_m3/stm32/spi/spi_3.cpp **** 	// disable all interrupts
 117:/home/jonas/warwick/3dProfilometer/xpcc/src/xpcc/architecture/platform/cortex_m3/stm32/spi/spi_3.cpp **** 	SPI3->CR2 &= ~(SPI_CR2_TXEIE  | SPI_CR2_RXNEIE  | SPI_CR2_ERRIE);
 298              		.loc 1 117 0
 299 0002 134B     		ldr	r3, .L9+4
 110:/home/jonas/warwick/3dProfilometer/xpcc/src/xpcc/architecture/platform/cortex_m3/stm32/spi/spi_3.cpp **** {
 300              		.loc 1 110 0
 301 0004 10B4     		push	{r4}
 302              	.LCFI0:
 303              		.cfi_def_cfa_offset 4
 304              		.cfi_offset 4, -4
 111:/home/jonas/warwick/3dProfilometer/xpcc/src/xpcc/architecture/platform/cortex_m3/stm32/spi/spi_3.cpp **** 	RCC->APB1ENR |= RCC_APB1ENR_SPI3EN;
 305              		.loc 1 111 0
 306 0006 146C     		ldr	r4, [r2, #64]
 307 0008 44F40044 		orr	r4, r4, #32768
 308 000c 1464     		str	r4, [r2, #64]
 113:/home/jonas/warwick/3dProfilometer/xpcc/src/xpcc/architecture/platform/cortex_m3/stm32/spi/spi_3.cpp **** 	RCC->APB1RSTR |=  RCC_APB1RSTR_SPI3RST;
 309              		.loc 1 113 0
 310 000e 146A     		ldr	r4, [r2, #32]
 311 0010 44F48034 		orr	r4, r4, #65536
 312 0014 1462     		str	r4, [r2, #32]
 114:/home/jonas/warwick/3dProfilometer/xpcc/src/xpcc/architecture/platform/cortex_m3/stm32/spi/spi_3.cpp **** 	RCC->APB1RSTR &= ~RCC_APB1RSTR_SPI3RST;
 313              		.loc 1 114 0
 314 0016 146A     		ldr	r4, [r2, #32]
 315 0018 24F48034 		bic	r4, r4, #65536
 316 001c 1462     		str	r4, [r2, #32]
 317              		.loc 1 117 0
 318 001e 9A88     		ldrh	r2, [r3, #4]
 319 0020 22F0E002 		bic	r2, r2, #224
 320 0024 1204     		lsls	r2, r2, #16
 321 0026 120C     		lsrs	r2, r2, #16
 322 0028 9A80     		strh	r2, [r3, #4]	@ movhi
 118:/home/jonas/warwick/3dProfilometer/xpcc/src/xpcc/architecture/platform/cortex_m3/stm32/spi/spi_3.cpp **** 	
 119:/home/jonas/warwick/3dProfilometer/xpcc/src/xpcc/architecture/platform/cortex_m3/stm32/spi/spi_3.cpp **** 	// disable peripheral
 120:/home/jonas/warwick/3dProfilometer/xpcc/src/xpcc/architecture/platform/cortex_m3/stm32/spi/spi_3.cpp **** 	SPI3->CR1 &= ~SPI_CR1_SPE;
 323              		.loc 1 120 0
 324 002a 1A88     		ldrh	r2, [r3, #0]
 325 002c 22F04002 		bic	r2, r2, #64
 326 0030 1204     		lsls	r2, r2, #16
 121:/home/jonas/warwick/3dProfilometer/xpcc/src/xpcc/architecture/platform/cortex_m3/stm32/spi/spi_3.cpp **** 	
 122:/home/jonas/warwick/3dProfilometer/xpcc/src/xpcc/architecture/platform/cortex_m3/stm32/spi/spi_3.cpp **** 	// set new mode
 123:/home/jonas/warwick/3dProfilometer/xpcc/src/xpcc/architecture/platform/cortex_m3/stm32/spi/spi_3.cpp **** 	SPI3->CR1 = prescaler | mode | SPI_CR1_MSTR | SPI_CR1_SSM | SPI_CR1_SSI;
 327              		.loc 1 123 0
 328 0032 0143     		orrs	r1, r1, r0
 329              	.LVL38:
 120:/home/jonas/warwick/3dProfilometer/xpcc/src/xpcc/architecture/platform/cortex_m3/stm32/spi/spi_3.cpp **** 	SPI3->CR1 &= ~SPI_CR1_SPE;
 330              		.loc 1 120 0
 331 0034 120C     		lsrs	r2, r2, #16
 332              		.loc 1 123 0
 333 0036 41F44171 		orr	r1, r1, #772
 120:/home/jonas/warwick/3dProfilometer/xpcc/src/xpcc/architecture/platform/cortex_m3/stm32/spi/spi_3.cpp **** 	SPI3->CR1 &= ~SPI_CR1_SPE;
 334              		.loc 1 120 0
 335 003a 1A80     		strh	r2, [r3, #0]	@ movhi
 336              		.loc 1 123 0
 337 003c 1980     		strh	r1, [r3, #0]	@ movhi
 124:/home/jonas/warwick/3dProfilometer/xpcc/src/xpcc/architecture/platform/cortex_m3/stm32/spi/spi_3.cpp **** 	    
 125:/home/jonas/warwick/3dProfilometer/xpcc/src/xpcc/architecture/platform/cortex_m3/stm32/spi/spi_3.cpp **** 	// reenable peripheral
 126:/home/jonas/warwick/3dProfilometer/xpcc/src/xpcc/architecture/platform/cortex_m3/stm32/spi/spi_3.cpp **** 	SPI3->CR1 |= SPI_CR1_SPE;
 338              		.loc 1 126 0
 339 003e 1A88     		ldrh	r2, [r3, #0]
 340 0040 92B2     		uxth	r2, r2
 341 0042 42F04002 		orr	r2, r2, #64
 342 0046 1A80     		strh	r2, [r3, #0]	@ movhi
 127:/home/jonas/warwick/3dProfilometer/xpcc/src/xpcc/architecture/platform/cortex_m3/stm32/spi/spi_3.cpp **** }
 343              		.loc 1 127 0
 344 0048 10BC     		pop	{r4}
 345 004a 7047     		bx	lr
 346              	.L10:
 347              		.align	2
 348              	.L9:
 349 004c 00380240 		.word	1073887232
 350 0050 003C0040 		.word	1073757184
 351              		.cfi_endproc
 352              	.LFE177:
 354              		.section	.text._ZN4xpcc5stm3210SpiMaster39setBufferEtPhS2_NS_9SpiMaster14BufferIncreaseE,"ax",%pro
 355              		.align	2
 356              		.global	_ZN4xpcc5stm3210SpiMaster39setBufferEtPhS2_NS_9SpiMaster14BufferIncreaseE
 357              		.thumb
 358              		.thumb_func
 360              	_ZN4xpcc5stm3210SpiMaster39setBufferEtPhS2_NS_9SpiMaster14BufferIncreaseE:
 361              	.LFB178:
 128:/home/jonas/warwick/3dProfilometer/xpcc/src/xpcc/architecture/platform/cortex_m3/stm32/spi/spi_3.cpp **** 	
 129:/home/jonas/warwick/3dProfilometer/xpcc/src/xpcc/architecture/platform/cortex_m3/stm32/spi/spi_3.cpp **** // ----------------------------------------------------------------------------
 130:/home/jonas/warwick/3dProfilometer/xpcc/src/xpcc/architecture/platform/cortex_m3/stm32/spi/spi_3.cpp **** bool
 131:/home/jonas/warwick/3dProfilometer/xpcc/src/xpcc/architecture/platform/cortex_m3/stm32/spi/spi_3.cpp **** xpcc::stm32::SpiMaster3::setBuffer(uint16_t length, uint8_t* transmit, uint8_t* receive, BufferIncr
 132:/home/jonas/warwick/3dProfilometer/xpcc/src/xpcc/architecture/platform/cortex_m3/stm32/spi/spi_3.cpp **** {
 362              		.loc 1 132 0
 363              		.cfi_startproc
 364              		@ args = 0, pretend = 0, frame = 0
 365              		@ frame_needed = 0, uses_anonymous_args = 0
 366              		@ link register save eliminated.
 367              	.LVL39:
 368 0000 70B4     		push	{r4, r5, r6}
 369              	.LCFI1:
 370              		.cfi_def_cfa_offset 12
 371              		.cfi_offset 4, -12
 372              		.cfi_offset 5, -8
 373              		.cfi_offset 6, -4
 374              	.LBB74:
 375              	.LBB75:
 133:/home/jonas/warwick/3dProfilometer/xpcc/src/xpcc/architecture/platform/cortex_m3/stm32/spi/spi_3.cpp **** 	if (!isFinished()) {
 134:/home/jonas/warwick/3dProfilometer/xpcc/src/xpcc/architecture/platform/cortex_m3/stm32/spi/spi_3.cpp **** 		return false;
 135:/home/jonas/warwick/3dProfilometer/xpcc/src/xpcc/architecture/platform/cortex_m3/stm32/spi/spi_3.cpp **** 	}
 136:/home/jonas/warwick/3dProfilometer/xpcc/src/xpcc/architecture/platform/cortex_m3/stm32/spi/spi_3.cpp **** 	
 137:/home/jonas/warwick/3dProfilometer/xpcc/src/xpcc/architecture/platform/cortex_m3/stm32/spi/spi_3.cpp **** 	transmitBuffer = transmit;
 138:/home/jonas/warwick/3dProfilometer/xpcc/src/xpcc/architecture/platform/cortex_m3/stm32/spi/spi_3.cpp **** 	receiveBuffer = receive ? receive : transmit;
 139:/home/jonas/warwick/3dProfilometer/xpcc/src/xpcc/architecture/platform/cortex_m3/stm32/spi/spi_3.cpp **** 	bufferLength = length;
 140:/home/jonas/warwick/3dProfilometer/xpcc/src/xpcc/architecture/platform/cortex_m3/stm32/spi/spi_3.cpp **** 	
 141:/home/jonas/warwick/3dProfilometer/xpcc/src/xpcc/architecture/platform/cortex_m3/stm32/spi/spi_3.cpp **** 	status &= ~(BUFFER_TRANSMIT_INCR_bm | BUFFER_RECEIVE_INCR_bm);
 142:/home/jonas/warwick/3dProfilometer/xpcc/src/xpcc/architecture/platform/cortex_m3/stm32/spi/spi_3.cpp **** 	status |= bufferIncrease;
 143:/home/jonas/warwick/3dProfilometer/xpcc/src/xpcc/architecture/platform/cortex_m3/stm32/spi/spi_3.cpp **** 	
 144:/home/jonas/warwick/3dProfilometer/xpcc/src/xpcc/architecture/platform/cortex_m3/stm32/spi/spi_3.cpp **** 	return true;
 145:/home/jonas/warwick/3dProfilometer/xpcc/src/xpcc/architecture/platform/cortex_m3/stm32/spi/spi_3.cpp **** }
 146:/home/jonas/warwick/3dProfilometer/xpcc/src/xpcc/architecture/platform/cortex_m3/stm32/spi/spi_3.cpp **** 
 147:/home/jonas/warwick/3dProfilometer/xpcc/src/xpcc/architecture/platform/cortex_m3/stm32/spi/spi_3.cpp **** bool
 148:/home/jonas/warwick/3dProfilometer/xpcc/src/xpcc/architecture/platform/cortex_m3/stm32/spi/spi_3.cpp **** xpcc::stm32::SpiMaster3::transfer(TransferOptions options)
 149:/home/jonas/warwick/3dProfilometer/xpcc/src/xpcc/architecture/platform/cortex_m3/stm32/spi/spi_3.cpp **** {
 150:/home/jonas/warwick/3dProfilometer/xpcc/src/xpcc/architecture/platform/cortex_m3/stm32/spi/spi_3.cpp **** 	if (status & BUFFER_IS_BUSY_SYNC_bm) {
 151:/home/jonas/warwick/3dProfilometer/xpcc/src/xpcc/architecture/platform/cortex_m3/stm32/spi/spi_3.cpp **** 		return false;
 152:/home/jonas/warwick/3dProfilometer/xpcc/src/xpcc/architecture/platform/cortex_m3/stm32/spi/spi_3.cpp **** 	}
 153:/home/jonas/warwick/3dProfilometer/xpcc/src/xpcc/architecture/platform/cortex_m3/stm32/spi/spi_3.cpp **** 	
 154:/home/jonas/warwick/3dProfilometer/xpcc/src/xpcc/architecture/platform/cortex_m3/stm32/spi/spi_3.cpp **** 	uint8_t rx(0), tx(0xff);
 155:/home/jonas/warwick/3dProfilometer/xpcc/src/xpcc/architecture/platform/cortex_m3/stm32/spi/spi_3.cpp **** 	// send the buffer out, blocking
 156:/home/jonas/warwick/3dProfilometer/xpcc/src/xpcc/architecture/platform/cortex_m3/stm32/spi/spi_3.cpp **** 	status |= BUFFER_IS_BUSY_SYNC_bm;
 157:/home/jonas/warwick/3dProfilometer/xpcc/src/xpcc/architecture/platform/cortex_m3/stm32/spi/spi_3.cpp **** 	// check if we have to use a dummy buffer
 158:/home/jonas/warwick/3dProfilometer/xpcc/src/xpcc/architecture/platform/cortex_m3/stm32/spi/spi_3.cpp **** 	bool transmit = (options & TRANSFER_SEND_BUFFER_DISCARD_RECEIVE) & static_cast<bool>(transmitBuffe
 159:/home/jonas/warwick/3dProfilometer/xpcc/src/xpcc/architecture/platform/cortex_m3/stm32/spi/spi_3.cpp **** 	bool receive = (options & TRANSFER_SEND_DUMMY_SAVE_RECEIVE) & static_cast<bool>(receiveBuffer);
 160:/home/jonas/warwick/3dProfilometer/xpcc/src/xpcc/architecture/platform/cortex_m3/stm32/spi/spi_3.cpp **** 	
 161:/home/jonas/warwick/3dProfilometer/xpcc/src/xpcc/architecture/platform/cortex_m3/stm32/spi/spi_3.cpp **** 	for(uint_fast16_t i=0; i < bufferLength; ++i)
 162:/home/jonas/warwick/3dProfilometer/xpcc/src/xpcc/architecture/platform/cortex_m3/stm32/spi/spi_3.cpp **** 	{
 163:/home/jonas/warwick/3dProfilometer/xpcc/src/xpcc/architecture/platform/cortex_m3/stm32/spi/spi_3.cpp **** 		if (transmit) {
 164:/home/jonas/warwick/3dProfilometer/xpcc/src/xpcc/architecture/platform/cortex_m3/stm32/spi/spi_3.cpp **** 			tx = transmitBuffer[(status & BUFFER_TRANSMIT_INCR_bm) ? i : bufferLength-1-i];
 165:/home/jonas/warwick/3dProfilometer/xpcc/src/xpcc/architecture/platform/cortex_m3/stm32/spi/spi_3.cpp **** 		}
 166:/home/jonas/warwick/3dProfilometer/xpcc/src/xpcc/architecture/platform/cortex_m3/stm32/spi/spi_3.cpp **** 		
 167:/home/jonas/warwick/3dProfilometer/xpcc/src/xpcc/architecture/platform/cortex_m3/stm32/spi/spi_3.cpp **** 		rx = write(tx);
 168:/home/jonas/warwick/3dProfilometer/xpcc/src/xpcc/architecture/platform/cortex_m3/stm32/spi/spi_3.cpp **** 		
 169:/home/jonas/warwick/3dProfilometer/xpcc/src/xpcc/architecture/platform/cortex_m3/stm32/spi/spi_3.cpp **** 		if (receive) {
 170:/home/jonas/warwick/3dProfilometer/xpcc/src/xpcc/architecture/platform/cortex_m3/stm32/spi/spi_3.cpp **** 			receiveBuffer[(status & BUFFER_RECEIVE_INCR_bm) ? i : bufferLength-1-i] = rx;
 171:/home/jonas/warwick/3dProfilometer/xpcc/src/xpcc/architecture/platform/cortex_m3/stm32/spi/spi_3.cpp **** 		}
 172:/home/jonas/warwick/3dProfilometer/xpcc/src/xpcc/architecture/platform/cortex_m3/stm32/spi/spi_3.cpp **** 	}
 173:/home/jonas/warwick/3dProfilometer/xpcc/src/xpcc/architecture/platform/cortex_m3/stm32/spi/spi_3.cpp **** 	
 174:/home/jonas/warwick/3dProfilometer/xpcc/src/xpcc/architecture/platform/cortex_m3/stm32/spi/spi_3.cpp **** 	status &= ~BUFFER_IS_BUSY_SYNC_bm;
 175:/home/jonas/warwick/3dProfilometer/xpcc/src/xpcc/architecture/platform/cortex_m3/stm32/spi/spi_3.cpp **** 	
 176:/home/jonas/warwick/3dProfilometer/xpcc/src/xpcc/architecture/platform/cortex_m3/stm32/spi/spi_3.cpp **** 	return true;
 177:/home/jonas/warwick/3dProfilometer/xpcc/src/xpcc/architecture/platform/cortex_m3/stm32/spi/spi_3.cpp **** }
 178:/home/jonas/warwick/3dProfilometer/xpcc/src/xpcc/architecture/platform/cortex_m3/stm32/spi/spi_3.cpp **** 
 179:/home/jonas/warwick/3dProfilometer/xpcc/src/xpcc/architecture/platform/cortex_m3/stm32/spi/spi_3.cpp **** bool
 180:/home/jonas/warwick/3dProfilometer/xpcc/src/xpcc/architecture/platform/cortex_m3/stm32/spi/spi_3.cpp **** xpcc::stm32::SpiMaster3::transferSync(TransferOptions options)
 181:/home/jonas/warwick/3dProfilometer/xpcc/src/xpcc/architecture/platform/cortex_m3/stm32/spi/spi_3.cpp **** {
 182:/home/jonas/warwick/3dProfilometer/xpcc/src/xpcc/architecture/platform/cortex_m3/stm32/spi/spi_3.cpp **** 	return transfer(options);
 183:/home/jonas/warwick/3dProfilometer/xpcc/src/xpcc/architecture/platform/cortex_m3/stm32/spi/spi_3.cpp **** }
 184:/home/jonas/warwick/3dProfilometer/xpcc/src/xpcc/architecture/platform/cortex_m3/stm32/spi/spi_3.cpp **** 
 185:/home/jonas/warwick/3dProfilometer/xpcc/src/xpcc/architecture/platform/cortex_m3/stm32/spi/spi_3.cpp **** bool
 186:/home/jonas/warwick/3dProfilometer/xpcc/src/xpcc/architecture/platform/cortex_m3/stm32/spi/spi_3.cpp **** xpcc::stm32::SpiMaster3::isFinished()
 187:/home/jonas/warwick/3dProfilometer/xpcc/src/xpcc/architecture/platform/cortex_m3/stm32/spi/spi_3.cpp **** {
 188:/home/jonas/warwick/3dProfilometer/xpcc/src/xpcc/architecture/platform/cortex_m3/stm32/spi/spi_3.cpp **** 	return !(status & BUFFER_IS_BUSY_SYNC_bm);
 376              		.loc 1 188 0
 377 0002 0C4C     		ldr	r4, .L16
 378 0004 2578     		ldrb	r5, [r4, #0]	@ zero_extendqisi2
 379              	.LBE75:
 380              	.LBE74:
 133:/home/jonas/warwick/3dProfilometer/xpcc/src/xpcc/architecture/platform/cortex_m3/stm32/spi/spi_3.cpp **** 	if (!isFinished()) {
 381              		.loc 1 133 0
 382 0006 05F02006 		and	r6, r5, #32
 383 000a F6B2     		uxtb	r6, r6
 384 000c 7EB9     		cbnz	r6, .L14
 137:/home/jonas/warwick/3dProfilometer/xpcc/src/xpcc/architecture/platform/cortex_m3/stm32/spi/spi_3.cpp **** 	transmitBuffer = transmit;
 385              		.loc 1 137 0
 386 000e 0A4E     		ldr	r6, .L16+4
 138:/home/jonas/warwick/3dProfilometer/xpcc/src/xpcc/architecture/platform/cortex_m3/stm32/spi/spi_3.cpp **** 	receiveBuffer = receive ? receive : transmit;
 387              		.loc 1 138 0
 388 0010 002A     		cmp	r2, #0
 389 0012 08BF     		it	eq
 390 0014 0A46     		moveq	r2, r1
 391              	.LVL40:
 137:/home/jonas/warwick/3dProfilometer/xpcc/src/xpcc/architecture/platform/cortex_m3/stm32/spi/spi_3.cpp **** 	transmitBuffer = transmit;
 392              		.loc 1 137 0
 393 0016 3160     		str	r1, [r6, #0]
 138:/home/jonas/warwick/3dProfilometer/xpcc/src/xpcc/architecture/platform/cortex_m3/stm32/spi/spi_3.cpp **** 	receiveBuffer = receive ? receive : transmit;
 394              		.loc 1 138 0
 395 0018 0849     		ldr	r1, .L16+8
 396              	.LVL41:
 141:/home/jonas/warwick/3dProfilometer/xpcc/src/xpcc/architecture/platform/cortex_m3/stm32/spi/spi_3.cpp **** 	status &= ~(BUFFER_TRANSMIT_INCR_bm | BUFFER_RECEIVE_INCR_bm);
 397              		.loc 1 141 0
 398 001a 25F00305 		bic	r5, r5, #3
 138:/home/jonas/warwick/3dProfilometer/xpcc/src/xpcc/architecture/platform/cortex_m3/stm32/spi/spi_3.cpp **** 	receiveBuffer = receive ? receive : transmit;
 399              		.loc 1 138 0
 400 001e 0A60     		str	r2, [r1, #0]
 139:/home/jonas/warwick/3dProfilometer/xpcc/src/xpcc/architecture/platform/cortex_m3/stm32/spi/spi_3.cpp **** 	bufferLength = length;
 401              		.loc 1 139 0
 402 0020 074A     		ldr	r2, .L16+12
 142:/home/jonas/warwick/3dProfilometer/xpcc/src/xpcc/architecture/platform/cortex_m3/stm32/spi/spi_3.cpp **** 	status |= bufferIncrease;
 403              		.loc 1 142 0
 404 0022 2B43     		orrs	r3, r3, r5
 405              	.LVL42:
 139:/home/jonas/warwick/3dProfilometer/xpcc/src/xpcc/architecture/platform/cortex_m3/stm32/spi/spi_3.cpp **** 	bufferLength = length;
 406              		.loc 1 139 0
 407 0024 1080     		strh	r0, [r2, #0]	@ movhi
 142:/home/jonas/warwick/3dProfilometer/xpcc/src/xpcc/architecture/platform/cortex_m3/stm32/spi/spi_3.cpp **** 	status |= bufferIncrease;
 408              		.loc 1 142 0
 409 0026 2370     		strb	r3, [r4, #0]
 144:/home/jonas/warwick/3dProfilometer/xpcc/src/xpcc/architecture/platform/cortex_m3/stm32/spi/spi_3.cpp **** 	return true;
 410              		.loc 1 144 0
 411 0028 0120     		movs	r0, #1
 412              	.LVL43:
 413              	.L12:
 145:/home/jonas/warwick/3dProfilometer/xpcc/src/xpcc/architecture/platform/cortex_m3/stm32/spi/spi_3.cpp **** }
 414              		.loc 1 145 0
 415 002a 70BC     		pop	{r4, r5, r6}
 416 002c 7047     		bx	lr
 417              	.LVL44:
 418              	.L14:
 134:/home/jonas/warwick/3dProfilometer/xpcc/src/xpcc/architecture/platform/cortex_m3/stm32/spi/spi_3.cpp **** 		return false;
 419              		.loc 1 134 0
 420 002e 0020     		movs	r0, #0
 421              	.LVL45:
 422 0030 FBE7     		b	.L12
 423              	.L17:
 424 0032 00BF     		.align	2
 425              	.L16:
 426 0034 00000000 		.word	.LANCHOR0
 427 0038 00000000 		.word	.LANCHOR1
 428 003c 00000000 		.word	.LANCHOR2
 429 0040 00000000 		.word	.LANCHOR3
 430              		.cfi_endproc
 431              	.LFE178:
 433              		.section	.text._ZN4xpcc5stm3210SpiMaster38transferENS_9SpiMaster15TransferOptionsE,"ax",%progbits
 434              		.align	2
 435              		.global	_ZN4xpcc5stm3210SpiMaster38transferENS_9SpiMaster15TransferOptionsE
 436              		.thumb
 437              		.thumb_func
 439              	_ZN4xpcc5stm3210SpiMaster38transferENS_9SpiMaster15TransferOptionsE:
 440              	.LFB179:
 149:/home/jonas/warwick/3dProfilometer/xpcc/src/xpcc/architecture/platform/cortex_m3/stm32/spi/spi_3.cpp **** {
 441              		.loc 1 149 0
 442              		.cfi_startproc
 443              		@ args = 0, pretend = 0, frame = 0
 444              		@ frame_needed = 0, uses_anonymous_args = 0
 445              		@ link register save eliminated.
 446              	.LVL46:
 447 0000 F0B4     		push	{r4, r5, r6, r7}
 448              	.LCFI2:
 449              		.cfi_def_cfa_offset 16
 450              		.cfi_offset 4, -16
 451              		.cfi_offset 5, -12
 452              		.cfi_offset 6, -8
 453              		.cfi_offset 7, -4
 454              	.LBB76:
 150:/home/jonas/warwick/3dProfilometer/xpcc/src/xpcc/architecture/platform/cortex_m3/stm32/spi/spi_3.cpp **** 	if (status & BUFFER_IS_BUSY_SYNC_bm) {
 455              		.loc 1 150 0
 456 0002 1C4F     		ldr	r7, .L44
 457 0004 3E78     		ldrb	r6, [r7, #0]	@ zero_extendqisi2
 458 0006 06F02001 		and	r1, r6, #32
 459 000a C9B2     		uxtb	r1, r1
 460 000c 0029     		cmp	r1, #0
 461 000e 2ED1     		bne	.L26
 462              	.LVL47:
 158:/home/jonas/warwick/3dProfilometer/xpcc/src/xpcc/architecture/platform/cortex_m3/stm32/spi/spi_3.cpp **** 	bool transmit = (options & TRANSFER_SEND_BUFFER_DISCARD_RECEIVE) & static_cast<bool>(transmitBuffe
 463              		.loc 1 158 0
 464 0010 194B     		ldr	r3, .L44+4
 465 0012 D3F800C0 		ldr	ip, [r3, #0]
 466              	.LBB77:
 161:/home/jonas/warwick/3dProfilometer/xpcc/src/xpcc/architecture/platform/cortex_m3/stm32/spi/spi_3.cpp **** 	for(uint_fast16_t i=0; i < bufferLength; ++i)
 467              		.loc 1 161 0
 468 0016 194B     		ldr	r3, .L44+8
 469 0018 1C88     		ldrh	r4, [r3, #0]
 470              	.LBE77:
 156:/home/jonas/warwick/3dProfilometer/xpcc/src/xpcc/architecture/platform/cortex_m3/stm32/spi/spi_3.cpp **** 	status |= BUFFER_IS_BUSY_SYNC_bm;
 471              		.loc 1 156 0
 472 001a 46F02003 		orr	r3, r6, #32
 473 001e 3B70     		strb	r3, [r7, #0]
 158:/home/jonas/warwick/3dProfilometer/xpcc/src/xpcc/architecture/platform/cortex_m3/stm32/spi/spi_3.cpp **** 	bool transmit = (options & TRANSFER_SEND_BUFFER_DISCARD_RECEIVE) & static_cast<bool>(transmitBuffe
 474              		.loc 1 158 0
 475 0020 BCF1000F 		cmp	ip, #0
 476 0024 0CBF     		ite	eq
 477 0026 0025     		moveq	r5, #0
 478 0028 00F00105 		andne	r5, r0, #1
 479              	.LVL48:
 480              	.LBB82:
 161:/home/jonas/warwick/3dProfilometer/xpcc/src/xpcc/architecture/platform/cortex_m3/stm32/spi/spi_3.cpp **** 	for(uint_fast16_t i=0; i < bufferLength; ++i)
 481              		.loc 1 161 0
 482 002c BCB1     		cbz	r4, .L20
 483 002e FF20     		movs	r0, #255
 484              	.LVL49:
 485              	.L25:
 163:/home/jonas/warwick/3dProfilometer/xpcc/src/xpcc/architecture/platform/cortex_m3/stm32/spi/spi_3.cpp **** 		if (transmit) {
 486              		.loc 1 163 0
 487 0030 2DB1     		cbz	r5, .L36
 164:/home/jonas/warwick/3dProfilometer/xpcc/src/xpcc/architecture/platform/cortex_m3/stm32/spi/spi_3.cpp **** 			tx = transmitBuffer[(status & BUFFER_TRANSMIT_INCR_bm) ? i : bufferLength-1-i];
 488              		.loc 1 164 0
 489 0032 F007     		lsls	r0, r6, #31
 490 0034 19D4     		bmi	.L27
 164:/home/jonas/warwick/3dProfilometer/xpcc/src/xpcc/architecture/platform/cortex_m3/stm32/spi/spi_3.cpp **** 			tx = transmitBuffer[(status & BUFFER_TRANSMIT_INCR_bm) ? i : bufferLength-1-i];
 491              		.loc 1 164 0 is_stmt 0 discriminator 1
 492 0036 631E     		subs	r3, r4, #1
 493 0038 5B1A     		subs	r3, r3, r1
 494              	.L22:
 164:/home/jonas/warwick/3dProfilometer/xpcc/src/xpcc/architecture/platform/cortex_m3/stm32/spi/spi_3.cpp **** 			tx = transmitBuffer[(status & BUFFER_TRANSMIT_INCR_bm) ? i : bufferLength-1-i];
 495              		.loc 1 164 0 discriminator 3
 496 003a 1CF80300 		ldrb	r0, [ip, r3]	@ zero_extendqisi2
 497              	.LVL50:
 498              	.L36:
 499              	.LBB78:
 500              	.LBB79:
 189:/home/jonas/warwick/3dProfilometer/xpcc/src/xpcc/architecture/platform/cortex_m3/stm32/spi/spi_3.cpp **** }
 190:/home/jonas/warwick/3dProfilometer/xpcc/src/xpcc/architecture/platform/cortex_m3/stm32/spi/spi_3.cpp **** 
 191:/home/jonas/warwick/3dProfilometer/xpcc/src/xpcc/architecture/platform/cortex_m3/stm32/spi/spi_3.cpp **** // ----------------------------------------------------------------------------
 192:/home/jonas/warwick/3dProfilometer/xpcc/src/xpcc/architecture/platform/cortex_m3/stm32/spi/spi_3.cpp **** uint8_t
 193:/home/jonas/warwick/3dProfilometer/xpcc/src/xpcc/architecture/platform/cortex_m3/stm32/spi/spi_3.cpp **** xpcc::stm32::SpiMaster3::write(uint8_t data)
 194:/home/jonas/warwick/3dProfilometer/xpcc/src/xpcc/architecture/platform/cortex_m3/stm32/spi/spi_3.cpp **** {
 195:/home/jonas/warwick/3dProfilometer/xpcc/src/xpcc/architecture/platform/cortex_m3/stm32/spi/spi_3.cpp **** 	while (!(SPI3->SR & SPI_SR_TXE)) {
 501              		.loc 1 195 0 is_stmt 1
 502 003e 104B     		ldr	r3, .L44+12
 503 0040 1A89     		ldrh	r2, [r3, #8]
 504 0042 02F00202 		and	r2, r2, #2
 505 0046 92B2     		uxth	r2, r2
 506 0048 002A     		cmp	r2, #0
 507 004a F8D0     		beq	.L36
 196:/home/jonas/warwick/3dProfilometer/xpcc/src/xpcc/architecture/platform/cortex_m3/stm32/spi/spi_3.cpp **** 		// wait until the previous transmission is finished
 197:/home/jonas/warwick/3dProfilometer/xpcc/src/xpcc/architecture/platform/cortex_m3/stm32/spi/spi_3.cpp **** 	}
 198:/home/jonas/warwick/3dProfilometer/xpcc/src/xpcc/architecture/platform/cortex_m3/stm32/spi/spi_3.cpp **** 	
 199:/home/jonas/warwick/3dProfilometer/xpcc/src/xpcc/architecture/platform/cortex_m3/stm32/spi/spi_3.cpp **** 	SPI3->DR = data;
 508              		.loc 1 199 0
 509 004c 9881     		strh	r0, [r3, #12]	@ movhi
 510              	.L24:
 200:/home/jonas/warwick/3dProfilometer/xpcc/src/xpcc/architecture/platform/cortex_m3/stm32/spi/spi_3.cpp **** 	
 201:/home/jonas/warwick/3dProfilometer/xpcc/src/xpcc/architecture/platform/cortex_m3/stm32/spi/spi_3.cpp **** 	while (!(SPI3->SR & SPI_SR_RXNE)) {
 511              		.loc 1 201 0
 512 004e 0C4B     		ldr	r3, .L44+12
 513 0050 1A89     		ldrh	r2, [r3, #8]
 514 0052 D207     		lsls	r2, r2, #31
 515 0054 FBD5     		bpl	.L24
 516              	.LBE79:
 517              	.LBE78:
 161:/home/jonas/warwick/3dProfilometer/xpcc/src/xpcc/architecture/platform/cortex_m3/stm32/spi/spi_3.cpp **** 	for(uint_fast16_t i=0; i < bufferLength; ++i)
 518              		.loc 1 161 0
 519 0056 0131     		adds	r1, r1, #1
 520 0058 A142     		cmp	r1, r4
 521              	.LBB81:
 522              	.LBB80:
 202:/home/jonas/warwick/3dProfilometer/xpcc/src/xpcc/architecture/platform/cortex_m3/stm32/spi/spi_3.cpp **** 		// wait until the data is received
 203:/home/jonas/warwick/3dProfilometer/xpcc/src/xpcc/architecture/platform/cortex_m3/stm32/spi/spi_3.cpp **** 	}
 204:/home/jonas/warwick/3dProfilometer/xpcc/src/xpcc/architecture/platform/cortex_m3/stm32/spi/spi_3.cpp **** 	
 205:/home/jonas/warwick/3dProfilometer/xpcc/src/xpcc/architecture/platform/cortex_m3/stm32/spi/spi_3.cpp **** 	return SPI3->DR;
 523              		.loc 1 205 0
 524 005a 9B89     		ldrh	r3, [r3, #12]
 525              	.LVL51:
 526              	.LBE80:
 527              	.LBE81:
 161:/home/jonas/warwick/3dProfilometer/xpcc/src/xpcc/architecture/platform/cortex_m3/stm32/spi/spi_3.cpp **** 	for(uint_fast16_t i=0; i < bufferLength; ++i)
 528              		.loc 1 161 0
 529 005c E8D3     		bcc	.L25
 530              	.LVL52:
 531              	.L20:
 532              	.LBE82:
 174:/home/jonas/warwick/3dProfilometer/xpcc/src/xpcc/architecture/platform/cortex_m3/stm32/spi/spi_3.cpp **** 	status &= ~BUFFER_IS_BUSY_SYNC_bm;
 533              		.loc 1 174 0
 534 005e 26F02006 		bic	r6, r6, #32
 535 0062 3E70     		strb	r6, [r7, #0]
 176:/home/jonas/warwick/3dProfilometer/xpcc/src/xpcc/architecture/platform/cortex_m3/stm32/spi/spi_3.cpp **** 	return true;
 536              		.loc 1 176 0
 537 0064 0120     		movs	r0, #1
 538              	.LVL53:
 539              	.L19:
 540              	.LBE76:
 177:/home/jonas/warwick/3dProfilometer/xpcc/src/xpcc/architecture/platform/cortex_m3/stm32/spi/spi_3.cpp **** }
 541              		.loc 1 177 0
 542 0066 F0BC     		pop	{r4, r5, r6, r7}
 543 0068 7047     		bx	lr
 544              	.LVL54:
 545              	.L27:
 546              	.LBB84:
 547              	.LBB83:
 164:/home/jonas/warwick/3dProfilometer/xpcc/src/xpcc/architecture/platform/cortex_m3/stm32/spi/spi_3.cpp **** 			tx = transmitBuffer[(status & BUFFER_TRANSMIT_INCR_bm) ? i : bufferLength-1-i];
 548              		.loc 1 164 0
 549 006a 0B46     		mov	r3, r1
 550 006c E5E7     		b	.L22
 551              	.LVL55:
 552              	.L26:
 553              	.LBE83:
 151:/home/jonas/warwick/3dProfilometer/xpcc/src/xpcc/architecture/platform/cortex_m3/stm32/spi/spi_3.cpp **** 		return false;
 554              		.loc 1 151 0
 555 006e 0020     		movs	r0, #0
 556              	.LVL56:
 557 0070 F9E7     		b	.L19
 558              	.L45:
 559 0072 00BF     		.align	2
 560              	.L44:
 561 0074 00000000 		.word	.LANCHOR0
 562 0078 00000000 		.word	.LANCHOR1
 563 007c 00000000 		.word	.LANCHOR3
 564 0080 003C0040 		.word	1073757184
 565              	.LBE84:
 566              		.cfi_endproc
 567              	.LFE179:
 569              		.section	.text._ZN4xpcc5stm3210SpiMaster310isFinishedEv,"ax",%progbits
 570              		.align	2
 571              		.global	_ZN4xpcc5stm3210SpiMaster310isFinishedEv
 572              		.thumb
 573              		.thumb_func
 575              	_ZN4xpcc5stm3210SpiMaster310isFinishedEv:
 576              	.LFB181:
 187:/home/jonas/warwick/3dProfilometer/xpcc/src/xpcc/architecture/platform/cortex_m3/stm32/spi/spi_3.cpp **** {
 577              		.loc 1 187 0
 578              		.cfi_startproc
 579              		@ args = 0, pretend = 0, frame = 0
 580              		@ frame_needed = 0, uses_anonymous_args = 0
 581              		@ link register save eliminated.
 188:/home/jonas/warwick/3dProfilometer/xpcc/src/xpcc/architecture/platform/cortex_m3/stm32/spi/spi_3.cpp **** 	return !(status & BUFFER_IS_BUSY_SYNC_bm);
 582              		.loc 1 188 0
 583 0000 034B     		ldr	r3, .L47
 584 0002 1878     		ldrb	r0, [r3, #0]	@ zero_extendqisi2
 585 0004 80F02000 		eor	r0, r0, #32
 189:/home/jonas/warwick/3dProfilometer/xpcc/src/xpcc/architecture/platform/cortex_m3/stm32/spi/spi_3.cpp **** }
 586              		.loc 1 189 0
 587 0008 C0F34010 		ubfx	r0, r0, #5, #1
 588 000c 7047     		bx	lr
 589              	.L48:
 590 000e 00BF     		.align	2
 591              	.L47:
 592 0010 00000000 		.word	.LANCHOR0
 593              		.cfi_endproc
 594              	.LFE181:
 596              		.section	.text._ZN4xpcc5stm3210SpiMaster35writeEh,"ax",%progbits
 597              		.align	2
 598              		.global	_ZN4xpcc5stm3210SpiMaster35writeEh
 599              		.thumb
 600              		.thumb_func
 602              	_ZN4xpcc5stm3210SpiMaster35writeEh:
 603              	.LFB182:
 194:/home/jonas/warwick/3dProfilometer/xpcc/src/xpcc/architecture/platform/cortex_m3/stm32/spi/spi_3.cpp **** {
 604              		.loc 1 194 0
 605              		.cfi_startproc
 606              		@ args = 0, pretend = 0, frame = 0
 607              		@ frame_needed = 0, uses_anonymous_args = 0
 608              		@ link register save eliminated.
 609              	.LVL57:
 610              	.L50:
 195:/home/jonas/warwick/3dProfilometer/xpcc/src/xpcc/architecture/platform/cortex_m3/stm32/spi/spi_3.cpp **** 	while (!(SPI3->SR & SPI_SR_TXE)) {
 611              		.loc 1 195 0 discriminator 1
 612 0000 074B     		ldr	r3, .L60
 613 0002 1A89     		ldrh	r2, [r3, #8]
 614 0004 02F00202 		and	r2, r2, #2
 615 0008 92B2     		uxth	r2, r2
 616 000a 002A     		cmp	r2, #0
 617 000c F8D0     		beq	.L50
 199:/home/jonas/warwick/3dProfilometer/xpcc/src/xpcc/architecture/platform/cortex_m3/stm32/spi/spi_3.cpp **** 	SPI3->DR = data;
 618              		.loc 1 199 0
 619 000e 9881     		strh	r0, [r3, #12]	@ movhi
 620              	.L51:
 201:/home/jonas/warwick/3dProfilometer/xpcc/src/xpcc/architecture/platform/cortex_m3/stm32/spi/spi_3.cpp **** 	while (!(SPI3->SR & SPI_SR_RXNE)) {
 621              		.loc 1 201 0 discriminator 1
 622 0010 034B     		ldr	r3, .L60
 623 0012 1A89     		ldrh	r2, [r3, #8]
 624 0014 D207     		lsls	r2, r2, #31
 625 0016 FBD5     		bpl	.L51
 626              		.loc 1 205 0
 627 0018 9889     		ldrh	r0, [r3, #12]
 628              	.LVL58:
 206:/home/jonas/warwick/3dProfilometer/xpcc/src/xpcc/architecture/platform/cortex_m3/stm32/spi/spi_3.cpp **** }
 629              		.loc 1 206 0
 630 001a C0B2     		uxtb	r0, r0
 631 001c 7047     		bx	lr
 632              	.L61:
 633 001e 00BF     		.align	2
 634              	.L60:
 635 0020 003C0040 		.word	1073757184
 636              		.cfi_endproc
 637              	.LFE182:
 639              		.section	.bss._ZN12_GLOBAL__N_1L14transmitBufferE,"aw",%nobits
 640              		.align	2
 641              		.set	.LANCHOR1,. + 0
 644              	_ZN12_GLOBAL__N_1L14transmitBufferE:
 645 0000 00000000 		.space	4
 646              		.section	.bss._ZN12_GLOBAL__N_1L13receiveBufferE,"aw",%nobits
 647              		.align	2
 648              		.set	.LANCHOR2,. + 0
 651              	_ZN12_GLOBAL__N_1L13receiveBufferE:
 652 0000 00000000 		.space	4
 653              		.section	.bss._ZN12_GLOBAL__N_1L12bufferLengthE,"aw",%nobits
 654              		.align	1
 655              		.set	.LANCHOR3,. + 0
 658              	_ZN12_GLOBAL__N_1L12bufferLengthE:
 659 0000 0000     		.space	2
 660              		.section	.bss._ZN12_GLOBAL__N_1L6statusE,"aw",%nobits
 661              		.set	.LANCHOR0,. + 0
 664              	_ZN12_GLOBAL__N_1L6statusE:
 665 0000 00       		.space	1
 666              		.text
 667              	.Letext0:
 668              		.file 3 "/opt/arm-2012.09/bin/../lib/gcc/arm-none-eabi/4.7.2/../../../../arm-none-eabi/include/std
 669              		.file 4 "/home/jonas/warwick/3dProfilometer/xpcc/src/xpcc/architecture/driver/gpio.hpp"
 670              		.file 5 "/home/jonas/warwick/3dProfilometer/xpcc/src/xpcc/architecture/platform/cortex_m3/stm32/sp
 671              		.file 6 "/home/jonas/warwick/3dProfilometer/xpcc/src/xpcc/driver/connectivity/spi/spi_master.hpp"
 672              		.file 7 "/home/jonas/warwick/3dProfilometer/xpcc/ext/stm32f4xx_lib/CMSIS/Device/ST/STM32F4xx/Inclu
 673              		.file 8 "/home/jonas/warwick/3dProfilometer/xpcc/ext/stm32f4xx_lib/CMSIS/Include/core_cm4.h"
 674              		.file 9 "/home/jonas/warwick/3dProfilometer/xpcc/src/xpcc/driver/interface.hpp"