   1              		.syntax unified
   2              		.cpu cortex-m4
   3              		.eabi_attribute 27, 3
   4              		.fpu fpv4-sp-d16
   5              		.eabi_attribute 20, 1
   6              		.eabi_attribute 21, 1
   7              		.eabi_attribute 23, 3
   8              		.eabi_attribute 24, 1
   9              		.eabi_attribute 25, 1
  10              		.eabi_attribute 26, 1
  11              		.eabi_attribute 30, 2
  12              		.eabi_attribute 34, 1
  13              		.eabi_attribute 18, 4
  14              		.thumb
  15              		.file	"spi_2.cpp"
  16              		.text
  17              	.Ltext0:
  18              		.cfi_sections	.debug_frame
  19              		.section	.text._ZN4xpcc5stm3210SpiMaster213configurePinsENS1_7MappingE,"ax",%progbits
  20              		.align	2
  21              		.global	_ZN4xpcc5stm3210SpiMaster213configurePinsENS1_7MappingE
  22              		.thumb
  23              		.thumb_func
  25              	_ZN4xpcc5stm3210SpiMaster213configurePinsENS1_7MappingE:
  26              	.LFB158:
  27              		.file 1 "/home/jonas/warwick/3dProfilometer/xpcc/src/xpcc/architecture/platform/cortex_m3/stm32/sp
   1:/home/jonas/warwick/3dProfilometer/xpcc/src/xpcc/architecture/platform/cortex_m3/stm32/spi/spi_2.cpp **** // coding: utf-8
   2:/home/jonas/warwick/3dProfilometer/xpcc/src/xpcc/architecture/platform/cortex_m3/stm32/spi/spi_2.cpp **** // ----------------------------------------------------------------------------
   3:/home/jonas/warwick/3dProfilometer/xpcc/src/xpcc/architecture/platform/cortex_m3/stm32/spi/spi_2.cpp **** /* Copyright (c) 2011, Roboterclub Aachen e.V.
   4:/home/jonas/warwick/3dProfilometer/xpcc/src/xpcc/architecture/platform/cortex_m3/stm32/spi/spi_2.cpp ****  * All rights reserved.
   5:/home/jonas/warwick/3dProfilometer/xpcc/src/xpcc/architecture/platform/cortex_m3/stm32/spi/spi_2.cpp ****  *
   6:/home/jonas/warwick/3dProfilometer/xpcc/src/xpcc/architecture/platform/cortex_m3/stm32/spi/spi_2.cpp ****  * Redistribution and use in source and binary forms, with or without
   7:/home/jonas/warwick/3dProfilometer/xpcc/src/xpcc/architecture/platform/cortex_m3/stm32/spi/spi_2.cpp ****  * modification, are permitted provided that the following conditions are met:
   8:/home/jonas/warwick/3dProfilometer/xpcc/src/xpcc/architecture/platform/cortex_m3/stm32/spi/spi_2.cpp ****  * 
   9:/home/jonas/warwick/3dProfilometer/xpcc/src/xpcc/architecture/platform/cortex_m3/stm32/spi/spi_2.cpp ****  *     * Redistributions of source code must retain the above copyright
  10:/home/jonas/warwick/3dProfilometer/xpcc/src/xpcc/architecture/platform/cortex_m3/stm32/spi/spi_2.cpp ****  *       notice, this list of conditions and the following disclaimer.
  11:/home/jonas/warwick/3dProfilometer/xpcc/src/xpcc/architecture/platform/cortex_m3/stm32/spi/spi_2.cpp ****  *     * Redistributions in binary form must reproduce the above copyright
  12:/home/jonas/warwick/3dProfilometer/xpcc/src/xpcc/architecture/platform/cortex_m3/stm32/spi/spi_2.cpp ****  *       notice, this list of conditions and the following disclaimer in the
  13:/home/jonas/warwick/3dProfilometer/xpcc/src/xpcc/architecture/platform/cortex_m3/stm32/spi/spi_2.cpp ****  *       documentation and/or other materials provided with the distribution.
  14:/home/jonas/warwick/3dProfilometer/xpcc/src/xpcc/architecture/platform/cortex_m3/stm32/spi/spi_2.cpp ****  *     * Neither the name of the Roboterclub Aachen e.V. nor the
  15:/home/jonas/warwick/3dProfilometer/xpcc/src/xpcc/architecture/platform/cortex_m3/stm32/spi/spi_2.cpp ****  *       names of its contributors may be used to endorse or promote products
  16:/home/jonas/warwick/3dProfilometer/xpcc/src/xpcc/architecture/platform/cortex_m3/stm32/spi/spi_2.cpp ****  *       derived from this software without specific prior written permission.
  17:/home/jonas/warwick/3dProfilometer/xpcc/src/xpcc/architecture/platform/cortex_m3/stm32/spi/spi_2.cpp ****  *
  18:/home/jonas/warwick/3dProfilometer/xpcc/src/xpcc/architecture/platform/cortex_m3/stm32/spi/spi_2.cpp ****  * THIS SOFTWARE IS PROVIDED BY ROBOTERCLUB AACHEN E.V. ''AS IS'' AND ANY
  19:/home/jonas/warwick/3dProfilometer/xpcc/src/xpcc/architecture/platform/cortex_m3/stm32/spi/spi_2.cpp ****  * EXPRESS OR IMPLIED WARRANTIES, INCLUDING, BUT NOT LIMITED TO, THE IMPLIED
  20:/home/jonas/warwick/3dProfilometer/xpcc/src/xpcc/architecture/platform/cortex_m3/stm32/spi/spi_2.cpp ****  * WARRANTIES OF MERCHANTABILITY AND FITNESS FOR A PARTICULAR PURPOSE ARE
  21:/home/jonas/warwick/3dProfilometer/xpcc/src/xpcc/architecture/platform/cortex_m3/stm32/spi/spi_2.cpp ****  * DISCLAIMED. IN NO EVENT SHALL ROBOTERCLUB AACHEN E.V. BE LIABLE FOR ANY
  22:/home/jonas/warwick/3dProfilometer/xpcc/src/xpcc/architecture/platform/cortex_m3/stm32/spi/spi_2.cpp ****  * DIRECT, INDIRECT, INCIDENTAL, SPECIAL, EXEMPLARY, OR CONSEQUENTIAL DAMAGES
  23:/home/jonas/warwick/3dProfilometer/xpcc/src/xpcc/architecture/platform/cortex_m3/stm32/spi/spi_2.cpp ****  * (INCLUDING, BUT NOT LIMITED TO, PROCUREMENT OF SUBSTITUTE GOODS OR SERVICES;
  24:/home/jonas/warwick/3dProfilometer/xpcc/src/xpcc/architecture/platform/cortex_m3/stm32/spi/spi_2.cpp ****  * LOSS OF USE, DATA, OR PROFITS; OR BUSINESS INTERRUPTION) HOWEVER CAUSED AND
  25:/home/jonas/warwick/3dProfilometer/xpcc/src/xpcc/architecture/platform/cortex_m3/stm32/spi/spi_2.cpp ****  * ON ANY THEORY OF LIABILITY, WHETHER IN CONTRACT, STRICT LIABILITY, OR TORT
  26:/home/jonas/warwick/3dProfilometer/xpcc/src/xpcc/architecture/platform/cortex_m3/stm32/spi/spi_2.cpp ****  * (INCLUDING NEGLIGENCE OR OTHERWISE) ARISING IN ANY WAY OUT OF THE USE OF
  27:/home/jonas/warwick/3dProfilometer/xpcc/src/xpcc/architecture/platform/cortex_m3/stm32/spi/spi_2.cpp ****  * THIS SOFTWARE, EVEN IF ADVISED OF THE POSSIBILITY OF SUCH DAMAGE.
  28:/home/jonas/warwick/3dProfilometer/xpcc/src/xpcc/architecture/platform/cortex_m3/stm32/spi/spi_2.cpp ****  */
  29:/home/jonas/warwick/3dProfilometer/xpcc/src/xpcc/architecture/platform/cortex_m3/stm32/spi/spi_2.cpp **** // ----------------------------------------------------------------------------
  30:/home/jonas/warwick/3dProfilometer/xpcc/src/xpcc/architecture/platform/cortex_m3/stm32/spi/spi_2.cpp **** /*
  31:/home/jonas/warwick/3dProfilometer/xpcc/src/xpcc/architecture/platform/cortex_m3/stm32/spi/spi_2.cpp ****  * WARNING: This file is generated automatically, do not edit!
  32:/home/jonas/warwick/3dProfilometer/xpcc/src/xpcc/architecture/platform/cortex_m3/stm32/spi/spi_2.cpp ****  * Please modify the corresponding *.in file instead and rebuild this file. 
  33:/home/jonas/warwick/3dProfilometer/xpcc/src/xpcc/architecture/platform/cortex_m3/stm32/spi/spi_2.cpp ****  */
  34:/home/jonas/warwick/3dProfilometer/xpcc/src/xpcc/architecture/platform/cortex_m3/stm32/spi/spi_2.cpp **** // ----------------------------------------------------------------------------
  35:/home/jonas/warwick/3dProfilometer/xpcc/src/xpcc/architecture/platform/cortex_m3/stm32/spi/spi_2.cpp **** 
  36:/home/jonas/warwick/3dProfilometer/xpcc/src/xpcc/architecture/platform/cortex_m3/stm32/spi/spi_2.cpp **** #include "../gpio.hpp"
  37:/home/jonas/warwick/3dProfilometer/xpcc/src/xpcc/architecture/platform/cortex_m3/stm32/spi/spi_2.cpp **** #include "spi_2.hpp"
  38:/home/jonas/warwick/3dProfilometer/xpcc/src/xpcc/architecture/platform/cortex_m3/stm32/spi/spi_2.cpp **** 
  39:/home/jonas/warwick/3dProfilometer/xpcc/src/xpcc/architecture/platform/cortex_m3/stm32/spi/spi_2.cpp **** namespace
  40:/home/jonas/warwick/3dProfilometer/xpcc/src/xpcc/architecture/platform/cortex_m3/stm32/spi/spi_2.cpp **** {
  41:/home/jonas/warwick/3dProfilometer/xpcc/src/xpcc/architecture/platform/cortex_m3/stm32/spi/spi_2.cpp **** 	GPIO__OUTPUT(SckB13, B, 13);
  42:/home/jonas/warwick/3dProfilometer/xpcc/src/xpcc/architecture/platform/cortex_m3/stm32/spi/spi_2.cpp **** 	GPIO__INPUT(MisoB14, B, 14);
  43:/home/jonas/warwick/3dProfilometer/xpcc/src/xpcc/architecture/platform/cortex_m3/stm32/spi/spi_2.cpp **** 	GPIO__OUTPUT(MosiB15, B, 15);
  44:/home/jonas/warwick/3dProfilometer/xpcc/src/xpcc/architecture/platform/cortex_m3/stm32/spi/spi_2.cpp **** 	
  45:/home/jonas/warwick/3dProfilometer/xpcc/src/xpcc/architecture/platform/cortex_m3/stm32/spi/spi_2.cpp **** 	static uint8_t* transmitBuffer(0);
  46:/home/jonas/warwick/3dProfilometer/xpcc/src/xpcc/architecture/platform/cortex_m3/stm32/spi/spi_2.cpp **** 	static uint8_t* receiveBuffer(0);
  47:/home/jonas/warwick/3dProfilometer/xpcc/src/xpcc/architecture/platform/cortex_m3/stm32/spi/spi_2.cpp **** 	static uint16_t bufferLength(0);
  48:/home/jonas/warwick/3dProfilometer/xpcc/src/xpcc/architecture/platform/cortex_m3/stm32/spi/spi_2.cpp **** 	enum
  49:/home/jonas/warwick/3dProfilometer/xpcc/src/xpcc/architecture/platform/cortex_m3/stm32/spi/spi_2.cpp **** 	{
  50:/home/jonas/warwick/3dProfilometer/xpcc/src/xpcc/architecture/platform/cortex_m3/stm32/spi/spi_2.cpp **** 		BUFFER_TRANSMIT_INCR_bm = 0x01,
  51:/home/jonas/warwick/3dProfilometer/xpcc/src/xpcc/architecture/platform/cortex_m3/stm32/spi/spi_2.cpp **** 		BUFFER_RECEIVE_INCR_bm = 0x02,
  52:/home/jonas/warwick/3dProfilometer/xpcc/src/xpcc/architecture/platform/cortex_m3/stm32/spi/spi_2.cpp **** 		BUFFER_TRANSMIT_IS_NOT_ZERO_bm = 0x04,
  53:/home/jonas/warwick/3dProfilometer/xpcc/src/xpcc/architecture/platform/cortex_m3/stm32/spi/spi_2.cpp **** 		BUFFER_RECEIVE_IS_NOT_ZERO_bm = 0x08,
  54:/home/jonas/warwick/3dProfilometer/xpcc/src/xpcc/architecture/platform/cortex_m3/stm32/spi/spi_2.cpp **** 		BUFFER_IS_DUMMY_bm = 0x10,
  55:/home/jonas/warwick/3dProfilometer/xpcc/src/xpcc/architecture/platform/cortex_m3/stm32/spi/spi_2.cpp **** 		BUFFER_IS_BUSY_SYNC_bm = 0x20
  56:/home/jonas/warwick/3dProfilometer/xpcc/src/xpcc/architecture/platform/cortex_m3/stm32/spi/spi_2.cpp **** 	};
  57:/home/jonas/warwick/3dProfilometer/xpcc/src/xpcc/architecture/platform/cortex_m3/stm32/spi/spi_2.cpp **** 	static uint8_t status(0);
  58:/home/jonas/warwick/3dProfilometer/xpcc/src/xpcc/architecture/platform/cortex_m3/stm32/spi/spi_2.cpp **** }
  59:/home/jonas/warwick/3dProfilometer/xpcc/src/xpcc/architecture/platform/cortex_m3/stm32/spi/spi_2.cpp **** 
  60:/home/jonas/warwick/3dProfilometer/xpcc/src/xpcc/architecture/platform/cortex_m3/stm32/spi/spi_2.cpp **** // ----------------------------------------------------------------------------
  61:/home/jonas/warwick/3dProfilometer/xpcc/src/xpcc/architecture/platform/cortex_m3/stm32/spi/spi_2.cpp **** void
  62:/home/jonas/warwick/3dProfilometer/xpcc/src/xpcc/architecture/platform/cortex_m3/stm32/spi/spi_2.cpp **** xpcc::stm32::SpiMaster2::configurePins(Mapping mapping)
  63:/home/jonas/warwick/3dProfilometer/xpcc/src/xpcc/architecture/platform/cortex_m3/stm32/spi/spi_2.cpp **** {
  28              		.loc 1 63 0
  29              		.cfi_startproc
  30              		@ args = 0, pretend = 0, frame = 0
  31              		@ frame_needed = 0, uses_anonymous_args = 0
  32              		@ link register save eliminated.
  33              	.LVL0:
  64:/home/jonas/warwick/3dProfilometer/xpcc/src/xpcc/architecture/platform/cortex_m3/stm32/spi/spi_2.cpp **** 	// Enable clock
  65:/home/jonas/warwick/3dProfilometer/xpcc/src/xpcc/architecture/platform/cortex_m3/stm32/spi/spi_2.cpp **** 	RCC->APB1ENR |= RCC_APB1ENR_SPI2EN;
  34              		.loc 1 65 0
  35 0000 294A     		ldr	r2, .L2
  36              	.LBB29:
  37              	.LBB30:
  41:/home/jonas/warwick/3dProfilometer/xpcc/src/xpcc/architecture/platform/cortex_m3/stm32/spi/spi_2.cpp **** 	GPIO__OUTPUT(SckB13, B, 13);
  38              		.loc 1 41 0
  39 0002 2A4B     		ldr	r3, .L2+4
  40              	.LBE30:
  41              	.LBE29:
  42              		.loc 1 65 0
  43 0004 116C     		ldr	r1, [r2, #64]
  44 0006 41F48041 		orr	r1, r1, #16384
  45 000a 1164     		str	r1, [r2, #64]
  46              	.LVL1:
  47              	.LBB34:
  48              	.LBB33:
  41:/home/jonas/warwick/3dProfilometer/xpcc/src/xpcc/architecture/platform/cortex_m3/stm32/spi/spi_2.cpp **** 	GPIO__OUTPUT(SckB13, B, 13);
  49              		.loc 1 41 0
  50 000c 1A68     		ldr	r2, [r3, #0]
  51 000e 22F04062 		bic	r2, r2, #201326592
  52 0012 42F00062 		orr	r2, r2, #134217728
  53 0016 1A60     		str	r2, [r3, #0]
  54              	.LVL2:
  55              	.LBB31:
  56              	.LBB32:
  57              		.file 2 "/home/jonas/warwick/3dProfilometer/xpcc/src/xpcc/architecture/platform/cortex_m3/stm32/sp
   1:/home/jonas/warwick/3dProfilometer/xpcc/src/xpcc/architecture/platform/cortex_m3/stm32/spi/../stm32f2_4/gpio.hpp **** // coding: utf-8
   2:/home/jonas/warwick/3dProfilometer/xpcc/src/xpcc/architecture/platform/cortex_m3/stm32/spi/../stm32f2_4/gpio.hpp **** // ----------------------------------------------------------------------------
   3:/home/jonas/warwick/3dProfilometer/xpcc/src/xpcc/architecture/platform/cortex_m3/stm32/spi/../stm32f2_4/gpio.hpp **** /* Copyright (c) 2011, Roboterclub Aachen e.V.
   4:/home/jonas/warwick/3dProfilometer/xpcc/src/xpcc/architecture/platform/cortex_m3/stm32/spi/../stm32f2_4/gpio.hpp ****  * All rights reserved.
   5:/home/jonas/warwick/3dProfilometer/xpcc/src/xpcc/architecture/platform/cortex_m3/stm32/spi/../stm32f2_4/gpio.hpp ****  *
   6:/home/jonas/warwick/3dProfilometer/xpcc/src/xpcc/architecture/platform/cortex_m3/stm32/spi/../stm32f2_4/gpio.hpp ****  * Redistribution and use in source and binary forms, with or without
   7:/home/jonas/warwick/3dProfilometer/xpcc/src/xpcc/architecture/platform/cortex_m3/stm32/spi/../stm32f2_4/gpio.hpp ****  * modification, are permitted provided that the following conditions are met:
   8:/home/jonas/warwick/3dProfilometer/xpcc/src/xpcc/architecture/platform/cortex_m3/stm32/spi/../stm32f2_4/gpio.hpp ****  *
   9:/home/jonas/warwick/3dProfilometer/xpcc/src/xpcc/architecture/platform/cortex_m3/stm32/spi/../stm32f2_4/gpio.hpp ****  *     * Redistributions of source code must retain the above copyright
  10:/home/jonas/warwick/3dProfilometer/xpcc/src/xpcc/architecture/platform/cortex_m3/stm32/spi/../stm32f2_4/gpio.hpp ****  *       notice, this list of conditions and the following disclaimer.
  11:/home/jonas/warwick/3dProfilometer/xpcc/src/xpcc/architecture/platform/cortex_m3/stm32/spi/../stm32f2_4/gpio.hpp ****  *     * Redistributions in binary form must reproduce the above copyright
  12:/home/jonas/warwick/3dProfilometer/xpcc/src/xpcc/architecture/platform/cortex_m3/stm32/spi/../stm32f2_4/gpio.hpp ****  *       notice, this list of conditions and the following disclaimer in the
  13:/home/jonas/warwick/3dProfilometer/xpcc/src/xpcc/architecture/platform/cortex_m3/stm32/spi/../stm32f2_4/gpio.hpp ****  *       documentation and/or other materials provided with the distribution.
  14:/home/jonas/warwick/3dProfilometer/xpcc/src/xpcc/architecture/platform/cortex_m3/stm32/spi/../stm32f2_4/gpio.hpp ****  *     * Neither the name of the Roboterclub Aachen e.V. nor the
  15:/home/jonas/warwick/3dProfilometer/xpcc/src/xpcc/architecture/platform/cortex_m3/stm32/spi/../stm32f2_4/gpio.hpp ****  *       names of its contributors may be used to endorse or promote products
  16:/home/jonas/warwick/3dProfilometer/xpcc/src/xpcc/architecture/platform/cortex_m3/stm32/spi/../stm32f2_4/gpio.hpp ****  *       derived from this software without specific prior written permission.
  17:/home/jonas/warwick/3dProfilometer/xpcc/src/xpcc/architecture/platform/cortex_m3/stm32/spi/../stm32f2_4/gpio.hpp ****  *
  18:/home/jonas/warwick/3dProfilometer/xpcc/src/xpcc/architecture/platform/cortex_m3/stm32/spi/../stm32f2_4/gpio.hpp ****  * THIS SOFTWARE IS PROVIDED BY ROBOTERCLUB AACHEN E.V. ''AS IS'' AND ANY
  19:/home/jonas/warwick/3dProfilometer/xpcc/src/xpcc/architecture/platform/cortex_m3/stm32/spi/../stm32f2_4/gpio.hpp ****  * EXPRESS OR IMPLIED WARRANTIES, INCLUDING, BUT NOT LIMITED TO, THE IMPLIED
  20:/home/jonas/warwick/3dProfilometer/xpcc/src/xpcc/architecture/platform/cortex_m3/stm32/spi/../stm32f2_4/gpio.hpp ****  * WARRANTIES OF MERCHANTABILITY AND FITNESS FOR A PARTICULAR PURPOSE ARE
  21:/home/jonas/warwick/3dProfilometer/xpcc/src/xpcc/architecture/platform/cortex_m3/stm32/spi/../stm32f2_4/gpio.hpp ****  * DISCLAIMED. IN NO EVENT SHALL ROBOTERCLUB AACHEN E.V. BE LIABLE FOR ANY
  22:/home/jonas/warwick/3dProfilometer/xpcc/src/xpcc/architecture/platform/cortex_m3/stm32/spi/../stm32f2_4/gpio.hpp ****  * DIRECT, INDIRECT, INCIDENTAL, SPECIAL, EXEMPLARY, OR CONSEQUENTIAL DAMAGES
  23:/home/jonas/warwick/3dProfilometer/xpcc/src/xpcc/architecture/platform/cortex_m3/stm32/spi/../stm32f2_4/gpio.hpp ****  * (INCLUDING, BUT NOT LIMITED TO, PROCUREMENT OF SUBSTITUTE GOODS OR SERVICES;
  24:/home/jonas/warwick/3dProfilometer/xpcc/src/xpcc/architecture/platform/cortex_m3/stm32/spi/../stm32f2_4/gpio.hpp ****  * LOSS OF USE, DATA, OR PROFITS; OR BUSINESS INTERRUPTION) HOWEVER CAUSED AND
  25:/home/jonas/warwick/3dProfilometer/xpcc/src/xpcc/architecture/platform/cortex_m3/stm32/spi/../stm32f2_4/gpio.hpp ****  * ON ANY THEORY OF LIABILITY, WHETHER IN CONTRACT, STRICT LIABILITY, OR TORT
  26:/home/jonas/warwick/3dProfilometer/xpcc/src/xpcc/architecture/platform/cortex_m3/stm32/spi/../stm32f2_4/gpio.hpp ****  * (INCLUDING NEGLIGENCE OR OTHERWISE) ARISING IN ANY WAY OUT OF THE USE OF
  27:/home/jonas/warwick/3dProfilometer/xpcc/src/xpcc/architecture/platform/cortex_m3/stm32/spi/../stm32f2_4/gpio.hpp ****  * THIS SOFTWARE, EVEN IF ADVISED OF THE POSSIBILITY OF SUCH DAMAGE.
  28:/home/jonas/warwick/3dProfilometer/xpcc/src/xpcc/architecture/platform/cortex_m3/stm32/spi/../stm32f2_4/gpio.hpp ****  */
  29:/home/jonas/warwick/3dProfilometer/xpcc/src/xpcc/architecture/platform/cortex_m3/stm32/spi/../stm32f2_4/gpio.hpp **** // ----------------------------------------------------------------------------
  30:/home/jonas/warwick/3dProfilometer/xpcc/src/xpcc/architecture/platform/cortex_m3/stm32/spi/../stm32f2_4/gpio.hpp **** 
  31:/home/jonas/warwick/3dProfilometer/xpcc/src/xpcc/architecture/platform/cortex_m3/stm32/spi/../stm32f2_4/gpio.hpp **** #ifndef XPCC_STM32F2__GPIO_HPP
  32:/home/jonas/warwick/3dProfilometer/xpcc/src/xpcc/architecture/platform/cortex_m3/stm32/spi/../stm32f2_4/gpio.hpp **** #define XPCC_STM32F2__GPIO_HPP
  33:/home/jonas/warwick/3dProfilometer/xpcc/src/xpcc/architecture/platform/cortex_m3/stm32/spi/../stm32f2_4/gpio.hpp **** 
  34:/home/jonas/warwick/3dProfilometer/xpcc/src/xpcc/architecture/platform/cortex_m3/stm32/spi/../stm32f2_4/gpio.hpp **** #include <xpcc/architecture/driver/gpio.hpp>
  35:/home/jonas/warwick/3dProfilometer/xpcc/src/xpcc/architecture/platform/cortex_m3/stm32/spi/../stm32f2_4/gpio.hpp **** #include "../device.h"
  36:/home/jonas/warwick/3dProfilometer/xpcc/src/xpcc/architecture/platform/cortex_m3/stm32/spi/../stm32f2_4/gpio.hpp **** 
  37:/home/jonas/warwick/3dProfilometer/xpcc/src/xpcc/architecture/platform/cortex_m3/stm32/spi/../stm32f2_4/gpio.hpp **** /* 
  38:/home/jonas/warwick/3dProfilometer/xpcc/src/xpcc/architecture/platform/cortex_m3/stm32/spi/../stm32f2_4/gpio.hpp ****  * GPIO Ports
  39:/home/jonas/warwick/3dProfilometer/xpcc/src/xpcc/architecture/platform/cortex_m3/stm32/spi/../stm32f2_4/gpio.hpp ****  * ==========
  40:/home/jonas/warwick/3dProfilometer/xpcc/src/xpcc/architecture/platform/cortex_m3/stm32/spi/../stm32f2_4/gpio.hpp ****  * 
  41:/home/jonas/warwick/3dProfilometer/xpcc/src/xpcc/architecture/platform/cortex_m3/stm32/spi/../stm32f2_4/gpio.hpp ****  * Each port bit of the General Purpose IO (GPIO) Ports, can be
  42:/home/jonas/warwick/3dProfilometer/xpcc/src/xpcc/architecture/platform/cortex_m3/stm32/spi/../stm32f2_4/gpio.hpp ****  * individually configured by software in several modes:
  43:/home/jonas/warwick/3dProfilometer/xpcc/src/xpcc/architecture/platform/cortex_m3/stm32/spi/../stm32f2_4/gpio.hpp ****  * - Input floating
  44:/home/jonas/warwick/3dProfilometer/xpcc/src/xpcc/architecture/platform/cortex_m3/stm32/spi/../stm32f2_4/gpio.hpp ****  * - Input (with pull-up or pull-down)
  45:/home/jonas/warwick/3dProfilometer/xpcc/src/xpcc/architecture/platform/cortex_m3/stm32/spi/../stm32f2_4/gpio.hpp ****  * - Analog
  46:/home/jonas/warwick/3dProfilometer/xpcc/src/xpcc/architecture/platform/cortex_m3/stm32/spi/../stm32f2_4/gpio.hpp ****  * - Output open-drain (with pull-up or pull-down)
  47:/home/jonas/warwick/3dProfilometer/xpcc/src/xpcc/architecture/platform/cortex_m3/stm32/spi/../stm32f2_4/gpio.hpp ****  * - Output push-pull (with pull-up or pull-down)
  48:/home/jonas/warwick/3dProfilometer/xpcc/src/xpcc/architecture/platform/cortex_m3/stm32/spi/../stm32f2_4/gpio.hpp ****  * - Alternate function push-pull (with pull-up or pull-down)
  49:/home/jonas/warwick/3dProfilometer/xpcc/src/xpcc/architecture/platform/cortex_m3/stm32/spi/../stm32f2_4/gpio.hpp ****  * - Alternate function open-drain (with pull-up or pull-down)
  50:/home/jonas/warwick/3dProfilometer/xpcc/src/xpcc/architecture/platform/cortex_m3/stm32/spi/../stm32f2_4/gpio.hpp ****  * 
  51:/home/jonas/warwick/3dProfilometer/xpcc/src/xpcc/architecture/platform/cortex_m3/stm32/spi/../stm32f2_4/gpio.hpp ****  * GPIOx_MODER (32-bit)
  52:/home/jonas/warwick/3dProfilometer/xpcc/src/xpcc/architecture/platform/cortex_m3/stm32/spi/../stm32f2_4/gpio.hpp ****  *   00: Input
  53:/home/jonas/warwick/3dProfilometer/xpcc/src/xpcc/architecture/platform/cortex_m3/stm32/spi/../stm32f2_4/gpio.hpp ****  *   01: General purpose output mode
  54:/home/jonas/warwick/3dProfilometer/xpcc/src/xpcc/architecture/platform/cortex_m3/stm32/spi/../stm32f2_4/gpio.hpp ****  *   10: Alternate function mode
  55:/home/jonas/warwick/3dProfilometer/xpcc/src/xpcc/architecture/platform/cortex_m3/stm32/spi/../stm32f2_4/gpio.hpp ****  *   11: Analog mode
  56:/home/jonas/warwick/3dProfilometer/xpcc/src/xpcc/architecture/platform/cortex_m3/stm32/spi/../stm32f2_4/gpio.hpp ****  * GPIOx_OTYPER (16-bit)
  57:/home/jonas/warwick/3dProfilometer/xpcc/src/xpcc/architecture/platform/cortex_m3/stm32/spi/../stm32f2_4/gpio.hpp ****  *   0: Output push-pull
  58:/home/jonas/warwick/3dProfilometer/xpcc/src/xpcc/architecture/platform/cortex_m3/stm32/spi/../stm32f2_4/gpio.hpp ****  *   1: Output open-drain
  59:/home/jonas/warwick/3dProfilometer/xpcc/src/xpcc/architecture/platform/cortex_m3/stm32/spi/../stm32f2_4/gpio.hpp ****  * GPIOx_OSPEEDR (32-bit)
  60:/home/jonas/warwick/3dProfilometer/xpcc/src/xpcc/architecture/platform/cortex_m3/stm32/spi/../stm32f2_4/gpio.hpp ****  *   00: 2 MHz
  61:/home/jonas/warwick/3dProfilometer/xpcc/src/xpcc/architecture/platform/cortex_m3/stm32/spi/../stm32f2_4/gpio.hpp ****  *   01: 25 MHz
  62:/home/jonas/warwick/3dProfilometer/xpcc/src/xpcc/architecture/platform/cortex_m3/stm32/spi/../stm32f2_4/gpio.hpp ****  *   10: 50 MHz
  63:/home/jonas/warwick/3dProfilometer/xpcc/src/xpcc/architecture/platform/cortex_m3/stm32/spi/../stm32f2_4/gpio.hpp ****  *   11: 100 MHz
  64:/home/jonas/warwick/3dProfilometer/xpcc/src/xpcc/architecture/platform/cortex_m3/stm32/spi/../stm32f2_4/gpio.hpp ****  * GPIOx_PUPDR (32-bit)
  65:/home/jonas/warwick/3dProfilometer/xpcc/src/xpcc/architecture/platform/cortex_m3/stm32/spi/../stm32f2_4/gpio.hpp ****  *   00: No pull-up, pull-down
  66:/home/jonas/warwick/3dProfilometer/xpcc/src/xpcc/architecture/platform/cortex_m3/stm32/spi/../stm32f2_4/gpio.hpp ****  *   01: Pull-up
  67:/home/jonas/warwick/3dProfilometer/xpcc/src/xpcc/architecture/platform/cortex_m3/stm32/spi/../stm32f2_4/gpio.hpp ****  *   10: Pull-down
  68:/home/jonas/warwick/3dProfilometer/xpcc/src/xpcc/architecture/platform/cortex_m3/stm32/spi/../stm32f2_4/gpio.hpp ****  *   11: Reserved
  69:/home/jonas/warwick/3dProfilometer/xpcc/src/xpcc/architecture/platform/cortex_m3/stm32/spi/../stm32f2_4/gpio.hpp ****  * 
  70:/home/jonas/warwick/3dProfilometer/xpcc/src/xpcc/architecture/platform/cortex_m3/stm32/spi/../stm32f2_4/gpio.hpp ****  * GPIOx_IDR = input state (read-only) (16-bit)
  71:/home/jonas/warwick/3dProfilometer/xpcc/src/xpcc/architecture/platform/cortex_m3/stm32/spi/../stm32f2_4/gpio.hpp ****  * GPIOx_ODR = output state (16-bit)
  72:/home/jonas/warwick/3dProfilometer/xpcc/src/xpcc/architecture/platform/cortex_m3/stm32/spi/../stm32f2_4/gpio.hpp ****  * 
  73:/home/jonas/warwick/3dProfilometer/xpcc/src/xpcc/architecture/platform/cortex_m3/stm32/spi/../stm32f2_4/gpio.hpp ****  * GPIOx_BSRR = set and reset register (32-bit)
  74:/home/jonas/warwick/3dProfilometer/xpcc/src/xpcc/architecture/platform/cortex_m3/stm32/spi/../stm32f2_4/gpio.hpp ****  * - BSRR(i) sets
  75:/home/jonas/warwick/3dProfilometer/xpcc/src/xpcc/architecture/platform/cortex_m3/stm32/spi/../stm32f2_4/gpio.hpp ****  * - BSRR(i+16) resets
  76:/home/jonas/warwick/3dProfilometer/xpcc/src/xpcc/architecture/platform/cortex_m3/stm32/spi/../stm32f2_4/gpio.hpp ****  */
  77:/home/jonas/warwick/3dProfilometer/xpcc/src/xpcc/architecture/platform/cortex_m3/stm32/spi/../stm32f2_4/gpio.hpp **** 
  78:/home/jonas/warwick/3dProfilometer/xpcc/src/xpcc/architecture/platform/cortex_m3/stm32/spi/../stm32f2_4/gpio.hpp **** namespace xpcc
  79:/home/jonas/warwick/3dProfilometer/xpcc/src/xpcc/architecture/platform/cortex_m3/stm32/spi/../stm32f2_4/gpio.hpp **** {
  80:/home/jonas/warwick/3dProfilometer/xpcc/src/xpcc/architecture/platform/cortex_m3/stm32/spi/../stm32f2_4/gpio.hpp **** 	namespace stm32
  81:/home/jonas/warwick/3dProfilometer/xpcc/src/xpcc/architecture/platform/cortex_m3/stm32/spi/../stm32f2_4/gpio.hpp **** 	{
  82:/home/jonas/warwick/3dProfilometer/xpcc/src/xpcc/architecture/platform/cortex_m3/stm32/spi/../stm32f2_4/gpio.hpp **** 		/**
  83:/home/jonas/warwick/3dProfilometer/xpcc/src/xpcc/architecture/platform/cortex_m3/stm32/spi/../stm32f2_4/gpio.hpp **** 		 * \ingroup	stm32f2
  84:/home/jonas/warwick/3dProfilometer/xpcc/src/xpcc/architecture/platform/cortex_m3/stm32/spi/../stm32f2_4/gpio.hpp **** 		 */
  85:/home/jonas/warwick/3dProfilometer/xpcc/src/xpcc/architecture/platform/cortex_m3/stm32/spi/../stm32f2_4/gpio.hpp **** 		enum PullType
  86:/home/jonas/warwick/3dProfilometer/xpcc/src/xpcc/architecture/platform/cortex_m3/stm32/spi/../stm32f2_4/gpio.hpp **** 		{
  87:/home/jonas/warwick/3dProfilometer/xpcc/src/xpcc/architecture/platform/cortex_m3/stm32/spi/../stm32f2_4/gpio.hpp **** 			FLOATING = 0x0,
  88:/home/jonas/warwick/3dProfilometer/xpcc/src/xpcc/architecture/platform/cortex_m3/stm32/spi/../stm32f2_4/gpio.hpp **** 			PULLUP = 0x1,
  89:/home/jonas/warwick/3dProfilometer/xpcc/src/xpcc/architecture/platform/cortex_m3/stm32/spi/../stm32f2_4/gpio.hpp **** 			PULLDOWN = 0x2,
  90:/home/jonas/warwick/3dProfilometer/xpcc/src/xpcc/architecture/platform/cortex_m3/stm32/spi/../stm32f2_4/gpio.hpp **** 		};
  91:/home/jonas/warwick/3dProfilometer/xpcc/src/xpcc/architecture/platform/cortex_m3/stm32/spi/../stm32f2_4/gpio.hpp **** 		
  92:/home/jonas/warwick/3dProfilometer/xpcc/src/xpcc/architecture/platform/cortex_m3/stm32/spi/../stm32f2_4/gpio.hpp **** 		/**
  93:/home/jonas/warwick/3dProfilometer/xpcc/src/xpcc/architecture/platform/cortex_m3/stm32/spi/../stm32f2_4/gpio.hpp **** 		 * \ingroup	stm32f2
  94:/home/jonas/warwick/3dProfilometer/xpcc/src/xpcc/architecture/platform/cortex_m3/stm32/spi/../stm32f2_4/gpio.hpp **** 		 */
  95:/home/jonas/warwick/3dProfilometer/xpcc/src/xpcc/architecture/platform/cortex_m3/stm32/spi/../stm32f2_4/gpio.hpp **** 		enum OutputType
  96:/home/jonas/warwick/3dProfilometer/xpcc/src/xpcc/architecture/platform/cortex_m3/stm32/spi/../stm32f2_4/gpio.hpp **** 		{
  97:/home/jonas/warwick/3dProfilometer/xpcc/src/xpcc/architecture/platform/cortex_m3/stm32/spi/../stm32f2_4/gpio.hpp **** 			PUSH_PULL = 0x0,
  98:/home/jonas/warwick/3dProfilometer/xpcc/src/xpcc/architecture/platform/cortex_m3/stm32/spi/../stm32f2_4/gpio.hpp **** 			OPEN_DRAIN = 0x1,
  99:/home/jonas/warwick/3dProfilometer/xpcc/src/xpcc/architecture/platform/cortex_m3/stm32/spi/../stm32f2_4/gpio.hpp **** 		};
 100:/home/jonas/warwick/3dProfilometer/xpcc/src/xpcc/architecture/platform/cortex_m3/stm32/spi/../stm32f2_4/gpio.hpp **** 		
 101:/home/jonas/warwick/3dProfilometer/xpcc/src/xpcc/architecture/platform/cortex_m3/stm32/spi/../stm32f2_4/gpio.hpp **** 		/**
 102:/home/jonas/warwick/3dProfilometer/xpcc/src/xpcc/architecture/platform/cortex_m3/stm32/spi/../stm32f2_4/gpio.hpp **** 		 * \ingroup	stm32f2
 103:/home/jonas/warwick/3dProfilometer/xpcc/src/xpcc/architecture/platform/cortex_m3/stm32/spi/../stm32f2_4/gpio.hpp **** 		 */
 104:/home/jonas/warwick/3dProfilometer/xpcc/src/xpcc/architecture/platform/cortex_m3/stm32/spi/../stm32f2_4/gpio.hpp **** 		enum OutputSpeed
 105:/home/jonas/warwick/3dProfilometer/xpcc/src/xpcc/architecture/platform/cortex_m3/stm32/spi/../stm32f2_4/gpio.hpp **** 		{
 106:/home/jonas/warwick/3dProfilometer/xpcc/src/xpcc/architecture/platform/cortex_m3/stm32/spi/../stm32f2_4/gpio.hpp **** 			SPEED_2MHZ = 0x0,
 107:/home/jonas/warwick/3dProfilometer/xpcc/src/xpcc/architecture/platform/cortex_m3/stm32/spi/../stm32f2_4/gpio.hpp **** 			SPEED_25MHZ = 0x1,
 108:/home/jonas/warwick/3dProfilometer/xpcc/src/xpcc/architecture/platform/cortex_m3/stm32/spi/../stm32f2_4/gpio.hpp **** 			SPEED_50MHZ = 0x1,
 109:/home/jonas/warwick/3dProfilometer/xpcc/src/xpcc/architecture/platform/cortex_m3/stm32/spi/../stm32f2_4/gpio.hpp **** 			SPEED_100MHZ = 0x3,
 110:/home/jonas/warwick/3dProfilometer/xpcc/src/xpcc/architecture/platform/cortex_m3/stm32/spi/../stm32f2_4/gpio.hpp **** 		};
 111:/home/jonas/warwick/3dProfilometer/xpcc/src/xpcc/architecture/platform/cortex_m3/stm32/spi/../stm32f2_4/gpio.hpp **** 		
 112:/home/jonas/warwick/3dProfilometer/xpcc/src/xpcc/architecture/platform/cortex_m3/stm32/spi/../stm32f2_4/gpio.hpp **** 		/**
 113:/home/jonas/warwick/3dProfilometer/xpcc/src/xpcc/architecture/platform/cortex_m3/stm32/spi/../stm32f2_4/gpio.hpp **** 		 * \ingroup	stm32f2
 114:/home/jonas/warwick/3dProfilometer/xpcc/src/xpcc/architecture/platform/cortex_m3/stm32/spi/../stm32f2_4/gpio.hpp **** 		 */
 115:/home/jonas/warwick/3dProfilometer/xpcc/src/xpcc/architecture/platform/cortex_m3/stm32/spi/../stm32f2_4/gpio.hpp **** 		// 0..7 = AFRL[31:0]
 116:/home/jonas/warwick/3dProfilometer/xpcc/src/xpcc/architecture/platform/cortex_m3/stm32/spi/../stm32f2_4/gpio.hpp **** 		// 8..15 = AFRH[31:0]
 117:/home/jonas/warwick/3dProfilometer/xpcc/src/xpcc/architecture/platform/cortex_m3/stm32/spi/../stm32f2_4/gpio.hpp **** 		enum AlternateFunction
 118:/home/jonas/warwick/3dProfilometer/xpcc/src/xpcc/architecture/platform/cortex_m3/stm32/spi/../stm32f2_4/gpio.hpp **** 		{
 119:/home/jonas/warwick/3dProfilometer/xpcc/src/xpcc/architecture/platform/cortex_m3/stm32/spi/../stm32f2_4/gpio.hpp **** 			AF_RTC_50Hz = 0x00,	///< RTC_50Hz Alternate Function mapping
 120:/home/jonas/warwick/3dProfilometer/xpcc/src/xpcc/architecture/platform/cortex_m3/stm32/spi/../stm32f2_4/gpio.hpp **** 			AF_MCO = 0x00,		///< MCO (MCO1 and MCO2) Alternate Function mapping
 121:/home/jonas/warwick/3dProfilometer/xpcc/src/xpcc/architecture/platform/cortex_m3/stm32/spi/../stm32f2_4/gpio.hpp **** 			AF_TAMPER = 0x00,	///< TAMPER (TAMPER_1 and TAMPER_2) Alternate Function mapping
 122:/home/jonas/warwick/3dProfilometer/xpcc/src/xpcc/architecture/platform/cortex_m3/stm32/spi/../stm32f2_4/gpio.hpp **** 			AF_SWJ = 0x00,		///< SWJ (SWD and JTAG) Alternate Function mapping
 123:/home/jonas/warwick/3dProfilometer/xpcc/src/xpcc/architecture/platform/cortex_m3/stm32/spi/../stm32f2_4/gpio.hpp **** 			AF_TRACE = 0x00,	///< TRACE Alternate Function mapping
 124:/home/jonas/warwick/3dProfilometer/xpcc/src/xpcc/architecture/platform/cortex_m3/stm32/spi/../stm32f2_4/gpio.hpp **** 			
 125:/home/jonas/warwick/3dProfilometer/xpcc/src/xpcc/architecture/platform/cortex_m3/stm32/spi/../stm32f2_4/gpio.hpp **** 			// AF 1 selection  
 126:/home/jonas/warwick/3dProfilometer/xpcc/src/xpcc/architecture/platform/cortex_m3/stm32/spi/../stm32f2_4/gpio.hpp **** 			AF_TIM1 = 0x01,		///< TIM1 Alternate Function mapping
 127:/home/jonas/warwick/3dProfilometer/xpcc/src/xpcc/architecture/platform/cortex_m3/stm32/spi/../stm32f2_4/gpio.hpp **** 			AF_TIM2 = 0x01,		///< TIM2 Alternate Function mapping
 128:/home/jonas/warwick/3dProfilometer/xpcc/src/xpcc/architecture/platform/cortex_m3/stm32/spi/../stm32f2_4/gpio.hpp **** 			
 129:/home/jonas/warwick/3dProfilometer/xpcc/src/xpcc/architecture/platform/cortex_m3/stm32/spi/../stm32f2_4/gpio.hpp **** 			// AF 2 selection  
 130:/home/jonas/warwick/3dProfilometer/xpcc/src/xpcc/architecture/platform/cortex_m3/stm32/spi/../stm32f2_4/gpio.hpp **** 			AF_TIM3 = 0x02,		///< TIM3 Alternate Function mapping
 131:/home/jonas/warwick/3dProfilometer/xpcc/src/xpcc/architecture/platform/cortex_m3/stm32/spi/../stm32f2_4/gpio.hpp **** 			AF_TIM4 = 0x02,		///< TIM4 Alternate Function mapping
 132:/home/jonas/warwick/3dProfilometer/xpcc/src/xpcc/architecture/platform/cortex_m3/stm32/spi/../stm32f2_4/gpio.hpp **** 			AF_TIM5 = 0x02,		///< TIM5 Alternate Function mapping
 133:/home/jonas/warwick/3dProfilometer/xpcc/src/xpcc/architecture/platform/cortex_m3/stm32/spi/../stm32f2_4/gpio.hpp **** 			
 134:/home/jonas/warwick/3dProfilometer/xpcc/src/xpcc/architecture/platform/cortex_m3/stm32/spi/../stm32f2_4/gpio.hpp **** 			// AF 3 selection  
 135:/home/jonas/warwick/3dProfilometer/xpcc/src/xpcc/architecture/platform/cortex_m3/stm32/spi/../stm32f2_4/gpio.hpp **** 			AF_TIM8 = 0x03,		///< TIM8 Alternate Function mapping
 136:/home/jonas/warwick/3dProfilometer/xpcc/src/xpcc/architecture/platform/cortex_m3/stm32/spi/../stm32f2_4/gpio.hpp **** 			AF_TIM9 = 0x03,		///< TIM9 Alternate Function mapping
 137:/home/jonas/warwick/3dProfilometer/xpcc/src/xpcc/architecture/platform/cortex_m3/stm32/spi/../stm32f2_4/gpio.hpp **** 			AF_TIM10 = 0x03,	///< TIM10 Alternate Function mapping
 138:/home/jonas/warwick/3dProfilometer/xpcc/src/xpcc/architecture/platform/cortex_m3/stm32/spi/../stm32f2_4/gpio.hpp **** 			AF_TIM11 = 0x03,	///< TIM11 Alternate Function mapping
 139:/home/jonas/warwick/3dProfilometer/xpcc/src/xpcc/architecture/platform/cortex_m3/stm32/spi/../stm32f2_4/gpio.hpp **** 			
 140:/home/jonas/warwick/3dProfilometer/xpcc/src/xpcc/architecture/platform/cortex_m3/stm32/spi/../stm32f2_4/gpio.hpp **** 			// AF 4 selection  
 141:/home/jonas/warwick/3dProfilometer/xpcc/src/xpcc/architecture/platform/cortex_m3/stm32/spi/../stm32f2_4/gpio.hpp **** 			AF_I2C1 = 0x04,		///< I2C1 Alternate Function mapping
 142:/home/jonas/warwick/3dProfilometer/xpcc/src/xpcc/architecture/platform/cortex_m3/stm32/spi/../stm32f2_4/gpio.hpp **** 			AF_I2C2 = 0x04,		///< I2C2 Alternate Function mapping
 143:/home/jonas/warwick/3dProfilometer/xpcc/src/xpcc/architecture/platform/cortex_m3/stm32/spi/../stm32f2_4/gpio.hpp **** 			AF_I2C3 = 0x04,		///< I2C3 Alternate Function mapping
 144:/home/jonas/warwick/3dProfilometer/xpcc/src/xpcc/architecture/platform/cortex_m3/stm32/spi/../stm32f2_4/gpio.hpp **** 			
 145:/home/jonas/warwick/3dProfilometer/xpcc/src/xpcc/architecture/platform/cortex_m3/stm32/spi/../stm32f2_4/gpio.hpp **** 			// AF 5 selection  
 146:/home/jonas/warwick/3dProfilometer/xpcc/src/xpcc/architecture/platform/cortex_m3/stm32/spi/../stm32f2_4/gpio.hpp **** 			AF_SPI1 = 0x05,		///< SPI1 Alternate Function mapping
 147:/home/jonas/warwick/3dProfilometer/xpcc/src/xpcc/architecture/platform/cortex_m3/stm32/spi/../stm32f2_4/gpio.hpp **** 			AF_SPI2 = 0x05,		///< SPI2/I2S2 Alternate Function mapping
 148:/home/jonas/warwick/3dProfilometer/xpcc/src/xpcc/architecture/platform/cortex_m3/stm32/spi/../stm32f2_4/gpio.hpp **** 			
 149:/home/jonas/warwick/3dProfilometer/xpcc/src/xpcc/architecture/platform/cortex_m3/stm32/spi/../stm32f2_4/gpio.hpp **** 			// AF 6 selection  
 150:/home/jonas/warwick/3dProfilometer/xpcc/src/xpcc/architecture/platform/cortex_m3/stm32/spi/../stm32f2_4/gpio.hpp **** 			AF_SPI3 = 0x06,		///< SPI3/I2S3 Alternate Function mapping
 151:/home/jonas/warwick/3dProfilometer/xpcc/src/xpcc/architecture/platform/cortex_m3/stm32/spi/../stm32f2_4/gpio.hpp **** 			
 152:/home/jonas/warwick/3dProfilometer/xpcc/src/xpcc/architecture/platform/cortex_m3/stm32/spi/../stm32f2_4/gpio.hpp **** 			// AF 7 selection  
 153:/home/jonas/warwick/3dProfilometer/xpcc/src/xpcc/architecture/platform/cortex_m3/stm32/spi/../stm32f2_4/gpio.hpp **** 			AF_USART1 = 0x07,	///< USART1 Alternate Function mapping
 154:/home/jonas/warwick/3dProfilometer/xpcc/src/xpcc/architecture/platform/cortex_m3/stm32/spi/../stm32f2_4/gpio.hpp **** 			AF_USART2 = 0x07,	///< USART2 Alternate Function mapping
 155:/home/jonas/warwick/3dProfilometer/xpcc/src/xpcc/architecture/platform/cortex_m3/stm32/spi/../stm32f2_4/gpio.hpp **** 			AF_USART3 = 0x07,	///< USART3 Alternate Function mapping
 156:/home/jonas/warwick/3dProfilometer/xpcc/src/xpcc/architecture/platform/cortex_m3/stm32/spi/../stm32f2_4/gpio.hpp **** 			
 157:/home/jonas/warwick/3dProfilometer/xpcc/src/xpcc/architecture/platform/cortex_m3/stm32/spi/../stm32f2_4/gpio.hpp **** 			// AF 8 selection  
 158:/home/jonas/warwick/3dProfilometer/xpcc/src/xpcc/architecture/platform/cortex_m3/stm32/spi/../stm32f2_4/gpio.hpp **** 			AF_UART4 = 0x08,	///< UART4 Alternate Function mapping
 159:/home/jonas/warwick/3dProfilometer/xpcc/src/xpcc/architecture/platform/cortex_m3/stm32/spi/../stm32f2_4/gpio.hpp **** 			AF_UART5 = 0x08,	///< UART5 Alternate Function mapping
 160:/home/jonas/warwick/3dProfilometer/xpcc/src/xpcc/architecture/platform/cortex_m3/stm32/spi/../stm32f2_4/gpio.hpp **** 			AF_USART6 = 0x08,	///< USART6 Alternate Function mapping
 161:/home/jonas/warwick/3dProfilometer/xpcc/src/xpcc/architecture/platform/cortex_m3/stm32/spi/../stm32f2_4/gpio.hpp **** 			
 162:/home/jonas/warwick/3dProfilometer/xpcc/src/xpcc/architecture/platform/cortex_m3/stm32/spi/../stm32f2_4/gpio.hpp **** 			// AF 9 selection 
 163:/home/jonas/warwick/3dProfilometer/xpcc/src/xpcc/architecture/platform/cortex_m3/stm32/spi/../stm32f2_4/gpio.hpp **** 			AF_CAN1 = 0x09,		///< CAN1 Alternate Function mapping
 164:/home/jonas/warwick/3dProfilometer/xpcc/src/xpcc/architecture/platform/cortex_m3/stm32/spi/../stm32f2_4/gpio.hpp **** 			AF_CAN2 = 0x09,		///< CAN2 Alternate Function mapping
 165:/home/jonas/warwick/3dProfilometer/xpcc/src/xpcc/architecture/platform/cortex_m3/stm32/spi/../stm32f2_4/gpio.hpp **** 			AF_TIM12 = 0x09,	///< TIM12 Alternate Function mapping
 166:/home/jonas/warwick/3dProfilometer/xpcc/src/xpcc/architecture/platform/cortex_m3/stm32/spi/../stm32f2_4/gpio.hpp **** 			AF_TIM13 = 0x09,	///< TIM13 Alternate Function mapping
 167:/home/jonas/warwick/3dProfilometer/xpcc/src/xpcc/architecture/platform/cortex_m3/stm32/spi/../stm32f2_4/gpio.hpp **** 			AF_TIM14 = 0x09,	///< TIM14 Alternate Function mapping
 168:/home/jonas/warwick/3dProfilometer/xpcc/src/xpcc/architecture/platform/cortex_m3/stm32/spi/../stm32f2_4/gpio.hpp **** 			
 169:/home/jonas/warwick/3dProfilometer/xpcc/src/xpcc/architecture/platform/cortex_m3/stm32/spi/../stm32f2_4/gpio.hpp **** 			// AF 10 selection  
 170:/home/jonas/warwick/3dProfilometer/xpcc/src/xpcc/architecture/platform/cortex_m3/stm32/spi/../stm32f2_4/gpio.hpp **** 			AF_OTG_FS = 0xA,	///< OTG_FS Alternate Function mapping
 171:/home/jonas/warwick/3dProfilometer/xpcc/src/xpcc/architecture/platform/cortex_m3/stm32/spi/../stm32f2_4/gpio.hpp **** 			AF_OTG_HS = 0xA,	///< OTG_HS Alternate Function mapping
 172:/home/jonas/warwick/3dProfilometer/xpcc/src/xpcc/architecture/platform/cortex_m3/stm32/spi/../stm32f2_4/gpio.hpp **** 			
 173:/home/jonas/warwick/3dProfilometer/xpcc/src/xpcc/architecture/platform/cortex_m3/stm32/spi/../stm32f2_4/gpio.hpp **** 			// AF 11 selection  
 174:/home/jonas/warwick/3dProfilometer/xpcc/src/xpcc/architecture/platform/cortex_m3/stm32/spi/../stm32f2_4/gpio.hpp **** 			AF_ETH = 0x0B,		///< ETHERNET Alternate Function mapping
 175:/home/jonas/warwick/3dProfilometer/xpcc/src/xpcc/architecture/platform/cortex_m3/stm32/spi/../stm32f2_4/gpio.hpp **** 			
 176:/home/jonas/warwick/3dProfilometer/xpcc/src/xpcc/architecture/platform/cortex_m3/stm32/spi/../stm32f2_4/gpio.hpp **** 			// AF 12 selection  
 177:/home/jonas/warwick/3dProfilometer/xpcc/src/xpcc/architecture/platform/cortex_m3/stm32/spi/../stm32f2_4/gpio.hpp **** 			AF_FSMC = 0xC,		///< FSMC Alternate Function mapping
 178:/home/jonas/warwick/3dProfilometer/xpcc/src/xpcc/architecture/platform/cortex_m3/stm32/spi/../stm32f2_4/gpio.hpp **** 			AF_OTG_HS_FS = 0xC,	///< OTG HS configured in FS, Alternate Function mapping
 179:/home/jonas/warwick/3dProfilometer/xpcc/src/xpcc/architecture/platform/cortex_m3/stm32/spi/../stm32f2_4/gpio.hpp **** 			AF_SDIO = 0xC,		///< SDIO Alternate Function mapping
 180:/home/jonas/warwick/3dProfilometer/xpcc/src/xpcc/architecture/platform/cortex_m3/stm32/spi/../stm32f2_4/gpio.hpp **** 			
 181:/home/jonas/warwick/3dProfilometer/xpcc/src/xpcc/architecture/platform/cortex_m3/stm32/spi/../stm32f2_4/gpio.hpp **** 			// AF 13 selection  
 182:/home/jonas/warwick/3dProfilometer/xpcc/src/xpcc/architecture/platform/cortex_m3/stm32/spi/../stm32f2_4/gpio.hpp **** 			AF_DCMI = 0x0D,		///< DCMI Alternate Function mapping
 183:/home/jonas/warwick/3dProfilometer/xpcc/src/xpcc/architecture/platform/cortex_m3/stm32/spi/../stm32f2_4/gpio.hpp **** 			
 184:/home/jonas/warwick/3dProfilometer/xpcc/src/xpcc/architecture/platform/cortex_m3/stm32/spi/../stm32f2_4/gpio.hpp **** 			// AF 15 selection  
 185:/home/jonas/warwick/3dProfilometer/xpcc/src/xpcc/architecture/platform/cortex_m3/stm32/spi/../stm32f2_4/gpio.hpp **** 			AF_EVENTOUT = 0x0F,	///< EVENTOUT Alternate Function mapping
 186:/home/jonas/warwick/3dProfilometer/xpcc/src/xpcc/architecture/platform/cortex_m3/stm32/spi/../stm32f2_4/gpio.hpp **** 			
 187:/home/jonas/warwick/3dProfilometer/xpcc/src/xpcc/architecture/platform/cortex_m3/stm32/spi/../stm32f2_4/gpio.hpp **** 			AF_0 = 0x00,		///< System
 188:/home/jonas/warwick/3dProfilometer/xpcc/src/xpcc/architecture/platform/cortex_m3/stm32/spi/../stm32f2_4/gpio.hpp **** 			AF_1 = 0x01,		///< TIM1/2
 189:/home/jonas/warwick/3dProfilometer/xpcc/src/xpcc/architecture/platform/cortex_m3/stm32/spi/../stm32f2_4/gpio.hpp **** 			AF_2 = 0x02,		///< TIM3..5
 190:/home/jonas/warwick/3dProfilometer/xpcc/src/xpcc/architecture/platform/cortex_m3/stm32/spi/../stm32f2_4/gpio.hpp **** 			AF_3 = 0x03,		///< TIM8...11
 191:/home/jonas/warwick/3dProfilometer/xpcc/src/xpcc/architecture/platform/cortex_m3/stm32/spi/../stm32f2_4/gpio.hpp **** 			AF_4 = 0x04,		///< I2C1..3
 192:/home/jonas/warwick/3dProfilometer/xpcc/src/xpcc/architecture/platform/cortex_m3/stm32/spi/../stm32f2_4/gpio.hpp **** 			AF_5 = 0x05,		///< SPI1/2
 193:/home/jonas/warwick/3dProfilometer/xpcc/src/xpcc/architecture/platform/cortex_m3/stm32/spi/../stm32f2_4/gpio.hpp **** 			AF_6 = 0x06,		///< SPI3
 194:/home/jonas/warwick/3dProfilometer/xpcc/src/xpcc/architecture/platform/cortex_m3/stm32/spi/../stm32f2_4/gpio.hpp **** 			AF_7 = 0x07,		///< USART1..3
 195:/home/jonas/warwick/3dProfilometer/xpcc/src/xpcc/architecture/platform/cortex_m3/stm32/spi/../stm32f2_4/gpio.hpp **** 			AF_8 = 0x08,		///< USART4..6
 196:/home/jonas/warwick/3dProfilometer/xpcc/src/xpcc/architecture/platform/cortex_m3/stm32/spi/../stm32f2_4/gpio.hpp **** 			AF_9 = 0x09,		///< CAN1/2, TIM12..14
 197:/home/jonas/warwick/3dProfilometer/xpcc/src/xpcc/architecture/platform/cortex_m3/stm32/spi/../stm32f2_4/gpio.hpp **** 			AF_10 = 0x0a,		///< OTG_FS, OTG_HS
 198:/home/jonas/warwick/3dProfilometer/xpcc/src/xpcc/architecture/platform/cortex_m3/stm32/spi/../stm32f2_4/gpio.hpp **** 			AF_11 = 0x0b,		///< ETH
 199:/home/jonas/warwick/3dProfilometer/xpcc/src/xpcc/architecture/platform/cortex_m3/stm32/spi/../stm32f2_4/gpio.hpp **** 			AF_12 = 0x0c,		///< FSMC, SDIO, OTG_HS (configured as FS)
 200:/home/jonas/warwick/3dProfilometer/xpcc/src/xpcc/architecture/platform/cortex_m3/stm32/spi/../stm32f2_4/gpio.hpp **** 			AF_13 = 0x0d,		///< DCMI
 201:/home/jonas/warwick/3dProfilometer/xpcc/src/xpcc/architecture/platform/cortex_m3/stm32/spi/../stm32f2_4/gpio.hpp **** 			AF_14 = 0x0e,		///< Reserved
 202:/home/jonas/warwick/3dProfilometer/xpcc/src/xpcc/architecture/platform/cortex_m3/stm32/spi/../stm32f2_4/gpio.hpp **** 			AF_15 = 0x0f,		///< EVENTOUT
 203:/home/jonas/warwick/3dProfilometer/xpcc/src/xpcc/architecture/platform/cortex_m3/stm32/spi/../stm32f2_4/gpio.hpp **** 		};
 204:/home/jonas/warwick/3dProfilometer/xpcc/src/xpcc/architecture/platform/cortex_m3/stm32/spi/../stm32f2_4/gpio.hpp **** 		
 205:/home/jonas/warwick/3dProfilometer/xpcc/src/xpcc/architecture/platform/cortex_m3/stm32/spi/../stm32f2_4/gpio.hpp **** 		/** \internal */
 206:/home/jonas/warwick/3dProfilometer/xpcc/src/xpcc/architecture/platform/cortex_m3/stm32/spi/../stm32f2_4/gpio.hpp **** 		template<unsigned int P, unsigned char N, bool = (N >= 8)>
 207:/home/jonas/warwick/3dProfilometer/xpcc/src/xpcc/architecture/platform/cortex_m3/stm32/spi/../stm32f2_4/gpio.hpp **** 		struct AlternateMode {
 208:/home/jonas/warwick/3dProfilometer/xpcc/src/xpcc/architecture/platform/cortex_m3/stm32/spi/../stm32f2_4/gpio.hpp **** 			ALWAYS_INLINE static void setMode(AlternateFunction m) {
 209:/home/jonas/warwick/3dProfilometer/xpcc/src/xpcc/architecture/platform/cortex_m3/stm32/spi/../stm32f2_4/gpio.hpp **** 				uint32_t tmp = reinterpret_cast<GPIO_TypeDef*>(P)->AFR[1];
  58              		.loc 2 209 0
  59 0018 5A6A     		ldr	r2, [r3, #36]
  60              	.LVL3:
 210:/home/jonas/warwick/3dProfilometer/xpcc/src/xpcc/architecture/platform/cortex_m3/stm32/spi/../stm32f2_4/gpio.hpp **** 				tmp &= ~(0xf << ((N - 8) * 4));
  61              		.loc 2 210 0
  62 001a 22F47002 		bic	r2, r2, #15728640
  63              	.LVL4:
 211:/home/jonas/warwick/3dProfilometer/xpcc/src/xpcc/architecture/platform/cortex_m3/stm32/spi/../stm32f2_4/gpio.hpp **** 				tmp |= (m << ((N - 8) * 4));
  64              		.loc 2 211 0
  65 001e 42F4A002 		orr	r2, r2, #5242880
  66              	.LVL5:
 212:/home/jonas/warwick/3dProfilometer/xpcc/src/xpcc/architecture/platform/cortex_m3/stm32/spi/../stm32f2_4/gpio.hpp **** 				reinterpret_cast<GPIO_TypeDef*>(P)->AFR[1] = tmp;
  67              		.loc 2 212 0
  68 0022 5A62     		str	r2, [r3, #36]
  69              	.LBE32:
  70              	.LBE31:
  41:/home/jonas/warwick/3dProfilometer/xpcc/src/xpcc/architecture/platform/cortex_m3/stm32/spi/spi_2.cpp **** 	GPIO__OUTPUT(SckB13, B, 13);
  71              		.loc 1 41 0
  72 0024 5A68     		ldr	r2, [r3, #4]
  73              	.LVL6:
  74 0026 22F40052 		bic	r2, r2, #8192
  75 002a 5A60     		str	r2, [r3, #4]
  76 002c 9A68     		ldr	r2, [r3, #8]
  77 002e 22F04062 		bic	r2, r2, #201326592
  78 0032 42F08062 		orr	r2, r2, #67108864
  79 0036 9A60     		str	r2, [r3, #8]
  80 0038 DA68     		ldr	r2, [r3, #12]
  81 003a 22F04062 		bic	r2, r2, #201326592
  82 003e DA60     		str	r2, [r3, #12]
  83              	.LVL7:
  84              	.LBE33:
  85              	.LBE34:
  86              	.LBB35:
  87              	.LBB36:
  42:/home/jonas/warwick/3dProfilometer/xpcc/src/xpcc/architecture/platform/cortex_m3/stm32/spi/spi_2.cpp **** 	GPIO__INPUT(MisoB14, B, 14);
  88              		.loc 1 42 0
  89 0040 1A68     		ldr	r2, [r3, #0]
  90 0042 22F04052 		bic	r2, r2, #805306368
  91 0046 42F00052 		orr	r2, r2, #536870912
  92 004a 1A60     		str	r2, [r3, #0]
  93              	.LVL8:
  94              	.LBB37:
  95              	.LBB38:
 209:/home/jonas/warwick/3dProfilometer/xpcc/src/xpcc/architecture/platform/cortex_m3/stm32/spi/../stm32f2_4/gpio.hpp **** 				uint32_t tmp = reinterpret_cast<GPIO_TypeDef*>(P)->AFR[1];
  96              		.loc 2 209 0
  97 004c 5A6A     		ldr	r2, [r3, #36]
  98              	.LVL9:
 210:/home/jonas/warwick/3dProfilometer/xpcc/src/xpcc/architecture/platform/cortex_m3/stm32/spi/../stm32f2_4/gpio.hpp **** 				tmp &= ~(0xf << ((N - 8) * 4));
  99              		.loc 2 210 0
 100 004e 22F07062 		bic	r2, r2, #251658240
 101              	.LVL10:
 211:/home/jonas/warwick/3dProfilometer/xpcc/src/xpcc/architecture/platform/cortex_m3/stm32/spi/../stm32f2_4/gpio.hpp **** 				tmp |= (m << ((N - 8) * 4));
 102              		.loc 2 211 0
 103 0052 42F0A062 		orr	r2, r2, #83886080
 104              	.LVL11:
 105              		.loc 2 212 0
 106 0056 5A62     		str	r2, [r3, #36]
 107              	.LBE38:
 108              	.LBE37:
  42:/home/jonas/warwick/3dProfilometer/xpcc/src/xpcc/architecture/platform/cortex_m3/stm32/spi/spi_2.cpp **** 	GPIO__INPUT(MisoB14, B, 14);
 109              		.loc 1 42 0
 110 0058 5A68     		ldr	r2, [r3, #4]
 111              	.LVL12:
 112 005a 22F48042 		bic	r2, r2, #16384
 113 005e 5A60     		str	r2, [r3, #4]
 114 0060 9A68     		ldr	r2, [r3, #8]
 115 0062 22F04052 		bic	r2, r2, #805306368
 116 0066 9A60     		str	r2, [r3, #8]
 117 0068 DA68     		ldr	r2, [r3, #12]
 118 006a 22F04052 		bic	r2, r2, #805306368
 119 006e DA60     		str	r2, [r3, #12]
 120              	.LVL13:
 121              	.LBE36:
 122              	.LBE35:
 123              	.LBB39:
 124              	.LBB40:
  43:/home/jonas/warwick/3dProfilometer/xpcc/src/xpcc/architecture/platform/cortex_m3/stm32/spi/spi_2.cpp **** 	GPIO__OUTPUT(MosiB15, B, 15);
 125              		.loc 1 43 0
 126 0070 1A68     		ldr	r2, [r3, #0]
 127 0072 22F04042 		bic	r2, r2, #-1073741824
 128 0076 42F00042 		orr	r2, r2, #-2147483648
 129 007a 1A60     		str	r2, [r3, #0]
 130              	.LVL14:
 131              	.LBB41:
 132              	.LBB42:
 209:/home/jonas/warwick/3dProfilometer/xpcc/src/xpcc/architecture/platform/cortex_m3/stm32/spi/../stm32f2_4/gpio.hpp **** 				uint32_t tmp = reinterpret_cast<GPIO_TypeDef*>(P)->AFR[1];
 133              		.loc 2 209 0
 134 007c 5A6A     		ldr	r2, [r3, #36]
 135              	.LVL15:
 210:/home/jonas/warwick/3dProfilometer/xpcc/src/xpcc/architecture/platform/cortex_m3/stm32/spi/../stm32f2_4/gpio.hpp **** 				tmp &= ~(0xf << ((N - 8) * 4));
 136              		.loc 2 210 0
 137 007e 22F07042 		bic	r2, r2, #-268435456
 138              	.LVL16:
 211:/home/jonas/warwick/3dProfilometer/xpcc/src/xpcc/architecture/platform/cortex_m3/stm32/spi/../stm32f2_4/gpio.hpp **** 				tmp |= (m << ((N - 8) * 4));
 139              		.loc 2 211 0
 140 0082 42F0A042 		orr	r2, r2, #1342177280
 141              	.LVL17:
 142              		.loc 2 212 0
 143 0086 5A62     		str	r2, [r3, #36]
 144              	.LBE42:
 145              	.LBE41:
  43:/home/jonas/warwick/3dProfilometer/xpcc/src/xpcc/architecture/platform/cortex_m3/stm32/spi/spi_2.cpp **** 	GPIO__OUTPUT(MosiB15, B, 15);
 146              		.loc 1 43 0
 147 0088 5A68     		ldr	r2, [r3, #4]
 148              	.LVL18:
 149 008a 22F40042 		bic	r2, r2, #32768
 150 008e 5A60     		str	r2, [r3, #4]
 151 0090 9A68     		ldr	r2, [r3, #8]
 152 0092 22F04042 		bic	r2, r2, #-1073741824
 153 0096 42F08042 		orr	r2, r2, #1073741824
 154 009a 9A60     		str	r2, [r3, #8]
 155 009c DA68     		ldr	r2, [r3, #12]
 156 009e 22F04042 		bic	r2, r2, #-1073741824
 157 00a2 DA60     		str	r2, [r3, #12]
 158 00a4 7047     		bx	lr
 159              	.L3:
 160 00a6 00BF     		.align	2
 161              	.L2:
 162 00a8 00380240 		.word	1073887232
 163 00ac 00040240 		.word	1073873920
 164              	.LBE40:
 165              	.LBE39:
 166              		.cfi_endproc
 167              	.LFE158:
 169              		.section	.text._ZN4xpcc5stm3210SpiMaster210initializeENS1_4ModeENS1_9PrescalerE,"ax",%progbits
 170              		.align	2
 171              		.global	_ZN4xpcc5stm3210SpiMaster210initializeENS1_4ModeENS1_9PrescalerE
 172              		.thumb
 173              		.thumb_func
 175              	_ZN4xpcc5stm3210SpiMaster210initializeENS1_4ModeENS1_9PrescalerE:
 176              	.LFB159:
  66:/home/jonas/warwick/3dProfilometer/xpcc/src/xpcc/architecture/platform/cortex_m3/stm32/spi/spi_2.cpp **** 	
  67:/home/jonas/warwick/3dProfilometer/xpcc/src/xpcc/architecture/platform/cortex_m3/stm32/spi/spi_2.cpp **** 	// Initialize IO pins
  68:/home/jonas/warwick/3dProfilometer/xpcc/src/xpcc/architecture/platform/cortex_m3/stm32/spi/spi_2.cpp **** #if defined(STM32F2XX) || defined(STM32F4XX)
  69:/home/jonas/warwick/3dProfilometer/xpcc/src/xpcc/architecture/platform/cortex_m3/stm32/spi/spi_2.cpp **** 	(void) mapping;		// avoid compiler warning
  70:/home/jonas/warwick/3dProfilometer/xpcc/src/xpcc/architecture/platform/cortex_m3/stm32/spi/spi_2.cpp **** 	
  71:/home/jonas/warwick/3dProfilometer/xpcc/src/xpcc/architecture/platform/cortex_m3/stm32/spi/spi_2.cpp **** 	SckB13::setAlternateFunction(AF_SPI2, xpcc::stm32::PUSH_PULL);
  72:/home/jonas/warwick/3dProfilometer/xpcc/src/xpcc/architecture/platform/cortex_m3/stm32/spi/spi_2.cpp **** 	MisoB14::setAlternateFunction(AF_SPI2);
  73:/home/jonas/warwick/3dProfilometer/xpcc/src/xpcc/architecture/platform/cortex_m3/stm32/spi/spi_2.cpp **** 	MosiB15::setAlternateFunction(AF_SPI2, xpcc::stm32::PUSH_PULL);
  74:/home/jonas/warwick/3dProfilometer/xpcc/src/xpcc/architecture/platform/cortex_m3/stm32/spi/spi_2.cpp **** #else
  75:/home/jonas/warwick/3dProfilometer/xpcc/src/xpcc/architecture/platform/cortex_m3/stm32/spi/spi_2.cpp **** 	(void) mapping;		// avoid compiler warning
  76:/home/jonas/warwick/3dProfilometer/xpcc/src/xpcc/architecture/platform/cortex_m3/stm32/spi/spi_2.cpp **** 	
  77:/home/jonas/warwick/3dProfilometer/xpcc/src/xpcc/architecture/platform/cortex_m3/stm32/spi/spi_2.cpp **** 	SckB13::setAlternateFunction(xpcc::stm32::PUSH_PULL);
  78:/home/jonas/warwick/3dProfilometer/xpcc/src/xpcc/architecture/platform/cortex_m3/stm32/spi/spi_2.cpp **** 	MisoB14::setInput(xpcc::stm32::FLOATING);
  79:/home/jonas/warwick/3dProfilometer/xpcc/src/xpcc/architecture/platform/cortex_m3/stm32/spi/spi_2.cpp **** 	MosiB15::setAlternateFunction(xpcc::stm32::PUSH_PULL);
  80:/home/jonas/warwick/3dProfilometer/xpcc/src/xpcc/architecture/platform/cortex_m3/stm32/spi/spi_2.cpp **** #endif
  81:/home/jonas/warwick/3dProfilometer/xpcc/src/xpcc/architecture/platform/cortex_m3/stm32/spi/spi_2.cpp **** }
  82:/home/jonas/warwick/3dProfilometer/xpcc/src/xpcc/architecture/platform/cortex_m3/stm32/spi/spi_2.cpp **** 
  83:/home/jonas/warwick/3dProfilometer/xpcc/src/xpcc/architecture/platform/cortex_m3/stm32/spi/spi_2.cpp **** 
  84:/home/jonas/warwick/3dProfilometer/xpcc/src/xpcc/architecture/platform/cortex_m3/stm32/spi/spi_2.cpp **** // ----------------------------------------------------------------------------
  85:/home/jonas/warwick/3dProfilometer/xpcc/src/xpcc/architecture/platform/cortex_m3/stm32/spi/spi_2.cpp **** void
  86:/home/jonas/warwick/3dProfilometer/xpcc/src/xpcc/architecture/platform/cortex_m3/stm32/spi/spi_2.cpp **** xpcc::stm32::SpiMaster2::initialize(Mode mode, Prescaler prescaler)
  87:/home/jonas/warwick/3dProfilometer/xpcc/src/xpcc/architecture/platform/cortex_m3/stm32/spi/spi_2.cpp **** {
 177              		.loc 1 87 0
 178              		.cfi_startproc
 179              		@ args = 0, pretend = 0, frame = 0
 180              		@ frame_needed = 0, uses_anonymous_args = 0
 181              		@ link register save eliminated.
 182              	.LVL19:
  88:/home/jonas/warwick/3dProfilometer/xpcc/src/xpcc/architecture/platform/cortex_m3/stm32/spi/spi_2.cpp **** 	RCC->APB1ENR |= RCC_APB1ENR_SPI2EN;
 183              		.loc 1 88 0
 184 0000 124A     		ldr	r2, .L5
  89:/home/jonas/warwick/3dProfilometer/xpcc/src/xpcc/architecture/platform/cortex_m3/stm32/spi/spi_2.cpp **** 	
  90:/home/jonas/warwick/3dProfilometer/xpcc/src/xpcc/architecture/platform/cortex_m3/stm32/spi/spi_2.cpp **** 	RCC->APB1RSTR |=  RCC_APB1RSTR_SPI2RST;
  91:/home/jonas/warwick/3dProfilometer/xpcc/src/xpcc/architecture/platform/cortex_m3/stm32/spi/spi_2.cpp **** 	RCC->APB1RSTR &= ~RCC_APB1RSTR_SPI2RST;
  92:/home/jonas/warwick/3dProfilometer/xpcc/src/xpcc/architecture/platform/cortex_m3/stm32/spi/spi_2.cpp **** 	
  93:/home/jonas/warwick/3dProfilometer/xpcc/src/xpcc/architecture/platform/cortex_m3/stm32/spi/spi_2.cpp **** 	// disable all interrupts
  94:/home/jonas/warwick/3dProfilometer/xpcc/src/xpcc/architecture/platform/cortex_m3/stm32/spi/spi_2.cpp **** 	SPI2->CR2 &= ~(SPI_CR2_TXEIE  | SPI_CR2_RXNEIE  | SPI_CR2_ERRIE);
 185              		.loc 1 94 0
 186 0002 134B     		ldr	r3, .L5+4
  87:/home/jonas/warwick/3dProfilometer/xpcc/src/xpcc/architecture/platform/cortex_m3/stm32/spi/spi_2.cpp **** {
 187              		.loc 1 87 0
 188 0004 10B4     		push	{r4}
 189              	.LCFI0:
 190              		.cfi_def_cfa_offset 4
 191              		.cfi_offset 4, -4
  88:/home/jonas/warwick/3dProfilometer/xpcc/src/xpcc/architecture/platform/cortex_m3/stm32/spi/spi_2.cpp **** 	RCC->APB1ENR |= RCC_APB1ENR_SPI2EN;
 192              		.loc 1 88 0
 193 0006 146C     		ldr	r4, [r2, #64]
 194 0008 44F48044 		orr	r4, r4, #16384
 195 000c 1464     		str	r4, [r2, #64]
  90:/home/jonas/warwick/3dProfilometer/xpcc/src/xpcc/architecture/platform/cortex_m3/stm32/spi/spi_2.cpp **** 	RCC->APB1RSTR |=  RCC_APB1RSTR_SPI2RST;
 196              		.loc 1 90 0
 197 000e 146A     		ldr	r4, [r2, #32]
 198 0010 44F40044 		orr	r4, r4, #32768
 199 0014 1462     		str	r4, [r2, #32]
  91:/home/jonas/warwick/3dProfilometer/xpcc/src/xpcc/architecture/platform/cortex_m3/stm32/spi/spi_2.cpp **** 	RCC->APB1RSTR &= ~RCC_APB1RSTR_SPI2RST;
 200              		.loc 1 91 0
 201 0016 146A     		ldr	r4, [r2, #32]
 202 0018 24F40044 		bic	r4, r4, #32768
 203 001c 1462     		str	r4, [r2, #32]
 204              		.loc 1 94 0
 205 001e 9A88     		ldrh	r2, [r3, #4]
 206 0020 22F0E002 		bic	r2, r2, #224
 207 0024 1204     		lsls	r2, r2, #16
 208 0026 120C     		lsrs	r2, r2, #16
 209 0028 9A80     		strh	r2, [r3, #4]	@ movhi
  95:/home/jonas/warwick/3dProfilometer/xpcc/src/xpcc/architecture/platform/cortex_m3/stm32/spi/spi_2.cpp **** 	
  96:/home/jonas/warwick/3dProfilometer/xpcc/src/xpcc/architecture/platform/cortex_m3/stm32/spi/spi_2.cpp **** 	// disable peripheral
  97:/home/jonas/warwick/3dProfilometer/xpcc/src/xpcc/architecture/platform/cortex_m3/stm32/spi/spi_2.cpp **** 	SPI2->CR1 &= ~SPI_CR1_SPE;
 210              		.loc 1 97 0
 211 002a 1A88     		ldrh	r2, [r3, #0]
 212 002c 22F04002 		bic	r2, r2, #64
 213 0030 1204     		lsls	r2, r2, #16
  98:/home/jonas/warwick/3dProfilometer/xpcc/src/xpcc/architecture/platform/cortex_m3/stm32/spi/spi_2.cpp **** 	
  99:/home/jonas/warwick/3dProfilometer/xpcc/src/xpcc/architecture/platform/cortex_m3/stm32/spi/spi_2.cpp **** 	// set new mode
 100:/home/jonas/warwick/3dProfilometer/xpcc/src/xpcc/architecture/platform/cortex_m3/stm32/spi/spi_2.cpp **** 	SPI2->CR1 = prescaler | mode | SPI_CR1_MSTR | SPI_CR1_SSM | SPI_CR1_SSI;
 214              		.loc 1 100 0
 215 0032 0143     		orrs	r1, r1, r0
 216              	.LVL20:
  97:/home/jonas/warwick/3dProfilometer/xpcc/src/xpcc/architecture/platform/cortex_m3/stm32/spi/spi_2.cpp **** 	SPI2->CR1 &= ~SPI_CR1_SPE;
 217              		.loc 1 97 0
 218 0034 120C     		lsrs	r2, r2, #16
 219              		.loc 1 100 0
 220 0036 41F44171 		orr	r1, r1, #772
  97:/home/jonas/warwick/3dProfilometer/xpcc/src/xpcc/architecture/platform/cortex_m3/stm32/spi/spi_2.cpp **** 	SPI2->CR1 &= ~SPI_CR1_SPE;
 221              		.loc 1 97 0
 222 003a 1A80     		strh	r2, [r3, #0]	@ movhi
 223              		.loc 1 100 0
 224 003c 1980     		strh	r1, [r3, #0]	@ movhi
 101:/home/jonas/warwick/3dProfilometer/xpcc/src/xpcc/architecture/platform/cortex_m3/stm32/spi/spi_2.cpp **** 	    
 102:/home/jonas/warwick/3dProfilometer/xpcc/src/xpcc/architecture/platform/cortex_m3/stm32/spi/spi_2.cpp **** 	// reenable peripheral
 103:/home/jonas/warwick/3dProfilometer/xpcc/src/xpcc/architecture/platform/cortex_m3/stm32/spi/spi_2.cpp **** 	SPI2->CR1 |= SPI_CR1_SPE;
 225              		.loc 1 103 0
 226 003e 1A88     		ldrh	r2, [r3, #0]
 227 0040 92B2     		uxth	r2, r2
 228 0042 42F04002 		orr	r2, r2, #64
 229 0046 1A80     		strh	r2, [r3, #0]	@ movhi
 104:/home/jonas/warwick/3dProfilometer/xpcc/src/xpcc/architecture/platform/cortex_m3/stm32/spi/spi_2.cpp **** }
 230              		.loc 1 104 0
 231 0048 10BC     		pop	{r4}
 232 004a 7047     		bx	lr
 233              	.L6:
 234              		.align	2
 235              	.L5:
 236 004c 00380240 		.word	1073887232
 237 0050 00380040 		.word	1073756160
 238              		.cfi_endproc
 239              	.LFE159:
 241              		.section	.text._ZN4xpcc5stm3210SpiMaster29setBufferEtPhS2_NS_9SpiMaster14BufferIncreaseE,"ax",%pro
 242              		.align	2
 243              		.global	_ZN4xpcc5stm3210SpiMaster29setBufferEtPhS2_NS_9SpiMaster14BufferIncreaseE
 244              		.thumb
 245              		.thumb_func
 247              	_ZN4xpcc5stm3210SpiMaster29setBufferEtPhS2_NS_9SpiMaster14BufferIncreaseE:
 248              	.LFB160:
 105:/home/jonas/warwick/3dProfilometer/xpcc/src/xpcc/architecture/platform/cortex_m3/stm32/spi/spi_2.cpp **** 	
 106:/home/jonas/warwick/3dProfilometer/xpcc/src/xpcc/architecture/platform/cortex_m3/stm32/spi/spi_2.cpp **** // ----------------------------------------------------------------------------
 107:/home/jonas/warwick/3dProfilometer/xpcc/src/xpcc/architecture/platform/cortex_m3/stm32/spi/spi_2.cpp **** bool
 108:/home/jonas/warwick/3dProfilometer/xpcc/src/xpcc/architecture/platform/cortex_m3/stm32/spi/spi_2.cpp **** xpcc::stm32::SpiMaster2::setBuffer(uint16_t length, uint8_t* transmit, uint8_t* receive, BufferIncr
 109:/home/jonas/warwick/3dProfilometer/xpcc/src/xpcc/architecture/platform/cortex_m3/stm32/spi/spi_2.cpp **** {
 249              		.loc 1 109 0
 250              		.cfi_startproc
 251              		@ args = 0, pretend = 0, frame = 0
 252              		@ frame_needed = 0, uses_anonymous_args = 0
 253              		@ link register save eliminated.
 254              	.LVL21:
 255 0000 70B4     		push	{r4, r5, r6}
 256              	.LCFI1:
 257              		.cfi_def_cfa_offset 12
 258              		.cfi_offset 4, -12
 259              		.cfi_offset 5, -8
 260              		.cfi_offset 6, -4
 261              	.LBB43:
 262              	.LBB44:
 110:/home/jonas/warwick/3dProfilometer/xpcc/src/xpcc/architecture/platform/cortex_m3/stm32/spi/spi_2.cpp **** 	if (!isFinished()) {
 111:/home/jonas/warwick/3dProfilometer/xpcc/src/xpcc/architecture/platform/cortex_m3/stm32/spi/spi_2.cpp **** 		return false;
 112:/home/jonas/warwick/3dProfilometer/xpcc/src/xpcc/architecture/platform/cortex_m3/stm32/spi/spi_2.cpp **** 	}
 113:/home/jonas/warwick/3dProfilometer/xpcc/src/xpcc/architecture/platform/cortex_m3/stm32/spi/spi_2.cpp **** 	
 114:/home/jonas/warwick/3dProfilometer/xpcc/src/xpcc/architecture/platform/cortex_m3/stm32/spi/spi_2.cpp **** 	transmitBuffer = transmit;
 115:/home/jonas/warwick/3dProfilometer/xpcc/src/xpcc/architecture/platform/cortex_m3/stm32/spi/spi_2.cpp **** 	receiveBuffer = receive ? receive : transmit;
 116:/home/jonas/warwick/3dProfilometer/xpcc/src/xpcc/architecture/platform/cortex_m3/stm32/spi/spi_2.cpp **** 	bufferLength = length;
 117:/home/jonas/warwick/3dProfilometer/xpcc/src/xpcc/architecture/platform/cortex_m3/stm32/spi/spi_2.cpp **** 	
 118:/home/jonas/warwick/3dProfilometer/xpcc/src/xpcc/architecture/platform/cortex_m3/stm32/spi/spi_2.cpp **** 	status &= ~(BUFFER_TRANSMIT_INCR_bm | BUFFER_RECEIVE_INCR_bm);
 119:/home/jonas/warwick/3dProfilometer/xpcc/src/xpcc/architecture/platform/cortex_m3/stm32/spi/spi_2.cpp **** 	status |= bufferIncrease;
 120:/home/jonas/warwick/3dProfilometer/xpcc/src/xpcc/architecture/platform/cortex_m3/stm32/spi/spi_2.cpp **** 	
 121:/home/jonas/warwick/3dProfilometer/xpcc/src/xpcc/architecture/platform/cortex_m3/stm32/spi/spi_2.cpp **** 	return true;
 122:/home/jonas/warwick/3dProfilometer/xpcc/src/xpcc/architecture/platform/cortex_m3/stm32/spi/spi_2.cpp **** }
 123:/home/jonas/warwick/3dProfilometer/xpcc/src/xpcc/architecture/platform/cortex_m3/stm32/spi/spi_2.cpp **** 
 124:/home/jonas/warwick/3dProfilometer/xpcc/src/xpcc/architecture/platform/cortex_m3/stm32/spi/spi_2.cpp **** bool
 125:/home/jonas/warwick/3dProfilometer/xpcc/src/xpcc/architecture/platform/cortex_m3/stm32/spi/spi_2.cpp **** xpcc::stm32::SpiMaster2::transfer(TransferOptions options)
 126:/home/jonas/warwick/3dProfilometer/xpcc/src/xpcc/architecture/platform/cortex_m3/stm32/spi/spi_2.cpp **** {
 127:/home/jonas/warwick/3dProfilometer/xpcc/src/xpcc/architecture/platform/cortex_m3/stm32/spi/spi_2.cpp **** 	if (status & BUFFER_IS_BUSY_SYNC_bm) {
 128:/home/jonas/warwick/3dProfilometer/xpcc/src/xpcc/architecture/platform/cortex_m3/stm32/spi/spi_2.cpp **** 		return false;
 129:/home/jonas/warwick/3dProfilometer/xpcc/src/xpcc/architecture/platform/cortex_m3/stm32/spi/spi_2.cpp **** 	}
 130:/home/jonas/warwick/3dProfilometer/xpcc/src/xpcc/architecture/platform/cortex_m3/stm32/spi/spi_2.cpp **** 	
 131:/home/jonas/warwick/3dProfilometer/xpcc/src/xpcc/architecture/platform/cortex_m3/stm32/spi/spi_2.cpp **** 	uint8_t rx(0), tx(0xff);
 132:/home/jonas/warwick/3dProfilometer/xpcc/src/xpcc/architecture/platform/cortex_m3/stm32/spi/spi_2.cpp **** 	// send the buffer out, blocking
 133:/home/jonas/warwick/3dProfilometer/xpcc/src/xpcc/architecture/platform/cortex_m3/stm32/spi/spi_2.cpp **** 	status |= BUFFER_IS_BUSY_SYNC_bm;
 134:/home/jonas/warwick/3dProfilometer/xpcc/src/xpcc/architecture/platform/cortex_m3/stm32/spi/spi_2.cpp **** 	// check if we have to use a dummy buffer
 135:/home/jonas/warwick/3dProfilometer/xpcc/src/xpcc/architecture/platform/cortex_m3/stm32/spi/spi_2.cpp **** 	bool transmit = (options & TRANSFER_SEND_BUFFER_DISCARD_RECEIVE) & static_cast<bool>(transmitBuffe
 136:/home/jonas/warwick/3dProfilometer/xpcc/src/xpcc/architecture/platform/cortex_m3/stm32/spi/spi_2.cpp **** 	bool receive = (options & TRANSFER_SEND_DUMMY_SAVE_RECEIVE) & static_cast<bool>(receiveBuffer);
 137:/home/jonas/warwick/3dProfilometer/xpcc/src/xpcc/architecture/platform/cortex_m3/stm32/spi/spi_2.cpp **** 	
 138:/home/jonas/warwick/3dProfilometer/xpcc/src/xpcc/architecture/platform/cortex_m3/stm32/spi/spi_2.cpp **** 	for(uint_fast16_t i=0; i < bufferLength; ++i)
 139:/home/jonas/warwick/3dProfilometer/xpcc/src/xpcc/architecture/platform/cortex_m3/stm32/spi/spi_2.cpp **** 	{
 140:/home/jonas/warwick/3dProfilometer/xpcc/src/xpcc/architecture/platform/cortex_m3/stm32/spi/spi_2.cpp **** 		if (transmit) {
 141:/home/jonas/warwick/3dProfilometer/xpcc/src/xpcc/architecture/platform/cortex_m3/stm32/spi/spi_2.cpp **** 			tx = transmitBuffer[(status & BUFFER_TRANSMIT_INCR_bm) ? i : bufferLength-1-i];
 142:/home/jonas/warwick/3dProfilometer/xpcc/src/xpcc/architecture/platform/cortex_m3/stm32/spi/spi_2.cpp **** 		}
 143:/home/jonas/warwick/3dProfilometer/xpcc/src/xpcc/architecture/platform/cortex_m3/stm32/spi/spi_2.cpp **** 		
 144:/home/jonas/warwick/3dProfilometer/xpcc/src/xpcc/architecture/platform/cortex_m3/stm32/spi/spi_2.cpp **** 		rx = write(tx);
 145:/home/jonas/warwick/3dProfilometer/xpcc/src/xpcc/architecture/platform/cortex_m3/stm32/spi/spi_2.cpp **** 		
 146:/home/jonas/warwick/3dProfilometer/xpcc/src/xpcc/architecture/platform/cortex_m3/stm32/spi/spi_2.cpp **** 		if (receive) {
 147:/home/jonas/warwick/3dProfilometer/xpcc/src/xpcc/architecture/platform/cortex_m3/stm32/spi/spi_2.cpp **** 			receiveBuffer[(status & BUFFER_RECEIVE_INCR_bm) ? i : bufferLength-1-i] = rx;
 148:/home/jonas/warwick/3dProfilometer/xpcc/src/xpcc/architecture/platform/cortex_m3/stm32/spi/spi_2.cpp **** 		}
 149:/home/jonas/warwick/3dProfilometer/xpcc/src/xpcc/architecture/platform/cortex_m3/stm32/spi/spi_2.cpp **** 	}
 150:/home/jonas/warwick/3dProfilometer/xpcc/src/xpcc/architecture/platform/cortex_m3/stm32/spi/spi_2.cpp **** 	
 151:/home/jonas/warwick/3dProfilometer/xpcc/src/xpcc/architecture/platform/cortex_m3/stm32/spi/spi_2.cpp **** 	status &= ~BUFFER_IS_BUSY_SYNC_bm;
 152:/home/jonas/warwick/3dProfilometer/xpcc/src/xpcc/architecture/platform/cortex_m3/stm32/spi/spi_2.cpp **** 	
 153:/home/jonas/warwick/3dProfilometer/xpcc/src/xpcc/architecture/platform/cortex_m3/stm32/spi/spi_2.cpp **** 	return true;
 154:/home/jonas/warwick/3dProfilometer/xpcc/src/xpcc/architecture/platform/cortex_m3/stm32/spi/spi_2.cpp **** }
 155:/home/jonas/warwick/3dProfilometer/xpcc/src/xpcc/architecture/platform/cortex_m3/stm32/spi/spi_2.cpp **** 
 156:/home/jonas/warwick/3dProfilometer/xpcc/src/xpcc/architecture/platform/cortex_m3/stm32/spi/spi_2.cpp **** bool
 157:/home/jonas/warwick/3dProfilometer/xpcc/src/xpcc/architecture/platform/cortex_m3/stm32/spi/spi_2.cpp **** xpcc::stm32::SpiMaster2::transferSync(TransferOptions options)
 158:/home/jonas/warwick/3dProfilometer/xpcc/src/xpcc/architecture/platform/cortex_m3/stm32/spi/spi_2.cpp **** {
 159:/home/jonas/warwick/3dProfilometer/xpcc/src/xpcc/architecture/platform/cortex_m3/stm32/spi/spi_2.cpp **** 	return transfer(options);
 160:/home/jonas/warwick/3dProfilometer/xpcc/src/xpcc/architecture/platform/cortex_m3/stm32/spi/spi_2.cpp **** }
 161:/home/jonas/warwick/3dProfilometer/xpcc/src/xpcc/architecture/platform/cortex_m3/stm32/spi/spi_2.cpp **** 
 162:/home/jonas/warwick/3dProfilometer/xpcc/src/xpcc/architecture/platform/cortex_m3/stm32/spi/spi_2.cpp **** bool
 163:/home/jonas/warwick/3dProfilometer/xpcc/src/xpcc/architecture/platform/cortex_m3/stm32/spi/spi_2.cpp **** xpcc::stm32::SpiMaster2::isFinished()
 164:/home/jonas/warwick/3dProfilometer/xpcc/src/xpcc/architecture/platform/cortex_m3/stm32/spi/spi_2.cpp **** {
 165:/home/jonas/warwick/3dProfilometer/xpcc/src/xpcc/architecture/platform/cortex_m3/stm32/spi/spi_2.cpp **** 	return !(status & BUFFER_IS_BUSY_SYNC_bm);
 263              		.loc 1 165 0
 264 0002 0C4C     		ldr	r4, .L13
 265 0004 2578     		ldrb	r5, [r4, #0]	@ zero_extendqisi2
 266              	.LBE44:
 267              	.LBE43:
 110:/home/jonas/warwick/3dProfilometer/xpcc/src/xpcc/architecture/platform/cortex_m3/stm32/spi/spi_2.cpp **** 	if (!isFinished()) {
 268              		.loc 1 110 0
 269 0006 05F02006 		and	r6, r5, #32
 270 000a F6B2     		uxtb	r6, r6
 271 000c 7EB9     		cbnz	r6, .L10
 114:/home/jonas/warwick/3dProfilometer/xpcc/src/xpcc/architecture/platform/cortex_m3/stm32/spi/spi_2.cpp **** 	transmitBuffer = transmit;
 272              		.loc 1 114 0
 273 000e 0A4E     		ldr	r6, .L13+4
 115:/home/jonas/warwick/3dProfilometer/xpcc/src/xpcc/architecture/platform/cortex_m3/stm32/spi/spi_2.cpp **** 	receiveBuffer = receive ? receive : transmit;
 274              		.loc 1 115 0
 275 0010 002A     		cmp	r2, #0
 276 0012 08BF     		it	eq
 277 0014 0A46     		moveq	r2, r1
 278              	.LVL22:
 114:/home/jonas/warwick/3dProfilometer/xpcc/src/xpcc/architecture/platform/cortex_m3/stm32/spi/spi_2.cpp **** 	transmitBuffer = transmit;
 279              		.loc 1 114 0
 280 0016 3160     		str	r1, [r6, #0]
 115:/home/jonas/warwick/3dProfilometer/xpcc/src/xpcc/architecture/platform/cortex_m3/stm32/spi/spi_2.cpp **** 	receiveBuffer = receive ? receive : transmit;
 281              		.loc 1 115 0
 282 0018 0849     		ldr	r1, .L13+8
 283              	.LVL23:
 118:/home/jonas/warwick/3dProfilometer/xpcc/src/xpcc/architecture/platform/cortex_m3/stm32/spi/spi_2.cpp **** 	status &= ~(BUFFER_TRANSMIT_INCR_bm | BUFFER_RECEIVE_INCR_bm);
 284              		.loc 1 118 0
 285 001a 25F00305 		bic	r5, r5, #3
 115:/home/jonas/warwick/3dProfilometer/xpcc/src/xpcc/architecture/platform/cortex_m3/stm32/spi/spi_2.cpp **** 	receiveBuffer = receive ? receive : transmit;
 286              		.loc 1 115 0
 287 001e 0A60     		str	r2, [r1, #0]
 116:/home/jonas/warwick/3dProfilometer/xpcc/src/xpcc/architecture/platform/cortex_m3/stm32/spi/spi_2.cpp **** 	bufferLength = length;
 288              		.loc 1 116 0
 289 0020 074A     		ldr	r2, .L13+12
 119:/home/jonas/warwick/3dProfilometer/xpcc/src/xpcc/architecture/platform/cortex_m3/stm32/spi/spi_2.cpp **** 	status |= bufferIncrease;
 290              		.loc 1 119 0
 291 0022 2B43     		orrs	r3, r3, r5
 292              	.LVL24:
 116:/home/jonas/warwick/3dProfilometer/xpcc/src/xpcc/architecture/platform/cortex_m3/stm32/spi/spi_2.cpp **** 	bufferLength = length;
 293              		.loc 1 116 0
 294 0024 1080     		strh	r0, [r2, #0]	@ movhi
 119:/home/jonas/warwick/3dProfilometer/xpcc/src/xpcc/architecture/platform/cortex_m3/stm32/spi/spi_2.cpp **** 	status |= bufferIncrease;
 295              		.loc 1 119 0
 296 0026 2370     		strb	r3, [r4, #0]
 121:/home/jonas/warwick/3dProfilometer/xpcc/src/xpcc/architecture/platform/cortex_m3/stm32/spi/spi_2.cpp **** 	return true;
 297              		.loc 1 121 0
 298 0028 0120     		movs	r0, #1
 299              	.LVL25:
 300              	.L8:
 122:/home/jonas/warwick/3dProfilometer/xpcc/src/xpcc/architecture/platform/cortex_m3/stm32/spi/spi_2.cpp **** }
 301              		.loc 1 122 0
 302 002a 70BC     		pop	{r4, r5, r6}
 303 002c 7047     		bx	lr
 304              	.LVL26:
 305              	.L10:
 111:/home/jonas/warwick/3dProfilometer/xpcc/src/xpcc/architecture/platform/cortex_m3/stm32/spi/spi_2.cpp **** 		return false;
 306              		.loc 1 111 0
 307 002e 0020     		movs	r0, #0
 308              	.LVL27:
 309 0030 FBE7     		b	.L8
 310              	.L14:
 311 0032 00BF     		.align	2
 312              	.L13:
 313 0034 00000000 		.word	.LANCHOR0
 314 0038 00000000 		.word	.LANCHOR1
 315 003c 00000000 		.word	.LANCHOR2
 316 0040 00000000 		.word	.LANCHOR3
 317              		.cfi_endproc
 318              	.LFE160:
 320              		.section	.text._ZN4xpcc5stm3210SpiMaster28transferENS_9SpiMaster15TransferOptionsE,"ax",%progbits
 321              		.align	2
 322              		.global	_ZN4xpcc5stm3210SpiMaster28transferENS_9SpiMaster15TransferOptionsE
 323              		.thumb
 324              		.thumb_func
 326              	_ZN4xpcc5stm3210SpiMaster28transferENS_9SpiMaster15TransferOptionsE:
 327              	.LFB161:
 126:/home/jonas/warwick/3dProfilometer/xpcc/src/xpcc/architecture/platform/cortex_m3/stm32/spi/spi_2.cpp **** {
 328              		.loc 1 126 0
 329              		.cfi_startproc
 330              		@ args = 0, pretend = 0, frame = 0
 331              		@ frame_needed = 0, uses_anonymous_args = 0
 332              		@ link register save eliminated.
 333              	.LVL28:
 334 0000 F0B4     		push	{r4, r5, r6, r7}
 335              	.LCFI2:
 336              		.cfi_def_cfa_offset 16
 337              		.cfi_offset 4, -16
 338              		.cfi_offset 5, -12
 339              		.cfi_offset 6, -8
 340              		.cfi_offset 7, -4
 341              	.LBB45:
 127:/home/jonas/warwick/3dProfilometer/xpcc/src/xpcc/architecture/platform/cortex_m3/stm32/spi/spi_2.cpp **** 	if (status & BUFFER_IS_BUSY_SYNC_bm) {
 342              		.loc 1 127 0
 343 0002 1C4F     		ldr	r7, .L41
 344 0004 3E78     		ldrb	r6, [r7, #0]	@ zero_extendqisi2
 345 0006 06F02001 		and	r1, r6, #32
 346 000a C9B2     		uxtb	r1, r1
 347 000c 0029     		cmp	r1, #0
 348 000e 2ED1     		bne	.L23
 349              	.LVL29:
 135:/home/jonas/warwick/3dProfilometer/xpcc/src/xpcc/architecture/platform/cortex_m3/stm32/spi/spi_2.cpp **** 	bool transmit = (options & TRANSFER_SEND_BUFFER_DISCARD_RECEIVE) & static_cast<bool>(transmitBuffe
 350              		.loc 1 135 0
 351 0010 194B     		ldr	r3, .L41+4
 352 0012 D3F800C0 		ldr	ip, [r3, #0]
 353              	.LBB46:
 138:/home/jonas/warwick/3dProfilometer/xpcc/src/xpcc/architecture/platform/cortex_m3/stm32/spi/spi_2.cpp **** 	for(uint_fast16_t i=0; i < bufferLength; ++i)
 354              		.loc 1 138 0
 355 0016 194B     		ldr	r3, .L41+8
 356 0018 1C88     		ldrh	r4, [r3, #0]
 357              	.LBE46:
 133:/home/jonas/warwick/3dProfilometer/xpcc/src/xpcc/architecture/platform/cortex_m3/stm32/spi/spi_2.cpp **** 	status |= BUFFER_IS_BUSY_SYNC_bm;
 358              		.loc 1 133 0
 359 001a 46F02003 		orr	r3, r6, #32
 360 001e 3B70     		strb	r3, [r7, #0]
 135:/home/jonas/warwick/3dProfilometer/xpcc/src/xpcc/architecture/platform/cortex_m3/stm32/spi/spi_2.cpp **** 	bool transmit = (options & TRANSFER_SEND_BUFFER_DISCARD_RECEIVE) & static_cast<bool>(transmitBuffe
 361              		.loc 1 135 0
 362 0020 BCF1000F 		cmp	ip, #0
 363 0024 0CBF     		ite	eq
 364 0026 0025     		moveq	r5, #0
 365 0028 00F00105 		andne	r5, r0, #1
 366              	.LVL30:
 367              	.LBB51:
 138:/home/jonas/warwick/3dProfilometer/xpcc/src/xpcc/architecture/platform/cortex_m3/stm32/spi/spi_2.cpp **** 	for(uint_fast16_t i=0; i < bufferLength; ++i)
 368              		.loc 1 138 0
 369 002c BCB1     		cbz	r4, .L17
 370 002e FF20     		movs	r0, #255
 371              	.LVL31:
 372              	.L22:
 140:/home/jonas/warwick/3dProfilometer/xpcc/src/xpcc/architecture/platform/cortex_m3/stm32/spi/spi_2.cpp **** 		if (transmit) {
 373              		.loc 1 140 0
 374 0030 2DB1     		cbz	r5, .L33
 141:/home/jonas/warwick/3dProfilometer/xpcc/src/xpcc/architecture/platform/cortex_m3/stm32/spi/spi_2.cpp **** 			tx = transmitBuffer[(status & BUFFER_TRANSMIT_INCR_bm) ? i : bufferLength-1-i];
 375              		.loc 1 141 0
 376 0032 F007     		lsls	r0, r6, #31
 377 0034 19D4     		bmi	.L24
 141:/home/jonas/warwick/3dProfilometer/xpcc/src/xpcc/architecture/platform/cortex_m3/stm32/spi/spi_2.cpp **** 			tx = transmitBuffer[(status & BUFFER_TRANSMIT_INCR_bm) ? i : bufferLength-1-i];
 378              		.loc 1 141 0 is_stmt 0 discriminator 1
 379 0036 631E     		subs	r3, r4, #1
 380 0038 5B1A     		subs	r3, r3, r1
 381              	.L19:
 141:/home/jonas/warwick/3dProfilometer/xpcc/src/xpcc/architecture/platform/cortex_m3/stm32/spi/spi_2.cpp **** 			tx = transmitBuffer[(status & BUFFER_TRANSMIT_INCR_bm) ? i : bufferLength-1-i];
 382              		.loc 1 141 0 discriminator 3
 383 003a 1CF80300 		ldrb	r0, [ip, r3]	@ zero_extendqisi2
 384              	.LVL32:
 385              	.L33:
 386              	.LBB47:
 387              	.LBB48:
 166:/home/jonas/warwick/3dProfilometer/xpcc/src/xpcc/architecture/platform/cortex_m3/stm32/spi/spi_2.cpp **** }
 167:/home/jonas/warwick/3dProfilometer/xpcc/src/xpcc/architecture/platform/cortex_m3/stm32/spi/spi_2.cpp **** 
 168:/home/jonas/warwick/3dProfilometer/xpcc/src/xpcc/architecture/platform/cortex_m3/stm32/spi/spi_2.cpp **** // ----------------------------------------------------------------------------
 169:/home/jonas/warwick/3dProfilometer/xpcc/src/xpcc/architecture/platform/cortex_m3/stm32/spi/spi_2.cpp **** uint8_t
 170:/home/jonas/warwick/3dProfilometer/xpcc/src/xpcc/architecture/platform/cortex_m3/stm32/spi/spi_2.cpp **** xpcc::stm32::SpiMaster2::write(uint8_t data)
 171:/home/jonas/warwick/3dProfilometer/xpcc/src/xpcc/architecture/platform/cortex_m3/stm32/spi/spi_2.cpp **** {
 172:/home/jonas/warwick/3dProfilometer/xpcc/src/xpcc/architecture/platform/cortex_m3/stm32/spi/spi_2.cpp **** 	while (!(SPI2->SR & SPI_SR_TXE)) {
 388              		.loc 1 172 0 is_stmt 1
 389 003e 104B     		ldr	r3, .L41+12
 390 0040 1A89     		ldrh	r2, [r3, #8]
 391 0042 02F00202 		and	r2, r2, #2
 392 0046 92B2     		uxth	r2, r2
 393 0048 002A     		cmp	r2, #0
 394 004a F8D0     		beq	.L33
 173:/home/jonas/warwick/3dProfilometer/xpcc/src/xpcc/architecture/platform/cortex_m3/stm32/spi/spi_2.cpp **** 		// wait until the previous transmission is finished
 174:/home/jonas/warwick/3dProfilometer/xpcc/src/xpcc/architecture/platform/cortex_m3/stm32/spi/spi_2.cpp **** 	}
 175:/home/jonas/warwick/3dProfilometer/xpcc/src/xpcc/architecture/platform/cortex_m3/stm32/spi/spi_2.cpp **** 	
 176:/home/jonas/warwick/3dProfilometer/xpcc/src/xpcc/architecture/platform/cortex_m3/stm32/spi/spi_2.cpp **** 	SPI2->DR = data;
 395              		.loc 1 176 0
 396 004c 9881     		strh	r0, [r3, #12]	@ movhi
 397              	.L21:
 177:/home/jonas/warwick/3dProfilometer/xpcc/src/xpcc/architecture/platform/cortex_m3/stm32/spi/spi_2.cpp **** 	
 178:/home/jonas/warwick/3dProfilometer/xpcc/src/xpcc/architecture/platform/cortex_m3/stm32/spi/spi_2.cpp **** 	while (!(SPI2->SR & SPI_SR_RXNE)) {
 398              		.loc 1 178 0
 399 004e 0C4B     		ldr	r3, .L41+12
 400 0050 1A89     		ldrh	r2, [r3, #8]
 401 0052 D207     		lsls	r2, r2, #31
 402 0054 FBD5     		bpl	.L21
 403              	.LBE48:
 404              	.LBE47:
 138:/home/jonas/warwick/3dProfilometer/xpcc/src/xpcc/architecture/platform/cortex_m3/stm32/spi/spi_2.cpp **** 	for(uint_fast16_t i=0; i < bufferLength; ++i)
 405              		.loc 1 138 0
 406 0056 0131     		adds	r1, r1, #1
 407 0058 A142     		cmp	r1, r4
 408              	.LBB50:
 409              	.LBB49:
 179:/home/jonas/warwick/3dProfilometer/xpcc/src/xpcc/architecture/platform/cortex_m3/stm32/spi/spi_2.cpp **** 		// wait until the data is received
 180:/home/jonas/warwick/3dProfilometer/xpcc/src/xpcc/architecture/platform/cortex_m3/stm32/spi/spi_2.cpp **** 	}
 181:/home/jonas/warwick/3dProfilometer/xpcc/src/xpcc/architecture/platform/cortex_m3/stm32/spi/spi_2.cpp **** 	
 182:/home/jonas/warwick/3dProfilometer/xpcc/src/xpcc/architecture/platform/cortex_m3/stm32/spi/spi_2.cpp **** 	return SPI2->DR;
 410              		.loc 1 182 0
 411 005a 9B89     		ldrh	r3, [r3, #12]
 412              	.LVL33:
 413              	.LBE49:
 414              	.LBE50:
 138:/home/jonas/warwick/3dProfilometer/xpcc/src/xpcc/architecture/platform/cortex_m3/stm32/spi/spi_2.cpp **** 	for(uint_fast16_t i=0; i < bufferLength; ++i)
 415              		.loc 1 138 0
 416 005c E8D3     		bcc	.L22
 417              	.LVL34:
 418              	.L17:
 419              	.LBE51:
 151:/home/jonas/warwick/3dProfilometer/xpcc/src/xpcc/architecture/platform/cortex_m3/stm32/spi/spi_2.cpp **** 	status &= ~BUFFER_IS_BUSY_SYNC_bm;
 420              		.loc 1 151 0
 421 005e 26F02006 		bic	r6, r6, #32
 422 0062 3E70     		strb	r6, [r7, #0]
 153:/home/jonas/warwick/3dProfilometer/xpcc/src/xpcc/architecture/platform/cortex_m3/stm32/spi/spi_2.cpp **** 	return true;
 423              		.loc 1 153 0
 424 0064 0120     		movs	r0, #1
 425              	.LVL35:
 426              	.L16:
 427              	.LBE45:
 154:/home/jonas/warwick/3dProfilometer/xpcc/src/xpcc/architecture/platform/cortex_m3/stm32/spi/spi_2.cpp **** }
 428              		.loc 1 154 0
 429 0066 F0BC     		pop	{r4, r5, r6, r7}
 430 0068 7047     		bx	lr
 431              	.LVL36:
 432              	.L24:
 433              	.LBB53:
 434              	.LBB52:
 141:/home/jonas/warwick/3dProfilometer/xpcc/src/xpcc/architecture/platform/cortex_m3/stm32/spi/spi_2.cpp **** 			tx = transmitBuffer[(status & BUFFER_TRANSMIT_INCR_bm) ? i : bufferLength-1-i];
 435              		.loc 1 141 0
 436 006a 0B46     		mov	r3, r1
 437 006c E5E7     		b	.L19
 438              	.LVL37:
 439              	.L23:
 440              	.LBE52:
 128:/home/jonas/warwick/3dProfilometer/xpcc/src/xpcc/architecture/platform/cortex_m3/stm32/spi/spi_2.cpp **** 		return false;
 441              		.loc 1 128 0
 442 006e 0020     		movs	r0, #0
 443              	.LVL38:
 444 0070 F9E7     		b	.L16
 445              	.L42:
 446 0072 00BF     		.align	2
 447              	.L41:
 448 0074 00000000 		.word	.LANCHOR0
 449 0078 00000000 		.word	.LANCHOR1
 450 007c 00000000 		.word	.LANCHOR3
 451 0080 00380040 		.word	1073756160
 452              	.LBE53:
 453              		.cfi_endproc
 454              	.LFE161:
 456              		.section	.text._ZN4xpcc5stm3210SpiMaster210isFinishedEv,"ax",%progbits
 457              		.align	2
 458              		.global	_ZN4xpcc5stm3210SpiMaster210isFinishedEv
 459              		.thumb
 460              		.thumb_func
 462              	_ZN4xpcc5stm3210SpiMaster210isFinishedEv:
 463              	.LFB163:
 164:/home/jonas/warwick/3dProfilometer/xpcc/src/xpcc/architecture/platform/cortex_m3/stm32/spi/spi_2.cpp **** {
 464              		.loc 1 164 0
 465              		.cfi_startproc
 466              		@ args = 0, pretend = 0, frame = 0
 467              		@ frame_needed = 0, uses_anonymous_args = 0
 468              		@ link register save eliminated.
 165:/home/jonas/warwick/3dProfilometer/xpcc/src/xpcc/architecture/platform/cortex_m3/stm32/spi/spi_2.cpp **** 	return !(status & BUFFER_IS_BUSY_SYNC_bm);
 469              		.loc 1 165 0
 470 0000 034B     		ldr	r3, .L44
 471 0002 1878     		ldrb	r0, [r3, #0]	@ zero_extendqisi2
 472 0004 80F02000 		eor	r0, r0, #32
 166:/home/jonas/warwick/3dProfilometer/xpcc/src/xpcc/architecture/platform/cortex_m3/stm32/spi/spi_2.cpp **** }
 473              		.loc 1 166 0
 474 0008 C0F34010 		ubfx	r0, r0, #5, #1
 475 000c 7047     		bx	lr
 476              	.L45:
 477 000e 00BF     		.align	2
 478              	.L44:
 479 0010 00000000 		.word	.LANCHOR0
 480              		.cfi_endproc
 481              	.LFE163:
 483              		.section	.text._ZN4xpcc5stm3210SpiMaster25writeEh,"ax",%progbits
 484              		.align	2
 485              		.global	_ZN4xpcc5stm3210SpiMaster25writeEh
 486              		.thumb
 487              		.thumb_func
 489              	_ZN4xpcc5stm3210SpiMaster25writeEh:
 490              	.LFB164:
 171:/home/jonas/warwick/3dProfilometer/xpcc/src/xpcc/architecture/platform/cortex_m3/stm32/spi/spi_2.cpp **** {
 491              		.loc 1 171 0
 492              		.cfi_startproc
 493              		@ args = 0, pretend = 0, frame = 0
 494              		@ frame_needed = 0, uses_anonymous_args = 0
 495              		@ link register save eliminated.
 496              	.LVL39:
 497              	.L47:
 172:/home/jonas/warwick/3dProfilometer/xpcc/src/xpcc/architecture/platform/cortex_m3/stm32/spi/spi_2.cpp **** 	while (!(SPI2->SR & SPI_SR_TXE)) {
 498              		.loc 1 172 0 discriminator 1
 499 0000 074B     		ldr	r3, .L57
 500 0002 1A89     		ldrh	r2, [r3, #8]
 501 0004 02F00202 		and	r2, r2, #2
 502 0008 92B2     		uxth	r2, r2
 503 000a 002A     		cmp	r2, #0
 504 000c F8D0     		beq	.L47
 176:/home/jonas/warwick/3dProfilometer/xpcc/src/xpcc/architecture/platform/cortex_m3/stm32/spi/spi_2.cpp **** 	SPI2->DR = data;
 505              		.loc 1 176 0
 506 000e 9881     		strh	r0, [r3, #12]	@ movhi
 507              	.L48:
 178:/home/jonas/warwick/3dProfilometer/xpcc/src/xpcc/architecture/platform/cortex_m3/stm32/spi/spi_2.cpp **** 	while (!(SPI2->SR & SPI_SR_RXNE)) {
 508              		.loc 1 178 0 discriminator 1
 509 0010 034B     		ldr	r3, .L57
 510 0012 1A89     		ldrh	r2, [r3, #8]
 511 0014 D207     		lsls	r2, r2, #31
 512 0016 FBD5     		bpl	.L48
 513              		.loc 1 182 0
 514 0018 9889     		ldrh	r0, [r3, #12]
 515              	.LVL40:
 183:/home/jonas/warwick/3dProfilometer/xpcc/src/xpcc/architecture/platform/cortex_m3/stm32/spi/spi_2.cpp **** }
 516              		.loc 1 183 0
 517 001a C0B2     		uxtb	r0, r0
 518 001c 7047     		bx	lr
 519              	.L58:
 520 001e 00BF     		.align	2
 521              	.L57:
 522 0020 00380040 		.word	1073756160
 523              		.cfi_endproc
 524              	.LFE164:
 526              		.section	.bss._ZN12_GLOBAL__N_1L14transmitBufferE,"aw",%nobits
 527              		.align	2
 528              		.set	.LANCHOR1,. + 0
 531              	_ZN12_GLOBAL__N_1L14transmitBufferE:
 532 0000 00000000 		.space	4
 533              		.section	.bss._ZN12_GLOBAL__N_1L13receiveBufferE,"aw",%nobits
 534              		.align	2
 535              		.set	.LANCHOR2,. + 0
 538              	_ZN12_GLOBAL__N_1L13receiveBufferE:
 539 0000 00000000 		.space	4
 540              		.section	.bss._ZN12_GLOBAL__N_1L12bufferLengthE,"aw",%nobits
 541              		.align	1
 542              		.set	.LANCHOR3,. + 0
 545              	_ZN12_GLOBAL__N_1L12bufferLengthE:
 546 0000 0000     		.space	2
 547              		.section	.bss._ZN12_GLOBAL__N_1L6statusE,"aw",%nobits
 548              		.set	.LANCHOR0,. + 0
 551              	_ZN12_GLOBAL__N_1L6statusE:
 552 0000 00       		.space	1
 553              		.text
 554              	.Letext0:
 555              		.file 3 "/opt/arm-2012.09/bin/../lib/gcc/arm-none-eabi/4.7.2/../../../../arm-none-eabi/include/std
 556              		.file 4 "/home/jonas/warwick/3dProfilometer/xpcc/src/xpcc/architecture/driver/gpio.hpp"
 557              		.file 5 "/home/jonas/warwick/3dProfilometer/xpcc/src/xpcc/architecture/platform/cortex_m3/stm32/sp
 558              		.file 6 "/home/jonas/warwick/3dProfilometer/xpcc/src/xpcc/driver/connectivity/spi/spi_master.hpp"
 559              		.file 7 "/home/jonas/warwick/3dProfilometer/xpcc/ext/stm32f4xx_lib/CMSIS/Device/ST/STM32F4xx/Inclu
 560              		.file 8 "/home/jonas/warwick/3dProfilometer/xpcc/ext/stm32f4xx_lib/CMSIS/Include/core_cm4.h"
 561              		.file 9 "/home/jonas/warwick/3dProfilometer/xpcc/src/xpcc/driver/interface.hpp"