   1              		.syntax unified
   2              		.cpu cortex-m4
   3              		.eabi_attribute 27, 3
   4              		.fpu fpv4-sp-d16
   5              		.eabi_attribute 20, 1
   6              		.eabi_attribute 21, 1
   7              		.eabi_attribute 23, 3
   8              		.eabi_attribute 24, 1
   9              		.eabi_attribute 25, 1
  10              		.eabi_attribute 26, 1
  11              		.eabi_attribute 30, 2
  12              		.eabi_attribute 34, 1
  13              		.eabi_attribute 18, 4
  14              		.thumb
  15              		.file	"stm32f4xx_hash.c"
  16              		.text
  17              	.Ltext0:
  18              		.cfi_sections	.debug_frame
  19              		.section	.text.HASH_DeInit,"ax",%progbits
  20              		.align	2
  21              		.global	HASH_DeInit
  22              		.thumb
  23              		.thumb_func
  25              	HASH_DeInit:
  26              	.LFB110:
  27              		.file 1 "/home/jonas/warwick/3dProfilometer/xpcc/ext/stm32f4xx_lib/STM32F4xx_StdPeriph_Driver/src/
   1:/home/jonas/warwick/3dProfilometer/xpcc/ext/stm32f4xx_lib/STM32F4xx_StdPeriph_Driver/src/stm32f4xx_hash.c **** /**
   2:/home/jonas/warwick/3dProfilometer/xpcc/ext/stm32f4xx_lib/STM32F4xx_StdPeriph_Driver/src/stm32f4xx_hash.c ****   ******************************************************************************
   3:/home/jonas/warwick/3dProfilometer/xpcc/ext/stm32f4xx_lib/STM32F4xx_StdPeriph_Driver/src/stm32f4xx_hash.c ****   * @file    stm32f4xx_hash.c
   4:/home/jonas/warwick/3dProfilometer/xpcc/ext/stm32f4xx_lib/STM32F4xx_StdPeriph_Driver/src/stm32f4xx_hash.c ****   * @author  MCD Application Team
   5:/home/jonas/warwick/3dProfilometer/xpcc/ext/stm32f4xx_lib/STM32F4xx_StdPeriph_Driver/src/stm32f4xx_hash.c ****   * @version V1.0.0
   6:/home/jonas/warwick/3dProfilometer/xpcc/ext/stm32f4xx_lib/STM32F4xx_StdPeriph_Driver/src/stm32f4xx_hash.c ****   * @date    30-September-2011
   7:/home/jonas/warwick/3dProfilometer/xpcc/ext/stm32f4xx_lib/STM32F4xx_StdPeriph_Driver/src/stm32f4xx_hash.c ****   * @brief   This file provides firmware functions to manage the following 
   8:/home/jonas/warwick/3dProfilometer/xpcc/ext/stm32f4xx_lib/STM32F4xx_StdPeriph_Driver/src/stm32f4xx_hash.c ****   *          functionalities of the HASH / HMAC Processor (HASH) peripheral:           
   9:/home/jonas/warwick/3dProfilometer/xpcc/ext/stm32f4xx_lib/STM32F4xx_StdPeriph_Driver/src/stm32f4xx_hash.c ****   *           - Initialization and Configuration functions
  10:/home/jonas/warwick/3dProfilometer/xpcc/ext/stm32f4xx_lib/STM32F4xx_StdPeriph_Driver/src/stm32f4xx_hash.c ****   *           - Message Digest generation functions
  11:/home/jonas/warwick/3dProfilometer/xpcc/ext/stm32f4xx_lib/STM32F4xx_StdPeriph_Driver/src/stm32f4xx_hash.c ****   *           - context swapping functions   
  12:/home/jonas/warwick/3dProfilometer/xpcc/ext/stm32f4xx_lib/STM32F4xx_StdPeriph_Driver/src/stm32f4xx_hash.c ****   *           - DMA interface function       
  13:/home/jonas/warwick/3dProfilometer/xpcc/ext/stm32f4xx_lib/STM32F4xx_StdPeriph_Driver/src/stm32f4xx_hash.c ****   *           - Interrupts and flags management       
  14:/home/jonas/warwick/3dProfilometer/xpcc/ext/stm32f4xx_lib/STM32F4xx_StdPeriph_Driver/src/stm32f4xx_hash.c ****   *         
  15:/home/jonas/warwick/3dProfilometer/xpcc/ext/stm32f4xx_lib/STM32F4xx_StdPeriph_Driver/src/stm32f4xx_hash.c ****   *  @verbatim
  16:/home/jonas/warwick/3dProfilometer/xpcc/ext/stm32f4xx_lib/STM32F4xx_StdPeriph_Driver/src/stm32f4xx_hash.c ****   *                               
  17:/home/jonas/warwick/3dProfilometer/xpcc/ext/stm32f4xx_lib/STM32F4xx_StdPeriph_Driver/src/stm32f4xx_hash.c ****   *          ===================================================================      
  18:/home/jonas/warwick/3dProfilometer/xpcc/ext/stm32f4xx_lib/STM32F4xx_StdPeriph_Driver/src/stm32f4xx_hash.c ****   *                                   How to use this driver
  19:/home/jonas/warwick/3dProfilometer/xpcc/ext/stm32f4xx_lib/STM32F4xx_StdPeriph_Driver/src/stm32f4xx_hash.c ****   *          ===================================================================
  20:/home/jonas/warwick/3dProfilometer/xpcc/ext/stm32f4xx_lib/STM32F4xx_StdPeriph_Driver/src/stm32f4xx_hash.c ****   *          HASH operation : 
  21:/home/jonas/warwick/3dProfilometer/xpcc/ext/stm32f4xx_lib/STM32F4xx_StdPeriph_Driver/src/stm32f4xx_hash.c ****   *          ----------------                   
  22:/home/jonas/warwick/3dProfilometer/xpcc/ext/stm32f4xx_lib/STM32F4xx_StdPeriph_Driver/src/stm32f4xx_hash.c ****   *         1. Enable the HASH controller clock using 
  23:/home/jonas/warwick/3dProfilometer/xpcc/ext/stm32f4xx_lib/STM32F4xx_StdPeriph_Driver/src/stm32f4xx_hash.c ****   *            RCC_AHB2PeriphClockCmd(RCC_AHB2Periph_HASH, ENABLE) function.
  24:/home/jonas/warwick/3dProfilometer/xpcc/ext/stm32f4xx_lib/STM32F4xx_StdPeriph_Driver/src/stm32f4xx_hash.c ****   *           
  25:/home/jonas/warwick/3dProfilometer/xpcc/ext/stm32f4xx_lib/STM32F4xx_StdPeriph_Driver/src/stm32f4xx_hash.c ****   *         2. Initialise the HASH using HASH_Init() function. 
  26:/home/jonas/warwick/3dProfilometer/xpcc/ext/stm32f4xx_lib/STM32F4xx_StdPeriph_Driver/src/stm32f4xx_hash.c ****   *               
  27:/home/jonas/warwick/3dProfilometer/xpcc/ext/stm32f4xx_lib/STM32F4xx_StdPeriph_Driver/src/stm32f4xx_hash.c ****   *         3 . Reset the HASH processor core, so that the HASH will be ready 
  28:/home/jonas/warwick/3dProfilometer/xpcc/ext/stm32f4xx_lib/STM32F4xx_StdPeriph_Driver/src/stm32f4xx_hash.c ****   *             to compute he message digest of a new message by using 
  29:/home/jonas/warwick/3dProfilometer/xpcc/ext/stm32f4xx_lib/STM32F4xx_StdPeriph_Driver/src/stm32f4xx_hash.c ****   *             HASH_Reset() function.
  30:/home/jonas/warwick/3dProfilometer/xpcc/ext/stm32f4xx_lib/STM32F4xx_StdPeriph_Driver/src/stm32f4xx_hash.c ****   *
  31:/home/jonas/warwick/3dProfilometer/xpcc/ext/stm32f4xx_lib/STM32F4xx_StdPeriph_Driver/src/stm32f4xx_hash.c ****   *         4. Enable the HASH controller using the HASH_Cmd() function. 
  32:/home/jonas/warwick/3dProfilometer/xpcc/ext/stm32f4xx_lib/STM32F4xx_StdPeriph_Driver/src/stm32f4xx_hash.c ****   *                
  33:/home/jonas/warwick/3dProfilometer/xpcc/ext/stm32f4xx_lib/STM32F4xx_StdPeriph_Driver/src/stm32f4xx_hash.c ****   *         5. if using DMA for Data input transfer, Activate the DMA Request 
  34:/home/jonas/warwick/3dProfilometer/xpcc/ext/stm32f4xx_lib/STM32F4xx_StdPeriph_Driver/src/stm32f4xx_hash.c ****   *            using HASH_DMACmd() function 
  35:/home/jonas/warwick/3dProfilometer/xpcc/ext/stm32f4xx_lib/STM32F4xx_StdPeriph_Driver/src/stm32f4xx_hash.c ****   *                    
  36:/home/jonas/warwick/3dProfilometer/xpcc/ext/stm32f4xx_lib/STM32F4xx_StdPeriph_Driver/src/stm32f4xx_hash.c ****   *         6. if DMA is not used for data transfer, use HASH_DataIn() function 
  37:/home/jonas/warwick/3dProfilometer/xpcc/ext/stm32f4xx_lib/STM32F4xx_StdPeriph_Driver/src/stm32f4xx_hash.c ****   *            to enter data to IN FIFO.
  38:/home/jonas/warwick/3dProfilometer/xpcc/ext/stm32f4xx_lib/STM32F4xx_StdPeriph_Driver/src/stm32f4xx_hash.c ****   *             
  39:/home/jonas/warwick/3dProfilometer/xpcc/ext/stm32f4xx_lib/STM32F4xx_StdPeriph_Driver/src/stm32f4xx_hash.c ****   *          
  40:/home/jonas/warwick/3dProfilometer/xpcc/ext/stm32f4xx_lib/STM32F4xx_StdPeriph_Driver/src/stm32f4xx_hash.c ****   *         7. Configure the Number of valid bits in last word of the message 
  41:/home/jonas/warwick/3dProfilometer/xpcc/ext/stm32f4xx_lib/STM32F4xx_StdPeriph_Driver/src/stm32f4xx_hash.c ****   *            using HASH_SetLastWordValidBitsNbr() function.
  42:/home/jonas/warwick/3dProfilometer/xpcc/ext/stm32f4xx_lib/STM32F4xx_StdPeriph_Driver/src/stm32f4xx_hash.c ****   *             
  43:/home/jonas/warwick/3dProfilometer/xpcc/ext/stm32f4xx_lib/STM32F4xx_StdPeriph_Driver/src/stm32f4xx_hash.c ****   *         8. if the message length is not an exact multiple of 512 bits, 
  44:/home/jonas/warwick/3dProfilometer/xpcc/ext/stm32f4xx_lib/STM32F4xx_StdPeriph_Driver/src/stm32f4xx_hash.c ****   *            then the function HASH_StartDigest() must be called to 
  45:/home/jonas/warwick/3dProfilometer/xpcc/ext/stm32f4xx_lib/STM32F4xx_StdPeriph_Driver/src/stm32f4xx_hash.c ****   *            launch the computation of the final digest.     
  46:/home/jonas/warwick/3dProfilometer/xpcc/ext/stm32f4xx_lib/STM32F4xx_StdPeriph_Driver/src/stm32f4xx_hash.c ****   *             
  47:/home/jonas/warwick/3dProfilometer/xpcc/ext/stm32f4xx_lib/STM32F4xx_StdPeriph_Driver/src/stm32f4xx_hash.c ****   *         9. Once computed, the digest can be read using HASH_GetDigest() 
  48:/home/jonas/warwick/3dProfilometer/xpcc/ext/stm32f4xx_lib/STM32F4xx_StdPeriph_Driver/src/stm32f4xx_hash.c ****   *            function.         
  49:/home/jonas/warwick/3dProfilometer/xpcc/ext/stm32f4xx_lib/STM32F4xx_StdPeriph_Driver/src/stm32f4xx_hash.c ****   *                   
  50:/home/jonas/warwick/3dProfilometer/xpcc/ext/stm32f4xx_lib/STM32F4xx_StdPeriph_Driver/src/stm32f4xx_hash.c ****   *        10. To control HASH events you can use one of the following 
  51:/home/jonas/warwick/3dProfilometer/xpcc/ext/stm32f4xx_lib/STM32F4xx_StdPeriph_Driver/src/stm32f4xx_hash.c ****   *              two methods:
  52:/home/jonas/warwick/3dProfilometer/xpcc/ext/stm32f4xx_lib/STM32F4xx_StdPeriph_Driver/src/stm32f4xx_hash.c ****   *               a- Check on HASH flags using the HASH_GetFlagStatus() function.  
  53:/home/jonas/warwick/3dProfilometer/xpcc/ext/stm32f4xx_lib/STM32F4xx_StdPeriph_Driver/src/stm32f4xx_hash.c ****   *               b- Use HASH interrupts through the function HASH_ITConfig() at 
  54:/home/jonas/warwick/3dProfilometer/xpcc/ext/stm32f4xx_lib/STM32F4xx_StdPeriph_Driver/src/stm32f4xx_hash.c ****   *                  initialization phase and HASH_GetITStatus() function into 
  55:/home/jonas/warwick/3dProfilometer/xpcc/ext/stm32f4xx_lib/STM32F4xx_StdPeriph_Driver/src/stm32f4xx_hash.c ****   *                  interrupt routines in hashing phase.
  56:/home/jonas/warwick/3dProfilometer/xpcc/ext/stm32f4xx_lib/STM32F4xx_StdPeriph_Driver/src/stm32f4xx_hash.c ****   *          After checking on a flag you should clear it using HASH_ClearFlag()
  57:/home/jonas/warwick/3dProfilometer/xpcc/ext/stm32f4xx_lib/STM32F4xx_StdPeriph_Driver/src/stm32f4xx_hash.c ****   *          function. And after checking on an interrupt event you should 
  58:/home/jonas/warwick/3dProfilometer/xpcc/ext/stm32f4xx_lib/STM32F4xx_StdPeriph_Driver/src/stm32f4xx_hash.c ****   *          clear it using HASH_ClearITPendingBit() function.     
  59:/home/jonas/warwick/3dProfilometer/xpcc/ext/stm32f4xx_lib/STM32F4xx_StdPeriph_Driver/src/stm32f4xx_hash.c ****   *                     
  60:/home/jonas/warwick/3dProfilometer/xpcc/ext/stm32f4xx_lib/STM32F4xx_StdPeriph_Driver/src/stm32f4xx_hash.c ****   *        11. Save and restore hash processor context using 
  61:/home/jonas/warwick/3dProfilometer/xpcc/ext/stm32f4xx_lib/STM32F4xx_StdPeriph_Driver/src/stm32f4xx_hash.c ****   *            HASH_SaveContext() and HASH_RestoreContext() functions.     
  62:/home/jonas/warwick/3dProfilometer/xpcc/ext/stm32f4xx_lib/STM32F4xx_StdPeriph_Driver/src/stm32f4xx_hash.c ****   *              
  63:/home/jonas/warwick/3dProfilometer/xpcc/ext/stm32f4xx_lib/STM32F4xx_StdPeriph_Driver/src/stm32f4xx_hash.c ****   *
  64:/home/jonas/warwick/3dProfilometer/xpcc/ext/stm32f4xx_lib/STM32F4xx_StdPeriph_Driver/src/stm32f4xx_hash.c ****   *            
  65:/home/jonas/warwick/3dProfilometer/xpcc/ext/stm32f4xx_lib/STM32F4xx_StdPeriph_Driver/src/stm32f4xx_hash.c ****   *          HMAC operation : 
  66:/home/jonas/warwick/3dProfilometer/xpcc/ext/stm32f4xx_lib/STM32F4xx_StdPeriph_Driver/src/stm32f4xx_hash.c ****   *          ----------------  
  67:/home/jonas/warwick/3dProfilometer/xpcc/ext/stm32f4xx_lib/STM32F4xx_StdPeriph_Driver/src/stm32f4xx_hash.c ****   *          The HMAC algorithm is used for message authentication, by 
  68:/home/jonas/warwick/3dProfilometer/xpcc/ext/stm32f4xx_lib/STM32F4xx_StdPeriph_Driver/src/stm32f4xx_hash.c ****   *          irreversibly binding the message being processed to a key chosen 
  69:/home/jonas/warwick/3dProfilometer/xpcc/ext/stm32f4xx_lib/STM32F4xx_StdPeriph_Driver/src/stm32f4xx_hash.c ****   *          by the user. 
  70:/home/jonas/warwick/3dProfilometer/xpcc/ext/stm32f4xx_lib/STM32F4xx_StdPeriph_Driver/src/stm32f4xx_hash.c ****   *          For HMAC specifications, refer to "HMAC: keyed-hashing for message 
  71:/home/jonas/warwick/3dProfilometer/xpcc/ext/stm32f4xx_lib/STM32F4xx_StdPeriph_Driver/src/stm32f4xx_hash.c ****   *          authentication, H. Krawczyk, M. Bellare, R. Canetti, February 1997"
  72:/home/jonas/warwick/3dProfilometer/xpcc/ext/stm32f4xx_lib/STM32F4xx_StdPeriph_Driver/src/stm32f4xx_hash.c ****   *          
  73:/home/jonas/warwick/3dProfilometer/xpcc/ext/stm32f4xx_lib/STM32F4xx_StdPeriph_Driver/src/stm32f4xx_hash.c ****   *          Basically, the HMAC algorithm consists of two nested hash operations:
  74:/home/jonas/warwick/3dProfilometer/xpcc/ext/stm32f4xx_lib/STM32F4xx_StdPeriph_Driver/src/stm32f4xx_hash.c ****   *          HMAC(message) = Hash[((key | pad) XOR 0x5C) | Hash(((key | pad) XOR 0x36) | message)]
  75:/home/jonas/warwick/3dProfilometer/xpcc/ext/stm32f4xx_lib/STM32F4xx_StdPeriph_Driver/src/stm32f4xx_hash.c ****   *          where:
  76:/home/jonas/warwick/3dProfilometer/xpcc/ext/stm32f4xx_lib/STM32F4xx_StdPeriph_Driver/src/stm32f4xx_hash.c ****   *          - "pad" is a sequence of zeroes needed to extend the key to the 
  77:/home/jonas/warwick/3dProfilometer/xpcc/ext/stm32f4xx_lib/STM32F4xx_StdPeriph_Driver/src/stm32f4xx_hash.c ****   *                  length of the underlying hash function data block (that is 
  78:/home/jonas/warwick/3dProfilometer/xpcc/ext/stm32f4xx_lib/STM32F4xx_StdPeriph_Driver/src/stm32f4xx_hash.c ****   *                  512 bits for both the SHA-1 and MD5 hash algorithms)
  79:/home/jonas/warwick/3dProfilometer/xpcc/ext/stm32f4xx_lib/STM32F4xx_StdPeriph_Driver/src/stm32f4xx_hash.c ****   *          - "|"   represents the concatenation operator 
  80:/home/jonas/warwick/3dProfilometer/xpcc/ext/stm32f4xx_lib/STM32F4xx_StdPeriph_Driver/src/stm32f4xx_hash.c ****   *          
  81:/home/jonas/warwick/3dProfilometer/xpcc/ext/stm32f4xx_lib/STM32F4xx_StdPeriph_Driver/src/stm32f4xx_hash.c ****   *         
  82:/home/jonas/warwick/3dProfilometer/xpcc/ext/stm32f4xx_lib/STM32F4xx_StdPeriph_Driver/src/stm32f4xx_hash.c ****   *         To compute the HMAC, four different phases are required:
  83:/home/jonas/warwick/3dProfilometer/xpcc/ext/stm32f4xx_lib/STM32F4xx_StdPeriph_Driver/src/stm32f4xx_hash.c ****   *                    
  84:/home/jonas/warwick/3dProfilometer/xpcc/ext/stm32f4xx_lib/STM32F4xx_StdPeriph_Driver/src/stm32f4xx_hash.c ****   *         1.  Initialise the HASH using HASH_Init() function to do HMAC 
  85:/home/jonas/warwick/3dProfilometer/xpcc/ext/stm32f4xx_lib/STM32F4xx_StdPeriph_Driver/src/stm32f4xx_hash.c ****   *             operation. 
  86:/home/jonas/warwick/3dProfilometer/xpcc/ext/stm32f4xx_lib/STM32F4xx_StdPeriph_Driver/src/stm32f4xx_hash.c ****   *                
  87:/home/jonas/warwick/3dProfilometer/xpcc/ext/stm32f4xx_lib/STM32F4xx_StdPeriph_Driver/src/stm32f4xx_hash.c ****   *         2.  The key (to be used for the inner hash function) is then given 
  88:/home/jonas/warwick/3dProfilometer/xpcc/ext/stm32f4xx_lib/STM32F4xx_StdPeriph_Driver/src/stm32f4xx_hash.c ****   *             to the core. This operation follows the same mechanism as the 
  89:/home/jonas/warwick/3dProfilometer/xpcc/ext/stm32f4xx_lib/STM32F4xx_StdPeriph_Driver/src/stm32f4xx_hash.c ****   *             one used to send the message in the hash operation (that is, 
  90:/home/jonas/warwick/3dProfilometer/xpcc/ext/stm32f4xx_lib/STM32F4xx_StdPeriph_Driver/src/stm32f4xx_hash.c ****   *             by HASH_DataIn() function and, finally, 
  91:/home/jonas/warwick/3dProfilometer/xpcc/ext/stm32f4xx_lib/STM32F4xx_StdPeriph_Driver/src/stm32f4xx_hash.c ****   *             HASH_StartDigest() function.
  92:/home/jonas/warwick/3dProfilometer/xpcc/ext/stm32f4xx_lib/STM32F4xx_StdPeriph_Driver/src/stm32f4xx_hash.c ****   *          
  93:/home/jonas/warwick/3dProfilometer/xpcc/ext/stm32f4xx_lib/STM32F4xx_StdPeriph_Driver/src/stm32f4xx_hash.c ****   *         3.  Once the last word has been entered and computation has started, 
  94:/home/jonas/warwick/3dProfilometer/xpcc/ext/stm32f4xx_lib/STM32F4xx_StdPeriph_Driver/src/stm32f4xx_hash.c ****   *             the hash processor elaborates the key. It is then ready to 
  95:/home/jonas/warwick/3dProfilometer/xpcc/ext/stm32f4xx_lib/STM32F4xx_StdPeriph_Driver/src/stm32f4xx_hash.c ****   *             accept the message text using the same mechanism as the one 
  96:/home/jonas/warwick/3dProfilometer/xpcc/ext/stm32f4xx_lib/STM32F4xx_StdPeriph_Driver/src/stm32f4xx_hash.c ****   *             used to send the message in the hash operation.
  97:/home/jonas/warwick/3dProfilometer/xpcc/ext/stm32f4xx_lib/STM32F4xx_StdPeriph_Driver/src/stm32f4xx_hash.c ****   *       
  98:/home/jonas/warwick/3dProfilometer/xpcc/ext/stm32f4xx_lib/STM32F4xx_StdPeriph_Driver/src/stm32f4xx_hash.c ****   *         4.  After the first hash round, the hash processor returns "ready" 
  99:/home/jonas/warwick/3dProfilometer/xpcc/ext/stm32f4xx_lib/STM32F4xx_StdPeriph_Driver/src/stm32f4xx_hash.c ****   *             to indicate that it is ready to receive the key to be used for 
 100:/home/jonas/warwick/3dProfilometer/xpcc/ext/stm32f4xx_lib/STM32F4xx_StdPeriph_Driver/src/stm32f4xx_hash.c ****   *             the outer hash function (normally, this key is the same as the 
 101:/home/jonas/warwick/3dProfilometer/xpcc/ext/stm32f4xx_lib/STM32F4xx_StdPeriph_Driver/src/stm32f4xx_hash.c ****   *             one used for the inner hash function). When the last word of 
 102:/home/jonas/warwick/3dProfilometer/xpcc/ext/stm32f4xx_lib/STM32F4xx_StdPeriph_Driver/src/stm32f4xx_hash.c ****   *             the key is entered and computation starts, the HMAC result is 
 103:/home/jonas/warwick/3dProfilometer/xpcc/ext/stm32f4xx_lib/STM32F4xx_StdPeriph_Driver/src/stm32f4xx_hash.c ****   *             made available using HASH_GetDigest() function.
 104:/home/jonas/warwick/3dProfilometer/xpcc/ext/stm32f4xx_lib/STM32F4xx_StdPeriph_Driver/src/stm32f4xx_hash.c ****   *               
 105:/home/jonas/warwick/3dProfilometer/xpcc/ext/stm32f4xx_lib/STM32F4xx_StdPeriph_Driver/src/stm32f4xx_hash.c ****   *              
 106:/home/jonas/warwick/3dProfilometer/xpcc/ext/stm32f4xx_lib/STM32F4xx_StdPeriph_Driver/src/stm32f4xx_hash.c ****   *  @endverbatim
 107:/home/jonas/warwick/3dProfilometer/xpcc/ext/stm32f4xx_lib/STM32F4xx_StdPeriph_Driver/src/stm32f4xx_hash.c ****   *         
 108:/home/jonas/warwick/3dProfilometer/xpcc/ext/stm32f4xx_lib/STM32F4xx_StdPeriph_Driver/src/stm32f4xx_hash.c ****   ******************************************************************************
 109:/home/jonas/warwick/3dProfilometer/xpcc/ext/stm32f4xx_lib/STM32F4xx_StdPeriph_Driver/src/stm32f4xx_hash.c ****   * @attention
 110:/home/jonas/warwick/3dProfilometer/xpcc/ext/stm32f4xx_lib/STM32F4xx_StdPeriph_Driver/src/stm32f4xx_hash.c ****   *
 111:/home/jonas/warwick/3dProfilometer/xpcc/ext/stm32f4xx_lib/STM32F4xx_StdPeriph_Driver/src/stm32f4xx_hash.c ****   * THE PRESENT FIRMWARE WHICH IS FOR GUIDANCE ONLY AIMS AT PROVIDING CUSTOMERS
 112:/home/jonas/warwick/3dProfilometer/xpcc/ext/stm32f4xx_lib/STM32F4xx_StdPeriph_Driver/src/stm32f4xx_hash.c ****   * WITH CODING INFORMATION REGARDING THEIR PRODUCTS IN ORDER FOR THEM TO SAVE
 113:/home/jonas/warwick/3dProfilometer/xpcc/ext/stm32f4xx_lib/STM32F4xx_StdPeriph_Driver/src/stm32f4xx_hash.c ****   * TIME. AS A RESULT, STMICROELECTRONICS SHALL NOT BE HELD LIABLE FOR ANY
 114:/home/jonas/warwick/3dProfilometer/xpcc/ext/stm32f4xx_lib/STM32F4xx_StdPeriph_Driver/src/stm32f4xx_hash.c ****   * DIRECT, INDIRECT OR CONSEQUENTIAL DAMAGES WITH RESPECT TO ANY CLAIMS ARISING
 115:/home/jonas/warwick/3dProfilometer/xpcc/ext/stm32f4xx_lib/STM32F4xx_StdPeriph_Driver/src/stm32f4xx_hash.c ****   * FROM THE CONTENT OF SUCH FIRMWARE AND/OR THE USE MADE BY CUSTOMERS OF THE
 116:/home/jonas/warwick/3dProfilometer/xpcc/ext/stm32f4xx_lib/STM32F4xx_StdPeriph_Driver/src/stm32f4xx_hash.c ****   * CODING INFORMATION CONTAINED HEREIN IN CONNECTION WITH THEIR PRODUCTS.
 117:/home/jonas/warwick/3dProfilometer/xpcc/ext/stm32f4xx_lib/STM32F4xx_StdPeriph_Driver/src/stm32f4xx_hash.c ****   *
 118:/home/jonas/warwick/3dProfilometer/xpcc/ext/stm32f4xx_lib/STM32F4xx_StdPeriph_Driver/src/stm32f4xx_hash.c ****   * <h2><center>&copy; COPYRIGHT 2011 STMicroelectronics</center></h2>
 119:/home/jonas/warwick/3dProfilometer/xpcc/ext/stm32f4xx_lib/STM32F4xx_StdPeriph_Driver/src/stm32f4xx_hash.c ****   ******************************************************************************  
 120:/home/jonas/warwick/3dProfilometer/xpcc/ext/stm32f4xx_lib/STM32F4xx_StdPeriph_Driver/src/stm32f4xx_hash.c ****   */
 121:/home/jonas/warwick/3dProfilometer/xpcc/ext/stm32f4xx_lib/STM32F4xx_StdPeriph_Driver/src/stm32f4xx_hash.c **** 
 122:/home/jonas/warwick/3dProfilometer/xpcc/ext/stm32f4xx_lib/STM32F4xx_StdPeriph_Driver/src/stm32f4xx_hash.c **** /* Includes ------------------------------------------------------------------*/
 123:/home/jonas/warwick/3dProfilometer/xpcc/ext/stm32f4xx_lib/STM32F4xx_StdPeriph_Driver/src/stm32f4xx_hash.c **** #include "stm32f4xx_hash.h"
 124:/home/jonas/warwick/3dProfilometer/xpcc/ext/stm32f4xx_lib/STM32F4xx_StdPeriph_Driver/src/stm32f4xx_hash.c **** #include "stm32f4xx_rcc.h"
 125:/home/jonas/warwick/3dProfilometer/xpcc/ext/stm32f4xx_lib/STM32F4xx_StdPeriph_Driver/src/stm32f4xx_hash.c **** 
 126:/home/jonas/warwick/3dProfilometer/xpcc/ext/stm32f4xx_lib/STM32F4xx_StdPeriph_Driver/src/stm32f4xx_hash.c **** /** @addtogroup STM32F4xx_StdPeriph_Driver
 127:/home/jonas/warwick/3dProfilometer/xpcc/ext/stm32f4xx_lib/STM32F4xx_StdPeriph_Driver/src/stm32f4xx_hash.c ****   * @{
 128:/home/jonas/warwick/3dProfilometer/xpcc/ext/stm32f4xx_lib/STM32F4xx_StdPeriph_Driver/src/stm32f4xx_hash.c ****   */
 129:/home/jonas/warwick/3dProfilometer/xpcc/ext/stm32f4xx_lib/STM32F4xx_StdPeriph_Driver/src/stm32f4xx_hash.c **** 
 130:/home/jonas/warwick/3dProfilometer/xpcc/ext/stm32f4xx_lib/STM32F4xx_StdPeriph_Driver/src/stm32f4xx_hash.c **** /** @defgroup HASH 
 131:/home/jonas/warwick/3dProfilometer/xpcc/ext/stm32f4xx_lib/STM32F4xx_StdPeriph_Driver/src/stm32f4xx_hash.c ****   * @brief HASH driver modules
 132:/home/jonas/warwick/3dProfilometer/xpcc/ext/stm32f4xx_lib/STM32F4xx_StdPeriph_Driver/src/stm32f4xx_hash.c ****   * @{
 133:/home/jonas/warwick/3dProfilometer/xpcc/ext/stm32f4xx_lib/STM32F4xx_StdPeriph_Driver/src/stm32f4xx_hash.c ****   */ 
 134:/home/jonas/warwick/3dProfilometer/xpcc/ext/stm32f4xx_lib/STM32F4xx_StdPeriph_Driver/src/stm32f4xx_hash.c **** 
 135:/home/jonas/warwick/3dProfilometer/xpcc/ext/stm32f4xx_lib/STM32F4xx_StdPeriph_Driver/src/stm32f4xx_hash.c **** /* Private typedef -----------------------------------------------------------*/
 136:/home/jonas/warwick/3dProfilometer/xpcc/ext/stm32f4xx_lib/STM32F4xx_StdPeriph_Driver/src/stm32f4xx_hash.c **** /* Private define ------------------------------------------------------------*/
 137:/home/jonas/warwick/3dProfilometer/xpcc/ext/stm32f4xx_lib/STM32F4xx_StdPeriph_Driver/src/stm32f4xx_hash.c **** /* Private macro -------------------------------------------------------------*/
 138:/home/jonas/warwick/3dProfilometer/xpcc/ext/stm32f4xx_lib/STM32F4xx_StdPeriph_Driver/src/stm32f4xx_hash.c **** /* Private variables ---------------------------------------------------------*/
 139:/home/jonas/warwick/3dProfilometer/xpcc/ext/stm32f4xx_lib/STM32F4xx_StdPeriph_Driver/src/stm32f4xx_hash.c **** /* Private function prototypes -----------------------------------------------*/
 140:/home/jonas/warwick/3dProfilometer/xpcc/ext/stm32f4xx_lib/STM32F4xx_StdPeriph_Driver/src/stm32f4xx_hash.c **** /* Private functions ---------------------------------------------------------*/ 
 141:/home/jonas/warwick/3dProfilometer/xpcc/ext/stm32f4xx_lib/STM32F4xx_StdPeriph_Driver/src/stm32f4xx_hash.c **** 
 142:/home/jonas/warwick/3dProfilometer/xpcc/ext/stm32f4xx_lib/STM32F4xx_StdPeriph_Driver/src/stm32f4xx_hash.c **** /** @defgroup HASH_Private_Functions
 143:/home/jonas/warwick/3dProfilometer/xpcc/ext/stm32f4xx_lib/STM32F4xx_StdPeriph_Driver/src/stm32f4xx_hash.c ****   * @{
 144:/home/jonas/warwick/3dProfilometer/xpcc/ext/stm32f4xx_lib/STM32F4xx_StdPeriph_Driver/src/stm32f4xx_hash.c ****   */ 
 145:/home/jonas/warwick/3dProfilometer/xpcc/ext/stm32f4xx_lib/STM32F4xx_StdPeriph_Driver/src/stm32f4xx_hash.c **** 
 146:/home/jonas/warwick/3dProfilometer/xpcc/ext/stm32f4xx_lib/STM32F4xx_StdPeriph_Driver/src/stm32f4xx_hash.c **** /** @defgroup HASH_Group1 Initialization and Configuration functions
 147:/home/jonas/warwick/3dProfilometer/xpcc/ext/stm32f4xx_lib/STM32F4xx_StdPeriph_Driver/src/stm32f4xx_hash.c ****  *  @brief    Initialization and Configuration functions 
 148:/home/jonas/warwick/3dProfilometer/xpcc/ext/stm32f4xx_lib/STM32F4xx_StdPeriph_Driver/src/stm32f4xx_hash.c ****  *
 149:/home/jonas/warwick/3dProfilometer/xpcc/ext/stm32f4xx_lib/STM32F4xx_StdPeriph_Driver/src/stm32f4xx_hash.c **** @verbatim    
 150:/home/jonas/warwick/3dProfilometer/xpcc/ext/stm32f4xx_lib/STM32F4xx_StdPeriph_Driver/src/stm32f4xx_hash.c ****  ===============================================================================
 151:/home/jonas/warwick/3dProfilometer/xpcc/ext/stm32f4xx_lib/STM32F4xx_StdPeriph_Driver/src/stm32f4xx_hash.c ****                       Initialization and Configuration functions
 152:/home/jonas/warwick/3dProfilometer/xpcc/ext/stm32f4xx_lib/STM32F4xx_StdPeriph_Driver/src/stm32f4xx_hash.c ****  ===============================================================================  
 153:/home/jonas/warwick/3dProfilometer/xpcc/ext/stm32f4xx_lib/STM32F4xx_StdPeriph_Driver/src/stm32f4xx_hash.c ****   This section provides functions allowing to 
 154:/home/jonas/warwick/3dProfilometer/xpcc/ext/stm32f4xx_lib/STM32F4xx_StdPeriph_Driver/src/stm32f4xx_hash.c ****    - Initialize the HASH peripheral
 155:/home/jonas/warwick/3dProfilometer/xpcc/ext/stm32f4xx_lib/STM32F4xx_StdPeriph_Driver/src/stm32f4xx_hash.c ****    - Configure the HASH Processor 
 156:/home/jonas/warwick/3dProfilometer/xpcc/ext/stm32f4xx_lib/STM32F4xx_StdPeriph_Driver/src/stm32f4xx_hash.c ****       - MD5/SHA1, 
 157:/home/jonas/warwick/3dProfilometer/xpcc/ext/stm32f4xx_lib/STM32F4xx_StdPeriph_Driver/src/stm32f4xx_hash.c ****       - HASH/HMAC, 
 158:/home/jonas/warwick/3dProfilometer/xpcc/ext/stm32f4xx_lib/STM32F4xx_StdPeriph_Driver/src/stm32f4xx_hash.c ****       - datatype 
 159:/home/jonas/warwick/3dProfilometer/xpcc/ext/stm32f4xx_lib/STM32F4xx_StdPeriph_Driver/src/stm32f4xx_hash.c ****       - HMAC Key (if mode = HMAC)
 160:/home/jonas/warwick/3dProfilometer/xpcc/ext/stm32f4xx_lib/STM32F4xx_StdPeriph_Driver/src/stm32f4xx_hash.c ****    - Reset the HASH Processor 
 161:/home/jonas/warwick/3dProfilometer/xpcc/ext/stm32f4xx_lib/STM32F4xx_StdPeriph_Driver/src/stm32f4xx_hash.c ****    
 162:/home/jonas/warwick/3dProfilometer/xpcc/ext/stm32f4xx_lib/STM32F4xx_StdPeriph_Driver/src/stm32f4xx_hash.c **** @endverbatim
 163:/home/jonas/warwick/3dProfilometer/xpcc/ext/stm32f4xx_lib/STM32F4xx_StdPeriph_Driver/src/stm32f4xx_hash.c ****   * @{
 164:/home/jonas/warwick/3dProfilometer/xpcc/ext/stm32f4xx_lib/STM32F4xx_StdPeriph_Driver/src/stm32f4xx_hash.c ****   */
 165:/home/jonas/warwick/3dProfilometer/xpcc/ext/stm32f4xx_lib/STM32F4xx_StdPeriph_Driver/src/stm32f4xx_hash.c ****   
 166:/home/jonas/warwick/3dProfilometer/xpcc/ext/stm32f4xx_lib/STM32F4xx_StdPeriph_Driver/src/stm32f4xx_hash.c **** /**
 167:/home/jonas/warwick/3dProfilometer/xpcc/ext/stm32f4xx_lib/STM32F4xx_StdPeriph_Driver/src/stm32f4xx_hash.c ****   * @brief  Deinitializes the HASH peripheral registers to their default reset values
 168:/home/jonas/warwick/3dProfilometer/xpcc/ext/stm32f4xx_lib/STM32F4xx_StdPeriph_Driver/src/stm32f4xx_hash.c ****   * @param  None
 169:/home/jonas/warwick/3dProfilometer/xpcc/ext/stm32f4xx_lib/STM32F4xx_StdPeriph_Driver/src/stm32f4xx_hash.c ****   * @retval None
 170:/home/jonas/warwick/3dProfilometer/xpcc/ext/stm32f4xx_lib/STM32F4xx_StdPeriph_Driver/src/stm32f4xx_hash.c ****   */
 171:/home/jonas/warwick/3dProfilometer/xpcc/ext/stm32f4xx_lib/STM32F4xx_StdPeriph_Driver/src/stm32f4xx_hash.c **** void HASH_DeInit(void)
 172:/home/jonas/warwick/3dProfilometer/xpcc/ext/stm32f4xx_lib/STM32F4xx_StdPeriph_Driver/src/stm32f4xx_hash.c **** {
  28              		.loc 1 172 0
  29              		.cfi_startproc
  30              		@ args = 0, pretend = 0, frame = 0
  31              		@ frame_needed = 0, uses_anonymous_args = 0
  32 0000 10B5     		push	{r4, lr}
  33              	.LCFI0:
  34              		.cfi_def_cfa_offset 8
  35              		.cfi_offset 4, -8
  36              		.cfi_offset 14, -4
 173:/home/jonas/warwick/3dProfilometer/xpcc/ext/stm32f4xx_lib/STM32F4xx_StdPeriph_Driver/src/stm32f4xx_hash.c ****   /* Enable HASH reset state */
 174:/home/jonas/warwick/3dProfilometer/xpcc/ext/stm32f4xx_lib/STM32F4xx_StdPeriph_Driver/src/stm32f4xx_hash.c ****   RCC_AHB2PeriphResetCmd(RCC_AHB2Periph_HASH, ENABLE);
  37              		.loc 1 174 0
  38 0002 2020     		movs	r0, #32
  39 0004 0121     		movs	r1, #1
  40 0006 034C     		ldr	r4, .L2
  41 0008 A047     		blx	r4
  42              	.LVL0:
 175:/home/jonas/warwick/3dProfilometer/xpcc/ext/stm32f4xx_lib/STM32F4xx_StdPeriph_Driver/src/stm32f4xx_hash.c ****   /* Release HASH from reset state */
 176:/home/jonas/warwick/3dProfilometer/xpcc/ext/stm32f4xx_lib/STM32F4xx_StdPeriph_Driver/src/stm32f4xx_hash.c ****   RCC_AHB2PeriphResetCmd(RCC_AHB2Periph_HASH, DISABLE);
  43              		.loc 1 176 0
  44 000a 2020     		movs	r0, #32
  45 000c 0021     		movs	r1, #0
  46 000e A047     		blx	r4
  47              	.LVL1:
  48 0010 10BD     		pop	{r4, pc}
  49              	.L3:
  50 0012 00BF     		.align	2
  51              	.L2:
  52 0014 00000000 		.word	RCC_AHB2PeriphResetCmd
  53              		.cfi_endproc
  54              	.LFE110:
  56              		.section	.text.HASH_Init,"ax",%progbits
  57              		.align	2
  58              		.global	HASH_Init
  59              		.thumb
  60              		.thumb_func
  62              	HASH_Init:
  63              	.LFB111:
 177:/home/jonas/warwick/3dProfilometer/xpcc/ext/stm32f4xx_lib/STM32F4xx_StdPeriph_Driver/src/stm32f4xx_hash.c **** }
 178:/home/jonas/warwick/3dProfilometer/xpcc/ext/stm32f4xx_lib/STM32F4xx_StdPeriph_Driver/src/stm32f4xx_hash.c **** 
 179:/home/jonas/warwick/3dProfilometer/xpcc/ext/stm32f4xx_lib/STM32F4xx_StdPeriph_Driver/src/stm32f4xx_hash.c **** /**
 180:/home/jonas/warwick/3dProfilometer/xpcc/ext/stm32f4xx_lib/STM32F4xx_StdPeriph_Driver/src/stm32f4xx_hash.c ****   * @brief  Initializes the HASH peripheral according to the specified parameters
 181:/home/jonas/warwick/3dProfilometer/xpcc/ext/stm32f4xx_lib/STM32F4xx_StdPeriph_Driver/src/stm32f4xx_hash.c ****   *         in the HASH_InitStruct structure.
 182:/home/jonas/warwick/3dProfilometer/xpcc/ext/stm32f4xx_lib/STM32F4xx_StdPeriph_Driver/src/stm32f4xx_hash.c ****   * @note   the hash processor is reset when calling this function so that the
 183:/home/jonas/warwick/3dProfilometer/xpcc/ext/stm32f4xx_lib/STM32F4xx_StdPeriph_Driver/src/stm32f4xx_hash.c ****   *         HASH will be ready to compute the message digest of a new message.
 184:/home/jonas/warwick/3dProfilometer/xpcc/ext/stm32f4xx_lib/STM32F4xx_StdPeriph_Driver/src/stm32f4xx_hash.c ****   *         There is no need to call HASH_Reset() function.           
 185:/home/jonas/warwick/3dProfilometer/xpcc/ext/stm32f4xx_lib/STM32F4xx_StdPeriph_Driver/src/stm32f4xx_hash.c ****   * @param  HASH_InitStruct: pointer to a HASH_InitTypeDef structure that contains
 186:/home/jonas/warwick/3dProfilometer/xpcc/ext/stm32f4xx_lib/STM32F4xx_StdPeriph_Driver/src/stm32f4xx_hash.c ****   *         the configuration information for the HASH peripheral.
 187:/home/jonas/warwick/3dProfilometer/xpcc/ext/stm32f4xx_lib/STM32F4xx_StdPeriph_Driver/src/stm32f4xx_hash.c ****   * @note   The field HASH_HMACKeyType in HASH_InitTypeDef must be filled only 
 188:/home/jonas/warwick/3dProfilometer/xpcc/ext/stm32f4xx_lib/STM32F4xx_StdPeriph_Driver/src/stm32f4xx_hash.c ****   *          if the algorithm mode is HMAC.       
 189:/home/jonas/warwick/3dProfilometer/xpcc/ext/stm32f4xx_lib/STM32F4xx_StdPeriph_Driver/src/stm32f4xx_hash.c ****   * @retval None
 190:/home/jonas/warwick/3dProfilometer/xpcc/ext/stm32f4xx_lib/STM32F4xx_StdPeriph_Driver/src/stm32f4xx_hash.c ****   */
 191:/home/jonas/warwick/3dProfilometer/xpcc/ext/stm32f4xx_lib/STM32F4xx_StdPeriph_Driver/src/stm32f4xx_hash.c **** void HASH_Init(HASH_InitTypeDef* HASH_InitStruct)
 192:/home/jonas/warwick/3dProfilometer/xpcc/ext/stm32f4xx_lib/STM32F4xx_StdPeriph_Driver/src/stm32f4xx_hash.c **** {
  64              		.loc 1 192 0
  65              		.cfi_startproc
  66              		@ args = 0, pretend = 0, frame = 0
  67              		@ frame_needed = 0, uses_anonymous_args = 0
  68              		@ link register save eliminated.
  69              	.LVL2:
 193:/home/jonas/warwick/3dProfilometer/xpcc/ext/stm32f4xx_lib/STM32F4xx_StdPeriph_Driver/src/stm32f4xx_hash.c ****   /* Check the parameters */
 194:/home/jonas/warwick/3dProfilometer/xpcc/ext/stm32f4xx_lib/STM32F4xx_StdPeriph_Driver/src/stm32f4xx_hash.c ****   assert_param(IS_HASH_ALGOSELECTION(HASH_InitStruct->HASH_AlgoSelection));
 195:/home/jonas/warwick/3dProfilometer/xpcc/ext/stm32f4xx_lib/STM32F4xx_StdPeriph_Driver/src/stm32f4xx_hash.c ****   assert_param(IS_HASH_DATATYPE(HASH_InitStruct->HASH_DataType));
 196:/home/jonas/warwick/3dProfilometer/xpcc/ext/stm32f4xx_lib/STM32F4xx_StdPeriph_Driver/src/stm32f4xx_hash.c ****   assert_param(IS_HASH_ALGOMODE(HASH_InitStruct->HASH_AlgoMode));
 197:/home/jonas/warwick/3dProfilometer/xpcc/ext/stm32f4xx_lib/STM32F4xx_StdPeriph_Driver/src/stm32f4xx_hash.c ****   
 198:/home/jonas/warwick/3dProfilometer/xpcc/ext/stm32f4xx_lib/STM32F4xx_StdPeriph_Driver/src/stm32f4xx_hash.c ****   /* Configure the Algorithm used, algorithm mode and the datatype */
 199:/home/jonas/warwick/3dProfilometer/xpcc/ext/stm32f4xx_lib/STM32F4xx_StdPeriph_Driver/src/stm32f4xx_hash.c ****   HASH->CR &= ~ (HASH_CR_ALGO | HASH_CR_DATATYPE | HASH_CR_MODE);
  70              		.loc 1 199 0
  71 0000 0F4B     		ldr	r3, .L7
  72 0002 1A68     		ldr	r2, [r3, #0]
  73 0004 22F0F002 		bic	r2, r2, #240
 192:/home/jonas/warwick/3dProfilometer/xpcc/ext/stm32f4xx_lib/STM32F4xx_StdPeriph_Driver/src/stm32f4xx_hash.c **** {
  74              		.loc 1 192 0
  75 0008 30B4     		push	{r4, r5}
  76              	.LCFI1:
  77              		.cfi_def_cfa_offset 8
  78              		.cfi_offset 4, -8
  79              		.cfi_offset 5, -4
  80              		.loc 1 199 0
  81 000a 1A60     		str	r2, [r3, #0]
 200:/home/jonas/warwick/3dProfilometer/xpcc/ext/stm32f4xx_lib/STM32F4xx_StdPeriph_Driver/src/stm32f4xx_hash.c ****   HASH->CR |= (HASH_InitStruct->HASH_AlgoSelection | \
  82              		.loc 1 200 0
  83 000c 1D68     		ldr	r5, [r3, #0]
  84 000e 0468     		ldr	r4, [r0, #0]
 201:/home/jonas/warwick/3dProfilometer/xpcc/ext/stm32f4xx_lib/STM32F4xx_StdPeriph_Driver/src/stm32f4xx_hash.c ****                HASH_InitStruct->HASH_DataType | \
  85              		.loc 1 201 0
  86 0010 8168     		ldr	r1, [r0, #8]
 202:/home/jonas/warwick/3dProfilometer/xpcc/ext/stm32f4xx_lib/STM32F4xx_StdPeriph_Driver/src/stm32f4xx_hash.c ****                HASH_InitStruct->HASH_AlgoMode);
  87              		.loc 1 202 0
  88 0012 4268     		ldr	r2, [r0, #4]
 200:/home/jonas/warwick/3dProfilometer/xpcc/ext/stm32f4xx_lib/STM32F4xx_StdPeriph_Driver/src/stm32f4xx_hash.c ****   HASH->CR |= (HASH_InitStruct->HASH_AlgoSelection | \
  89              		.loc 1 200 0
  90 0014 2C43     		orrs	r4, r4, r5
 201:/home/jonas/warwick/3dProfilometer/xpcc/ext/stm32f4xx_lib/STM32F4xx_StdPeriph_Driver/src/stm32f4xx_hash.c ****                HASH_InitStruct->HASH_DataType | \
  91              		.loc 1 201 0
  92 0016 2143     		orrs	r1, r1, r4
 200:/home/jonas/warwick/3dProfilometer/xpcc/ext/stm32f4xx_lib/STM32F4xx_StdPeriph_Driver/src/stm32f4xx_hash.c ****   HASH->CR |= (HASH_InitStruct->HASH_AlgoSelection | \
  93              		.loc 1 200 0
  94 0018 1143     		orrs	r1, r1, r2
 203:/home/jonas/warwick/3dProfilometer/xpcc/ext/stm32f4xx_lib/STM32F4xx_StdPeriph_Driver/src/stm32f4xx_hash.c ****   
 204:/home/jonas/warwick/3dProfilometer/xpcc/ext/stm32f4xx_lib/STM32F4xx_StdPeriph_Driver/src/stm32f4xx_hash.c ****   /* if algorithm mode is HMAC, set the Key */  
 205:/home/jonas/warwick/3dProfilometer/xpcc/ext/stm32f4xx_lib/STM32F4xx_StdPeriph_Driver/src/stm32f4xx_hash.c ****   if(HASH_InitStruct->HASH_AlgoMode == HASH_AlgoMode_HMAC) 
  95              		.loc 1 205 0
  96 001a 402A     		cmp	r2, #64
 200:/home/jonas/warwick/3dProfilometer/xpcc/ext/stm32f4xx_lib/STM32F4xx_StdPeriph_Driver/src/stm32f4xx_hash.c ****   HASH->CR |= (HASH_InitStruct->HASH_AlgoSelection | \
  97              		.loc 1 200 0
  98 001c 1960     		str	r1, [r3, #0]
  99              		.loc 1 205 0
 100 001e 07D1     		bne	.L5
 206:/home/jonas/warwick/3dProfilometer/xpcc/ext/stm32f4xx_lib/STM32F4xx_StdPeriph_Driver/src/stm32f4xx_hash.c ****   {
 207:/home/jonas/warwick/3dProfilometer/xpcc/ext/stm32f4xx_lib/STM32F4xx_StdPeriph_Driver/src/stm32f4xx_hash.c ****     assert_param(IS_HASH_HMAC_KEYTYPE(HASH_InitStruct->HASH_HMACKeyType));
 208:/home/jonas/warwick/3dProfilometer/xpcc/ext/stm32f4xx_lib/STM32F4xx_StdPeriph_Driver/src/stm32f4xx_hash.c ****     HASH->CR &= ~HASH_CR_LKEY;
 101              		.loc 1 208 0
 102 0020 1A68     		ldr	r2, [r3, #0]
 103 0022 22F48032 		bic	r2, r2, #65536
 104 0026 1A60     		str	r2, [r3, #0]
 209:/home/jonas/warwick/3dProfilometer/xpcc/ext/stm32f4xx_lib/STM32F4xx_StdPeriph_Driver/src/stm32f4xx_hash.c ****     HASH->CR |= HASH_InitStruct->HASH_HMACKeyType;
 105              		.loc 1 209 0
 106 0028 1968     		ldr	r1, [r3, #0]
 107 002a C268     		ldr	r2, [r0, #12]
 108 002c 0A43     		orrs	r2, r2, r1
 109 002e 1A60     		str	r2, [r3, #0]
 110              	.L5:
 210:/home/jonas/warwick/3dProfilometer/xpcc/ext/stm32f4xx_lib/STM32F4xx_StdPeriph_Driver/src/stm32f4xx_hash.c ****   }
 211:/home/jonas/warwick/3dProfilometer/xpcc/ext/stm32f4xx_lib/STM32F4xx_StdPeriph_Driver/src/stm32f4xx_hash.c **** 
 212:/home/jonas/warwick/3dProfilometer/xpcc/ext/stm32f4xx_lib/STM32F4xx_StdPeriph_Driver/src/stm32f4xx_hash.c ****   /* Reset the HASH processor core, so that the HASH will be ready to compute 
 213:/home/jonas/warwick/3dProfilometer/xpcc/ext/stm32f4xx_lib/STM32F4xx_StdPeriph_Driver/src/stm32f4xx_hash.c ****      the message digest of a new message */
 214:/home/jonas/warwick/3dProfilometer/xpcc/ext/stm32f4xx_lib/STM32F4xx_StdPeriph_Driver/src/stm32f4xx_hash.c ****   HASH->CR |= HASH_CR_INIT;  
 111              		.loc 1 214 0
 112 0030 034B     		ldr	r3, .L7
 113 0032 1A68     		ldr	r2, [r3, #0]
 114 0034 42F00402 		orr	r2, r2, #4
 115 0038 1A60     		str	r2, [r3, #0]
 215:/home/jonas/warwick/3dProfilometer/xpcc/ext/stm32f4xx_lib/STM32F4xx_StdPeriph_Driver/src/stm32f4xx_hash.c **** }
 116              		.loc 1 215 0
 117 003a 30BC     		pop	{r4, r5}
 118 003c 7047     		bx	lr
 119              	.L8:
 120 003e 00BF     		.align	2
 121              	.L7:
 122 0040 00040650 		.word	1342571520
 123              		.cfi_endproc
 124              	.LFE111:
 126              		.section	.text.HASH_StructInit,"ax",%progbits
 127              		.align	2
 128              		.global	HASH_StructInit
 129              		.thumb
 130              		.thumb_func
 132              	HASH_StructInit:
 133              	.LFB112:
 216:/home/jonas/warwick/3dProfilometer/xpcc/ext/stm32f4xx_lib/STM32F4xx_StdPeriph_Driver/src/stm32f4xx_hash.c **** 
 217:/home/jonas/warwick/3dProfilometer/xpcc/ext/stm32f4xx_lib/STM32F4xx_StdPeriph_Driver/src/stm32f4xx_hash.c **** /**
 218:/home/jonas/warwick/3dProfilometer/xpcc/ext/stm32f4xx_lib/STM32F4xx_StdPeriph_Driver/src/stm32f4xx_hash.c ****   * @brief  Fills each HASH_InitStruct member with its default value.
 219:/home/jonas/warwick/3dProfilometer/xpcc/ext/stm32f4xx_lib/STM32F4xx_StdPeriph_Driver/src/stm32f4xx_hash.c ****   * @param  HASH_InitStruct : pointer to a HASH_InitTypeDef structure which will
 220:/home/jonas/warwick/3dProfilometer/xpcc/ext/stm32f4xx_lib/STM32F4xx_StdPeriph_Driver/src/stm32f4xx_hash.c ****   *          be initialized.  
 221:/home/jonas/warwick/3dProfilometer/xpcc/ext/stm32f4xx_lib/STM32F4xx_StdPeriph_Driver/src/stm32f4xx_hash.c ****   *  @note  The default values set are : Processor mode is HASH, Algorithm selected is SHA1,
 222:/home/jonas/warwick/3dProfilometer/xpcc/ext/stm32f4xx_lib/STM32F4xx_StdPeriph_Driver/src/stm32f4xx_hash.c ****   *          Data type selected is 32b and HMAC Key Type is short key.  
 223:/home/jonas/warwick/3dProfilometer/xpcc/ext/stm32f4xx_lib/STM32F4xx_StdPeriph_Driver/src/stm32f4xx_hash.c ****   * @retval None
 224:/home/jonas/warwick/3dProfilometer/xpcc/ext/stm32f4xx_lib/STM32F4xx_StdPeriph_Driver/src/stm32f4xx_hash.c ****   */
 225:/home/jonas/warwick/3dProfilometer/xpcc/ext/stm32f4xx_lib/STM32F4xx_StdPeriph_Driver/src/stm32f4xx_hash.c **** void HASH_StructInit(HASH_InitTypeDef* HASH_InitStruct)
 226:/home/jonas/warwick/3dProfilometer/xpcc/ext/stm32f4xx_lib/STM32F4xx_StdPeriph_Driver/src/stm32f4xx_hash.c **** {
 134              		.loc 1 226 0
 135              		.cfi_startproc
 136              		@ args = 0, pretend = 0, frame = 0
 137              		@ frame_needed = 0, uses_anonymous_args = 0
 138              		@ link register save eliminated.
 139              	.LVL3:
 227:/home/jonas/warwick/3dProfilometer/xpcc/ext/stm32f4xx_lib/STM32F4xx_StdPeriph_Driver/src/stm32f4xx_hash.c ****   /* Initialize the HASH_AlgoSelection member */
 228:/home/jonas/warwick/3dProfilometer/xpcc/ext/stm32f4xx_lib/STM32F4xx_StdPeriph_Driver/src/stm32f4xx_hash.c ****   HASH_InitStruct->HASH_AlgoSelection = HASH_AlgoSelection_SHA1;
 140              		.loc 1 228 0
 141 0000 0023     		movs	r3, #0
 142 0002 0360     		str	r3, [r0, #0]
 229:/home/jonas/warwick/3dProfilometer/xpcc/ext/stm32f4xx_lib/STM32F4xx_StdPeriph_Driver/src/stm32f4xx_hash.c **** 
 230:/home/jonas/warwick/3dProfilometer/xpcc/ext/stm32f4xx_lib/STM32F4xx_StdPeriph_Driver/src/stm32f4xx_hash.c ****   /* Initialize the HASH_AlgoMode member */
 231:/home/jonas/warwick/3dProfilometer/xpcc/ext/stm32f4xx_lib/STM32F4xx_StdPeriph_Driver/src/stm32f4xx_hash.c ****   HASH_InitStruct->HASH_AlgoMode = HASH_AlgoMode_HASH;
 143              		.loc 1 231 0
 144 0004 4360     		str	r3, [r0, #4]
 232:/home/jonas/warwick/3dProfilometer/xpcc/ext/stm32f4xx_lib/STM32F4xx_StdPeriph_Driver/src/stm32f4xx_hash.c **** 
 233:/home/jonas/warwick/3dProfilometer/xpcc/ext/stm32f4xx_lib/STM32F4xx_StdPeriph_Driver/src/stm32f4xx_hash.c ****   /* Initialize the HASH_DataType member */
 234:/home/jonas/warwick/3dProfilometer/xpcc/ext/stm32f4xx_lib/STM32F4xx_StdPeriph_Driver/src/stm32f4xx_hash.c ****   HASH_InitStruct->HASH_DataType = HASH_DataType_32b;
 145              		.loc 1 234 0
 146 0006 8360     		str	r3, [r0, #8]
 235:/home/jonas/warwick/3dProfilometer/xpcc/ext/stm32f4xx_lib/STM32F4xx_StdPeriph_Driver/src/stm32f4xx_hash.c **** 
 236:/home/jonas/warwick/3dProfilometer/xpcc/ext/stm32f4xx_lib/STM32F4xx_StdPeriph_Driver/src/stm32f4xx_hash.c ****   /* Initialize the HASH_HMACKeyType member */
 237:/home/jonas/warwick/3dProfilometer/xpcc/ext/stm32f4xx_lib/STM32F4xx_StdPeriph_Driver/src/stm32f4xx_hash.c ****   HASH_InitStruct->HASH_HMACKeyType = HASH_HMACKeyType_ShortKey;
 147              		.loc 1 237 0
 148 0008 C360     		str	r3, [r0, #12]
 149 000a 7047     		bx	lr
 150              		.cfi_endproc
 151              	.LFE112:
 153              		.section	.text.HASH_Reset,"ax",%progbits
 154              		.align	2
 155              		.global	HASH_Reset
 156              		.thumb
 157              		.thumb_func
 159              	HASH_Reset:
 160              	.LFB113:
 238:/home/jonas/warwick/3dProfilometer/xpcc/ext/stm32f4xx_lib/STM32F4xx_StdPeriph_Driver/src/stm32f4xx_hash.c **** }
 239:/home/jonas/warwick/3dProfilometer/xpcc/ext/stm32f4xx_lib/STM32F4xx_StdPeriph_Driver/src/stm32f4xx_hash.c **** 
 240:/home/jonas/warwick/3dProfilometer/xpcc/ext/stm32f4xx_lib/STM32F4xx_StdPeriph_Driver/src/stm32f4xx_hash.c **** /**
 241:/home/jonas/warwick/3dProfilometer/xpcc/ext/stm32f4xx_lib/STM32F4xx_StdPeriph_Driver/src/stm32f4xx_hash.c ****   * @brief  Resets the HASH processor core, so that the HASH will be ready
 242:/home/jonas/warwick/3dProfilometer/xpcc/ext/stm32f4xx_lib/STM32F4xx_StdPeriph_Driver/src/stm32f4xx_hash.c ****   *         to compute the message digest of a new message.
 243:/home/jonas/warwick/3dProfilometer/xpcc/ext/stm32f4xx_lib/STM32F4xx_StdPeriph_Driver/src/stm32f4xx_hash.c ****   * @note   Calling this function will clear the HASH_SR_DCIS (Digest calculation 
 244:/home/jonas/warwick/3dProfilometer/xpcc/ext/stm32f4xx_lib/STM32F4xx_StdPeriph_Driver/src/stm32f4xx_hash.c ****   *         completion interrupt status) bit corresponding to HASH_IT_DCI 
 245:/home/jonas/warwick/3dProfilometer/xpcc/ext/stm32f4xx_lib/STM32F4xx_StdPeriph_Driver/src/stm32f4xx_hash.c ****   *         interrupt and HASH_FLAG_DCIS flag. 
 246:/home/jonas/warwick/3dProfilometer/xpcc/ext/stm32f4xx_lib/STM32F4xx_StdPeriph_Driver/src/stm32f4xx_hash.c ****   * @param  None
 247:/home/jonas/warwick/3dProfilometer/xpcc/ext/stm32f4xx_lib/STM32F4xx_StdPeriph_Driver/src/stm32f4xx_hash.c ****   * @retval None
 248:/home/jonas/warwick/3dProfilometer/xpcc/ext/stm32f4xx_lib/STM32F4xx_StdPeriph_Driver/src/stm32f4xx_hash.c ****   */
 249:/home/jonas/warwick/3dProfilometer/xpcc/ext/stm32f4xx_lib/STM32F4xx_StdPeriph_Driver/src/stm32f4xx_hash.c **** void HASH_Reset(void)
 250:/home/jonas/warwick/3dProfilometer/xpcc/ext/stm32f4xx_lib/STM32F4xx_StdPeriph_Driver/src/stm32f4xx_hash.c **** {
 161              		.loc 1 250 0
 162              		.cfi_startproc
 163              		@ args = 0, pretend = 0, frame = 0
 164              		@ frame_needed = 0, uses_anonymous_args = 0
 165              		@ link register save eliminated.
 251:/home/jonas/warwick/3dProfilometer/xpcc/ext/stm32f4xx_lib/STM32F4xx_StdPeriph_Driver/src/stm32f4xx_hash.c ****   /* Reset the HASH processor core */
 252:/home/jonas/warwick/3dProfilometer/xpcc/ext/stm32f4xx_lib/STM32F4xx_StdPeriph_Driver/src/stm32f4xx_hash.c ****   HASH->CR |= HASH_CR_INIT;
 166              		.loc 1 252 0
 167 0000 024B     		ldr	r3, .L11
 168 0002 1A68     		ldr	r2, [r3, #0]
 169 0004 42F00402 		orr	r2, r2, #4
 170 0008 1A60     		str	r2, [r3, #0]
 171 000a 7047     		bx	lr
 172              	.L12:
 173              		.align	2
 174              	.L11:
 175 000c 00040650 		.word	1342571520
 176              		.cfi_endproc
 177              	.LFE113:
 179              		.section	.text.HASH_SetLastWordValidBitsNbr,"ax",%progbits
 180              		.align	2
 181              		.global	HASH_SetLastWordValidBitsNbr
 182              		.thumb
 183              		.thumb_func
 185              	HASH_SetLastWordValidBitsNbr:
 186              	.LFB114:
 253:/home/jonas/warwick/3dProfilometer/xpcc/ext/stm32f4xx_lib/STM32F4xx_StdPeriph_Driver/src/stm32f4xx_hash.c **** }
 254:/home/jonas/warwick/3dProfilometer/xpcc/ext/stm32f4xx_lib/STM32F4xx_StdPeriph_Driver/src/stm32f4xx_hash.c **** /**
 255:/home/jonas/warwick/3dProfilometer/xpcc/ext/stm32f4xx_lib/STM32F4xx_StdPeriph_Driver/src/stm32f4xx_hash.c ****   * @}
 256:/home/jonas/warwick/3dProfilometer/xpcc/ext/stm32f4xx_lib/STM32F4xx_StdPeriph_Driver/src/stm32f4xx_hash.c ****   */
 257:/home/jonas/warwick/3dProfilometer/xpcc/ext/stm32f4xx_lib/STM32F4xx_StdPeriph_Driver/src/stm32f4xx_hash.c ****  
 258:/home/jonas/warwick/3dProfilometer/xpcc/ext/stm32f4xx_lib/STM32F4xx_StdPeriph_Driver/src/stm32f4xx_hash.c **** /** @defgroup HASH_Group2 Message Digest generation functions
 259:/home/jonas/warwick/3dProfilometer/xpcc/ext/stm32f4xx_lib/STM32F4xx_StdPeriph_Driver/src/stm32f4xx_hash.c ****  *  @brief    Message Digest generation functions
 260:/home/jonas/warwick/3dProfilometer/xpcc/ext/stm32f4xx_lib/STM32F4xx_StdPeriph_Driver/src/stm32f4xx_hash.c ****  *
 261:/home/jonas/warwick/3dProfilometer/xpcc/ext/stm32f4xx_lib/STM32F4xx_StdPeriph_Driver/src/stm32f4xx_hash.c **** @verbatim    
 262:/home/jonas/warwick/3dProfilometer/xpcc/ext/stm32f4xx_lib/STM32F4xx_StdPeriph_Driver/src/stm32f4xx_hash.c ****  ===============================================================================
 263:/home/jonas/warwick/3dProfilometer/xpcc/ext/stm32f4xx_lib/STM32F4xx_StdPeriph_Driver/src/stm32f4xx_hash.c ****                       Message Digest generation functions
 264:/home/jonas/warwick/3dProfilometer/xpcc/ext/stm32f4xx_lib/STM32F4xx_StdPeriph_Driver/src/stm32f4xx_hash.c ****  ===============================================================================  
 265:/home/jonas/warwick/3dProfilometer/xpcc/ext/stm32f4xx_lib/STM32F4xx_StdPeriph_Driver/src/stm32f4xx_hash.c ****   This section provides functions allowing the generation of message digest: 
 266:/home/jonas/warwick/3dProfilometer/xpcc/ext/stm32f4xx_lib/STM32F4xx_StdPeriph_Driver/src/stm32f4xx_hash.c ****   - Push data in the IN FIFO : using HASH_DataIn()
 267:/home/jonas/warwick/3dProfilometer/xpcc/ext/stm32f4xx_lib/STM32F4xx_StdPeriph_Driver/src/stm32f4xx_hash.c ****   - Get the number of words set in IN FIFO, use HASH_GetInFIFOWordsNbr()  
 268:/home/jonas/warwick/3dProfilometer/xpcc/ext/stm32f4xx_lib/STM32F4xx_StdPeriph_Driver/src/stm32f4xx_hash.c ****   - set the last word valid bits number using HASH_SetLastWordValidBitsNbr() 
 269:/home/jonas/warwick/3dProfilometer/xpcc/ext/stm32f4xx_lib/STM32F4xx_StdPeriph_Driver/src/stm32f4xx_hash.c ****   - start digest calculation : using HASH_StartDigest()
 270:/home/jonas/warwick/3dProfilometer/xpcc/ext/stm32f4xx_lib/STM32F4xx_StdPeriph_Driver/src/stm32f4xx_hash.c ****   - Get the Digest message : using HASH_GetDigest()
 271:/home/jonas/warwick/3dProfilometer/xpcc/ext/stm32f4xx_lib/STM32F4xx_StdPeriph_Driver/src/stm32f4xx_hash.c ****  
 272:/home/jonas/warwick/3dProfilometer/xpcc/ext/stm32f4xx_lib/STM32F4xx_StdPeriph_Driver/src/stm32f4xx_hash.c **** @endverbatim
 273:/home/jonas/warwick/3dProfilometer/xpcc/ext/stm32f4xx_lib/STM32F4xx_StdPeriph_Driver/src/stm32f4xx_hash.c ****   * @{
 274:/home/jonas/warwick/3dProfilometer/xpcc/ext/stm32f4xx_lib/STM32F4xx_StdPeriph_Driver/src/stm32f4xx_hash.c ****   */
 275:/home/jonas/warwick/3dProfilometer/xpcc/ext/stm32f4xx_lib/STM32F4xx_StdPeriph_Driver/src/stm32f4xx_hash.c **** 
 276:/home/jonas/warwick/3dProfilometer/xpcc/ext/stm32f4xx_lib/STM32F4xx_StdPeriph_Driver/src/stm32f4xx_hash.c **** 
 277:/home/jonas/warwick/3dProfilometer/xpcc/ext/stm32f4xx_lib/STM32F4xx_StdPeriph_Driver/src/stm32f4xx_hash.c **** /**
 278:/home/jonas/warwick/3dProfilometer/xpcc/ext/stm32f4xx_lib/STM32F4xx_StdPeriph_Driver/src/stm32f4xx_hash.c ****   * @brief  Configure the Number of valid bits in last word of the message
 279:/home/jonas/warwick/3dProfilometer/xpcc/ext/stm32f4xx_lib/STM32F4xx_StdPeriph_Driver/src/stm32f4xx_hash.c ****   * @param  ValidNumber: Number of valid bits in last word of the message.
 280:/home/jonas/warwick/3dProfilometer/xpcc/ext/stm32f4xx_lib/STM32F4xx_StdPeriph_Driver/src/stm32f4xx_hash.c ****   *           This parameter must be a number between 0 and 0x1F.
 281:/home/jonas/warwick/3dProfilometer/xpcc/ext/stm32f4xx_lib/STM32F4xx_StdPeriph_Driver/src/stm32f4xx_hash.c ****   *             - 0x00: All 32 bits of the last data written are valid
 282:/home/jonas/warwick/3dProfilometer/xpcc/ext/stm32f4xx_lib/STM32F4xx_StdPeriph_Driver/src/stm32f4xx_hash.c ****   *             - 0x01: Only bit [0] of the last data written is valid
 283:/home/jonas/warwick/3dProfilometer/xpcc/ext/stm32f4xx_lib/STM32F4xx_StdPeriph_Driver/src/stm32f4xx_hash.c ****   *             - 0x02: Only bits[1:0] of the last data written are valid
 284:/home/jonas/warwick/3dProfilometer/xpcc/ext/stm32f4xx_lib/STM32F4xx_StdPeriph_Driver/src/stm32f4xx_hash.c ****   *             - 0x03: Only bits[2:0] of the last data written are valid
 285:/home/jonas/warwick/3dProfilometer/xpcc/ext/stm32f4xx_lib/STM32F4xx_StdPeriph_Driver/src/stm32f4xx_hash.c ****   *             - ...
 286:/home/jonas/warwick/3dProfilometer/xpcc/ext/stm32f4xx_lib/STM32F4xx_StdPeriph_Driver/src/stm32f4xx_hash.c ****   *             - 0x1F: Only bits[30:0] of the last data written are valid    
 287:/home/jonas/warwick/3dProfilometer/xpcc/ext/stm32f4xx_lib/STM32F4xx_StdPeriph_Driver/src/stm32f4xx_hash.c ****   * @note   The Number of valid bits must be set before to start the message 
 288:/home/jonas/warwick/3dProfilometer/xpcc/ext/stm32f4xx_lib/STM32F4xx_StdPeriph_Driver/src/stm32f4xx_hash.c ****   *         digest competition (in Hash and HMAC) and key treatment(in HMAC).    
 289:/home/jonas/warwick/3dProfilometer/xpcc/ext/stm32f4xx_lib/STM32F4xx_StdPeriph_Driver/src/stm32f4xx_hash.c ****   * @retval None
 290:/home/jonas/warwick/3dProfilometer/xpcc/ext/stm32f4xx_lib/STM32F4xx_StdPeriph_Driver/src/stm32f4xx_hash.c ****   */
 291:/home/jonas/warwick/3dProfilometer/xpcc/ext/stm32f4xx_lib/STM32F4xx_StdPeriph_Driver/src/stm32f4xx_hash.c **** void HASH_SetLastWordValidBitsNbr(uint16_t ValidNumber)
 292:/home/jonas/warwick/3dProfilometer/xpcc/ext/stm32f4xx_lib/STM32F4xx_StdPeriph_Driver/src/stm32f4xx_hash.c **** {
 187              		.loc 1 292 0
 188              		.cfi_startproc
 189              		@ args = 0, pretend = 0, frame = 0
 190              		@ frame_needed = 0, uses_anonymous_args = 0
 191              		@ link register save eliminated.
 192              	.LVL4:
 293:/home/jonas/warwick/3dProfilometer/xpcc/ext/stm32f4xx_lib/STM32F4xx_StdPeriph_Driver/src/stm32f4xx_hash.c ****   /* Check the parameters */
 294:/home/jonas/warwick/3dProfilometer/xpcc/ext/stm32f4xx_lib/STM32F4xx_StdPeriph_Driver/src/stm32f4xx_hash.c ****   assert_param(IS_HASH_VALIDBITSNUMBER(ValidNumber));
 295:/home/jonas/warwick/3dProfilometer/xpcc/ext/stm32f4xx_lib/STM32F4xx_StdPeriph_Driver/src/stm32f4xx_hash.c ****   
 296:/home/jonas/warwick/3dProfilometer/xpcc/ext/stm32f4xx_lib/STM32F4xx_StdPeriph_Driver/src/stm32f4xx_hash.c ****   /* Configure the Number of valid bits in last word of the message */
 297:/home/jonas/warwick/3dProfilometer/xpcc/ext/stm32f4xx_lib/STM32F4xx_StdPeriph_Driver/src/stm32f4xx_hash.c ****   HASH->STR &= ~(HASH_STR_NBW);
 193              		.loc 1 297 0
 194 0000 044B     		ldr	r3, .L14
 195 0002 9A68     		ldr	r2, [r3, #8]
 196 0004 22F01F02 		bic	r2, r2, #31
 197 0008 9A60     		str	r2, [r3, #8]
 298:/home/jonas/warwick/3dProfilometer/xpcc/ext/stm32f4xx_lib/STM32F4xx_StdPeriph_Driver/src/stm32f4xx_hash.c ****   HASH->STR |= ValidNumber;
 198              		.loc 1 298 0
 199 000a 9A68     		ldr	r2, [r3, #8]
 200 000c 1043     		orrs	r0, r0, r2
 201              	.LVL5:
 202 000e 9860     		str	r0, [r3, #8]
 203 0010 7047     		bx	lr
 204              	.L15:
 205 0012 00BF     		.align	2
 206              	.L14:
 207 0014 00040650 		.word	1342571520
 208              		.cfi_endproc
 209              	.LFE114:
 211              		.section	.text.HASH_DataIn,"ax",%progbits
 212              		.align	2
 213              		.global	HASH_DataIn
 214              		.thumb
 215              		.thumb_func
 217              	HASH_DataIn:
 218              	.LFB115:
 299:/home/jonas/warwick/3dProfilometer/xpcc/ext/stm32f4xx_lib/STM32F4xx_StdPeriph_Driver/src/stm32f4xx_hash.c **** }
 300:/home/jonas/warwick/3dProfilometer/xpcc/ext/stm32f4xx_lib/STM32F4xx_StdPeriph_Driver/src/stm32f4xx_hash.c **** 
 301:/home/jonas/warwick/3dProfilometer/xpcc/ext/stm32f4xx_lib/STM32F4xx_StdPeriph_Driver/src/stm32f4xx_hash.c **** /**
 302:/home/jonas/warwick/3dProfilometer/xpcc/ext/stm32f4xx_lib/STM32F4xx_StdPeriph_Driver/src/stm32f4xx_hash.c ****   * @brief  Writes data in the Data Input FIFO
 303:/home/jonas/warwick/3dProfilometer/xpcc/ext/stm32f4xx_lib/STM32F4xx_StdPeriph_Driver/src/stm32f4xx_hash.c ****   * @param  Data: new data of the message to be processed.
 304:/home/jonas/warwick/3dProfilometer/xpcc/ext/stm32f4xx_lib/STM32F4xx_StdPeriph_Driver/src/stm32f4xx_hash.c ****   * @retval None
 305:/home/jonas/warwick/3dProfilometer/xpcc/ext/stm32f4xx_lib/STM32F4xx_StdPeriph_Driver/src/stm32f4xx_hash.c ****   */
 306:/home/jonas/warwick/3dProfilometer/xpcc/ext/stm32f4xx_lib/STM32F4xx_StdPeriph_Driver/src/stm32f4xx_hash.c **** void HASH_DataIn(uint32_t Data)
 307:/home/jonas/warwick/3dProfilometer/xpcc/ext/stm32f4xx_lib/STM32F4xx_StdPeriph_Driver/src/stm32f4xx_hash.c **** {
 219              		.loc 1 307 0
 220              		.cfi_startproc
 221              		@ args = 0, pretend = 0, frame = 0
 222              		@ frame_needed = 0, uses_anonymous_args = 0
 223              		@ link register save eliminated.
 224              	.LVL6:
 308:/home/jonas/warwick/3dProfilometer/xpcc/ext/stm32f4xx_lib/STM32F4xx_StdPeriph_Driver/src/stm32f4xx_hash.c ****   /* Write in the DIN register a new data */
 309:/home/jonas/warwick/3dProfilometer/xpcc/ext/stm32f4xx_lib/STM32F4xx_StdPeriph_Driver/src/stm32f4xx_hash.c ****   HASH->DIN = Data;
 225              		.loc 1 309 0
 226 0000 014B     		ldr	r3, .L17
 227 0002 5860     		str	r0, [r3, #4]
 228 0004 7047     		bx	lr
 229              	.L18:
 230 0006 00BF     		.align	2
 231              	.L17:
 232 0008 00040650 		.word	1342571520
 233              		.cfi_endproc
 234              	.LFE115:
 236              		.section	.text.HASH_GetInFIFOWordsNbr,"ax",%progbits
 237              		.align	2
 238              		.global	HASH_GetInFIFOWordsNbr
 239              		.thumb
 240              		.thumb_func
 242              	HASH_GetInFIFOWordsNbr:
 243              	.LFB116:
 310:/home/jonas/warwick/3dProfilometer/xpcc/ext/stm32f4xx_lib/STM32F4xx_StdPeriph_Driver/src/stm32f4xx_hash.c **** }
 311:/home/jonas/warwick/3dProfilometer/xpcc/ext/stm32f4xx_lib/STM32F4xx_StdPeriph_Driver/src/stm32f4xx_hash.c **** 
 312:/home/jonas/warwick/3dProfilometer/xpcc/ext/stm32f4xx_lib/STM32F4xx_StdPeriph_Driver/src/stm32f4xx_hash.c **** /**
 313:/home/jonas/warwick/3dProfilometer/xpcc/ext/stm32f4xx_lib/STM32F4xx_StdPeriph_Driver/src/stm32f4xx_hash.c ****   * @brief  Returns the number of words already pushed into the IN FIFO.
 314:/home/jonas/warwick/3dProfilometer/xpcc/ext/stm32f4xx_lib/STM32F4xx_StdPeriph_Driver/src/stm32f4xx_hash.c ****   * @param  None
 315:/home/jonas/warwick/3dProfilometer/xpcc/ext/stm32f4xx_lib/STM32F4xx_StdPeriph_Driver/src/stm32f4xx_hash.c ****   * @retval The value of words already pushed into the IN FIFO.
 316:/home/jonas/warwick/3dProfilometer/xpcc/ext/stm32f4xx_lib/STM32F4xx_StdPeriph_Driver/src/stm32f4xx_hash.c ****   */
 317:/home/jonas/warwick/3dProfilometer/xpcc/ext/stm32f4xx_lib/STM32F4xx_StdPeriph_Driver/src/stm32f4xx_hash.c **** uint8_t HASH_GetInFIFOWordsNbr(void)
 318:/home/jonas/warwick/3dProfilometer/xpcc/ext/stm32f4xx_lib/STM32F4xx_StdPeriph_Driver/src/stm32f4xx_hash.c **** {
 244              		.loc 1 318 0
 245              		.cfi_startproc
 246              		@ args = 0, pretend = 0, frame = 0
 247              		@ frame_needed = 0, uses_anonymous_args = 0
 248              		@ link register save eliminated.
 319:/home/jonas/warwick/3dProfilometer/xpcc/ext/stm32f4xx_lib/STM32F4xx_StdPeriph_Driver/src/stm32f4xx_hash.c ****   /* Return the value of NBW bits */
 320:/home/jonas/warwick/3dProfilometer/xpcc/ext/stm32f4xx_lib/STM32F4xx_StdPeriph_Driver/src/stm32f4xx_hash.c ****   return ((HASH->CR & HASH_CR_NBW) >> 8);
 249              		.loc 1 320 0
 250 0000 024B     		ldr	r3, .L20
 251 0002 1868     		ldr	r0, [r3, #0]
 321:/home/jonas/warwick/3dProfilometer/xpcc/ext/stm32f4xx_lib/STM32F4xx_StdPeriph_Driver/src/stm32f4xx_hash.c **** }
 252              		.loc 1 321 0
 253 0004 C0F30320 		ubfx	r0, r0, #8, #4
 254 0008 7047     		bx	lr
 255              	.L21:
 256 000a 00BF     		.align	2
 257              	.L20:
 258 000c 00040650 		.word	1342571520
 259              		.cfi_endproc
 260              	.LFE116:
 262              		.section	.text.HASH_GetDigest,"ax",%progbits
 263              		.align	2
 264              		.global	HASH_GetDigest
 265              		.thumb
 266              		.thumb_func
 268              	HASH_GetDigest:
 269              	.LFB117:
 322:/home/jonas/warwick/3dProfilometer/xpcc/ext/stm32f4xx_lib/STM32F4xx_StdPeriph_Driver/src/stm32f4xx_hash.c **** 
 323:/home/jonas/warwick/3dProfilometer/xpcc/ext/stm32f4xx_lib/STM32F4xx_StdPeriph_Driver/src/stm32f4xx_hash.c **** /**
 324:/home/jonas/warwick/3dProfilometer/xpcc/ext/stm32f4xx_lib/STM32F4xx_StdPeriph_Driver/src/stm32f4xx_hash.c ****   * @brief  Provides the message digest result.
 325:/home/jonas/warwick/3dProfilometer/xpcc/ext/stm32f4xx_lib/STM32F4xx_StdPeriph_Driver/src/stm32f4xx_hash.c ****   * @note   In MD5 mode, Data[4] filed of HASH_MsgDigest structure is not used
 326:/home/jonas/warwick/3dProfilometer/xpcc/ext/stm32f4xx_lib/STM32F4xx_StdPeriph_Driver/src/stm32f4xx_hash.c ****   *         and is read as zero.  
 327:/home/jonas/warwick/3dProfilometer/xpcc/ext/stm32f4xx_lib/STM32F4xx_StdPeriph_Driver/src/stm32f4xx_hash.c ****   * @param  HASH_MessageDigest: pointer to a HASH_MsgDigest structure which will 
 328:/home/jonas/warwick/3dProfilometer/xpcc/ext/stm32f4xx_lib/STM32F4xx_StdPeriph_Driver/src/stm32f4xx_hash.c ****   *         hold the message digest result 
 329:/home/jonas/warwick/3dProfilometer/xpcc/ext/stm32f4xx_lib/STM32F4xx_StdPeriph_Driver/src/stm32f4xx_hash.c ****   * @retval None
 330:/home/jonas/warwick/3dProfilometer/xpcc/ext/stm32f4xx_lib/STM32F4xx_StdPeriph_Driver/src/stm32f4xx_hash.c ****   */
 331:/home/jonas/warwick/3dProfilometer/xpcc/ext/stm32f4xx_lib/STM32F4xx_StdPeriph_Driver/src/stm32f4xx_hash.c **** void HASH_GetDigest(HASH_MsgDigest* HASH_MessageDigest)
 332:/home/jonas/warwick/3dProfilometer/xpcc/ext/stm32f4xx_lib/STM32F4xx_StdPeriph_Driver/src/stm32f4xx_hash.c **** {
 270              		.loc 1 332 0
 271              		.cfi_startproc
 272              		@ args = 0, pretend = 0, frame = 0
 273              		@ frame_needed = 0, uses_anonymous_args = 0
 274              		@ link register save eliminated.
 275              	.LVL7:
 333:/home/jonas/warwick/3dProfilometer/xpcc/ext/stm32f4xx_lib/STM32F4xx_StdPeriph_Driver/src/stm32f4xx_hash.c ****   /* Get the data field */
 334:/home/jonas/warwick/3dProfilometer/xpcc/ext/stm32f4xx_lib/STM32F4xx_StdPeriph_Driver/src/stm32f4xx_hash.c ****   HASH_MessageDigest->Data[0] = HASH->HR[0];
 276              		.loc 1 334 0
 277 0000 054B     		ldr	r3, .L23
 278 0002 DA68     		ldr	r2, [r3, #12]
 279 0004 0260     		str	r2, [r0, #0]
 335:/home/jonas/warwick/3dProfilometer/xpcc/ext/stm32f4xx_lib/STM32F4xx_StdPeriph_Driver/src/stm32f4xx_hash.c ****   HASH_MessageDigest->Data[1] = HASH->HR[1];
 280              		.loc 1 335 0
 281 0006 1A69     		ldr	r2, [r3, #16]
 282 0008 4260     		str	r2, [r0, #4]
 336:/home/jonas/warwick/3dProfilometer/xpcc/ext/stm32f4xx_lib/STM32F4xx_StdPeriph_Driver/src/stm32f4xx_hash.c ****   HASH_MessageDigest->Data[2] = HASH->HR[2];
 283              		.loc 1 336 0
 284 000a 5A69     		ldr	r2, [r3, #20]
 285 000c 8260     		str	r2, [r0, #8]
 337:/home/jonas/warwick/3dProfilometer/xpcc/ext/stm32f4xx_lib/STM32F4xx_StdPeriph_Driver/src/stm32f4xx_hash.c ****   HASH_MessageDigest->Data[3] = HASH->HR[3];
 286              		.loc 1 337 0
 287 000e 9A69     		ldr	r2, [r3, #24]
 288 0010 C260     		str	r2, [r0, #12]
 338:/home/jonas/warwick/3dProfilometer/xpcc/ext/stm32f4xx_lib/STM32F4xx_StdPeriph_Driver/src/stm32f4xx_hash.c ****   HASH_MessageDigest->Data[4] = HASH->HR[4];
 289              		.loc 1 338 0
 290 0012 DB69     		ldr	r3, [r3, #28]
 291 0014 0361     		str	r3, [r0, #16]
 292 0016 7047     		bx	lr
 293              	.L24:
 294              		.align	2
 295              	.L23:
 296 0018 00040650 		.word	1342571520
 297              		.cfi_endproc
 298              	.LFE117:
 300              		.section	.text.HASH_StartDigest,"ax",%progbits
 301              		.align	2
 302              		.global	HASH_StartDigest
 303              		.thumb
 304              		.thumb_func
 306              	HASH_StartDigest:
 307              	.LFB118:
 339:/home/jonas/warwick/3dProfilometer/xpcc/ext/stm32f4xx_lib/STM32F4xx_StdPeriph_Driver/src/stm32f4xx_hash.c **** }
 340:/home/jonas/warwick/3dProfilometer/xpcc/ext/stm32f4xx_lib/STM32F4xx_StdPeriph_Driver/src/stm32f4xx_hash.c **** 
 341:/home/jonas/warwick/3dProfilometer/xpcc/ext/stm32f4xx_lib/STM32F4xx_StdPeriph_Driver/src/stm32f4xx_hash.c **** /**
 342:/home/jonas/warwick/3dProfilometer/xpcc/ext/stm32f4xx_lib/STM32F4xx_StdPeriph_Driver/src/stm32f4xx_hash.c ****   * @brief  Starts the message padding and calculation of the final message     
 343:/home/jonas/warwick/3dProfilometer/xpcc/ext/stm32f4xx_lib/STM32F4xx_StdPeriph_Driver/src/stm32f4xx_hash.c ****   * @param  None
 344:/home/jonas/warwick/3dProfilometer/xpcc/ext/stm32f4xx_lib/STM32F4xx_StdPeriph_Driver/src/stm32f4xx_hash.c ****   * @retval None
 345:/home/jonas/warwick/3dProfilometer/xpcc/ext/stm32f4xx_lib/STM32F4xx_StdPeriph_Driver/src/stm32f4xx_hash.c ****   */
 346:/home/jonas/warwick/3dProfilometer/xpcc/ext/stm32f4xx_lib/STM32F4xx_StdPeriph_Driver/src/stm32f4xx_hash.c **** void HASH_StartDigest(void)
 347:/home/jonas/warwick/3dProfilometer/xpcc/ext/stm32f4xx_lib/STM32F4xx_StdPeriph_Driver/src/stm32f4xx_hash.c **** {
 308              		.loc 1 347 0
 309              		.cfi_startproc
 310              		@ args = 0, pretend = 0, frame = 0
 311              		@ frame_needed = 0, uses_anonymous_args = 0
 312              		@ link register save eliminated.
 348:/home/jonas/warwick/3dProfilometer/xpcc/ext/stm32f4xx_lib/STM32F4xx_StdPeriph_Driver/src/stm32f4xx_hash.c ****   /* Start the Digest calculation */
 349:/home/jonas/warwick/3dProfilometer/xpcc/ext/stm32f4xx_lib/STM32F4xx_StdPeriph_Driver/src/stm32f4xx_hash.c ****   HASH->STR |= HASH_STR_DCAL;
 313              		.loc 1 349 0
 314 0000 024B     		ldr	r3, .L26
 315 0002 9A68     		ldr	r2, [r3, #8]
 316 0004 42F48072 		orr	r2, r2, #256
 317 0008 9A60     		str	r2, [r3, #8]
 318 000a 7047     		bx	lr
 319              	.L27:
 320              		.align	2
 321              	.L26:
 322 000c 00040650 		.word	1342571520
 323              		.cfi_endproc
 324              	.LFE118:
 326              		.section	.text.HASH_SaveContext,"ax",%progbits
 327              		.align	2
 328              		.global	HASH_SaveContext
 329              		.thumb
 330              		.thumb_func
 332              	HASH_SaveContext:
 333              	.LFB119:
 350:/home/jonas/warwick/3dProfilometer/xpcc/ext/stm32f4xx_lib/STM32F4xx_StdPeriph_Driver/src/stm32f4xx_hash.c **** }
 351:/home/jonas/warwick/3dProfilometer/xpcc/ext/stm32f4xx_lib/STM32F4xx_StdPeriph_Driver/src/stm32f4xx_hash.c **** /**
 352:/home/jonas/warwick/3dProfilometer/xpcc/ext/stm32f4xx_lib/STM32F4xx_StdPeriph_Driver/src/stm32f4xx_hash.c ****   * @}
 353:/home/jonas/warwick/3dProfilometer/xpcc/ext/stm32f4xx_lib/STM32F4xx_StdPeriph_Driver/src/stm32f4xx_hash.c ****   */
 354:/home/jonas/warwick/3dProfilometer/xpcc/ext/stm32f4xx_lib/STM32F4xx_StdPeriph_Driver/src/stm32f4xx_hash.c **** 
 355:/home/jonas/warwick/3dProfilometer/xpcc/ext/stm32f4xx_lib/STM32F4xx_StdPeriph_Driver/src/stm32f4xx_hash.c **** /** @defgroup HASH_Group3 Context swapping functions
 356:/home/jonas/warwick/3dProfilometer/xpcc/ext/stm32f4xx_lib/STM32F4xx_StdPeriph_Driver/src/stm32f4xx_hash.c ****  *  @brief   Context swapping functions
 357:/home/jonas/warwick/3dProfilometer/xpcc/ext/stm32f4xx_lib/STM32F4xx_StdPeriph_Driver/src/stm32f4xx_hash.c ****  *
 358:/home/jonas/warwick/3dProfilometer/xpcc/ext/stm32f4xx_lib/STM32F4xx_StdPeriph_Driver/src/stm32f4xx_hash.c **** @verbatim   
 359:/home/jonas/warwick/3dProfilometer/xpcc/ext/stm32f4xx_lib/STM32F4xx_StdPeriph_Driver/src/stm32f4xx_hash.c ****  ===============================================================================
 360:/home/jonas/warwick/3dProfilometer/xpcc/ext/stm32f4xx_lib/STM32F4xx_StdPeriph_Driver/src/stm32f4xx_hash.c ****                              Context swapping functions
 361:/home/jonas/warwick/3dProfilometer/xpcc/ext/stm32f4xx_lib/STM32F4xx_StdPeriph_Driver/src/stm32f4xx_hash.c ****  ===============================================================================  
 362:/home/jonas/warwick/3dProfilometer/xpcc/ext/stm32f4xx_lib/STM32F4xx_StdPeriph_Driver/src/stm32f4xx_hash.c **** 
 363:/home/jonas/warwick/3dProfilometer/xpcc/ext/stm32f4xx_lib/STM32F4xx_StdPeriph_Driver/src/stm32f4xx_hash.c ****   This section provides functions allowing to save and store HASH Context
 364:/home/jonas/warwick/3dProfilometer/xpcc/ext/stm32f4xx_lib/STM32F4xx_StdPeriph_Driver/src/stm32f4xx_hash.c ****   
 365:/home/jonas/warwick/3dProfilometer/xpcc/ext/stm32f4xx_lib/STM32F4xx_StdPeriph_Driver/src/stm32f4xx_hash.c ****   It is possible to interrupt a HASH/HMAC process to perform another processing 
 366:/home/jonas/warwick/3dProfilometer/xpcc/ext/stm32f4xx_lib/STM32F4xx_StdPeriph_Driver/src/stm32f4xx_hash.c ****   with a higher priority, and to complete the interrupted process later on, when 
 367:/home/jonas/warwick/3dProfilometer/xpcc/ext/stm32f4xx_lib/STM32F4xx_StdPeriph_Driver/src/stm32f4xx_hash.c ****   the higher priority task is complete. To do so, the context of the interrupted 
 368:/home/jonas/warwick/3dProfilometer/xpcc/ext/stm32f4xx_lib/STM32F4xx_StdPeriph_Driver/src/stm32f4xx_hash.c ****   task must be saved from the HASH registers to memory, and then be restored 
 369:/home/jonas/warwick/3dProfilometer/xpcc/ext/stm32f4xx_lib/STM32F4xx_StdPeriph_Driver/src/stm32f4xx_hash.c ****   from memory to the HASH registers.
 370:/home/jonas/warwick/3dProfilometer/xpcc/ext/stm32f4xx_lib/STM32F4xx_StdPeriph_Driver/src/stm32f4xx_hash.c ****   
 371:/home/jonas/warwick/3dProfilometer/xpcc/ext/stm32f4xx_lib/STM32F4xx_StdPeriph_Driver/src/stm32f4xx_hash.c ****   1. To save the current context, use HASH_SaveContext() function
 372:/home/jonas/warwick/3dProfilometer/xpcc/ext/stm32f4xx_lib/STM32F4xx_StdPeriph_Driver/src/stm32f4xx_hash.c ****   2. To restore the saved context, use HASH_RestoreContext() function 
 373:/home/jonas/warwick/3dProfilometer/xpcc/ext/stm32f4xx_lib/STM32F4xx_StdPeriph_Driver/src/stm32f4xx_hash.c ****   
 374:/home/jonas/warwick/3dProfilometer/xpcc/ext/stm32f4xx_lib/STM32F4xx_StdPeriph_Driver/src/stm32f4xx_hash.c **** 
 375:/home/jonas/warwick/3dProfilometer/xpcc/ext/stm32f4xx_lib/STM32F4xx_StdPeriph_Driver/src/stm32f4xx_hash.c **** @endverbatim
 376:/home/jonas/warwick/3dProfilometer/xpcc/ext/stm32f4xx_lib/STM32F4xx_StdPeriph_Driver/src/stm32f4xx_hash.c ****   * @{
 377:/home/jonas/warwick/3dProfilometer/xpcc/ext/stm32f4xx_lib/STM32F4xx_StdPeriph_Driver/src/stm32f4xx_hash.c ****   */
 378:/home/jonas/warwick/3dProfilometer/xpcc/ext/stm32f4xx_lib/STM32F4xx_StdPeriph_Driver/src/stm32f4xx_hash.c ****   
 379:/home/jonas/warwick/3dProfilometer/xpcc/ext/stm32f4xx_lib/STM32F4xx_StdPeriph_Driver/src/stm32f4xx_hash.c **** /**
 380:/home/jonas/warwick/3dProfilometer/xpcc/ext/stm32f4xx_lib/STM32F4xx_StdPeriph_Driver/src/stm32f4xx_hash.c ****   * @brief  Save the Hash peripheral Context. 
 381:/home/jonas/warwick/3dProfilometer/xpcc/ext/stm32f4xx_lib/STM32F4xx_StdPeriph_Driver/src/stm32f4xx_hash.c ****   * @note   The context can be saved only when no block is currently being 
 382:/home/jonas/warwick/3dProfilometer/xpcc/ext/stm32f4xx_lib/STM32F4xx_StdPeriph_Driver/src/stm32f4xx_hash.c ****   *         processed. So user must wait for DINIS = 1 (the last block has been 
 383:/home/jonas/warwick/3dProfilometer/xpcc/ext/stm32f4xx_lib/STM32F4xx_StdPeriph_Driver/src/stm32f4xx_hash.c ****   *         processed and the input FIFO is empty) or NBW != 0 (the FIFO is not 
 384:/home/jonas/warwick/3dProfilometer/xpcc/ext/stm32f4xx_lib/STM32F4xx_StdPeriph_Driver/src/stm32f4xx_hash.c ****   *         full and no processing is ongoing).   
 385:/home/jonas/warwick/3dProfilometer/xpcc/ext/stm32f4xx_lib/STM32F4xx_StdPeriph_Driver/src/stm32f4xx_hash.c ****   * @param  HASH_ContextSave: pointer to a HASH_Context structure that contains
 386:/home/jonas/warwick/3dProfilometer/xpcc/ext/stm32f4xx_lib/STM32F4xx_StdPeriph_Driver/src/stm32f4xx_hash.c ****   *         the repository for current context.
 387:/home/jonas/warwick/3dProfilometer/xpcc/ext/stm32f4xx_lib/STM32F4xx_StdPeriph_Driver/src/stm32f4xx_hash.c ****   * @retval None
 388:/home/jonas/warwick/3dProfilometer/xpcc/ext/stm32f4xx_lib/STM32F4xx_StdPeriph_Driver/src/stm32f4xx_hash.c ****   */
 389:/home/jonas/warwick/3dProfilometer/xpcc/ext/stm32f4xx_lib/STM32F4xx_StdPeriph_Driver/src/stm32f4xx_hash.c **** void HASH_SaveContext(HASH_Context* HASH_ContextSave)
 390:/home/jonas/warwick/3dProfilometer/xpcc/ext/stm32f4xx_lib/STM32F4xx_StdPeriph_Driver/src/stm32f4xx_hash.c **** {
 334              		.loc 1 390 0
 335              		.cfi_startproc
 336              		@ args = 0, pretend = 0, frame = 0
 337              		@ frame_needed = 0, uses_anonymous_args = 0
 338              		@ link register save eliminated.
 339              	.LVL8:
 391:/home/jonas/warwick/3dProfilometer/xpcc/ext/stm32f4xx_lib/STM32F4xx_StdPeriph_Driver/src/stm32f4xx_hash.c ****   uint8_t i = 0;
 392:/home/jonas/warwick/3dProfilometer/xpcc/ext/stm32f4xx_lib/STM32F4xx_StdPeriph_Driver/src/stm32f4xx_hash.c ****   
 393:/home/jonas/warwick/3dProfilometer/xpcc/ext/stm32f4xx_lib/STM32F4xx_StdPeriph_Driver/src/stm32f4xx_hash.c ****   /* save context registers */
 394:/home/jonas/warwick/3dProfilometer/xpcc/ext/stm32f4xx_lib/STM32F4xx_StdPeriph_Driver/src/stm32f4xx_hash.c ****   HASH_ContextSave->HASH_IMR = HASH->IMR;  
 340              		.loc 1 394 0
 341 0000 0B4B     		ldr	r3, .L31
 342 0002 1A6A     		ldr	r2, [r3, #32]
 343 0004 0260     		str	r2, [r0, #0]
 395:/home/jonas/warwick/3dProfilometer/xpcc/ext/stm32f4xx_lib/STM32F4xx_StdPeriph_Driver/src/stm32f4xx_hash.c ****   HASH_ContextSave->HASH_STR = HASH->STR;      
 344              		.loc 1 395 0
 345 0006 9A68     		ldr	r2, [r3, #8]
 390:/home/jonas/warwick/3dProfilometer/xpcc/ext/stm32f4xx_lib/STM32F4xx_StdPeriph_Driver/src/stm32f4xx_hash.c **** {
 346              		.loc 1 390 0
 347 0008 10B4     		push	{r4}
 348              	.LCFI2:
 349              		.cfi_def_cfa_offset 4
 350              		.cfi_offset 4, -4
 351              		.loc 1 395 0
 352 000a 4260     		str	r2, [r0, #4]
 396:/home/jonas/warwick/3dProfilometer/xpcc/ext/stm32f4xx_lib/STM32F4xx_StdPeriph_Driver/src/stm32f4xx_hash.c ****   HASH_ContextSave->HASH_CR  = HASH->CR;     
 353              		.loc 1 396 0
 354 000c 1A68     		ldr	r2, [r3, #0]
 397:/home/jonas/warwick/3dProfilometer/xpcc/ext/stm32f4xx_lib/STM32F4xx_StdPeriph_Driver/src/stm32f4xx_hash.c ****   for(i=0; i<=50;i++)
 355              		.loc 1 397 0
 356 000e 0023     		movs	r3, #0
 396:/home/jonas/warwick/3dProfilometer/xpcc/ext/stm32f4xx_lib/STM32F4xx_StdPeriph_Driver/src/stm32f4xx_hash.c ****   HASH_ContextSave->HASH_CR  = HASH->CR;     
 357              		.loc 1 396 0
 358 0010 8260     		str	r2, [r0, #8]
 359              	.LVL9:
 360              	.L29:
 398:/home/jonas/warwick/3dProfilometer/xpcc/ext/stm32f4xx_lib/STM32F4xx_StdPeriph_Driver/src/stm32f4xx_hash.c ****   {
 399:/home/jonas/warwick/3dProfilometer/xpcc/ext/stm32f4xx_lib/STM32F4xx_StdPeriph_Driver/src/stm32f4xx_hash.c ****      HASH_ContextSave->HASH_CSR[i] = HASH->CSR[i];
 361              		.loc 1 399 0 discriminator 2
 362 0012 03F13E04 		add	r4, r3, #62
 363 0016 064A     		ldr	r2, .L31
 364 0018 00EB8301 		add	r1, r0, r3, lsl #2
 397:/home/jonas/warwick/3dProfilometer/xpcc/ext/stm32f4xx_lib/STM32F4xx_StdPeriph_Driver/src/stm32f4xx_hash.c ****   for(i=0; i<=50;i++)
 365              		.loc 1 397 0 discriminator 2
 366 001c 0133     		adds	r3, r3, #1
 367              		.loc 1 399 0 discriminator 2
 368 001e 52F82420 		ldr	r2, [r2, r4, lsl #2]
 397:/home/jonas/warwick/3dProfilometer/xpcc/ext/stm32f4xx_lib/STM32F4xx_StdPeriph_Driver/src/stm32f4xx_hash.c ****   for(i=0; i<=50;i++)
 369              		.loc 1 397 0 discriminator 2
 370 0022 DBB2     		uxtb	r3, r3
 371              	.LVL10:
 372 0024 332B     		cmp	r3, #51
 373              		.loc 1 399 0 discriminator 2
 374 0026 CA60     		str	r2, [r1, #12]
 397:/home/jonas/warwick/3dProfilometer/xpcc/ext/stm32f4xx_lib/STM32F4xx_StdPeriph_Driver/src/stm32f4xx_hash.c ****   for(i=0; i<=50;i++)
 375              		.loc 1 397 0 discriminator 2
 376 0028 F3D1     		bne	.L29
 400:/home/jonas/warwick/3dProfilometer/xpcc/ext/stm32f4xx_lib/STM32F4xx_StdPeriph_Driver/src/stm32f4xx_hash.c ****   }   
 401:/home/jonas/warwick/3dProfilometer/xpcc/ext/stm32f4xx_lib/STM32F4xx_StdPeriph_Driver/src/stm32f4xx_hash.c **** }
 377              		.loc 1 401 0
 378 002a 10BC     		pop	{r4}
 379 002c 7047     		bx	lr
 380              	.L32:
 381 002e 00BF     		.align	2
 382              	.L31:
 383 0030 00040650 		.word	1342571520
 384              		.cfi_endproc
 385              	.LFE119:
 387              		.section	.text.HASH_RestoreContext,"ax",%progbits
 388              		.align	2
 389              		.global	HASH_RestoreContext
 390              		.thumb
 391              		.thumb_func
 393              	HASH_RestoreContext:
 394              	.LFB120:
 402:/home/jonas/warwick/3dProfilometer/xpcc/ext/stm32f4xx_lib/STM32F4xx_StdPeriph_Driver/src/stm32f4xx_hash.c **** 
 403:/home/jonas/warwick/3dProfilometer/xpcc/ext/stm32f4xx_lib/STM32F4xx_StdPeriph_Driver/src/stm32f4xx_hash.c **** /**
 404:/home/jonas/warwick/3dProfilometer/xpcc/ext/stm32f4xx_lib/STM32F4xx_StdPeriph_Driver/src/stm32f4xx_hash.c ****   * @brief  Restore the Hash peripheral Context.  
 405:/home/jonas/warwick/3dProfilometer/xpcc/ext/stm32f4xx_lib/STM32F4xx_StdPeriph_Driver/src/stm32f4xx_hash.c ****   * @note   After calling this function, user can restart the processing from the
 406:/home/jonas/warwick/3dProfilometer/xpcc/ext/stm32f4xx_lib/STM32F4xx_StdPeriph_Driver/src/stm32f4xx_hash.c ****   *         point where it has been interrupted.  
 407:/home/jonas/warwick/3dProfilometer/xpcc/ext/stm32f4xx_lib/STM32F4xx_StdPeriph_Driver/src/stm32f4xx_hash.c ****   * @param  HASH_ContextRestore: pointer to a HASH_Context structure that contains
 408:/home/jonas/warwick/3dProfilometer/xpcc/ext/stm32f4xx_lib/STM32F4xx_StdPeriph_Driver/src/stm32f4xx_hash.c ****   *         the repository for saved context.
 409:/home/jonas/warwick/3dProfilometer/xpcc/ext/stm32f4xx_lib/STM32F4xx_StdPeriph_Driver/src/stm32f4xx_hash.c ****   * @retval None
 410:/home/jonas/warwick/3dProfilometer/xpcc/ext/stm32f4xx_lib/STM32F4xx_StdPeriph_Driver/src/stm32f4xx_hash.c ****   */
 411:/home/jonas/warwick/3dProfilometer/xpcc/ext/stm32f4xx_lib/STM32F4xx_StdPeriph_Driver/src/stm32f4xx_hash.c **** void HASH_RestoreContext(HASH_Context* HASH_ContextRestore)  
 412:/home/jonas/warwick/3dProfilometer/xpcc/ext/stm32f4xx_lib/STM32F4xx_StdPeriph_Driver/src/stm32f4xx_hash.c **** {
 395              		.loc 1 412 0
 396              		.cfi_startproc
 397              		@ args = 0, pretend = 0, frame = 0
 398              		@ frame_needed = 0, uses_anonymous_args = 0
 399              		@ link register save eliminated.
 400              	.LVL11:
 413:/home/jonas/warwick/3dProfilometer/xpcc/ext/stm32f4xx_lib/STM32F4xx_StdPeriph_Driver/src/stm32f4xx_hash.c ****   uint8_t i = 0;
 414:/home/jonas/warwick/3dProfilometer/xpcc/ext/stm32f4xx_lib/STM32F4xx_StdPeriph_Driver/src/stm32f4xx_hash.c ****   
 415:/home/jonas/warwick/3dProfilometer/xpcc/ext/stm32f4xx_lib/STM32F4xx_StdPeriph_Driver/src/stm32f4xx_hash.c ****   /* restore context registers */
 416:/home/jonas/warwick/3dProfilometer/xpcc/ext/stm32f4xx_lib/STM32F4xx_StdPeriph_Driver/src/stm32f4xx_hash.c ****   HASH->IMR = HASH_ContextRestore->HASH_IMR;   
 401              		.loc 1 416 0
 402 0000 0D4B     		ldr	r3, .L36
 403 0002 0268     		ldr	r2, [r0, #0]
 412:/home/jonas/warwick/3dProfilometer/xpcc/ext/stm32f4xx_lib/STM32F4xx_StdPeriph_Driver/src/stm32f4xx_hash.c **** {
 404              		.loc 1 412 0
 405 0004 10B4     		push	{r4}
 406              	.LCFI3:
 407              		.cfi_def_cfa_offset 4
 408              		.cfi_offset 4, -4
 409              		.loc 1 416 0
 410 0006 1A62     		str	r2, [r3, #32]
 417:/home/jonas/warwick/3dProfilometer/xpcc/ext/stm32f4xx_lib/STM32F4xx_StdPeriph_Driver/src/stm32f4xx_hash.c ****   HASH->STR = HASH_ContextRestore->HASH_STR;     
 411              		.loc 1 417 0
 412 0008 4268     		ldr	r2, [r0, #4]
 413 000a 9A60     		str	r2, [r3, #8]
 418:/home/jonas/warwick/3dProfilometer/xpcc/ext/stm32f4xx_lib/STM32F4xx_StdPeriph_Driver/src/stm32f4xx_hash.c ****   HASH->CR = HASH_ContextRestore->HASH_CR;
 414              		.loc 1 418 0
 415 000c 8268     		ldr	r2, [r0, #8]
 416 000e 1A60     		str	r2, [r3, #0]
 419:/home/jonas/warwick/3dProfilometer/xpcc/ext/stm32f4xx_lib/STM32F4xx_StdPeriph_Driver/src/stm32f4xx_hash.c ****   
 420:/home/jonas/warwick/3dProfilometer/xpcc/ext/stm32f4xx_lib/STM32F4xx_StdPeriph_Driver/src/stm32f4xx_hash.c ****   /* Initialize the hash processor */
 421:/home/jonas/warwick/3dProfilometer/xpcc/ext/stm32f4xx_lib/STM32F4xx_StdPeriph_Driver/src/stm32f4xx_hash.c ****   HASH->CR |= HASH_CR_INIT; 
 417              		.loc 1 421 0
 418 0010 1A68     		ldr	r2, [r3, #0]
 419 0012 42F00402 		orr	r2, r2, #4
 420 0016 1A60     		str	r2, [r3, #0]
 422:/home/jonas/warwick/3dProfilometer/xpcc/ext/stm32f4xx_lib/STM32F4xx_StdPeriph_Driver/src/stm32f4xx_hash.c ****   
 423:/home/jonas/warwick/3dProfilometer/xpcc/ext/stm32f4xx_lib/STM32F4xx_StdPeriph_Driver/src/stm32f4xx_hash.c ****    /* continue restoring context registers */     
 424:/home/jonas/warwick/3dProfilometer/xpcc/ext/stm32f4xx_lib/STM32F4xx_StdPeriph_Driver/src/stm32f4xx_hash.c ****   for(i=0; i<=50;i++)
 421              		.loc 1 424 0
 422 0018 0023     		movs	r3, #0
 423              	.LVL12:
 424              	.L34:
 425:/home/jonas/warwick/3dProfilometer/xpcc/ext/stm32f4xx_lib/STM32F4xx_StdPeriph_Driver/src/stm32f4xx_hash.c ****   {
 426:/home/jonas/warwick/3dProfilometer/xpcc/ext/stm32f4xx_lib/STM32F4xx_StdPeriph_Driver/src/stm32f4xx_hash.c ****      HASH->CSR[i] = HASH_ContextRestore->HASH_CSR[i];
 425              		.loc 1 426 0 discriminator 2
 426 001a 00EB8302 		add	r2, r0, r3, lsl #2
 427 001e 03F13E01 		add	r1, r3, #62
 424:/home/jonas/warwick/3dProfilometer/xpcc/ext/stm32f4xx_lib/STM32F4xx_StdPeriph_Driver/src/stm32f4xx_hash.c ****   for(i=0; i<=50;i++)
 428              		.loc 1 424 0 discriminator 2
 429 0022 0133     		adds	r3, r3, #1
 430              		.loc 1 426 0 discriminator 2
 431 0024 D468     		ldr	r4, [r2, #12]
 432 0026 044A     		ldr	r2, .L36
 424:/home/jonas/warwick/3dProfilometer/xpcc/ext/stm32f4xx_lib/STM32F4xx_StdPeriph_Driver/src/stm32f4xx_hash.c ****   for(i=0; i<=50;i++)
 433              		.loc 1 424 0 discriminator 2
 434 0028 DBB2     		uxtb	r3, r3
 435              	.LVL13:
 436 002a 332B     		cmp	r3, #51
 437              		.loc 1 426 0 discriminator 2
 438 002c 42F82140 		str	r4, [r2, r1, lsl #2]
 424:/home/jonas/warwick/3dProfilometer/xpcc/ext/stm32f4xx_lib/STM32F4xx_StdPeriph_Driver/src/stm32f4xx_hash.c ****   for(i=0; i<=50;i++)
 439              		.loc 1 424 0 discriminator 2
 440 0030 F3D1     		bne	.L34
 427:/home/jonas/warwick/3dProfilometer/xpcc/ext/stm32f4xx_lib/STM32F4xx_StdPeriph_Driver/src/stm32f4xx_hash.c ****   }   
 428:/home/jonas/warwick/3dProfilometer/xpcc/ext/stm32f4xx_lib/STM32F4xx_StdPeriph_Driver/src/stm32f4xx_hash.c **** }
 441              		.loc 1 428 0
 442 0032 10BC     		pop	{r4}
 443 0034 7047     		bx	lr
 444              	.L37:
 445 0036 00BF     		.align	2
 446              	.L36:
 447 0038 00040650 		.word	1342571520
 448              		.cfi_endproc
 449              	.LFE120:
 451              		.section	.text.HASH_DMACmd,"ax",%progbits
 452              		.align	2
 453              		.global	HASH_DMACmd
 454              		.thumb
 455              		.thumb_func
 457              	HASH_DMACmd:
 458              	.LFB121:
 429:/home/jonas/warwick/3dProfilometer/xpcc/ext/stm32f4xx_lib/STM32F4xx_StdPeriph_Driver/src/stm32f4xx_hash.c **** /**
 430:/home/jonas/warwick/3dProfilometer/xpcc/ext/stm32f4xx_lib/STM32F4xx_StdPeriph_Driver/src/stm32f4xx_hash.c ****   * @}
 431:/home/jonas/warwick/3dProfilometer/xpcc/ext/stm32f4xx_lib/STM32F4xx_StdPeriph_Driver/src/stm32f4xx_hash.c ****   */
 432:/home/jonas/warwick/3dProfilometer/xpcc/ext/stm32f4xx_lib/STM32F4xx_StdPeriph_Driver/src/stm32f4xx_hash.c **** 
 433:/home/jonas/warwick/3dProfilometer/xpcc/ext/stm32f4xx_lib/STM32F4xx_StdPeriph_Driver/src/stm32f4xx_hash.c **** /** @defgroup HASH_Group4 HASH's DMA interface Configuration function
 434:/home/jonas/warwick/3dProfilometer/xpcc/ext/stm32f4xx_lib/STM32F4xx_StdPeriph_Driver/src/stm32f4xx_hash.c ****  *  @brief   HASH's DMA interface Configuration function 
 435:/home/jonas/warwick/3dProfilometer/xpcc/ext/stm32f4xx_lib/STM32F4xx_StdPeriph_Driver/src/stm32f4xx_hash.c ****  *
 436:/home/jonas/warwick/3dProfilometer/xpcc/ext/stm32f4xx_lib/STM32F4xx_StdPeriph_Driver/src/stm32f4xx_hash.c **** @verbatim   
 437:/home/jonas/warwick/3dProfilometer/xpcc/ext/stm32f4xx_lib/STM32F4xx_StdPeriph_Driver/src/stm32f4xx_hash.c ****  ===============================================================================
 438:/home/jonas/warwick/3dProfilometer/xpcc/ext/stm32f4xx_lib/STM32F4xx_StdPeriph_Driver/src/stm32f4xx_hash.c ****                    HASH's DMA interface Configuration function
 439:/home/jonas/warwick/3dProfilometer/xpcc/ext/stm32f4xx_lib/STM32F4xx_StdPeriph_Driver/src/stm32f4xx_hash.c ****  ===============================================================================  
 440:/home/jonas/warwick/3dProfilometer/xpcc/ext/stm32f4xx_lib/STM32F4xx_StdPeriph_Driver/src/stm32f4xx_hash.c **** 
 441:/home/jonas/warwick/3dProfilometer/xpcc/ext/stm32f4xx_lib/STM32F4xx_StdPeriph_Driver/src/stm32f4xx_hash.c ****   This section provides functions allowing to configure the DMA interface for 
 442:/home/jonas/warwick/3dProfilometer/xpcc/ext/stm32f4xx_lib/STM32F4xx_StdPeriph_Driver/src/stm32f4xx_hash.c ****   HASH/ HMAC data input transfer.
 443:/home/jonas/warwick/3dProfilometer/xpcc/ext/stm32f4xx_lib/STM32F4xx_StdPeriph_Driver/src/stm32f4xx_hash.c ****    
 444:/home/jonas/warwick/3dProfilometer/xpcc/ext/stm32f4xx_lib/STM32F4xx_StdPeriph_Driver/src/stm32f4xx_hash.c ****   When the DMA mode is enabled (using the HASH_DMACmd() function), data can be 
 445:/home/jonas/warwick/3dProfilometer/xpcc/ext/stm32f4xx_lib/STM32F4xx_StdPeriph_Driver/src/stm32f4xx_hash.c ****   sent to the IN FIFO using the DMA peripheral.
 446:/home/jonas/warwick/3dProfilometer/xpcc/ext/stm32f4xx_lib/STM32F4xx_StdPeriph_Driver/src/stm32f4xx_hash.c **** 
 447:/home/jonas/warwick/3dProfilometer/xpcc/ext/stm32f4xx_lib/STM32F4xx_StdPeriph_Driver/src/stm32f4xx_hash.c **** 
 448:/home/jonas/warwick/3dProfilometer/xpcc/ext/stm32f4xx_lib/STM32F4xx_StdPeriph_Driver/src/stm32f4xx_hash.c **** 
 449:/home/jonas/warwick/3dProfilometer/xpcc/ext/stm32f4xx_lib/STM32F4xx_StdPeriph_Driver/src/stm32f4xx_hash.c **** @endverbatim
 450:/home/jonas/warwick/3dProfilometer/xpcc/ext/stm32f4xx_lib/STM32F4xx_StdPeriph_Driver/src/stm32f4xx_hash.c ****   * @{
 451:/home/jonas/warwick/3dProfilometer/xpcc/ext/stm32f4xx_lib/STM32F4xx_StdPeriph_Driver/src/stm32f4xx_hash.c ****   */
 452:/home/jonas/warwick/3dProfilometer/xpcc/ext/stm32f4xx_lib/STM32F4xx_StdPeriph_Driver/src/stm32f4xx_hash.c ****   
 453:/home/jonas/warwick/3dProfilometer/xpcc/ext/stm32f4xx_lib/STM32F4xx_StdPeriph_Driver/src/stm32f4xx_hash.c **** /**
 454:/home/jonas/warwick/3dProfilometer/xpcc/ext/stm32f4xx_lib/STM32F4xx_StdPeriph_Driver/src/stm32f4xx_hash.c ****   * @brief  Enables or disables the HASH DMA interface.
 455:/home/jonas/warwick/3dProfilometer/xpcc/ext/stm32f4xx_lib/STM32F4xx_StdPeriph_Driver/src/stm32f4xx_hash.c ****   * @note   The DMA is disabled by hardware after the end of transfer.
 456:/home/jonas/warwick/3dProfilometer/xpcc/ext/stm32f4xx_lib/STM32F4xx_StdPeriph_Driver/src/stm32f4xx_hash.c ****   * @param  NewState: new state of the selected HASH DMA transfer request.
 457:/home/jonas/warwick/3dProfilometer/xpcc/ext/stm32f4xx_lib/STM32F4xx_StdPeriph_Driver/src/stm32f4xx_hash.c ****   *          This parameter can be: ENABLE or DISABLE.
 458:/home/jonas/warwick/3dProfilometer/xpcc/ext/stm32f4xx_lib/STM32F4xx_StdPeriph_Driver/src/stm32f4xx_hash.c ****   * @retval None
 459:/home/jonas/warwick/3dProfilometer/xpcc/ext/stm32f4xx_lib/STM32F4xx_StdPeriph_Driver/src/stm32f4xx_hash.c ****   */
 460:/home/jonas/warwick/3dProfilometer/xpcc/ext/stm32f4xx_lib/STM32F4xx_StdPeriph_Driver/src/stm32f4xx_hash.c **** void HASH_DMACmd(FunctionalState NewState)
 461:/home/jonas/warwick/3dProfilometer/xpcc/ext/stm32f4xx_lib/STM32F4xx_StdPeriph_Driver/src/stm32f4xx_hash.c **** {
 459              		.loc 1 461 0
 460              		.cfi_startproc
 461              		@ args = 0, pretend = 0, frame = 0
 462              		@ frame_needed = 0, uses_anonymous_args = 0
 463              		@ link register save eliminated.
 464              	.LVL14:
 462:/home/jonas/warwick/3dProfilometer/xpcc/ext/stm32f4xx_lib/STM32F4xx_StdPeriph_Driver/src/stm32f4xx_hash.c ****   /* Check the parameters */
 463:/home/jonas/warwick/3dProfilometer/xpcc/ext/stm32f4xx_lib/STM32F4xx_StdPeriph_Driver/src/stm32f4xx_hash.c ****   assert_param(IS_FUNCTIONAL_STATE(NewState));
 464:/home/jonas/warwick/3dProfilometer/xpcc/ext/stm32f4xx_lib/STM32F4xx_StdPeriph_Driver/src/stm32f4xx_hash.c **** 
 465:/home/jonas/warwick/3dProfilometer/xpcc/ext/stm32f4xx_lib/STM32F4xx_StdPeriph_Driver/src/stm32f4xx_hash.c ****   if (NewState != DISABLE)
 466:/home/jonas/warwick/3dProfilometer/xpcc/ext/stm32f4xx_lib/STM32F4xx_StdPeriph_Driver/src/stm32f4xx_hash.c ****   {
 467:/home/jonas/warwick/3dProfilometer/xpcc/ext/stm32f4xx_lib/STM32F4xx_StdPeriph_Driver/src/stm32f4xx_hash.c ****     /* Enable the HASH DMA request */
 468:/home/jonas/warwick/3dProfilometer/xpcc/ext/stm32f4xx_lib/STM32F4xx_StdPeriph_Driver/src/stm32f4xx_hash.c ****     HASH->CR |= HASH_CR_DMAE;
 465              		.loc 1 468 0
 466 0000 054B     		ldr	r3, .L42
 467 0002 1A68     		ldr	r2, [r3, #0]
 465:/home/jonas/warwick/3dProfilometer/xpcc/ext/stm32f4xx_lib/STM32F4xx_StdPeriph_Driver/src/stm32f4xx_hash.c ****   if (NewState != DISABLE)
 468              		.loc 1 465 0
 469 0004 18B9     		cbnz	r0, .L41
 469:/home/jonas/warwick/3dProfilometer/xpcc/ext/stm32f4xx_lib/STM32F4xx_StdPeriph_Driver/src/stm32f4xx_hash.c ****   }
 470:/home/jonas/warwick/3dProfilometer/xpcc/ext/stm32f4xx_lib/STM32F4xx_StdPeriph_Driver/src/stm32f4xx_hash.c ****   else
 471:/home/jonas/warwick/3dProfilometer/xpcc/ext/stm32f4xx_lib/STM32F4xx_StdPeriph_Driver/src/stm32f4xx_hash.c ****   {
 472:/home/jonas/warwick/3dProfilometer/xpcc/ext/stm32f4xx_lib/STM32F4xx_StdPeriph_Driver/src/stm32f4xx_hash.c ****     /* Disable the HASH DMA request */
 473:/home/jonas/warwick/3dProfilometer/xpcc/ext/stm32f4xx_lib/STM32F4xx_StdPeriph_Driver/src/stm32f4xx_hash.c ****     HASH->CR &= ~HASH_CR_DMAE;
 470              		.loc 1 473 0
 471 0006 22F00802 		bic	r2, r2, #8
 472 000a 1A60     		str	r2, [r3, #0]
 473 000c 7047     		bx	lr
 474              	.L41:
 468:/home/jonas/warwick/3dProfilometer/xpcc/ext/stm32f4xx_lib/STM32F4xx_StdPeriph_Driver/src/stm32f4xx_hash.c ****     HASH->CR |= HASH_CR_DMAE;
 475              		.loc 1 468 0
 476 000e 42F00802 		orr	r2, r2, #8
 477 0012 1A60     		str	r2, [r3, #0]
 478 0014 7047     		bx	lr
 479              	.L43:
 480 0016 00BF     		.align	2
 481              	.L42:
 482 0018 00040650 		.word	1342571520
 483              		.cfi_endproc
 484              	.LFE121:
 486              		.section	.text.HASH_ITConfig,"ax",%progbits
 487              		.align	2
 488              		.global	HASH_ITConfig
 489              		.thumb
 490              		.thumb_func
 492              	HASH_ITConfig:
 493              	.LFB122:
 474:/home/jonas/warwick/3dProfilometer/xpcc/ext/stm32f4xx_lib/STM32F4xx_StdPeriph_Driver/src/stm32f4xx_hash.c ****   }
 475:/home/jonas/warwick/3dProfilometer/xpcc/ext/stm32f4xx_lib/STM32F4xx_StdPeriph_Driver/src/stm32f4xx_hash.c **** }
 476:/home/jonas/warwick/3dProfilometer/xpcc/ext/stm32f4xx_lib/STM32F4xx_StdPeriph_Driver/src/stm32f4xx_hash.c **** /**
 477:/home/jonas/warwick/3dProfilometer/xpcc/ext/stm32f4xx_lib/STM32F4xx_StdPeriph_Driver/src/stm32f4xx_hash.c ****   * @}
 478:/home/jonas/warwick/3dProfilometer/xpcc/ext/stm32f4xx_lib/STM32F4xx_StdPeriph_Driver/src/stm32f4xx_hash.c ****   */
 479:/home/jonas/warwick/3dProfilometer/xpcc/ext/stm32f4xx_lib/STM32F4xx_StdPeriph_Driver/src/stm32f4xx_hash.c **** 
 480:/home/jonas/warwick/3dProfilometer/xpcc/ext/stm32f4xx_lib/STM32F4xx_StdPeriph_Driver/src/stm32f4xx_hash.c **** /** @defgroup HASH_Group5 Interrupts and flags management functions
 481:/home/jonas/warwick/3dProfilometer/xpcc/ext/stm32f4xx_lib/STM32F4xx_StdPeriph_Driver/src/stm32f4xx_hash.c ****  *  @brief   Interrupts and flags management functions
 482:/home/jonas/warwick/3dProfilometer/xpcc/ext/stm32f4xx_lib/STM32F4xx_StdPeriph_Driver/src/stm32f4xx_hash.c ****  *
 483:/home/jonas/warwick/3dProfilometer/xpcc/ext/stm32f4xx_lib/STM32F4xx_StdPeriph_Driver/src/stm32f4xx_hash.c **** @verbatim   
 484:/home/jonas/warwick/3dProfilometer/xpcc/ext/stm32f4xx_lib/STM32F4xx_StdPeriph_Driver/src/stm32f4xx_hash.c ****  ===============================================================================
 485:/home/jonas/warwick/3dProfilometer/xpcc/ext/stm32f4xx_lib/STM32F4xx_StdPeriph_Driver/src/stm32f4xx_hash.c ****                    Interrupts and flags management functions
 486:/home/jonas/warwick/3dProfilometer/xpcc/ext/stm32f4xx_lib/STM32F4xx_StdPeriph_Driver/src/stm32f4xx_hash.c ****  ===============================================================================  
 487:/home/jonas/warwick/3dProfilometer/xpcc/ext/stm32f4xx_lib/STM32F4xx_StdPeriph_Driver/src/stm32f4xx_hash.c **** 
 488:/home/jonas/warwick/3dProfilometer/xpcc/ext/stm32f4xx_lib/STM32F4xx_StdPeriph_Driver/src/stm32f4xx_hash.c ****   This section provides functions allowing to configure the HASH Interrupts and 
 489:/home/jonas/warwick/3dProfilometer/xpcc/ext/stm32f4xx_lib/STM32F4xx_StdPeriph_Driver/src/stm32f4xx_hash.c ****   to get the status and clear flags and Interrupts pending bits.
 490:/home/jonas/warwick/3dProfilometer/xpcc/ext/stm32f4xx_lib/STM32F4xx_StdPeriph_Driver/src/stm32f4xx_hash.c ****   
 491:/home/jonas/warwick/3dProfilometer/xpcc/ext/stm32f4xx_lib/STM32F4xx_StdPeriph_Driver/src/stm32f4xx_hash.c ****   The HASH provides 2 Interrupts sources and 5 Flags:
 492:/home/jonas/warwick/3dProfilometer/xpcc/ext/stm32f4xx_lib/STM32F4xx_StdPeriph_Driver/src/stm32f4xx_hash.c ****   
 493:/home/jonas/warwick/3dProfilometer/xpcc/ext/stm32f4xx_lib/STM32F4xx_StdPeriph_Driver/src/stm32f4xx_hash.c ****   Flags :
 494:/home/jonas/warwick/3dProfilometer/xpcc/ext/stm32f4xx_lib/STM32F4xx_StdPeriph_Driver/src/stm32f4xx_hash.c ****   ---------- 
 495:/home/jonas/warwick/3dProfilometer/xpcc/ext/stm32f4xx_lib/STM32F4xx_StdPeriph_Driver/src/stm32f4xx_hash.c ****      1. HASH_FLAG_DINIS : set when 16 locations are free in the Data IN FIFO 
 496:/home/jonas/warwick/3dProfilometer/xpcc/ext/stm32f4xx_lib/STM32F4xx_StdPeriph_Driver/src/stm32f4xx_hash.c ****                           which means that a  new block (512 bit) can be entered 
 497:/home/jonas/warwick/3dProfilometer/xpcc/ext/stm32f4xx_lib/STM32F4xx_StdPeriph_Driver/src/stm32f4xx_hash.c ****                           into the input buffer.
 498:/home/jonas/warwick/3dProfilometer/xpcc/ext/stm32f4xx_lib/STM32F4xx_StdPeriph_Driver/src/stm32f4xx_hash.c ****                           
 499:/home/jonas/warwick/3dProfilometer/xpcc/ext/stm32f4xx_lib/STM32F4xx_StdPeriph_Driver/src/stm32f4xx_hash.c ****      2. HASH_FLAG_DCIS :  set when Digest calculation is complete
 500:/home/jonas/warwick/3dProfilometer/xpcc/ext/stm32f4xx_lib/STM32F4xx_StdPeriph_Driver/src/stm32f4xx_hash.c ****       
 501:/home/jonas/warwick/3dProfilometer/xpcc/ext/stm32f4xx_lib/STM32F4xx_StdPeriph_Driver/src/stm32f4xx_hash.c ****      3. HASH_FLAG_DMAS :  set when HASH's DMA interface is enabled (DMAE=1) or 
 502:/home/jonas/warwick/3dProfilometer/xpcc/ext/stm32f4xx_lib/STM32F4xx_StdPeriph_Driver/src/stm32f4xx_hash.c ****                           a transfer is ongoing.
 503:/home/jonas/warwick/3dProfilometer/xpcc/ext/stm32f4xx_lib/STM32F4xx_StdPeriph_Driver/src/stm32f4xx_hash.c ****                           This Flag is cleared only by hardware.
 504:/home/jonas/warwick/3dProfilometer/xpcc/ext/stm32f4xx_lib/STM32F4xx_StdPeriph_Driver/src/stm32f4xx_hash.c ****                            
 505:/home/jonas/warwick/3dProfilometer/xpcc/ext/stm32f4xx_lib/STM32F4xx_StdPeriph_Driver/src/stm32f4xx_hash.c ****      4. HASH_FLAG_BUSY :  set when The hash core is processing a block of data
 506:/home/jonas/warwick/3dProfilometer/xpcc/ext/stm32f4xx_lib/STM32F4xx_StdPeriph_Driver/src/stm32f4xx_hash.c ****                           This Flag is cleared only by hardware. 
 507:/home/jonas/warwick/3dProfilometer/xpcc/ext/stm32f4xx_lib/STM32F4xx_StdPeriph_Driver/src/stm32f4xx_hash.c ****                            
 508:/home/jonas/warwick/3dProfilometer/xpcc/ext/stm32f4xx_lib/STM32F4xx_StdPeriph_Driver/src/stm32f4xx_hash.c ****      5. HASH_FLAG_DINNE : set when Data IN FIFO is not empty which means that 
 509:/home/jonas/warwick/3dProfilometer/xpcc/ext/stm32f4xx_lib/STM32F4xx_StdPeriph_Driver/src/stm32f4xx_hash.c ****                           the Data IN FIFO contains at least one word of data.
 510:/home/jonas/warwick/3dProfilometer/xpcc/ext/stm32f4xx_lib/STM32F4xx_StdPeriph_Driver/src/stm32f4xx_hash.c ****                           This Flag is cleared only by hardware.
 511:/home/jonas/warwick/3dProfilometer/xpcc/ext/stm32f4xx_lib/STM32F4xx_StdPeriph_Driver/src/stm32f4xx_hash.c ****      
 512:/home/jonas/warwick/3dProfilometer/xpcc/ext/stm32f4xx_lib/STM32F4xx_StdPeriph_Driver/src/stm32f4xx_hash.c ****   Interrupts :
 513:/home/jonas/warwick/3dProfilometer/xpcc/ext/stm32f4xx_lib/STM32F4xx_StdPeriph_Driver/src/stm32f4xx_hash.c ****   ------------
 514:/home/jonas/warwick/3dProfilometer/xpcc/ext/stm32f4xx_lib/STM32F4xx_StdPeriph_Driver/src/stm32f4xx_hash.c ****     
 515:/home/jonas/warwick/3dProfilometer/xpcc/ext/stm32f4xx_lib/STM32F4xx_StdPeriph_Driver/src/stm32f4xx_hash.c ****    1. HASH_IT_DINI  : if enabled, this interrupt source is pending when 16 
 516:/home/jonas/warwick/3dProfilometer/xpcc/ext/stm32f4xx_lib/STM32F4xx_StdPeriph_Driver/src/stm32f4xx_hash.c ****                       locations are free in the Data IN FIFO  which means that 
 517:/home/jonas/warwick/3dProfilometer/xpcc/ext/stm32f4xx_lib/STM32F4xx_StdPeriph_Driver/src/stm32f4xx_hash.c ****                       a new block (512 bit) can be entered into the input buffer.
 518:/home/jonas/warwick/3dProfilometer/xpcc/ext/stm32f4xx_lib/STM32F4xx_StdPeriph_Driver/src/stm32f4xx_hash.c ****                       This interrupt source is cleared using 
 519:/home/jonas/warwick/3dProfilometer/xpcc/ext/stm32f4xx_lib/STM32F4xx_StdPeriph_Driver/src/stm32f4xx_hash.c ****                       HASH_ClearITPendingBit(HASH_IT_DINI) function.
 520:/home/jonas/warwick/3dProfilometer/xpcc/ext/stm32f4xx_lib/STM32F4xx_StdPeriph_Driver/src/stm32f4xx_hash.c ****    
 521:/home/jonas/warwick/3dProfilometer/xpcc/ext/stm32f4xx_lib/STM32F4xx_StdPeriph_Driver/src/stm32f4xx_hash.c ****    2. HASH_IT_DCI   : if enabled, this interrupt source is pending when Digest 
 522:/home/jonas/warwick/3dProfilometer/xpcc/ext/stm32f4xx_lib/STM32F4xx_StdPeriph_Driver/src/stm32f4xx_hash.c ****                       calculation is complete.
 523:/home/jonas/warwick/3dProfilometer/xpcc/ext/stm32f4xx_lib/STM32F4xx_StdPeriph_Driver/src/stm32f4xx_hash.c ****                       This interrupt source is cleared using 
 524:/home/jonas/warwick/3dProfilometer/xpcc/ext/stm32f4xx_lib/STM32F4xx_StdPeriph_Driver/src/stm32f4xx_hash.c ****                       HASH_ClearITPendingBit(HASH_IT_DCI) function.
 525:/home/jonas/warwick/3dProfilometer/xpcc/ext/stm32f4xx_lib/STM32F4xx_StdPeriph_Driver/src/stm32f4xx_hash.c **** 
 526:/home/jonas/warwick/3dProfilometer/xpcc/ext/stm32f4xx_lib/STM32F4xx_StdPeriph_Driver/src/stm32f4xx_hash.c ****   Managing the HASH controller events :
 527:/home/jonas/warwick/3dProfilometer/xpcc/ext/stm32f4xx_lib/STM32F4xx_StdPeriph_Driver/src/stm32f4xx_hash.c ****   ------------------------------------ 
 528:/home/jonas/warwick/3dProfilometer/xpcc/ext/stm32f4xx_lib/STM32F4xx_StdPeriph_Driver/src/stm32f4xx_hash.c ****   The user should identify which mode will be used in his application to manage 
 529:/home/jonas/warwick/3dProfilometer/xpcc/ext/stm32f4xx_lib/STM32F4xx_StdPeriph_Driver/src/stm32f4xx_hash.c ****   the HASH controller events: Polling mode or Interrupt mode.
 530:/home/jonas/warwick/3dProfilometer/xpcc/ext/stm32f4xx_lib/STM32F4xx_StdPeriph_Driver/src/stm32f4xx_hash.c ****   
 531:/home/jonas/warwick/3dProfilometer/xpcc/ext/stm32f4xx_lib/STM32F4xx_StdPeriph_Driver/src/stm32f4xx_hash.c ****   1.  In the Polling Mode it is advised to use the following functions:
 532:/home/jonas/warwick/3dProfilometer/xpcc/ext/stm32f4xx_lib/STM32F4xx_StdPeriph_Driver/src/stm32f4xx_hash.c ****       - HASH_GetFlagStatus() : to check if flags events occur. 
 533:/home/jonas/warwick/3dProfilometer/xpcc/ext/stm32f4xx_lib/STM32F4xx_StdPeriph_Driver/src/stm32f4xx_hash.c ****       - HASH_ClearFlag()     : to clear the flags events.
 534:/home/jonas/warwick/3dProfilometer/xpcc/ext/stm32f4xx_lib/STM32F4xx_StdPeriph_Driver/src/stm32f4xx_hash.c ****     
 535:/home/jonas/warwick/3dProfilometer/xpcc/ext/stm32f4xx_lib/STM32F4xx_StdPeriph_Driver/src/stm32f4xx_hash.c ****   2.  In the Interrupt Mode it is advised to use the following functions:
 536:/home/jonas/warwick/3dProfilometer/xpcc/ext/stm32f4xx_lib/STM32F4xx_StdPeriph_Driver/src/stm32f4xx_hash.c ****       - HASH_ITConfig()       : to enable or disable the interrupt source.
 537:/home/jonas/warwick/3dProfilometer/xpcc/ext/stm32f4xx_lib/STM32F4xx_StdPeriph_Driver/src/stm32f4xx_hash.c ****       - HASH_GetITStatus()    : to check if Interrupt occurs.
 538:/home/jonas/warwick/3dProfilometer/xpcc/ext/stm32f4xx_lib/STM32F4xx_StdPeriph_Driver/src/stm32f4xx_hash.c ****       - HASH_ClearITPendingBit() : to clear the Interrupt pending Bit 
 539:/home/jonas/warwick/3dProfilometer/xpcc/ext/stm32f4xx_lib/STM32F4xx_StdPeriph_Driver/src/stm32f4xx_hash.c ****                                 (corresponding Flag). 
 540:/home/jonas/warwick/3dProfilometer/xpcc/ext/stm32f4xx_lib/STM32F4xx_StdPeriph_Driver/src/stm32f4xx_hash.c **** 
 541:/home/jonas/warwick/3dProfilometer/xpcc/ext/stm32f4xx_lib/STM32F4xx_StdPeriph_Driver/src/stm32f4xx_hash.c **** @endverbatim
 542:/home/jonas/warwick/3dProfilometer/xpcc/ext/stm32f4xx_lib/STM32F4xx_StdPeriph_Driver/src/stm32f4xx_hash.c ****   * @{
 543:/home/jonas/warwick/3dProfilometer/xpcc/ext/stm32f4xx_lib/STM32F4xx_StdPeriph_Driver/src/stm32f4xx_hash.c ****   */ 
 544:/home/jonas/warwick/3dProfilometer/xpcc/ext/stm32f4xx_lib/STM32F4xx_StdPeriph_Driver/src/stm32f4xx_hash.c ****   
 545:/home/jonas/warwick/3dProfilometer/xpcc/ext/stm32f4xx_lib/STM32F4xx_StdPeriph_Driver/src/stm32f4xx_hash.c **** /**
 546:/home/jonas/warwick/3dProfilometer/xpcc/ext/stm32f4xx_lib/STM32F4xx_StdPeriph_Driver/src/stm32f4xx_hash.c ****   * @brief  Enables or disables the specified HASH interrupts.
 547:/home/jonas/warwick/3dProfilometer/xpcc/ext/stm32f4xx_lib/STM32F4xx_StdPeriph_Driver/src/stm32f4xx_hash.c ****   * @param  HASH_IT: specifies the HASH interrupt source to be enabled or disabled.
 548:/home/jonas/warwick/3dProfilometer/xpcc/ext/stm32f4xx_lib/STM32F4xx_StdPeriph_Driver/src/stm32f4xx_hash.c ****   *          This parameter can be any combination of the following values:
 549:/home/jonas/warwick/3dProfilometer/xpcc/ext/stm32f4xx_lib/STM32F4xx_StdPeriph_Driver/src/stm32f4xx_hash.c ****   *            @arg HASH_IT_DINI: Data Input interrupt
 550:/home/jonas/warwick/3dProfilometer/xpcc/ext/stm32f4xx_lib/STM32F4xx_StdPeriph_Driver/src/stm32f4xx_hash.c ****   *            @arg HASH_IT_DCI: Digest Calculation Completion Interrupt
 551:/home/jonas/warwick/3dProfilometer/xpcc/ext/stm32f4xx_lib/STM32F4xx_StdPeriph_Driver/src/stm32f4xx_hash.c ****   * @param  NewState: new state of the specified HASH interrupt.
 552:/home/jonas/warwick/3dProfilometer/xpcc/ext/stm32f4xx_lib/STM32F4xx_StdPeriph_Driver/src/stm32f4xx_hash.c ****   *           This parameter can be: ENABLE or DISABLE.
 553:/home/jonas/warwick/3dProfilometer/xpcc/ext/stm32f4xx_lib/STM32F4xx_StdPeriph_Driver/src/stm32f4xx_hash.c ****   * @retval None
 554:/home/jonas/warwick/3dProfilometer/xpcc/ext/stm32f4xx_lib/STM32F4xx_StdPeriph_Driver/src/stm32f4xx_hash.c ****   */
 555:/home/jonas/warwick/3dProfilometer/xpcc/ext/stm32f4xx_lib/STM32F4xx_StdPeriph_Driver/src/stm32f4xx_hash.c **** void HASH_ITConfig(uint8_t HASH_IT, FunctionalState NewState)
 556:/home/jonas/warwick/3dProfilometer/xpcc/ext/stm32f4xx_lib/STM32F4xx_StdPeriph_Driver/src/stm32f4xx_hash.c **** {
 494              		.loc 1 556 0
 495              		.cfi_startproc
 496              		@ args = 0, pretend = 0, frame = 0
 497              		@ frame_needed = 0, uses_anonymous_args = 0
 498              		@ link register save eliminated.
 499              	.LVL15:
 557:/home/jonas/warwick/3dProfilometer/xpcc/ext/stm32f4xx_lib/STM32F4xx_StdPeriph_Driver/src/stm32f4xx_hash.c ****   /* Check the parameters */
 558:/home/jonas/warwick/3dProfilometer/xpcc/ext/stm32f4xx_lib/STM32F4xx_StdPeriph_Driver/src/stm32f4xx_hash.c ****   assert_param(IS_HASH_IT(HASH_IT));
 559:/home/jonas/warwick/3dProfilometer/xpcc/ext/stm32f4xx_lib/STM32F4xx_StdPeriph_Driver/src/stm32f4xx_hash.c ****   assert_param(IS_FUNCTIONAL_STATE(NewState));
 560:/home/jonas/warwick/3dProfilometer/xpcc/ext/stm32f4xx_lib/STM32F4xx_StdPeriph_Driver/src/stm32f4xx_hash.c **** 
 561:/home/jonas/warwick/3dProfilometer/xpcc/ext/stm32f4xx_lib/STM32F4xx_StdPeriph_Driver/src/stm32f4xx_hash.c ****   if (NewState != DISABLE)
 562:/home/jonas/warwick/3dProfilometer/xpcc/ext/stm32f4xx_lib/STM32F4xx_StdPeriph_Driver/src/stm32f4xx_hash.c ****   {
 563:/home/jonas/warwick/3dProfilometer/xpcc/ext/stm32f4xx_lib/STM32F4xx_StdPeriph_Driver/src/stm32f4xx_hash.c ****     /* Enable the selected HASH interrupt */
 564:/home/jonas/warwick/3dProfilometer/xpcc/ext/stm32f4xx_lib/STM32F4xx_StdPeriph_Driver/src/stm32f4xx_hash.c ****     HASH->IMR |= HASH_IT;
 500              		.loc 1 564 0
 501 0000 054B     		ldr	r3, .L48
 502 0002 1A6A     		ldr	r2, [r3, #32]
 561:/home/jonas/warwick/3dProfilometer/xpcc/ext/stm32f4xx_lib/STM32F4xx_StdPeriph_Driver/src/stm32f4xx_hash.c ****   if (NewState != DISABLE)
 503              		.loc 1 561 0
 504 0004 29B9     		cbnz	r1, .L47
 565:/home/jonas/warwick/3dProfilometer/xpcc/ext/stm32f4xx_lib/STM32F4xx_StdPeriph_Driver/src/stm32f4xx_hash.c ****   }
 566:/home/jonas/warwick/3dProfilometer/xpcc/ext/stm32f4xx_lib/STM32F4xx_StdPeriph_Driver/src/stm32f4xx_hash.c ****   else
 567:/home/jonas/warwick/3dProfilometer/xpcc/ext/stm32f4xx_lib/STM32F4xx_StdPeriph_Driver/src/stm32f4xx_hash.c ****   {
 568:/home/jonas/warwick/3dProfilometer/xpcc/ext/stm32f4xx_lib/STM32F4xx_StdPeriph_Driver/src/stm32f4xx_hash.c ****     /* Disable the selected HASH interrupt */
 569:/home/jonas/warwick/3dProfilometer/xpcc/ext/stm32f4xx_lib/STM32F4xx_StdPeriph_Driver/src/stm32f4xx_hash.c ****     HASH->IMR &= (uint8_t) ~HASH_IT;
 505              		.loc 1 569 0
 506 0006 22EA0000 		bic	r0, r2, r0
 507              	.LVL16:
 508 000a 00F0FF00 		and	r0, r0, #255
 509 000e 1862     		str	r0, [r3, #32]
 510 0010 7047     		bx	lr
 511              	.LVL17:
 512              	.L47:
 564:/home/jonas/warwick/3dProfilometer/xpcc/ext/stm32f4xx_lib/STM32F4xx_StdPeriph_Driver/src/stm32f4xx_hash.c ****     HASH->IMR |= HASH_IT;
 513              		.loc 1 564 0
 514 0012 1043     		orrs	r0, r0, r2
 515              	.LVL18:
 516 0014 1862     		str	r0, [r3, #32]
 517 0016 7047     		bx	lr
 518              	.L49:
 519              		.align	2
 520              	.L48:
 521 0018 00040650 		.word	1342571520
 522              		.cfi_endproc
 523              	.LFE122:
 525              		.section	.text.HASH_GetFlagStatus,"ax",%progbits
 526              		.align	2
 527              		.global	HASH_GetFlagStatus
 528              		.thumb
 529              		.thumb_func
 531              	HASH_GetFlagStatus:
 532              	.LFB123:
 570:/home/jonas/warwick/3dProfilometer/xpcc/ext/stm32f4xx_lib/STM32F4xx_StdPeriph_Driver/src/stm32f4xx_hash.c ****   }
 571:/home/jonas/warwick/3dProfilometer/xpcc/ext/stm32f4xx_lib/STM32F4xx_StdPeriph_Driver/src/stm32f4xx_hash.c **** }
 572:/home/jonas/warwick/3dProfilometer/xpcc/ext/stm32f4xx_lib/STM32F4xx_StdPeriph_Driver/src/stm32f4xx_hash.c **** 
 573:/home/jonas/warwick/3dProfilometer/xpcc/ext/stm32f4xx_lib/STM32F4xx_StdPeriph_Driver/src/stm32f4xx_hash.c **** /**
 574:/home/jonas/warwick/3dProfilometer/xpcc/ext/stm32f4xx_lib/STM32F4xx_StdPeriph_Driver/src/stm32f4xx_hash.c ****   * @brief  Checks whether the specified HASH flag is set or not.
 575:/home/jonas/warwick/3dProfilometer/xpcc/ext/stm32f4xx_lib/STM32F4xx_StdPeriph_Driver/src/stm32f4xx_hash.c ****   * @param  HASH_FLAG: specifies the HASH flag to check.
 576:/home/jonas/warwick/3dProfilometer/xpcc/ext/stm32f4xx_lib/STM32F4xx_StdPeriph_Driver/src/stm32f4xx_hash.c ****   *          This parameter can be one of the following values:
 577:/home/jonas/warwick/3dProfilometer/xpcc/ext/stm32f4xx_lib/STM32F4xx_StdPeriph_Driver/src/stm32f4xx_hash.c ****   *            @arg HASH_FLAG_DINIS: Data input interrupt status flag
 578:/home/jonas/warwick/3dProfilometer/xpcc/ext/stm32f4xx_lib/STM32F4xx_StdPeriph_Driver/src/stm32f4xx_hash.c ****   *            @arg HASH_FLAG_DCIS: Digest calculation completion interrupt status flag
 579:/home/jonas/warwick/3dProfilometer/xpcc/ext/stm32f4xx_lib/STM32F4xx_StdPeriph_Driver/src/stm32f4xx_hash.c ****   *            @arg HASH_FLAG_BUSY: Busy flag
 580:/home/jonas/warwick/3dProfilometer/xpcc/ext/stm32f4xx_lib/STM32F4xx_StdPeriph_Driver/src/stm32f4xx_hash.c ****   *            @arg HASH_FLAG_DMAS: DMAS Status flag
 581:/home/jonas/warwick/3dProfilometer/xpcc/ext/stm32f4xx_lib/STM32F4xx_StdPeriph_Driver/src/stm32f4xx_hash.c ****   *            @arg HASH_FLAG_DINNE: Data Input register (DIN) not empty status flag
 582:/home/jonas/warwick/3dProfilometer/xpcc/ext/stm32f4xx_lib/STM32F4xx_StdPeriph_Driver/src/stm32f4xx_hash.c ****   * @retval The new state of HASH_FLAG (SET or RESET)
 583:/home/jonas/warwick/3dProfilometer/xpcc/ext/stm32f4xx_lib/STM32F4xx_StdPeriph_Driver/src/stm32f4xx_hash.c ****   */
 584:/home/jonas/warwick/3dProfilometer/xpcc/ext/stm32f4xx_lib/STM32F4xx_StdPeriph_Driver/src/stm32f4xx_hash.c **** FlagStatus HASH_GetFlagStatus(uint16_t HASH_FLAG)
 585:/home/jonas/warwick/3dProfilometer/xpcc/ext/stm32f4xx_lib/STM32F4xx_StdPeriph_Driver/src/stm32f4xx_hash.c **** {
 533              		.loc 1 585 0
 534              		.cfi_startproc
 535              		@ args = 0, pretend = 0, frame = 0
 536              		@ frame_needed = 0, uses_anonymous_args = 0
 537              		@ link register save eliminated.
 538              	.LVL19:
 586:/home/jonas/warwick/3dProfilometer/xpcc/ext/stm32f4xx_lib/STM32F4xx_StdPeriph_Driver/src/stm32f4xx_hash.c ****   FlagStatus bitstatus = RESET;
 587:/home/jonas/warwick/3dProfilometer/xpcc/ext/stm32f4xx_lib/STM32F4xx_StdPeriph_Driver/src/stm32f4xx_hash.c ****   uint32_t tempreg = 0;
 588:/home/jonas/warwick/3dProfilometer/xpcc/ext/stm32f4xx_lib/STM32F4xx_StdPeriph_Driver/src/stm32f4xx_hash.c **** 
 589:/home/jonas/warwick/3dProfilometer/xpcc/ext/stm32f4xx_lib/STM32F4xx_StdPeriph_Driver/src/stm32f4xx_hash.c ****   /* Check the parameters */
 590:/home/jonas/warwick/3dProfilometer/xpcc/ext/stm32f4xx_lib/STM32F4xx_StdPeriph_Driver/src/stm32f4xx_hash.c ****   assert_param(IS_HASH_GET_FLAG(HASH_FLAG));
 591:/home/jonas/warwick/3dProfilometer/xpcc/ext/stm32f4xx_lib/STM32F4xx_StdPeriph_Driver/src/stm32f4xx_hash.c **** 
 592:/home/jonas/warwick/3dProfilometer/xpcc/ext/stm32f4xx_lib/STM32F4xx_StdPeriph_Driver/src/stm32f4xx_hash.c ****   /* check if the FLAG is in CR register */
 593:/home/jonas/warwick/3dProfilometer/xpcc/ext/stm32f4xx_lib/STM32F4xx_StdPeriph_Driver/src/stm32f4xx_hash.c ****   if ((HASH_FLAG & HASH_FLAG_DINNE) != (uint16_t)RESET ) 
 539              		.loc 1 593 0
 540 0000 00F48053 		and	r3, r0, #4096
 541 0004 9BB2     		uxth	r3, r3
 542 0006 33B1     		cbz	r3, .L51
 594:/home/jonas/warwick/3dProfilometer/xpcc/ext/stm32f4xx_lib/STM32F4xx_StdPeriph_Driver/src/stm32f4xx_hash.c ****   {
 595:/home/jonas/warwick/3dProfilometer/xpcc/ext/stm32f4xx_lib/STM32F4xx_StdPeriph_Driver/src/stm32f4xx_hash.c ****     tempreg = HASH->CR;
 543              		.loc 1 595 0
 544 0008 044B     		ldr	r3, .L53
 545 000a 1B68     		ldr	r3, [r3, #0]
 546              	.LVL20:
 547              	.L52:
 596:/home/jonas/warwick/3dProfilometer/xpcc/ext/stm32f4xx_lib/STM32F4xx_StdPeriph_Driver/src/stm32f4xx_hash.c ****   }
 597:/home/jonas/warwick/3dProfilometer/xpcc/ext/stm32f4xx_lib/STM32F4xx_StdPeriph_Driver/src/stm32f4xx_hash.c ****   else /* The FLAG is in SR register */
 598:/home/jonas/warwick/3dProfilometer/xpcc/ext/stm32f4xx_lib/STM32F4xx_StdPeriph_Driver/src/stm32f4xx_hash.c ****   {
 599:/home/jonas/warwick/3dProfilometer/xpcc/ext/stm32f4xx_lib/STM32F4xx_StdPeriph_Driver/src/stm32f4xx_hash.c ****     tempreg = HASH->SR;
 600:/home/jonas/warwick/3dProfilometer/xpcc/ext/stm32f4xx_lib/STM32F4xx_StdPeriph_Driver/src/stm32f4xx_hash.c ****   }
 601:/home/jonas/warwick/3dProfilometer/xpcc/ext/stm32f4xx_lib/STM32F4xx_StdPeriph_Driver/src/stm32f4xx_hash.c **** 
 602:/home/jonas/warwick/3dProfilometer/xpcc/ext/stm32f4xx_lib/STM32F4xx_StdPeriph_Driver/src/stm32f4xx_hash.c ****   /* Check the status of the specified HASH flag */
 603:/home/jonas/warwick/3dProfilometer/xpcc/ext/stm32f4xx_lib/STM32F4xx_StdPeriph_Driver/src/stm32f4xx_hash.c ****   if ((tempreg & HASH_FLAG) != (uint16_t)RESET)
 548              		.loc 1 603 0
 549 000c 0342     		tst	r3, r0
 604:/home/jonas/warwick/3dProfilometer/xpcc/ext/stm32f4xx_lib/STM32F4xx_StdPeriph_Driver/src/stm32f4xx_hash.c ****   {
 605:/home/jonas/warwick/3dProfilometer/xpcc/ext/stm32f4xx_lib/STM32F4xx_StdPeriph_Driver/src/stm32f4xx_hash.c ****     /* HASH is set */
 606:/home/jonas/warwick/3dProfilometer/xpcc/ext/stm32f4xx_lib/STM32F4xx_StdPeriph_Driver/src/stm32f4xx_hash.c ****     bitstatus = SET;
 607:/home/jonas/warwick/3dProfilometer/xpcc/ext/stm32f4xx_lib/STM32F4xx_StdPeriph_Driver/src/stm32f4xx_hash.c ****   }
 608:/home/jonas/warwick/3dProfilometer/xpcc/ext/stm32f4xx_lib/STM32F4xx_StdPeriph_Driver/src/stm32f4xx_hash.c ****   else
 609:/home/jonas/warwick/3dProfilometer/xpcc/ext/stm32f4xx_lib/STM32F4xx_StdPeriph_Driver/src/stm32f4xx_hash.c ****   {
 610:/home/jonas/warwick/3dProfilometer/xpcc/ext/stm32f4xx_lib/STM32F4xx_StdPeriph_Driver/src/stm32f4xx_hash.c ****     /* HASH_FLAG is reset */
 611:/home/jonas/warwick/3dProfilometer/xpcc/ext/stm32f4xx_lib/STM32F4xx_StdPeriph_Driver/src/stm32f4xx_hash.c ****     bitstatus = RESET;
 612:/home/jonas/warwick/3dProfilometer/xpcc/ext/stm32f4xx_lib/STM32F4xx_StdPeriph_Driver/src/stm32f4xx_hash.c ****   }
 613:/home/jonas/warwick/3dProfilometer/xpcc/ext/stm32f4xx_lib/STM32F4xx_StdPeriph_Driver/src/stm32f4xx_hash.c **** 
 614:/home/jonas/warwick/3dProfilometer/xpcc/ext/stm32f4xx_lib/STM32F4xx_StdPeriph_Driver/src/stm32f4xx_hash.c ****   /* Return the HASH_FLAG status */
 615:/home/jonas/warwick/3dProfilometer/xpcc/ext/stm32f4xx_lib/STM32F4xx_StdPeriph_Driver/src/stm32f4xx_hash.c ****   return  bitstatus;
 616:/home/jonas/warwick/3dProfilometer/xpcc/ext/stm32f4xx_lib/STM32F4xx_StdPeriph_Driver/src/stm32f4xx_hash.c **** }
 550              		.loc 1 616 0
 551 000e 0CBF     		ite	eq
 552 0010 0020     		moveq	r0, #0
 553 0012 0120     		movne	r0, #1
 554              	.LVL21:
 555 0014 7047     		bx	lr
 556              	.LVL22:
 557              	.L51:
 599:/home/jonas/warwick/3dProfilometer/xpcc/ext/stm32f4xx_lib/STM32F4xx_StdPeriph_Driver/src/stm32f4xx_hash.c ****     tempreg = HASH->SR;
 558              		.loc 1 599 0
 559 0016 014B     		ldr	r3, .L53
 560 0018 5B6A     		ldr	r3, [r3, #36]
 561              	.LVL23:
 562 001a F7E7     		b	.L52
 563              	.L54:
 564              		.align	2
 565              	.L53:
 566 001c 00040650 		.word	1342571520
 567              		.cfi_endproc
 568              	.LFE123:
 570              		.section	.text.HASH_ClearFlag,"ax",%progbits
 571              		.align	2
 572              		.global	HASH_ClearFlag
 573              		.thumb
 574              		.thumb_func
 576              	HASH_ClearFlag:
 577              	.LFB124:
 617:/home/jonas/warwick/3dProfilometer/xpcc/ext/stm32f4xx_lib/STM32F4xx_StdPeriph_Driver/src/stm32f4xx_hash.c **** /**
 618:/home/jonas/warwick/3dProfilometer/xpcc/ext/stm32f4xx_lib/STM32F4xx_StdPeriph_Driver/src/stm32f4xx_hash.c ****   * @brief  Clears the HASH flags.
 619:/home/jonas/warwick/3dProfilometer/xpcc/ext/stm32f4xx_lib/STM32F4xx_StdPeriph_Driver/src/stm32f4xx_hash.c ****   * @param  HASH_FLAG: specifies the flag to clear. 
 620:/home/jonas/warwick/3dProfilometer/xpcc/ext/stm32f4xx_lib/STM32F4xx_StdPeriph_Driver/src/stm32f4xx_hash.c ****   *          This parameter can be any combination of the following values:
 621:/home/jonas/warwick/3dProfilometer/xpcc/ext/stm32f4xx_lib/STM32F4xx_StdPeriph_Driver/src/stm32f4xx_hash.c ****   *            @arg HASH_FLAG_DINIS: Data Input Flag
 622:/home/jonas/warwick/3dProfilometer/xpcc/ext/stm32f4xx_lib/STM32F4xx_StdPeriph_Driver/src/stm32f4xx_hash.c ****   *            @arg HASH_FLAG_DCIS: Digest Calculation Completion Flag                       
 623:/home/jonas/warwick/3dProfilometer/xpcc/ext/stm32f4xx_lib/STM32F4xx_StdPeriph_Driver/src/stm32f4xx_hash.c ****   * @retval None
 624:/home/jonas/warwick/3dProfilometer/xpcc/ext/stm32f4xx_lib/STM32F4xx_StdPeriph_Driver/src/stm32f4xx_hash.c ****   */
 625:/home/jonas/warwick/3dProfilometer/xpcc/ext/stm32f4xx_lib/STM32F4xx_StdPeriph_Driver/src/stm32f4xx_hash.c **** void HASH_ClearFlag(uint16_t HASH_FLAG)
 626:/home/jonas/warwick/3dProfilometer/xpcc/ext/stm32f4xx_lib/STM32F4xx_StdPeriph_Driver/src/stm32f4xx_hash.c **** {
 578              		.loc 1 626 0
 579              		.cfi_startproc
 580              		@ args = 0, pretend = 0, frame = 0
 581              		@ frame_needed = 0, uses_anonymous_args = 0
 582              		@ link register save eliminated.
 583              	.LVL24:
 627:/home/jonas/warwick/3dProfilometer/xpcc/ext/stm32f4xx_lib/STM32F4xx_StdPeriph_Driver/src/stm32f4xx_hash.c ****   /* Check the parameters */
 628:/home/jonas/warwick/3dProfilometer/xpcc/ext/stm32f4xx_lib/STM32F4xx_StdPeriph_Driver/src/stm32f4xx_hash.c ****   assert_param(IS_HASH_CLEAR_FLAG(HASH_FLAG));
 629:/home/jonas/warwick/3dProfilometer/xpcc/ext/stm32f4xx_lib/STM32F4xx_StdPeriph_Driver/src/stm32f4xx_hash.c ****   
 630:/home/jonas/warwick/3dProfilometer/xpcc/ext/stm32f4xx_lib/STM32F4xx_StdPeriph_Driver/src/stm32f4xx_hash.c ****   /* Clear the selected HASH flags */
 631:/home/jonas/warwick/3dProfilometer/xpcc/ext/stm32f4xx_lib/STM32F4xx_StdPeriph_Driver/src/stm32f4xx_hash.c ****   HASH->SR = ~(uint32_t)HASH_FLAG;
 584              		.loc 1 631 0
 585 0000 014B     		ldr	r3, .L56
 586 0002 C043     		mvns	r0, r0
 587              	.LVL25:
 588 0004 5862     		str	r0, [r3, #36]
 589 0006 7047     		bx	lr
 590              	.L57:
 591              		.align	2
 592              	.L56:
 593 0008 00040650 		.word	1342571520
 594              		.cfi_endproc
 595              	.LFE124:
 597              		.section	.text.HASH_GetITStatus,"ax",%progbits
 598              		.align	2
 599              		.global	HASH_GetITStatus
 600              		.thumb
 601              		.thumb_func
 603              	HASH_GetITStatus:
 604              	.LFB125:
 632:/home/jonas/warwick/3dProfilometer/xpcc/ext/stm32f4xx_lib/STM32F4xx_StdPeriph_Driver/src/stm32f4xx_hash.c **** }
 633:/home/jonas/warwick/3dProfilometer/xpcc/ext/stm32f4xx_lib/STM32F4xx_StdPeriph_Driver/src/stm32f4xx_hash.c **** /**
 634:/home/jonas/warwick/3dProfilometer/xpcc/ext/stm32f4xx_lib/STM32F4xx_StdPeriph_Driver/src/stm32f4xx_hash.c ****   * @brief  Checks whether the specified HASH interrupt has occurred or not.
 635:/home/jonas/warwick/3dProfilometer/xpcc/ext/stm32f4xx_lib/STM32F4xx_StdPeriph_Driver/src/stm32f4xx_hash.c ****   * @param  HASH_IT: specifies the HASH interrupt source to check.
 636:/home/jonas/warwick/3dProfilometer/xpcc/ext/stm32f4xx_lib/STM32F4xx_StdPeriph_Driver/src/stm32f4xx_hash.c ****   *          This parameter can be one of the following values:
 637:/home/jonas/warwick/3dProfilometer/xpcc/ext/stm32f4xx_lib/STM32F4xx_StdPeriph_Driver/src/stm32f4xx_hash.c ****   *            @arg HASH_IT_DINI: Data Input interrupt
 638:/home/jonas/warwick/3dProfilometer/xpcc/ext/stm32f4xx_lib/STM32F4xx_StdPeriph_Driver/src/stm32f4xx_hash.c ****   *            @arg HASH_IT_DCI: Digest Calculation Completion Interrupt
 639:/home/jonas/warwick/3dProfilometer/xpcc/ext/stm32f4xx_lib/STM32F4xx_StdPeriph_Driver/src/stm32f4xx_hash.c ****   * @retval The new state of HASH_IT (SET or RESET).
 640:/home/jonas/warwick/3dProfilometer/xpcc/ext/stm32f4xx_lib/STM32F4xx_StdPeriph_Driver/src/stm32f4xx_hash.c ****   */
 641:/home/jonas/warwick/3dProfilometer/xpcc/ext/stm32f4xx_lib/STM32F4xx_StdPeriph_Driver/src/stm32f4xx_hash.c **** ITStatus HASH_GetITStatus(uint8_t HASH_IT)
 642:/home/jonas/warwick/3dProfilometer/xpcc/ext/stm32f4xx_lib/STM32F4xx_StdPeriph_Driver/src/stm32f4xx_hash.c **** {
 605              		.loc 1 642 0
 606              		.cfi_startproc
 607              		@ args = 0, pretend = 0, frame = 0
 608              		@ frame_needed = 0, uses_anonymous_args = 0
 609              		@ link register save eliminated.
 610              	.LVL26:
 643:/home/jonas/warwick/3dProfilometer/xpcc/ext/stm32f4xx_lib/STM32F4xx_StdPeriph_Driver/src/stm32f4xx_hash.c ****   ITStatus bitstatus = RESET;
 644:/home/jonas/warwick/3dProfilometer/xpcc/ext/stm32f4xx_lib/STM32F4xx_StdPeriph_Driver/src/stm32f4xx_hash.c ****   uint32_t tmpreg = 0;
 645:/home/jonas/warwick/3dProfilometer/xpcc/ext/stm32f4xx_lib/STM32F4xx_StdPeriph_Driver/src/stm32f4xx_hash.c **** 
 646:/home/jonas/warwick/3dProfilometer/xpcc/ext/stm32f4xx_lib/STM32F4xx_StdPeriph_Driver/src/stm32f4xx_hash.c ****   /* Check the parameters */
 647:/home/jonas/warwick/3dProfilometer/xpcc/ext/stm32f4xx_lib/STM32F4xx_StdPeriph_Driver/src/stm32f4xx_hash.c ****   assert_param(IS_HASH_GET_IT(HASH_IT));  
 648:/home/jonas/warwick/3dProfilometer/xpcc/ext/stm32f4xx_lib/STM32F4xx_StdPeriph_Driver/src/stm32f4xx_hash.c **** 
 649:/home/jonas/warwick/3dProfilometer/xpcc/ext/stm32f4xx_lib/STM32F4xx_StdPeriph_Driver/src/stm32f4xx_hash.c **** 
 650:/home/jonas/warwick/3dProfilometer/xpcc/ext/stm32f4xx_lib/STM32F4xx_StdPeriph_Driver/src/stm32f4xx_hash.c ****   /* Check the status of the specified HASH interrupt */
 651:/home/jonas/warwick/3dProfilometer/xpcc/ext/stm32f4xx_lib/STM32F4xx_StdPeriph_Driver/src/stm32f4xx_hash.c ****   tmpreg =  HASH->SR;
 611              		.loc 1 651 0
 612 0000 044B     		ldr	r3, .L59
 613 0002 5A6A     		ldr	r2, [r3, #36]
 614              	.LVL27:
 652:/home/jonas/warwick/3dProfilometer/xpcc/ext/stm32f4xx_lib/STM32F4xx_StdPeriph_Driver/src/stm32f4xx_hash.c **** 
 653:/home/jonas/warwick/3dProfilometer/xpcc/ext/stm32f4xx_lib/STM32F4xx_StdPeriph_Driver/src/stm32f4xx_hash.c ****   if (((HASH->IMR & tmpreg) & HASH_IT) != RESET)
 615              		.loc 1 653 0
 616 0004 1B6A     		ldr	r3, [r3, #32]
 617              	.LVL28:
 618 0006 1340     		ands	r3, r3, r2
 619              	.LVL29:
 620 0008 0342     		tst	r3, r0
 654:/home/jonas/warwick/3dProfilometer/xpcc/ext/stm32f4xx_lib/STM32F4xx_StdPeriph_Driver/src/stm32f4xx_hash.c ****   {
 655:/home/jonas/warwick/3dProfilometer/xpcc/ext/stm32f4xx_lib/STM32F4xx_StdPeriph_Driver/src/stm32f4xx_hash.c ****     /* HASH_IT is set */
 656:/home/jonas/warwick/3dProfilometer/xpcc/ext/stm32f4xx_lib/STM32F4xx_StdPeriph_Driver/src/stm32f4xx_hash.c ****     bitstatus = SET;
 657:/home/jonas/warwick/3dProfilometer/xpcc/ext/stm32f4xx_lib/STM32F4xx_StdPeriph_Driver/src/stm32f4xx_hash.c ****   }
 658:/home/jonas/warwick/3dProfilometer/xpcc/ext/stm32f4xx_lib/STM32F4xx_StdPeriph_Driver/src/stm32f4xx_hash.c ****   else
 659:/home/jonas/warwick/3dProfilometer/xpcc/ext/stm32f4xx_lib/STM32F4xx_StdPeriph_Driver/src/stm32f4xx_hash.c ****   {
 660:/home/jonas/warwick/3dProfilometer/xpcc/ext/stm32f4xx_lib/STM32F4xx_StdPeriph_Driver/src/stm32f4xx_hash.c ****     /* HASH_IT is reset */
 661:/home/jonas/warwick/3dProfilometer/xpcc/ext/stm32f4xx_lib/STM32F4xx_StdPeriph_Driver/src/stm32f4xx_hash.c ****     bitstatus = RESET;
 662:/home/jonas/warwick/3dProfilometer/xpcc/ext/stm32f4xx_lib/STM32F4xx_StdPeriph_Driver/src/stm32f4xx_hash.c ****   }
 663:/home/jonas/warwick/3dProfilometer/xpcc/ext/stm32f4xx_lib/STM32F4xx_StdPeriph_Driver/src/stm32f4xx_hash.c ****   /* Return the HASH_IT status */
 664:/home/jonas/warwick/3dProfilometer/xpcc/ext/stm32f4xx_lib/STM32F4xx_StdPeriph_Driver/src/stm32f4xx_hash.c ****   return bitstatus;
 665:/home/jonas/warwick/3dProfilometer/xpcc/ext/stm32f4xx_lib/STM32F4xx_StdPeriph_Driver/src/stm32f4xx_hash.c **** }
 621              		.loc 1 665 0
 622 000a 0CBF     		ite	eq
 623 000c 0020     		moveq	r0, #0
 624 000e 0120     		movne	r0, #1
 625              	.LVL30:
 626 0010 7047     		bx	lr
 627              	.L60:
 628 0012 00BF     		.align	2
 629              	.L59:
 630 0014 00040650 		.word	1342571520
 631              		.cfi_endproc
 632              	.LFE125:
 634              		.section	.text.HASH_ClearITPendingBit,"ax",%progbits
 635              		.align	2
 636              		.global	HASH_ClearITPendingBit
 637              		.thumb
 638              		.thumb_func
 640              	HASH_ClearITPendingBit:
 641              	.LFB126:
 666:/home/jonas/warwick/3dProfilometer/xpcc/ext/stm32f4xx_lib/STM32F4xx_StdPeriph_Driver/src/stm32f4xx_hash.c **** 
 667:/home/jonas/warwick/3dProfilometer/xpcc/ext/stm32f4xx_lib/STM32F4xx_StdPeriph_Driver/src/stm32f4xx_hash.c **** /**
 668:/home/jonas/warwick/3dProfilometer/xpcc/ext/stm32f4xx_lib/STM32F4xx_StdPeriph_Driver/src/stm32f4xx_hash.c ****   * @brief  Clears the HASH interrupt pending bit(s).
 669:/home/jonas/warwick/3dProfilometer/xpcc/ext/stm32f4xx_lib/STM32F4xx_StdPeriph_Driver/src/stm32f4xx_hash.c ****   * @param  HASH_IT: specifies the HASH interrupt pending bit(s) to clear.
 670:/home/jonas/warwick/3dProfilometer/xpcc/ext/stm32f4xx_lib/STM32F4xx_StdPeriph_Driver/src/stm32f4xx_hash.c ****   *          This parameter can be any combination of the following values:
 671:/home/jonas/warwick/3dProfilometer/xpcc/ext/stm32f4xx_lib/STM32F4xx_StdPeriph_Driver/src/stm32f4xx_hash.c ****   *            @arg HASH_IT_DINI: Data Input interrupt
 672:/home/jonas/warwick/3dProfilometer/xpcc/ext/stm32f4xx_lib/STM32F4xx_StdPeriph_Driver/src/stm32f4xx_hash.c ****   *            @arg HASH_IT_DCI: Digest Calculation Completion Interrupt
 673:/home/jonas/warwick/3dProfilometer/xpcc/ext/stm32f4xx_lib/STM32F4xx_StdPeriph_Driver/src/stm32f4xx_hash.c ****   * @retval None
 674:/home/jonas/warwick/3dProfilometer/xpcc/ext/stm32f4xx_lib/STM32F4xx_StdPeriph_Driver/src/stm32f4xx_hash.c ****   */
 675:/home/jonas/warwick/3dProfilometer/xpcc/ext/stm32f4xx_lib/STM32F4xx_StdPeriph_Driver/src/stm32f4xx_hash.c **** void HASH_ClearITPendingBit(uint8_t HASH_IT)
 676:/home/jonas/warwick/3dProfilometer/xpcc/ext/stm32f4xx_lib/STM32F4xx_StdPeriph_Driver/src/stm32f4xx_hash.c **** {
 642              		.loc 1 676 0
 643              		.cfi_startproc
 644              		@ args = 0, pretend = 0, frame = 0
 645              		@ frame_needed = 0, uses_anonymous_args = 0
 646              		@ link register save eliminated.
 647              	.LVL31:
 677:/home/jonas/warwick/3dProfilometer/xpcc/ext/stm32f4xx_lib/STM32F4xx_StdPeriph_Driver/src/stm32f4xx_hash.c ****   /* Check the parameters */
 678:/home/jonas/warwick/3dProfilometer/xpcc/ext/stm32f4xx_lib/STM32F4xx_StdPeriph_Driver/src/stm32f4xx_hash.c ****   assert_param(IS_HASH_IT(HASH_IT));
 679:/home/jonas/warwick/3dProfilometer/xpcc/ext/stm32f4xx_lib/STM32F4xx_StdPeriph_Driver/src/stm32f4xx_hash.c **** 
 680:/home/jonas/warwick/3dProfilometer/xpcc/ext/stm32f4xx_lib/STM32F4xx_StdPeriph_Driver/src/stm32f4xx_hash.c ****   /* Clear the selected HASH interrupt pending bit */
 681:/home/jonas/warwick/3dProfilometer/xpcc/ext/stm32f4xx_lib/STM32F4xx_StdPeriph_Driver/src/stm32f4xx_hash.c ****   HASH->SR = (uint8_t)~HASH_IT;
 648              		.loc 1 681 0
 649 0000 C043     		mvns	r0, r0
 650              	.LVL32:
 651 0002 024B     		ldr	r3, .L62
 652 0004 C0B2     		uxtb	r0, r0
 653 0006 5862     		str	r0, [r3, #36]
 654 0008 7047     		bx	lr
 655              	.L63:
 656 000a 00BF     		.align	2
 657              	.L62:
 658 000c 00040650 		.word	1342571520
 659              		.cfi_endproc
 660              	.LFE126:
 662              		.text
 663              	.Letext0:
 664              		.file 2 "/opt/arm-2012.09/bin/../lib/gcc/arm-none-eabi/4.7.2/../../../../arm-none-eabi/include/std
 665              		.file 3 "/home/jonas/warwick/3dProfilometer/xpcc/ext/stm32f4xx_lib/CMSIS/Device/ST/STM32F4xx/Inclu
 666              		.file 4 "/home/jonas/warwick/3dProfilometer/xpcc/ext/stm32f4xx_lib/STM32F4xx_StdPeriph_Driver/inc/
 667              		.file 5 "/home/jonas/warwick/3dProfilometer/xpcc/ext/stm32f4xx_lib/CMSIS/Include/core_cm4.h"