   1              		.syntax unified
   2              		.cpu cortex-m4
   3              		.eabi_attribute 27, 3
   4              		.fpu fpv4-sp-d16
   5              		.eabi_attribute 20, 1
   6              		.eabi_attribute 21, 1
   7              		.eabi_attribute 23, 3
   8              		.eabi_attribute 24, 1
   9              		.eabi_attribute 25, 1
  10              		.eabi_attribute 26, 1
  11              		.eabi_attribute 30, 2
  12              		.eabi_attribute 34, 1
  13              		.eabi_attribute 18, 4
  14              		.thumb
  15              		.file	"stm32f4xx_can.c"
  16              		.text
  17              	.Ltext0:
  18              		.cfi_sections	.debug_frame
  19              		.section	.text.CAN_DeInit,"ax",%progbits
  20              		.align	2
  21              		.global	CAN_DeInit
  22              		.thumb
  23              		.thumb_func
  25              	CAN_DeInit:
  26              	.LFB110:
  27              		.file 1 "/home/jonas/warwick/3dProfilometer/xpcc/ext/stm32f4xx_lib/STM32F4xx_StdPeriph_Driver/src/
   1:/home/jonas/warwick/3dProfilometer/xpcc/ext/stm32f4xx_lib/STM32F4xx_StdPeriph_Driver/src/stm32f4xx_can.c **** /**
   2:/home/jonas/warwick/3dProfilometer/xpcc/ext/stm32f4xx_lib/STM32F4xx_StdPeriph_Driver/src/stm32f4xx_can.c ****   ******************************************************************************
   3:/home/jonas/warwick/3dProfilometer/xpcc/ext/stm32f4xx_lib/STM32F4xx_StdPeriph_Driver/src/stm32f4xx_can.c ****   * @file    stm32f4xx_can.c
   4:/home/jonas/warwick/3dProfilometer/xpcc/ext/stm32f4xx_lib/STM32F4xx_StdPeriph_Driver/src/stm32f4xx_can.c ****   * @author  MCD Application Team
   5:/home/jonas/warwick/3dProfilometer/xpcc/ext/stm32f4xx_lib/STM32F4xx_StdPeriph_Driver/src/stm32f4xx_can.c ****   * @version V1.0.0
   6:/home/jonas/warwick/3dProfilometer/xpcc/ext/stm32f4xx_lib/STM32F4xx_StdPeriph_Driver/src/stm32f4xx_can.c ****   * @date    30-September-2011
   7:/home/jonas/warwick/3dProfilometer/xpcc/ext/stm32f4xx_lib/STM32F4xx_StdPeriph_Driver/src/stm32f4xx_can.c ****   * @brief   This file provides firmware functions to manage the following 
   8:/home/jonas/warwick/3dProfilometer/xpcc/ext/stm32f4xx_lib/STM32F4xx_StdPeriph_Driver/src/stm32f4xx_can.c ****   *          functionalities of the Controller area network (CAN) peripheral:           
   9:/home/jonas/warwick/3dProfilometer/xpcc/ext/stm32f4xx_lib/STM32F4xx_StdPeriph_Driver/src/stm32f4xx_can.c ****   *           - Initialization and Configuration 
  10:/home/jonas/warwick/3dProfilometer/xpcc/ext/stm32f4xx_lib/STM32F4xx_StdPeriph_Driver/src/stm32f4xx_can.c ****   *           - CAN Frames Transmission 
  11:/home/jonas/warwick/3dProfilometer/xpcc/ext/stm32f4xx_lib/STM32F4xx_StdPeriph_Driver/src/stm32f4xx_can.c ****   *           - CAN Frames Reception    
  12:/home/jonas/warwick/3dProfilometer/xpcc/ext/stm32f4xx_lib/STM32F4xx_StdPeriph_Driver/src/stm32f4xx_can.c ****   *           - Operation modes switch  
  13:/home/jonas/warwick/3dProfilometer/xpcc/ext/stm32f4xx_lib/STM32F4xx_StdPeriph_Driver/src/stm32f4xx_can.c ****   *           - Error management          
  14:/home/jonas/warwick/3dProfilometer/xpcc/ext/stm32f4xx_lib/STM32F4xx_StdPeriph_Driver/src/stm32f4xx_can.c ****   *           - Interrupts and flags        
  15:/home/jonas/warwick/3dProfilometer/xpcc/ext/stm32f4xx_lib/STM32F4xx_StdPeriph_Driver/src/stm32f4xx_can.c ****   *         
  16:/home/jonas/warwick/3dProfilometer/xpcc/ext/stm32f4xx_lib/STM32F4xx_StdPeriph_Driver/src/stm32f4xx_can.c ****   *  @verbatim
  17:/home/jonas/warwick/3dProfilometer/xpcc/ext/stm32f4xx_lib/STM32F4xx_StdPeriph_Driver/src/stm32f4xx_can.c ****   *                               
  18:/home/jonas/warwick/3dProfilometer/xpcc/ext/stm32f4xx_lib/STM32F4xx_StdPeriph_Driver/src/stm32f4xx_can.c ****   *          ===================================================================      
  19:/home/jonas/warwick/3dProfilometer/xpcc/ext/stm32f4xx_lib/STM32F4xx_StdPeriph_Driver/src/stm32f4xx_can.c ****   *                                   How to use this driver
  20:/home/jonas/warwick/3dProfilometer/xpcc/ext/stm32f4xx_lib/STM32F4xx_StdPeriph_Driver/src/stm32f4xx_can.c ****   *          ===================================================================
  21:/home/jonas/warwick/3dProfilometer/xpcc/ext/stm32f4xx_lib/STM32F4xx_StdPeriph_Driver/src/stm32f4xx_can.c ****                 
  22:/home/jonas/warwick/3dProfilometer/xpcc/ext/stm32f4xx_lib/STM32F4xx_StdPeriph_Driver/src/stm32f4xx_can.c ****   *          1.  Enable the CAN controller interface clock using 
  23:/home/jonas/warwick/3dProfilometer/xpcc/ext/stm32f4xx_lib/STM32F4xx_StdPeriph_Driver/src/stm32f4xx_can.c ****   *                  RCC_APB1PeriphClockCmd(RCC_APB1Periph_CAN1, ENABLE); for CAN1 
  24:/home/jonas/warwick/3dProfilometer/xpcc/ext/stm32f4xx_lib/STM32F4xx_StdPeriph_Driver/src/stm32f4xx_can.c ****   *              and RCC_APB1PeriphClockCmd(RCC_APB1Periph_CAN2, ENABLE); for CAN2
  25:/home/jonas/warwick/3dProfilometer/xpcc/ext/stm32f4xx_lib/STM32F4xx_StdPeriph_Driver/src/stm32f4xx_can.c ****   *  @note   In case you are using CAN2 only, you have to enable the CAN1 clock.
  26:/home/jonas/warwick/3dProfilometer/xpcc/ext/stm32f4xx_lib/STM32F4xx_StdPeriph_Driver/src/stm32f4xx_can.c ****   *     
  27:/home/jonas/warwick/3dProfilometer/xpcc/ext/stm32f4xx_lib/STM32F4xx_StdPeriph_Driver/src/stm32f4xx_can.c ****   *          2. CAN pins configuration
  28:/home/jonas/warwick/3dProfilometer/xpcc/ext/stm32f4xx_lib/STM32F4xx_StdPeriph_Driver/src/stm32f4xx_can.c ****   *               - Enable the clock for the CAN GPIOs using the following function:
  29:/home/jonas/warwick/3dProfilometer/xpcc/ext/stm32f4xx_lib/STM32F4xx_StdPeriph_Driver/src/stm32f4xx_can.c ****   *                   RCC_AHB1PeriphClockCmd(RCC_AHB1Periph_GPIOx, ENABLE);   
  30:/home/jonas/warwick/3dProfilometer/xpcc/ext/stm32f4xx_lib/STM32F4xx_StdPeriph_Driver/src/stm32f4xx_can.c ****   *               - Connect the involved CAN pins to AF9 using the following function 
  31:/home/jonas/warwick/3dProfilometer/xpcc/ext/stm32f4xx_lib/STM32F4xx_StdPeriph_Driver/src/stm32f4xx_can.c ****   *                   GPIO_PinAFConfig(GPIOx, GPIO_PinSourcex, GPIO_AF_CANx); 
  32:/home/jonas/warwick/3dProfilometer/xpcc/ext/stm32f4xx_lib/STM32F4xx_StdPeriph_Driver/src/stm32f4xx_can.c ****   *                - Configure these CAN pins in alternate function mode by calling
  33:/home/jonas/warwick/3dProfilometer/xpcc/ext/stm32f4xx_lib/STM32F4xx_StdPeriph_Driver/src/stm32f4xx_can.c ****   *                  the function  GPIO_Init();
  34:/home/jonas/warwick/3dProfilometer/xpcc/ext/stm32f4xx_lib/STM32F4xx_StdPeriph_Driver/src/stm32f4xx_can.c ****   *    
  35:/home/jonas/warwick/3dProfilometer/xpcc/ext/stm32f4xx_lib/STM32F4xx_StdPeriph_Driver/src/stm32f4xx_can.c ****   *          3.  Initialise and configure the CAN using CAN_Init() and 
  36:/home/jonas/warwick/3dProfilometer/xpcc/ext/stm32f4xx_lib/STM32F4xx_StdPeriph_Driver/src/stm32f4xx_can.c ****   *               CAN_FilterInit() functions.   
  37:/home/jonas/warwick/3dProfilometer/xpcc/ext/stm32f4xx_lib/STM32F4xx_StdPeriph_Driver/src/stm32f4xx_can.c ****   *               
  38:/home/jonas/warwick/3dProfilometer/xpcc/ext/stm32f4xx_lib/STM32F4xx_StdPeriph_Driver/src/stm32f4xx_can.c ****   *          4.  Transmit the desired CAN frame using CAN_Transmit() function.
  39:/home/jonas/warwick/3dProfilometer/xpcc/ext/stm32f4xx_lib/STM32F4xx_StdPeriph_Driver/src/stm32f4xx_can.c ****   *         
  40:/home/jonas/warwick/3dProfilometer/xpcc/ext/stm32f4xx_lib/STM32F4xx_StdPeriph_Driver/src/stm32f4xx_can.c ****   *          5.  Check the transmission of a CAN frame using CAN_TransmitStatus()
  41:/home/jonas/warwick/3dProfilometer/xpcc/ext/stm32f4xx_lib/STM32F4xx_StdPeriph_Driver/src/stm32f4xx_can.c ****   *              function.
  42:/home/jonas/warwick/3dProfilometer/xpcc/ext/stm32f4xx_lib/STM32F4xx_StdPeriph_Driver/src/stm32f4xx_can.c ****   *               
  43:/home/jonas/warwick/3dProfilometer/xpcc/ext/stm32f4xx_lib/STM32F4xx_StdPeriph_Driver/src/stm32f4xx_can.c ****   *          6.  Cancel the transmission of a CAN frame using CAN_CancelTransmit()
  44:/home/jonas/warwick/3dProfilometer/xpcc/ext/stm32f4xx_lib/STM32F4xx_StdPeriph_Driver/src/stm32f4xx_can.c ****   *              function.  
  45:/home/jonas/warwick/3dProfilometer/xpcc/ext/stm32f4xx_lib/STM32F4xx_StdPeriph_Driver/src/stm32f4xx_can.c ****   *            
  46:/home/jonas/warwick/3dProfilometer/xpcc/ext/stm32f4xx_lib/STM32F4xx_StdPeriph_Driver/src/stm32f4xx_can.c ****   *          7.  Receive a CAN frame using CAN_Recieve() function.
  47:/home/jonas/warwick/3dProfilometer/xpcc/ext/stm32f4xx_lib/STM32F4xx_StdPeriph_Driver/src/stm32f4xx_can.c ****   *         
  48:/home/jonas/warwick/3dProfilometer/xpcc/ext/stm32f4xx_lib/STM32F4xx_StdPeriph_Driver/src/stm32f4xx_can.c ****   *          8.  Release the receive FIFOs using CAN_FIFORelease() function.
  49:/home/jonas/warwick/3dProfilometer/xpcc/ext/stm32f4xx_lib/STM32F4xx_StdPeriph_Driver/src/stm32f4xx_can.c ****   *               
  50:/home/jonas/warwick/3dProfilometer/xpcc/ext/stm32f4xx_lib/STM32F4xx_StdPeriph_Driver/src/stm32f4xx_can.c ****   *          9. Return the number of pending received frames using 
  51:/home/jonas/warwick/3dProfilometer/xpcc/ext/stm32f4xx_lib/STM32F4xx_StdPeriph_Driver/src/stm32f4xx_can.c ****   *              CAN_MessagePending() function.            
  52:/home/jonas/warwick/3dProfilometer/xpcc/ext/stm32f4xx_lib/STM32F4xx_StdPeriph_Driver/src/stm32f4xx_can.c ****   *                   
  53:/home/jonas/warwick/3dProfilometer/xpcc/ext/stm32f4xx_lib/STM32F4xx_StdPeriph_Driver/src/stm32f4xx_can.c ****   *          10. To control CAN events you can use one of the following two methods:
  54:/home/jonas/warwick/3dProfilometer/xpcc/ext/stm32f4xx_lib/STM32F4xx_StdPeriph_Driver/src/stm32f4xx_can.c ****   *               - Check on CAN flags using the CAN_GetFlagStatus() function.  
  55:/home/jonas/warwick/3dProfilometer/xpcc/ext/stm32f4xx_lib/STM32F4xx_StdPeriph_Driver/src/stm32f4xx_can.c ****   *               - Use CAN interrupts through the function CAN_ITConfig() at 
  56:/home/jonas/warwick/3dProfilometer/xpcc/ext/stm32f4xx_lib/STM32F4xx_StdPeriph_Driver/src/stm32f4xx_can.c ****   *                 initialization phase and CAN_GetITStatus() function into 
  57:/home/jonas/warwick/3dProfilometer/xpcc/ext/stm32f4xx_lib/STM32F4xx_StdPeriph_Driver/src/stm32f4xx_can.c ****   *                 interrupt routines to check if the event has occurred or not.
  58:/home/jonas/warwick/3dProfilometer/xpcc/ext/stm32f4xx_lib/STM32F4xx_StdPeriph_Driver/src/stm32f4xx_can.c ****   *             After checking on a flag you should clear it using CAN_ClearFlag()
  59:/home/jonas/warwick/3dProfilometer/xpcc/ext/stm32f4xx_lib/STM32F4xx_StdPeriph_Driver/src/stm32f4xx_can.c ****   *             function. And after checking on an interrupt event you should 
  60:/home/jonas/warwick/3dProfilometer/xpcc/ext/stm32f4xx_lib/STM32F4xx_StdPeriph_Driver/src/stm32f4xx_can.c ****   *             clear it using CAN_ClearITPendingBit() function.            
  61:/home/jonas/warwick/3dProfilometer/xpcc/ext/stm32f4xx_lib/STM32F4xx_StdPeriph_Driver/src/stm32f4xx_can.c ****   *               
  62:/home/jonas/warwick/3dProfilometer/xpcc/ext/stm32f4xx_lib/STM32F4xx_StdPeriph_Driver/src/stm32f4xx_can.c ****   *              
  63:/home/jonas/warwick/3dProfilometer/xpcc/ext/stm32f4xx_lib/STM32F4xx_StdPeriph_Driver/src/stm32f4xx_can.c ****   *  @endverbatim
  64:/home/jonas/warwick/3dProfilometer/xpcc/ext/stm32f4xx_lib/STM32F4xx_StdPeriph_Driver/src/stm32f4xx_can.c ****   *         
  65:/home/jonas/warwick/3dProfilometer/xpcc/ext/stm32f4xx_lib/STM32F4xx_StdPeriph_Driver/src/stm32f4xx_can.c ****   ******************************************************************************
  66:/home/jonas/warwick/3dProfilometer/xpcc/ext/stm32f4xx_lib/STM32F4xx_StdPeriph_Driver/src/stm32f4xx_can.c ****   * @attention
  67:/home/jonas/warwick/3dProfilometer/xpcc/ext/stm32f4xx_lib/STM32F4xx_StdPeriph_Driver/src/stm32f4xx_can.c ****   *
  68:/home/jonas/warwick/3dProfilometer/xpcc/ext/stm32f4xx_lib/STM32F4xx_StdPeriph_Driver/src/stm32f4xx_can.c ****   * THE PRESENT FIRMWARE WHICH IS FOR GUIDANCE ONLY AIMS AT PROVIDING CUSTOMERS
  69:/home/jonas/warwick/3dProfilometer/xpcc/ext/stm32f4xx_lib/STM32F4xx_StdPeriph_Driver/src/stm32f4xx_can.c ****   * WITH CODING INFORMATION REGARDING THEIR PRODUCTS IN ORDER FOR THEM TO SAVE
  70:/home/jonas/warwick/3dProfilometer/xpcc/ext/stm32f4xx_lib/STM32F4xx_StdPeriph_Driver/src/stm32f4xx_can.c ****   * TIME. AS A RESULT, STMICROELECTRONICS SHALL NOT BE HELD LIABLE FOR ANY
  71:/home/jonas/warwick/3dProfilometer/xpcc/ext/stm32f4xx_lib/STM32F4xx_StdPeriph_Driver/src/stm32f4xx_can.c ****   * DIRECT, INDIRECT OR CONSEQUENTIAL DAMAGES WITH RESPECT TO ANY CLAIMS ARISING
  72:/home/jonas/warwick/3dProfilometer/xpcc/ext/stm32f4xx_lib/STM32F4xx_StdPeriph_Driver/src/stm32f4xx_can.c ****   * FROM THE CONTENT OF SUCH FIRMWARE AND/OR THE USE MADE BY CUSTOMERS OF THE
  73:/home/jonas/warwick/3dProfilometer/xpcc/ext/stm32f4xx_lib/STM32F4xx_StdPeriph_Driver/src/stm32f4xx_can.c ****   * CODING INFORMATION CONTAINED HEREIN IN CONNECTION WITH THEIR PRODUCTS.
  74:/home/jonas/warwick/3dProfilometer/xpcc/ext/stm32f4xx_lib/STM32F4xx_StdPeriph_Driver/src/stm32f4xx_can.c ****   *
  75:/home/jonas/warwick/3dProfilometer/xpcc/ext/stm32f4xx_lib/STM32F4xx_StdPeriph_Driver/src/stm32f4xx_can.c ****   * <h2><center>&copy; COPYRIGHT 2011 STMicroelectronics</center></h2>
  76:/home/jonas/warwick/3dProfilometer/xpcc/ext/stm32f4xx_lib/STM32F4xx_StdPeriph_Driver/src/stm32f4xx_can.c ****   ******************************************************************************  
  77:/home/jonas/warwick/3dProfilometer/xpcc/ext/stm32f4xx_lib/STM32F4xx_StdPeriph_Driver/src/stm32f4xx_can.c ****   */
  78:/home/jonas/warwick/3dProfilometer/xpcc/ext/stm32f4xx_lib/STM32F4xx_StdPeriph_Driver/src/stm32f4xx_can.c **** 
  79:/home/jonas/warwick/3dProfilometer/xpcc/ext/stm32f4xx_lib/STM32F4xx_StdPeriph_Driver/src/stm32f4xx_can.c **** /* Includes ------------------------------------------------------------------*/
  80:/home/jonas/warwick/3dProfilometer/xpcc/ext/stm32f4xx_lib/STM32F4xx_StdPeriph_Driver/src/stm32f4xx_can.c **** #include "stm32f4xx_can.h"
  81:/home/jonas/warwick/3dProfilometer/xpcc/ext/stm32f4xx_lib/STM32F4xx_StdPeriph_Driver/src/stm32f4xx_can.c **** #include "stm32f4xx_rcc.h"
  82:/home/jonas/warwick/3dProfilometer/xpcc/ext/stm32f4xx_lib/STM32F4xx_StdPeriph_Driver/src/stm32f4xx_can.c **** 
  83:/home/jonas/warwick/3dProfilometer/xpcc/ext/stm32f4xx_lib/STM32F4xx_StdPeriph_Driver/src/stm32f4xx_can.c **** /** @addtogroup STM32F4xx_StdPeriph_Driver
  84:/home/jonas/warwick/3dProfilometer/xpcc/ext/stm32f4xx_lib/STM32F4xx_StdPeriph_Driver/src/stm32f4xx_can.c ****   * @{
  85:/home/jonas/warwick/3dProfilometer/xpcc/ext/stm32f4xx_lib/STM32F4xx_StdPeriph_Driver/src/stm32f4xx_can.c ****   */
  86:/home/jonas/warwick/3dProfilometer/xpcc/ext/stm32f4xx_lib/STM32F4xx_StdPeriph_Driver/src/stm32f4xx_can.c **** 
  87:/home/jonas/warwick/3dProfilometer/xpcc/ext/stm32f4xx_lib/STM32F4xx_StdPeriph_Driver/src/stm32f4xx_can.c **** /** @defgroup CAN 
  88:/home/jonas/warwick/3dProfilometer/xpcc/ext/stm32f4xx_lib/STM32F4xx_StdPeriph_Driver/src/stm32f4xx_can.c ****   * @brief CAN driver modules
  89:/home/jonas/warwick/3dProfilometer/xpcc/ext/stm32f4xx_lib/STM32F4xx_StdPeriph_Driver/src/stm32f4xx_can.c ****   * @{
  90:/home/jonas/warwick/3dProfilometer/xpcc/ext/stm32f4xx_lib/STM32F4xx_StdPeriph_Driver/src/stm32f4xx_can.c ****   */ 
  91:/home/jonas/warwick/3dProfilometer/xpcc/ext/stm32f4xx_lib/STM32F4xx_StdPeriph_Driver/src/stm32f4xx_can.c **** /* Private typedef -----------------------------------------------------------*/
  92:/home/jonas/warwick/3dProfilometer/xpcc/ext/stm32f4xx_lib/STM32F4xx_StdPeriph_Driver/src/stm32f4xx_can.c **** /* Private define ------------------------------------------------------------*/
  93:/home/jonas/warwick/3dProfilometer/xpcc/ext/stm32f4xx_lib/STM32F4xx_StdPeriph_Driver/src/stm32f4xx_can.c **** 
  94:/home/jonas/warwick/3dProfilometer/xpcc/ext/stm32f4xx_lib/STM32F4xx_StdPeriph_Driver/src/stm32f4xx_can.c **** /* CAN Master Control Register bits */
  95:/home/jonas/warwick/3dProfilometer/xpcc/ext/stm32f4xx_lib/STM32F4xx_StdPeriph_Driver/src/stm32f4xx_can.c **** #define MCR_DBF           ((uint32_t)0x00010000) /* software master reset */
  96:/home/jonas/warwick/3dProfilometer/xpcc/ext/stm32f4xx_lib/STM32F4xx_StdPeriph_Driver/src/stm32f4xx_can.c **** 
  97:/home/jonas/warwick/3dProfilometer/xpcc/ext/stm32f4xx_lib/STM32F4xx_StdPeriph_Driver/src/stm32f4xx_can.c **** /* CAN Mailbox Transmit Request */
  98:/home/jonas/warwick/3dProfilometer/xpcc/ext/stm32f4xx_lib/STM32F4xx_StdPeriph_Driver/src/stm32f4xx_can.c **** #define TMIDxR_TXRQ       ((uint32_t)0x00000001) /* Transmit mailbox request */
  99:/home/jonas/warwick/3dProfilometer/xpcc/ext/stm32f4xx_lib/STM32F4xx_StdPeriph_Driver/src/stm32f4xx_can.c **** 
 100:/home/jonas/warwick/3dProfilometer/xpcc/ext/stm32f4xx_lib/STM32F4xx_StdPeriph_Driver/src/stm32f4xx_can.c **** /* CAN Filter Master Register bits */
 101:/home/jonas/warwick/3dProfilometer/xpcc/ext/stm32f4xx_lib/STM32F4xx_StdPeriph_Driver/src/stm32f4xx_can.c **** #define FMR_FINIT         ((uint32_t)0x00000001) /* Filter init mode */
 102:/home/jonas/warwick/3dProfilometer/xpcc/ext/stm32f4xx_lib/STM32F4xx_StdPeriph_Driver/src/stm32f4xx_can.c **** 
 103:/home/jonas/warwick/3dProfilometer/xpcc/ext/stm32f4xx_lib/STM32F4xx_StdPeriph_Driver/src/stm32f4xx_can.c **** /* Time out for INAK bit */
 104:/home/jonas/warwick/3dProfilometer/xpcc/ext/stm32f4xx_lib/STM32F4xx_StdPeriph_Driver/src/stm32f4xx_can.c **** #define INAK_TIMEOUT      ((uint32_t)0x0000FFFF)
 105:/home/jonas/warwick/3dProfilometer/xpcc/ext/stm32f4xx_lib/STM32F4xx_StdPeriph_Driver/src/stm32f4xx_can.c **** /* Time out for SLAK bit */
 106:/home/jonas/warwick/3dProfilometer/xpcc/ext/stm32f4xx_lib/STM32F4xx_StdPeriph_Driver/src/stm32f4xx_can.c **** #define SLAK_TIMEOUT      ((uint32_t)0x0000FFFF)
 107:/home/jonas/warwick/3dProfilometer/xpcc/ext/stm32f4xx_lib/STM32F4xx_StdPeriph_Driver/src/stm32f4xx_can.c **** 
 108:/home/jonas/warwick/3dProfilometer/xpcc/ext/stm32f4xx_lib/STM32F4xx_StdPeriph_Driver/src/stm32f4xx_can.c **** /* Flags in TSR register */
 109:/home/jonas/warwick/3dProfilometer/xpcc/ext/stm32f4xx_lib/STM32F4xx_StdPeriph_Driver/src/stm32f4xx_can.c **** #define CAN_FLAGS_TSR     ((uint32_t)0x08000000) 
 110:/home/jonas/warwick/3dProfilometer/xpcc/ext/stm32f4xx_lib/STM32F4xx_StdPeriph_Driver/src/stm32f4xx_can.c **** /* Flags in RF1R register */
 111:/home/jonas/warwick/3dProfilometer/xpcc/ext/stm32f4xx_lib/STM32F4xx_StdPeriph_Driver/src/stm32f4xx_can.c **** #define CAN_FLAGS_RF1R    ((uint32_t)0x04000000) 
 112:/home/jonas/warwick/3dProfilometer/xpcc/ext/stm32f4xx_lib/STM32F4xx_StdPeriph_Driver/src/stm32f4xx_can.c **** /* Flags in RF0R register */
 113:/home/jonas/warwick/3dProfilometer/xpcc/ext/stm32f4xx_lib/STM32F4xx_StdPeriph_Driver/src/stm32f4xx_can.c **** #define CAN_FLAGS_RF0R    ((uint32_t)0x02000000) 
 114:/home/jonas/warwick/3dProfilometer/xpcc/ext/stm32f4xx_lib/STM32F4xx_StdPeriph_Driver/src/stm32f4xx_can.c **** /* Flags in MSR register */
 115:/home/jonas/warwick/3dProfilometer/xpcc/ext/stm32f4xx_lib/STM32F4xx_StdPeriph_Driver/src/stm32f4xx_can.c **** #define CAN_FLAGS_MSR     ((uint32_t)0x01000000) 
 116:/home/jonas/warwick/3dProfilometer/xpcc/ext/stm32f4xx_lib/STM32F4xx_StdPeriph_Driver/src/stm32f4xx_can.c **** /* Flags in ESR register */
 117:/home/jonas/warwick/3dProfilometer/xpcc/ext/stm32f4xx_lib/STM32F4xx_StdPeriph_Driver/src/stm32f4xx_can.c **** #define CAN_FLAGS_ESR     ((uint32_t)0x00F00000) 
 118:/home/jonas/warwick/3dProfilometer/xpcc/ext/stm32f4xx_lib/STM32F4xx_StdPeriph_Driver/src/stm32f4xx_can.c **** 
 119:/home/jonas/warwick/3dProfilometer/xpcc/ext/stm32f4xx_lib/STM32F4xx_StdPeriph_Driver/src/stm32f4xx_can.c **** /* Mailboxes definition */
 120:/home/jonas/warwick/3dProfilometer/xpcc/ext/stm32f4xx_lib/STM32F4xx_StdPeriph_Driver/src/stm32f4xx_can.c **** #define CAN_TXMAILBOX_0   ((uint8_t)0x00)
 121:/home/jonas/warwick/3dProfilometer/xpcc/ext/stm32f4xx_lib/STM32F4xx_StdPeriph_Driver/src/stm32f4xx_can.c **** #define CAN_TXMAILBOX_1   ((uint8_t)0x01)
 122:/home/jonas/warwick/3dProfilometer/xpcc/ext/stm32f4xx_lib/STM32F4xx_StdPeriph_Driver/src/stm32f4xx_can.c **** #define CAN_TXMAILBOX_2   ((uint8_t)0x02) 
 123:/home/jonas/warwick/3dProfilometer/xpcc/ext/stm32f4xx_lib/STM32F4xx_StdPeriph_Driver/src/stm32f4xx_can.c **** 
 124:/home/jonas/warwick/3dProfilometer/xpcc/ext/stm32f4xx_lib/STM32F4xx_StdPeriph_Driver/src/stm32f4xx_can.c **** #define CAN_MODE_MASK     ((uint32_t) 0x00000003)
 125:/home/jonas/warwick/3dProfilometer/xpcc/ext/stm32f4xx_lib/STM32F4xx_StdPeriph_Driver/src/stm32f4xx_can.c **** 
 126:/home/jonas/warwick/3dProfilometer/xpcc/ext/stm32f4xx_lib/STM32F4xx_StdPeriph_Driver/src/stm32f4xx_can.c **** /* Private macro -------------------------------------------------------------*/
 127:/home/jonas/warwick/3dProfilometer/xpcc/ext/stm32f4xx_lib/STM32F4xx_StdPeriph_Driver/src/stm32f4xx_can.c **** /* Private variables ---------------------------------------------------------*/
 128:/home/jonas/warwick/3dProfilometer/xpcc/ext/stm32f4xx_lib/STM32F4xx_StdPeriph_Driver/src/stm32f4xx_can.c **** /* Private function prototypes -----------------------------------------------*/
 129:/home/jonas/warwick/3dProfilometer/xpcc/ext/stm32f4xx_lib/STM32F4xx_StdPeriph_Driver/src/stm32f4xx_can.c **** /* Private functions ---------------------------------------------------------*/
 130:/home/jonas/warwick/3dProfilometer/xpcc/ext/stm32f4xx_lib/STM32F4xx_StdPeriph_Driver/src/stm32f4xx_can.c **** static ITStatus CheckITStatus(uint32_t CAN_Reg, uint32_t It_Bit);
 131:/home/jonas/warwick/3dProfilometer/xpcc/ext/stm32f4xx_lib/STM32F4xx_StdPeriph_Driver/src/stm32f4xx_can.c **** 
 132:/home/jonas/warwick/3dProfilometer/xpcc/ext/stm32f4xx_lib/STM32F4xx_StdPeriph_Driver/src/stm32f4xx_can.c **** /** @defgroup CAN_Private_Functions
 133:/home/jonas/warwick/3dProfilometer/xpcc/ext/stm32f4xx_lib/STM32F4xx_StdPeriph_Driver/src/stm32f4xx_can.c ****   * @{
 134:/home/jonas/warwick/3dProfilometer/xpcc/ext/stm32f4xx_lib/STM32F4xx_StdPeriph_Driver/src/stm32f4xx_can.c ****   */
 135:/home/jonas/warwick/3dProfilometer/xpcc/ext/stm32f4xx_lib/STM32F4xx_StdPeriph_Driver/src/stm32f4xx_can.c **** 
 136:/home/jonas/warwick/3dProfilometer/xpcc/ext/stm32f4xx_lib/STM32F4xx_StdPeriph_Driver/src/stm32f4xx_can.c **** /** @defgroup CAN_Group1 Initialization and Configuration functions
 137:/home/jonas/warwick/3dProfilometer/xpcc/ext/stm32f4xx_lib/STM32F4xx_StdPeriph_Driver/src/stm32f4xx_can.c ****  *  @brief    Initialization and Configuration functions 
 138:/home/jonas/warwick/3dProfilometer/xpcc/ext/stm32f4xx_lib/STM32F4xx_StdPeriph_Driver/src/stm32f4xx_can.c ****  *
 139:/home/jonas/warwick/3dProfilometer/xpcc/ext/stm32f4xx_lib/STM32F4xx_StdPeriph_Driver/src/stm32f4xx_can.c **** @verbatim    
 140:/home/jonas/warwick/3dProfilometer/xpcc/ext/stm32f4xx_lib/STM32F4xx_StdPeriph_Driver/src/stm32f4xx_can.c ****  ===============================================================================
 141:/home/jonas/warwick/3dProfilometer/xpcc/ext/stm32f4xx_lib/STM32F4xx_StdPeriph_Driver/src/stm32f4xx_can.c ****                       Initialization and Configuration functions
 142:/home/jonas/warwick/3dProfilometer/xpcc/ext/stm32f4xx_lib/STM32F4xx_StdPeriph_Driver/src/stm32f4xx_can.c ****  ===============================================================================  
 143:/home/jonas/warwick/3dProfilometer/xpcc/ext/stm32f4xx_lib/STM32F4xx_StdPeriph_Driver/src/stm32f4xx_can.c ****   This section provides functions allowing to 
 144:/home/jonas/warwick/3dProfilometer/xpcc/ext/stm32f4xx_lib/STM32F4xx_StdPeriph_Driver/src/stm32f4xx_can.c ****    - Initialize the CAN peripherals : Prescaler, operating mode, the maximum number 
 145:/home/jonas/warwick/3dProfilometer/xpcc/ext/stm32f4xx_lib/STM32F4xx_StdPeriph_Driver/src/stm32f4xx_can.c ****      of time quanta to perform resynchronization, the number of time quanta in
 146:/home/jonas/warwick/3dProfilometer/xpcc/ext/stm32f4xx_lib/STM32F4xx_StdPeriph_Driver/src/stm32f4xx_can.c ****      Bit Segment 1 and 2 and many other modes. 
 147:/home/jonas/warwick/3dProfilometer/xpcc/ext/stm32f4xx_lib/STM32F4xx_StdPeriph_Driver/src/stm32f4xx_can.c ****      Refer to  @ref CAN_InitTypeDef  for more details.
 148:/home/jonas/warwick/3dProfilometer/xpcc/ext/stm32f4xx_lib/STM32F4xx_StdPeriph_Driver/src/stm32f4xx_can.c ****    - Configures the CAN reception filter.                                      
 149:/home/jonas/warwick/3dProfilometer/xpcc/ext/stm32f4xx_lib/STM32F4xx_StdPeriph_Driver/src/stm32f4xx_can.c ****    - Select the start bank filter for slave CAN.
 150:/home/jonas/warwick/3dProfilometer/xpcc/ext/stm32f4xx_lib/STM32F4xx_StdPeriph_Driver/src/stm32f4xx_can.c ****    - Enables or disables the Debug Freeze mode for CAN
 151:/home/jonas/warwick/3dProfilometer/xpcc/ext/stm32f4xx_lib/STM32F4xx_StdPeriph_Driver/src/stm32f4xx_can.c ****    - Enables or disables the CAN Time Trigger Operation communication mode
 152:/home/jonas/warwick/3dProfilometer/xpcc/ext/stm32f4xx_lib/STM32F4xx_StdPeriph_Driver/src/stm32f4xx_can.c ****    
 153:/home/jonas/warwick/3dProfilometer/xpcc/ext/stm32f4xx_lib/STM32F4xx_StdPeriph_Driver/src/stm32f4xx_can.c **** @endverbatim
 154:/home/jonas/warwick/3dProfilometer/xpcc/ext/stm32f4xx_lib/STM32F4xx_StdPeriph_Driver/src/stm32f4xx_can.c ****   * @{
 155:/home/jonas/warwick/3dProfilometer/xpcc/ext/stm32f4xx_lib/STM32F4xx_StdPeriph_Driver/src/stm32f4xx_can.c ****   */
 156:/home/jonas/warwick/3dProfilometer/xpcc/ext/stm32f4xx_lib/STM32F4xx_StdPeriph_Driver/src/stm32f4xx_can.c ****   
 157:/home/jonas/warwick/3dProfilometer/xpcc/ext/stm32f4xx_lib/STM32F4xx_StdPeriph_Driver/src/stm32f4xx_can.c **** /**
 158:/home/jonas/warwick/3dProfilometer/xpcc/ext/stm32f4xx_lib/STM32F4xx_StdPeriph_Driver/src/stm32f4xx_can.c ****   * @brief  Deinitializes the CAN peripheral registers to their default reset values.
 159:/home/jonas/warwick/3dProfilometer/xpcc/ext/stm32f4xx_lib/STM32F4xx_StdPeriph_Driver/src/stm32f4xx_can.c ****   * @param  CANx: where x can be 1 or 2 to select the CAN peripheral.
 160:/home/jonas/warwick/3dProfilometer/xpcc/ext/stm32f4xx_lib/STM32F4xx_StdPeriph_Driver/src/stm32f4xx_can.c ****   * @retval None.
 161:/home/jonas/warwick/3dProfilometer/xpcc/ext/stm32f4xx_lib/STM32F4xx_StdPeriph_Driver/src/stm32f4xx_can.c ****   */
 162:/home/jonas/warwick/3dProfilometer/xpcc/ext/stm32f4xx_lib/STM32F4xx_StdPeriph_Driver/src/stm32f4xx_can.c **** void CAN_DeInit(CAN_TypeDef* CANx)
 163:/home/jonas/warwick/3dProfilometer/xpcc/ext/stm32f4xx_lib/STM32F4xx_StdPeriph_Driver/src/stm32f4xx_can.c **** {
  28              		.loc 1 163 0
  29              		.cfi_startproc
  30              		@ args = 0, pretend = 0, frame = 0
  31              		@ frame_needed = 0, uses_anonymous_args = 0
  32              	.LVL0:
 164:/home/jonas/warwick/3dProfilometer/xpcc/ext/stm32f4xx_lib/STM32F4xx_StdPeriph_Driver/src/stm32f4xx_can.c ****   /* Check the parameters */
 165:/home/jonas/warwick/3dProfilometer/xpcc/ext/stm32f4xx_lib/STM32F4xx_StdPeriph_Driver/src/stm32f4xx_can.c ****   assert_param(IS_CAN_ALL_PERIPH(CANx));
 166:/home/jonas/warwick/3dProfilometer/xpcc/ext/stm32f4xx_lib/STM32F4xx_StdPeriph_Driver/src/stm32f4xx_can.c ****  
 167:/home/jonas/warwick/3dProfilometer/xpcc/ext/stm32f4xx_lib/STM32F4xx_StdPeriph_Driver/src/stm32f4xx_can.c ****   if (CANx == CAN1)
  33              		.loc 1 167 0
  34 0000 0B4B     		ldr	r3, .L6
  35 0002 9842     		cmp	r0, r3
 163:/home/jonas/warwick/3dProfilometer/xpcc/ext/stm32f4xx_lib/STM32F4xx_StdPeriph_Driver/src/stm32f4xx_can.c **** {
  36              		.loc 1 163 0
  37 0004 10B5     		push	{r4, lr}
  38              	.LCFI0:
  39              		.cfi_def_cfa_offset 8
  40              		.cfi_offset 4, -8
  41              		.cfi_offset 14, -4
  42              		.loc 1 167 0
  43 0006 09D0     		beq	.L5
 168:/home/jonas/warwick/3dProfilometer/xpcc/ext/stm32f4xx_lib/STM32F4xx_StdPeriph_Driver/src/stm32f4xx_can.c ****   {
 169:/home/jonas/warwick/3dProfilometer/xpcc/ext/stm32f4xx_lib/STM32F4xx_StdPeriph_Driver/src/stm32f4xx_can.c ****     /* Enable CAN1 reset state */
 170:/home/jonas/warwick/3dProfilometer/xpcc/ext/stm32f4xx_lib/STM32F4xx_StdPeriph_Driver/src/stm32f4xx_can.c ****     RCC_APB1PeriphResetCmd(RCC_APB1Periph_CAN1, ENABLE);
 171:/home/jonas/warwick/3dProfilometer/xpcc/ext/stm32f4xx_lib/STM32F4xx_StdPeriph_Driver/src/stm32f4xx_can.c ****     /* Release CAN1 from reset state */
 172:/home/jonas/warwick/3dProfilometer/xpcc/ext/stm32f4xx_lib/STM32F4xx_StdPeriph_Driver/src/stm32f4xx_can.c ****     RCC_APB1PeriphResetCmd(RCC_APB1Periph_CAN1, DISABLE);
 173:/home/jonas/warwick/3dProfilometer/xpcc/ext/stm32f4xx_lib/STM32F4xx_StdPeriph_Driver/src/stm32f4xx_can.c ****   }
 174:/home/jonas/warwick/3dProfilometer/xpcc/ext/stm32f4xx_lib/STM32F4xx_StdPeriph_Driver/src/stm32f4xx_can.c ****   else
 175:/home/jonas/warwick/3dProfilometer/xpcc/ext/stm32f4xx_lib/STM32F4xx_StdPeriph_Driver/src/stm32f4xx_can.c ****   {  
 176:/home/jonas/warwick/3dProfilometer/xpcc/ext/stm32f4xx_lib/STM32F4xx_StdPeriph_Driver/src/stm32f4xx_can.c ****     /* Enable CAN2 reset state */
 177:/home/jonas/warwick/3dProfilometer/xpcc/ext/stm32f4xx_lib/STM32F4xx_StdPeriph_Driver/src/stm32f4xx_can.c ****     RCC_APB1PeriphResetCmd(RCC_APB1Periph_CAN2, ENABLE);
  44              		.loc 1 177 0
  45 0008 0121     		movs	r1, #1
  46 000a 4FF08060 		mov	r0, #67108864
  47              	.LVL1:
  48 000e 094C     		ldr	r4, .L6+4
  49 0010 A047     		blx	r4
  50              	.LVL2:
 178:/home/jonas/warwick/3dProfilometer/xpcc/ext/stm32f4xx_lib/STM32F4xx_StdPeriph_Driver/src/stm32f4xx_can.c ****     /* Release CAN2 from reset state */
 179:/home/jonas/warwick/3dProfilometer/xpcc/ext/stm32f4xx_lib/STM32F4xx_StdPeriph_Driver/src/stm32f4xx_can.c ****     RCC_APB1PeriphResetCmd(RCC_APB1Periph_CAN2, DISABLE);
  51              		.loc 1 179 0
  52 0012 4FF08060 		mov	r0, #67108864
  53 0016 0021     		movs	r1, #0
  54 0018 A047     		blx	r4
  55              	.LVL3:
  56 001a 10BD     		pop	{r4, pc}
  57              	.LVL4:
  58              	.L5:
 170:/home/jonas/warwick/3dProfilometer/xpcc/ext/stm32f4xx_lib/STM32F4xx_StdPeriph_Driver/src/stm32f4xx_can.c ****     RCC_APB1PeriphResetCmd(RCC_APB1Periph_CAN1, ENABLE);
  59              		.loc 1 170 0
  60 001c 0121     		movs	r1, #1
  61 001e 4FF00070 		mov	r0, #33554432
  62              	.LVL5:
  63 0022 044C     		ldr	r4, .L6+4
  64 0024 A047     		blx	r4
  65              	.LVL6:
 172:/home/jonas/warwick/3dProfilometer/xpcc/ext/stm32f4xx_lib/STM32F4xx_StdPeriph_Driver/src/stm32f4xx_can.c ****     RCC_APB1PeriphResetCmd(RCC_APB1Periph_CAN1, DISABLE);
  66              		.loc 1 172 0
  67 0026 4FF00070 		mov	r0, #33554432
  68 002a 0021     		movs	r1, #0
  69 002c A047     		blx	r4
  70              	.LVL7:
  71 002e 10BD     		pop	{r4, pc}
  72              	.L7:
  73              		.align	2
  74              	.L6:
  75 0030 00640040 		.word	1073767424
  76 0034 00000000 		.word	RCC_APB1PeriphResetCmd
  77              		.cfi_endproc
  78              	.LFE110:
  80              		.section	.text.CAN_Init,"ax",%progbits
  81              		.align	2
  82              		.global	CAN_Init
  83              		.thumb
  84              		.thumb_func
  86              	CAN_Init:
  87              	.LFB111:
 180:/home/jonas/warwick/3dProfilometer/xpcc/ext/stm32f4xx_lib/STM32F4xx_StdPeriph_Driver/src/stm32f4xx_can.c ****   }
 181:/home/jonas/warwick/3dProfilometer/xpcc/ext/stm32f4xx_lib/STM32F4xx_StdPeriph_Driver/src/stm32f4xx_can.c **** }
 182:/home/jonas/warwick/3dProfilometer/xpcc/ext/stm32f4xx_lib/STM32F4xx_StdPeriph_Driver/src/stm32f4xx_can.c **** 
 183:/home/jonas/warwick/3dProfilometer/xpcc/ext/stm32f4xx_lib/STM32F4xx_StdPeriph_Driver/src/stm32f4xx_can.c **** /**
 184:/home/jonas/warwick/3dProfilometer/xpcc/ext/stm32f4xx_lib/STM32F4xx_StdPeriph_Driver/src/stm32f4xx_can.c ****   * @brief  Initializes the CAN peripheral according to the specified
 185:/home/jonas/warwick/3dProfilometer/xpcc/ext/stm32f4xx_lib/STM32F4xx_StdPeriph_Driver/src/stm32f4xx_can.c ****   *         parameters in the CAN_InitStruct.
 186:/home/jonas/warwick/3dProfilometer/xpcc/ext/stm32f4xx_lib/STM32F4xx_StdPeriph_Driver/src/stm32f4xx_can.c ****   * @param  CANx: where x can be 1 or 2 to select the CAN peripheral.
 187:/home/jonas/warwick/3dProfilometer/xpcc/ext/stm32f4xx_lib/STM32F4xx_StdPeriph_Driver/src/stm32f4xx_can.c ****   * @param  CAN_InitStruct: pointer to a CAN_InitTypeDef structure that contains
 188:/home/jonas/warwick/3dProfilometer/xpcc/ext/stm32f4xx_lib/STM32F4xx_StdPeriph_Driver/src/stm32f4xx_can.c ****   *         the configuration information for the CAN peripheral.
 189:/home/jonas/warwick/3dProfilometer/xpcc/ext/stm32f4xx_lib/STM32F4xx_StdPeriph_Driver/src/stm32f4xx_can.c ****   * @retval Constant indicates initialization succeed which will be 
 190:/home/jonas/warwick/3dProfilometer/xpcc/ext/stm32f4xx_lib/STM32F4xx_StdPeriph_Driver/src/stm32f4xx_can.c ****   *         CAN_InitStatus_Failed or CAN_InitStatus_Success.
 191:/home/jonas/warwick/3dProfilometer/xpcc/ext/stm32f4xx_lib/STM32F4xx_StdPeriph_Driver/src/stm32f4xx_can.c ****   */
 192:/home/jonas/warwick/3dProfilometer/xpcc/ext/stm32f4xx_lib/STM32F4xx_StdPeriph_Driver/src/stm32f4xx_can.c **** uint8_t CAN_Init(CAN_TypeDef* CANx, CAN_InitTypeDef* CAN_InitStruct)
 193:/home/jonas/warwick/3dProfilometer/xpcc/ext/stm32f4xx_lib/STM32F4xx_StdPeriph_Driver/src/stm32f4xx_can.c **** {
  88              		.loc 1 193 0
  89              		.cfi_startproc
  90              		@ args = 0, pretend = 0, frame = 0
  91              		@ frame_needed = 0, uses_anonymous_args = 0
  92              		@ link register save eliminated.
  93              	.LVL8:
 194:/home/jonas/warwick/3dProfilometer/xpcc/ext/stm32f4xx_lib/STM32F4xx_StdPeriph_Driver/src/stm32f4xx_can.c ****   uint8_t InitStatus = CAN_InitStatus_Failed;
 195:/home/jonas/warwick/3dProfilometer/xpcc/ext/stm32f4xx_lib/STM32F4xx_StdPeriph_Driver/src/stm32f4xx_can.c ****   uint32_t wait_ack = 0x00000000;
 196:/home/jonas/warwick/3dProfilometer/xpcc/ext/stm32f4xx_lib/STM32F4xx_StdPeriph_Driver/src/stm32f4xx_can.c ****   /* Check the parameters */
 197:/home/jonas/warwick/3dProfilometer/xpcc/ext/stm32f4xx_lib/STM32F4xx_StdPeriph_Driver/src/stm32f4xx_can.c ****   assert_param(IS_CAN_ALL_PERIPH(CANx));
 198:/home/jonas/warwick/3dProfilometer/xpcc/ext/stm32f4xx_lib/STM32F4xx_StdPeriph_Driver/src/stm32f4xx_can.c ****   assert_param(IS_FUNCTIONAL_STATE(CAN_InitStruct->CAN_TTCM));
 199:/home/jonas/warwick/3dProfilometer/xpcc/ext/stm32f4xx_lib/STM32F4xx_StdPeriph_Driver/src/stm32f4xx_can.c ****   assert_param(IS_FUNCTIONAL_STATE(CAN_InitStruct->CAN_ABOM));
 200:/home/jonas/warwick/3dProfilometer/xpcc/ext/stm32f4xx_lib/STM32F4xx_StdPeriph_Driver/src/stm32f4xx_can.c ****   assert_param(IS_FUNCTIONAL_STATE(CAN_InitStruct->CAN_AWUM));
 201:/home/jonas/warwick/3dProfilometer/xpcc/ext/stm32f4xx_lib/STM32F4xx_StdPeriph_Driver/src/stm32f4xx_can.c ****   assert_param(IS_FUNCTIONAL_STATE(CAN_InitStruct->CAN_NART));
 202:/home/jonas/warwick/3dProfilometer/xpcc/ext/stm32f4xx_lib/STM32F4xx_StdPeriph_Driver/src/stm32f4xx_can.c ****   assert_param(IS_FUNCTIONAL_STATE(CAN_InitStruct->CAN_RFLM));
 203:/home/jonas/warwick/3dProfilometer/xpcc/ext/stm32f4xx_lib/STM32F4xx_StdPeriph_Driver/src/stm32f4xx_can.c ****   assert_param(IS_FUNCTIONAL_STATE(CAN_InitStruct->CAN_TXFP));
 204:/home/jonas/warwick/3dProfilometer/xpcc/ext/stm32f4xx_lib/STM32F4xx_StdPeriph_Driver/src/stm32f4xx_can.c ****   assert_param(IS_CAN_MODE(CAN_InitStruct->CAN_Mode));
 205:/home/jonas/warwick/3dProfilometer/xpcc/ext/stm32f4xx_lib/STM32F4xx_StdPeriph_Driver/src/stm32f4xx_can.c ****   assert_param(IS_CAN_SJW(CAN_InitStruct->CAN_SJW));
 206:/home/jonas/warwick/3dProfilometer/xpcc/ext/stm32f4xx_lib/STM32F4xx_StdPeriph_Driver/src/stm32f4xx_can.c ****   assert_param(IS_CAN_BS1(CAN_InitStruct->CAN_BS1));
 207:/home/jonas/warwick/3dProfilometer/xpcc/ext/stm32f4xx_lib/STM32F4xx_StdPeriph_Driver/src/stm32f4xx_can.c ****   assert_param(IS_CAN_BS2(CAN_InitStruct->CAN_BS2));
 208:/home/jonas/warwick/3dProfilometer/xpcc/ext/stm32f4xx_lib/STM32F4xx_StdPeriph_Driver/src/stm32f4xx_can.c ****   assert_param(IS_CAN_PRESCALER(CAN_InitStruct->CAN_Prescaler));
 209:/home/jonas/warwick/3dProfilometer/xpcc/ext/stm32f4xx_lib/STM32F4xx_StdPeriph_Driver/src/stm32f4xx_can.c **** 
 210:/home/jonas/warwick/3dProfilometer/xpcc/ext/stm32f4xx_lib/STM32F4xx_StdPeriph_Driver/src/stm32f4xx_can.c ****   /* Exit from sleep mode */
 211:/home/jonas/warwick/3dProfilometer/xpcc/ext/stm32f4xx_lib/STM32F4xx_StdPeriph_Driver/src/stm32f4xx_can.c ****   CANx->MCR &= (~(uint32_t)CAN_MCR_SLEEP);
  94              		.loc 1 211 0
  95 0000 0368     		ldr	r3, [r0, #0]
  96 0002 23F00203 		bic	r3, r3, #2
 193:/home/jonas/warwick/3dProfilometer/xpcc/ext/stm32f4xx_lib/STM32F4xx_StdPeriph_Driver/src/stm32f4xx_can.c **** {
  97              		.loc 1 193 0
  98 0006 70B4     		push	{r4, r5, r6}
  99              	.LCFI1:
 100              		.cfi_def_cfa_offset 12
 101              		.cfi_offset 4, -12
 102              		.cfi_offset 5, -8
 103              		.cfi_offset 6, -4
 104              		.loc 1 211 0
 105 0008 0360     		str	r3, [r0, #0]
 212:/home/jonas/warwick/3dProfilometer/xpcc/ext/stm32f4xx_lib/STM32F4xx_StdPeriph_Driver/src/stm32f4xx_can.c **** 
 213:/home/jonas/warwick/3dProfilometer/xpcc/ext/stm32f4xx_lib/STM32F4xx_StdPeriph_Driver/src/stm32f4xx_can.c ****   /* Request initialisation */
 214:/home/jonas/warwick/3dProfilometer/xpcc/ext/stm32f4xx_lib/STM32F4xx_StdPeriph_Driver/src/stm32f4xx_can.c ****   CANx->MCR |= CAN_MCR_INRQ ;
 106              		.loc 1 214 0
 107 000a 0368     		ldr	r3, [r0, #0]
 108 000c 43F00103 		orr	r3, r3, #1
 109 0010 0360     		str	r3, [r0, #0]
 215:/home/jonas/warwick/3dProfilometer/xpcc/ext/stm32f4xx_lib/STM32F4xx_StdPeriph_Driver/src/stm32f4xx_can.c **** 
 216:/home/jonas/warwick/3dProfilometer/xpcc/ext/stm32f4xx_lib/STM32F4xx_StdPeriph_Driver/src/stm32f4xx_can.c ****   /* Wait the acknowledge */
 217:/home/jonas/warwick/3dProfilometer/xpcc/ext/stm32f4xx_lib/STM32F4xx_StdPeriph_Driver/src/stm32f4xx_can.c ****   while (((CANx->MSR & CAN_MSR_INAK) != CAN_MSR_INAK) && (wait_ack != INAK_TIMEOUT))
 110              		.loc 1 217 0
 111 0012 4368     		ldr	r3, [r0, #4]
 112 0014 13F00103 		ands	r3, r3, #1
 113 0018 04D0     		beq	.L10
 114 001a 07E0     		b	.L9
 115              	.LVL9:
 116              	.L35:
 117              		.loc 1 217 0 is_stmt 0 discriminator 2
 118 001c 4FF6FF72 		movw	r2, #65535
 119 0020 9342     		cmp	r3, r2
 120 0022 03D0     		beq	.L9
 121              	.LVL10:
 122              	.L10:
 123              		.loc 1 217 0
 124 0024 4268     		ldr	r2, [r0, #4]
 218:/home/jonas/warwick/3dProfilometer/xpcc/ext/stm32f4xx_lib/STM32F4xx_StdPeriph_Driver/src/stm32f4xx_can.c ****   {
 219:/home/jonas/warwick/3dProfilometer/xpcc/ext/stm32f4xx_lib/STM32F4xx_StdPeriph_Driver/src/stm32f4xx_can.c ****     wait_ack++;
 125              		.loc 1 219 0 is_stmt 1
 126 0026 0133     		adds	r3, r3, #1
 127              	.LVL11:
 217:/home/jonas/warwick/3dProfilometer/xpcc/ext/stm32f4xx_lib/STM32F4xx_StdPeriph_Driver/src/stm32f4xx_can.c ****   while (((CANx->MSR & CAN_MSR_INAK) != CAN_MSR_INAK) && (wait_ack != INAK_TIMEOUT))
 128              		.loc 1 217 0
 129 0028 D207     		lsls	r2, r2, #31
 130 002a F7D5     		bpl	.L35
 131              	.LVL12:
 132              	.L9:
 220:/home/jonas/warwick/3dProfilometer/xpcc/ext/stm32f4xx_lib/STM32F4xx_StdPeriph_Driver/src/stm32f4xx_can.c ****   }
 221:/home/jonas/warwick/3dProfilometer/xpcc/ext/stm32f4xx_lib/STM32F4xx_StdPeriph_Driver/src/stm32f4xx_can.c **** 
 222:/home/jonas/warwick/3dProfilometer/xpcc/ext/stm32f4xx_lib/STM32F4xx_StdPeriph_Driver/src/stm32f4xx_can.c ****   /* Check acknowledge */
 223:/home/jonas/warwick/3dProfilometer/xpcc/ext/stm32f4xx_lib/STM32F4xx_StdPeriph_Driver/src/stm32f4xx_can.c ****   if ((CANx->MSR & CAN_MSR_INAK) != CAN_MSR_INAK)
 133              		.loc 1 223 0
 134 002c 4368     		ldr	r3, [r0, #4]
 135 002e 13F00103 		ands	r3, r3, #1
 136 0032 5CD0     		beq	.L26
 224:/home/jonas/warwick/3dProfilometer/xpcc/ext/stm32f4xx_lib/STM32F4xx_StdPeriph_Driver/src/stm32f4xx_can.c ****   {
 225:/home/jonas/warwick/3dProfilometer/xpcc/ext/stm32f4xx_lib/STM32F4xx_StdPeriph_Driver/src/stm32f4xx_can.c ****     InitStatus = CAN_InitStatus_Failed;
 226:/home/jonas/warwick/3dProfilometer/xpcc/ext/stm32f4xx_lib/STM32F4xx_StdPeriph_Driver/src/stm32f4xx_can.c ****   }
 227:/home/jonas/warwick/3dProfilometer/xpcc/ext/stm32f4xx_lib/STM32F4xx_StdPeriph_Driver/src/stm32f4xx_can.c ****   else 
 228:/home/jonas/warwick/3dProfilometer/xpcc/ext/stm32f4xx_lib/STM32F4xx_StdPeriph_Driver/src/stm32f4xx_can.c ****   {
 229:/home/jonas/warwick/3dProfilometer/xpcc/ext/stm32f4xx_lib/STM32F4xx_StdPeriph_Driver/src/stm32f4xx_can.c ****     /* Set the time triggered communication mode */
 230:/home/jonas/warwick/3dProfilometer/xpcc/ext/stm32f4xx_lib/STM32F4xx_StdPeriph_Driver/src/stm32f4xx_can.c ****     if (CAN_InitStruct->CAN_TTCM == ENABLE)
 137              		.loc 1 230 0
 138 0034 8B79     		ldrb	r3, [r1, #6]	@ zero_extendqisi2
 139 0036 012B     		cmp	r3, #1
 231:/home/jonas/warwick/3dProfilometer/xpcc/ext/stm32f4xx_lib/STM32F4xx_StdPeriph_Driver/src/stm32f4xx_can.c ****     {
 232:/home/jonas/warwick/3dProfilometer/xpcc/ext/stm32f4xx_lib/STM32F4xx_StdPeriph_Driver/src/stm32f4xx_can.c ****       CANx->MCR |= CAN_MCR_TTCM;
 140              		.loc 1 232 0
 141 0038 0368     		ldr	r3, [r0, #0]
 142 003a 0CBF     		ite	eq
 143 003c 43F08003 		orreq	r3, r3, #128
 233:/home/jonas/warwick/3dProfilometer/xpcc/ext/stm32f4xx_lib/STM32F4xx_StdPeriph_Driver/src/stm32f4xx_can.c ****     }
 234:/home/jonas/warwick/3dProfilometer/xpcc/ext/stm32f4xx_lib/STM32F4xx_StdPeriph_Driver/src/stm32f4xx_can.c ****     else
 235:/home/jonas/warwick/3dProfilometer/xpcc/ext/stm32f4xx_lib/STM32F4xx_StdPeriph_Driver/src/stm32f4xx_can.c ****     {
 236:/home/jonas/warwick/3dProfilometer/xpcc/ext/stm32f4xx_lib/STM32F4xx_StdPeriph_Driver/src/stm32f4xx_can.c ****       CANx->MCR &= ~(uint32_t)CAN_MCR_TTCM;
 144              		.loc 1 236 0
 145 0040 23F08003 		bicne	r3, r3, #128
 146 0044 0360     		str	r3, [r0, #0]
 237:/home/jonas/warwick/3dProfilometer/xpcc/ext/stm32f4xx_lib/STM32F4xx_StdPeriph_Driver/src/stm32f4xx_can.c ****     }
 238:/home/jonas/warwick/3dProfilometer/xpcc/ext/stm32f4xx_lib/STM32F4xx_StdPeriph_Driver/src/stm32f4xx_can.c **** 
 239:/home/jonas/warwick/3dProfilometer/xpcc/ext/stm32f4xx_lib/STM32F4xx_StdPeriph_Driver/src/stm32f4xx_can.c ****     /* Set the automatic bus-off management */
 240:/home/jonas/warwick/3dProfilometer/xpcc/ext/stm32f4xx_lib/STM32F4xx_StdPeriph_Driver/src/stm32f4xx_can.c ****     if (CAN_InitStruct->CAN_ABOM == ENABLE)
 147              		.loc 1 240 0
 148 0046 CB79     		ldrb	r3, [r1, #7]	@ zero_extendqisi2
 149 0048 012B     		cmp	r3, #1
 241:/home/jonas/warwick/3dProfilometer/xpcc/ext/stm32f4xx_lib/STM32F4xx_StdPeriph_Driver/src/stm32f4xx_can.c ****     {
 242:/home/jonas/warwick/3dProfilometer/xpcc/ext/stm32f4xx_lib/STM32F4xx_StdPeriph_Driver/src/stm32f4xx_can.c ****       CANx->MCR |= CAN_MCR_ABOM;
 150              		.loc 1 242 0
 151 004a 0368     		ldr	r3, [r0, #0]
 152 004c 0CBF     		ite	eq
 153 004e 43F04003 		orreq	r3, r3, #64
 243:/home/jonas/warwick/3dProfilometer/xpcc/ext/stm32f4xx_lib/STM32F4xx_StdPeriph_Driver/src/stm32f4xx_can.c ****     }
 244:/home/jonas/warwick/3dProfilometer/xpcc/ext/stm32f4xx_lib/STM32F4xx_StdPeriph_Driver/src/stm32f4xx_can.c ****     else
 245:/home/jonas/warwick/3dProfilometer/xpcc/ext/stm32f4xx_lib/STM32F4xx_StdPeriph_Driver/src/stm32f4xx_can.c ****     {
 246:/home/jonas/warwick/3dProfilometer/xpcc/ext/stm32f4xx_lib/STM32F4xx_StdPeriph_Driver/src/stm32f4xx_can.c ****       CANx->MCR &= ~(uint32_t)CAN_MCR_ABOM;
 154              		.loc 1 246 0
 155 0052 23F04003 		bicne	r3, r3, #64
 156 0056 0360     		str	r3, [r0, #0]
 247:/home/jonas/warwick/3dProfilometer/xpcc/ext/stm32f4xx_lib/STM32F4xx_StdPeriph_Driver/src/stm32f4xx_can.c ****     }
 248:/home/jonas/warwick/3dProfilometer/xpcc/ext/stm32f4xx_lib/STM32F4xx_StdPeriph_Driver/src/stm32f4xx_can.c **** 
 249:/home/jonas/warwick/3dProfilometer/xpcc/ext/stm32f4xx_lib/STM32F4xx_StdPeriph_Driver/src/stm32f4xx_can.c ****     /* Set the automatic wake-up mode */
 250:/home/jonas/warwick/3dProfilometer/xpcc/ext/stm32f4xx_lib/STM32F4xx_StdPeriph_Driver/src/stm32f4xx_can.c ****     if (CAN_InitStruct->CAN_AWUM == ENABLE)
 157              		.loc 1 250 0
 158 0058 0B7A     		ldrb	r3, [r1, #8]	@ zero_extendqisi2
 159 005a 012B     		cmp	r3, #1
 251:/home/jonas/warwick/3dProfilometer/xpcc/ext/stm32f4xx_lib/STM32F4xx_StdPeriph_Driver/src/stm32f4xx_can.c ****     {
 252:/home/jonas/warwick/3dProfilometer/xpcc/ext/stm32f4xx_lib/STM32F4xx_StdPeriph_Driver/src/stm32f4xx_can.c ****       CANx->MCR |= CAN_MCR_AWUM;
 160              		.loc 1 252 0
 161 005c 0368     		ldr	r3, [r0, #0]
 162 005e 0CBF     		ite	eq
 163 0060 43F02003 		orreq	r3, r3, #32
 253:/home/jonas/warwick/3dProfilometer/xpcc/ext/stm32f4xx_lib/STM32F4xx_StdPeriph_Driver/src/stm32f4xx_can.c ****     }
 254:/home/jonas/warwick/3dProfilometer/xpcc/ext/stm32f4xx_lib/STM32F4xx_StdPeriph_Driver/src/stm32f4xx_can.c ****     else
 255:/home/jonas/warwick/3dProfilometer/xpcc/ext/stm32f4xx_lib/STM32F4xx_StdPeriph_Driver/src/stm32f4xx_can.c ****     {
 256:/home/jonas/warwick/3dProfilometer/xpcc/ext/stm32f4xx_lib/STM32F4xx_StdPeriph_Driver/src/stm32f4xx_can.c ****       CANx->MCR &= ~(uint32_t)CAN_MCR_AWUM;
 164              		.loc 1 256 0
 165 0064 23F02003 		bicne	r3, r3, #32
 166 0068 0360     		str	r3, [r0, #0]
 257:/home/jonas/warwick/3dProfilometer/xpcc/ext/stm32f4xx_lib/STM32F4xx_StdPeriph_Driver/src/stm32f4xx_can.c ****     }
 258:/home/jonas/warwick/3dProfilometer/xpcc/ext/stm32f4xx_lib/STM32F4xx_StdPeriph_Driver/src/stm32f4xx_can.c **** 
 259:/home/jonas/warwick/3dProfilometer/xpcc/ext/stm32f4xx_lib/STM32F4xx_StdPeriph_Driver/src/stm32f4xx_can.c ****     /* Set the no automatic retransmission */
 260:/home/jonas/warwick/3dProfilometer/xpcc/ext/stm32f4xx_lib/STM32F4xx_StdPeriph_Driver/src/stm32f4xx_can.c ****     if (CAN_InitStruct->CAN_NART == ENABLE)
 167              		.loc 1 260 0
 168 006a 4B7A     		ldrb	r3, [r1, #9]	@ zero_extendqisi2
 169 006c 012B     		cmp	r3, #1
 261:/home/jonas/warwick/3dProfilometer/xpcc/ext/stm32f4xx_lib/STM32F4xx_StdPeriph_Driver/src/stm32f4xx_can.c ****     {
 262:/home/jonas/warwick/3dProfilometer/xpcc/ext/stm32f4xx_lib/STM32F4xx_StdPeriph_Driver/src/stm32f4xx_can.c ****       CANx->MCR |= CAN_MCR_NART;
 170              		.loc 1 262 0
 171 006e 0368     		ldr	r3, [r0, #0]
 172 0070 0CBF     		ite	eq
 173 0072 43F01003 		orreq	r3, r3, #16
 263:/home/jonas/warwick/3dProfilometer/xpcc/ext/stm32f4xx_lib/STM32F4xx_StdPeriph_Driver/src/stm32f4xx_can.c ****     }
 264:/home/jonas/warwick/3dProfilometer/xpcc/ext/stm32f4xx_lib/STM32F4xx_StdPeriph_Driver/src/stm32f4xx_can.c ****     else
 265:/home/jonas/warwick/3dProfilometer/xpcc/ext/stm32f4xx_lib/STM32F4xx_StdPeriph_Driver/src/stm32f4xx_can.c ****     {
 266:/home/jonas/warwick/3dProfilometer/xpcc/ext/stm32f4xx_lib/STM32F4xx_StdPeriph_Driver/src/stm32f4xx_can.c ****       CANx->MCR &= ~(uint32_t)CAN_MCR_NART;
 174              		.loc 1 266 0
 175 0076 23F01003 		bicne	r3, r3, #16
 176 007a 0360     		str	r3, [r0, #0]
 267:/home/jonas/warwick/3dProfilometer/xpcc/ext/stm32f4xx_lib/STM32F4xx_StdPeriph_Driver/src/stm32f4xx_can.c ****     }
 268:/home/jonas/warwick/3dProfilometer/xpcc/ext/stm32f4xx_lib/STM32F4xx_StdPeriph_Driver/src/stm32f4xx_can.c **** 
 269:/home/jonas/warwick/3dProfilometer/xpcc/ext/stm32f4xx_lib/STM32F4xx_StdPeriph_Driver/src/stm32f4xx_can.c ****     /* Set the receive FIFO locked mode */
 270:/home/jonas/warwick/3dProfilometer/xpcc/ext/stm32f4xx_lib/STM32F4xx_StdPeriph_Driver/src/stm32f4xx_can.c ****     if (CAN_InitStruct->CAN_RFLM == ENABLE)
 177              		.loc 1 270 0
 178 007c 8B7A     		ldrb	r3, [r1, #10]	@ zero_extendqisi2
 179 007e 012B     		cmp	r3, #1
 271:/home/jonas/warwick/3dProfilometer/xpcc/ext/stm32f4xx_lib/STM32F4xx_StdPeriph_Driver/src/stm32f4xx_can.c ****     {
 272:/home/jonas/warwick/3dProfilometer/xpcc/ext/stm32f4xx_lib/STM32F4xx_StdPeriph_Driver/src/stm32f4xx_can.c ****       CANx->MCR |= CAN_MCR_RFLM;
 180              		.loc 1 272 0
 181 0080 0368     		ldr	r3, [r0, #0]
 182 0082 0CBF     		ite	eq
 183 0084 43F00803 		orreq	r3, r3, #8
 273:/home/jonas/warwick/3dProfilometer/xpcc/ext/stm32f4xx_lib/STM32F4xx_StdPeriph_Driver/src/stm32f4xx_can.c ****     }
 274:/home/jonas/warwick/3dProfilometer/xpcc/ext/stm32f4xx_lib/STM32F4xx_StdPeriph_Driver/src/stm32f4xx_can.c ****     else
 275:/home/jonas/warwick/3dProfilometer/xpcc/ext/stm32f4xx_lib/STM32F4xx_StdPeriph_Driver/src/stm32f4xx_can.c ****     {
 276:/home/jonas/warwick/3dProfilometer/xpcc/ext/stm32f4xx_lib/STM32F4xx_StdPeriph_Driver/src/stm32f4xx_can.c ****       CANx->MCR &= ~(uint32_t)CAN_MCR_RFLM;
 184              		.loc 1 276 0
 185 0088 23F00803 		bicne	r3, r3, #8
 186 008c 0360     		str	r3, [r0, #0]
 277:/home/jonas/warwick/3dProfilometer/xpcc/ext/stm32f4xx_lib/STM32F4xx_StdPeriph_Driver/src/stm32f4xx_can.c ****     }
 278:/home/jonas/warwick/3dProfilometer/xpcc/ext/stm32f4xx_lib/STM32F4xx_StdPeriph_Driver/src/stm32f4xx_can.c **** 
 279:/home/jonas/warwick/3dProfilometer/xpcc/ext/stm32f4xx_lib/STM32F4xx_StdPeriph_Driver/src/stm32f4xx_can.c ****     /* Set the transmit FIFO priority */
 280:/home/jonas/warwick/3dProfilometer/xpcc/ext/stm32f4xx_lib/STM32F4xx_StdPeriph_Driver/src/stm32f4xx_can.c ****     if (CAN_InitStruct->CAN_TXFP == ENABLE)
 187              		.loc 1 280 0
 188 008e CB7A     		ldrb	r3, [r1, #11]	@ zero_extendqisi2
 189 0090 012B     		cmp	r3, #1
 281:/home/jonas/warwick/3dProfilometer/xpcc/ext/stm32f4xx_lib/STM32F4xx_StdPeriph_Driver/src/stm32f4xx_can.c ****     {
 282:/home/jonas/warwick/3dProfilometer/xpcc/ext/stm32f4xx_lib/STM32F4xx_StdPeriph_Driver/src/stm32f4xx_can.c ****       CANx->MCR |= CAN_MCR_TXFP;
 190              		.loc 1 282 0
 191 0092 0368     		ldr	r3, [r0, #0]
 192 0094 0CBF     		ite	eq
 193 0096 43F00403 		orreq	r3, r3, #4
 283:/home/jonas/warwick/3dProfilometer/xpcc/ext/stm32f4xx_lib/STM32F4xx_StdPeriph_Driver/src/stm32f4xx_can.c ****     }
 284:/home/jonas/warwick/3dProfilometer/xpcc/ext/stm32f4xx_lib/STM32F4xx_StdPeriph_Driver/src/stm32f4xx_can.c ****     else
 285:/home/jonas/warwick/3dProfilometer/xpcc/ext/stm32f4xx_lib/STM32F4xx_StdPeriph_Driver/src/stm32f4xx_can.c ****     {
 286:/home/jonas/warwick/3dProfilometer/xpcc/ext/stm32f4xx_lib/STM32F4xx_StdPeriph_Driver/src/stm32f4xx_can.c ****       CANx->MCR &= ~(uint32_t)CAN_MCR_TXFP;
 194              		.loc 1 286 0
 195 009a 23F00403 		bicne	r3, r3, #4
 196 009e 0360     		str	r3, [r0, #0]
 287:/home/jonas/warwick/3dProfilometer/xpcc/ext/stm32f4xx_lib/STM32F4xx_StdPeriph_Driver/src/stm32f4xx_can.c ****     }
 288:/home/jonas/warwick/3dProfilometer/xpcc/ext/stm32f4xx_lib/STM32F4xx_StdPeriph_Driver/src/stm32f4xx_can.c **** 
 289:/home/jonas/warwick/3dProfilometer/xpcc/ext/stm32f4xx_lib/STM32F4xx_StdPeriph_Driver/src/stm32f4xx_can.c ****     /* Set the bit timing register */
 290:/home/jonas/warwick/3dProfilometer/xpcc/ext/stm32f4xx_lib/STM32F4xx_StdPeriph_Driver/src/stm32f4xx_can.c ****     CANx->BTR = (uint32_t)((uint32_t)CAN_InitStruct->CAN_Mode << 30) | \
 197              		.loc 1 290 0
 198 00a0 8A78     		ldrb	r2, [r1, #2]	@ zero_extendqisi2
 291:/home/jonas/warwick/3dProfilometer/xpcc/ext/stm32f4xx_lib/STM32F4xx_StdPeriph_Driver/src/stm32f4xx_can.c ****                 ((uint32_t)CAN_InitStruct->CAN_SJW << 24) | \
 199              		.loc 1 291 0
 200 00a2 CE78     		ldrb	r6, [r1, #3]	@ zero_extendqisi2
 292:/home/jonas/warwick/3dProfilometer/xpcc/ext/stm32f4xx_lib/STM32F4xx_StdPeriph_Driver/src/stm32f4xx_can.c ****                 ((uint32_t)CAN_InitStruct->CAN_BS1 << 16) | \
 201              		.loc 1 292 0
 202 00a4 0D79     		ldrb	r5, [r1, #4]	@ zero_extendqisi2
 293:/home/jonas/warwick/3dProfilometer/xpcc/ext/stm32f4xx_lib/STM32F4xx_StdPeriph_Driver/src/stm32f4xx_can.c ****                 ((uint32_t)CAN_InitStruct->CAN_BS2 << 20) | \
 203              		.loc 1 293 0
 204 00a6 4C79     		ldrb	r4, [r1, #5]	@ zero_extendqisi2
 294:/home/jonas/warwick/3dProfilometer/xpcc/ext/stm32f4xx_lib/STM32F4xx_StdPeriph_Driver/src/stm32f4xx_can.c ****                ((uint32_t)CAN_InitStruct->CAN_Prescaler - 1);
 205              		.loc 1 294 0
 206 00a8 0B88     		ldrh	r3, [r1, #0]
 290:/home/jonas/warwick/3dProfilometer/xpcc/ext/stm32f4xx_lib/STM32F4xx_StdPeriph_Driver/src/stm32f4xx_can.c ****     CANx->BTR = (uint32_t)((uint32_t)CAN_InitStruct->CAN_Mode << 30) | \
 207              		.loc 1 290 0
 208 00aa 9207     		lsls	r2, r2, #30
 209 00ac 42EA0662 		orr	r2, r2, r6, lsl #24
 291:/home/jonas/warwick/3dProfilometer/xpcc/ext/stm32f4xx_lib/STM32F4xx_StdPeriph_Driver/src/stm32f4xx_can.c ****                 ((uint32_t)CAN_InitStruct->CAN_SJW << 24) | \
 210              		.loc 1 291 0
 211 00b0 42EA0542 		orr	r2, r2, r5, lsl #16
 212              		.loc 1 294 0
 213 00b4 013B     		subs	r3, r3, #1
 292:/home/jonas/warwick/3dProfilometer/xpcc/ext/stm32f4xx_lib/STM32F4xx_StdPeriph_Driver/src/stm32f4xx_can.c ****                 ((uint32_t)CAN_InitStruct->CAN_BS1 << 16) | \
 214              		.loc 1 292 0
 215 00b6 42EA0452 		orr	r2, r2, r4, lsl #20
 293:/home/jonas/warwick/3dProfilometer/xpcc/ext/stm32f4xx_lib/STM32F4xx_StdPeriph_Driver/src/stm32f4xx_can.c ****                 ((uint32_t)CAN_InitStruct->CAN_BS2 << 20) | \
 216              		.loc 1 293 0
 217 00ba 1343     		orrs	r3, r3, r2
 290:/home/jonas/warwick/3dProfilometer/xpcc/ext/stm32f4xx_lib/STM32F4xx_StdPeriph_Driver/src/stm32f4xx_can.c ****     CANx->BTR = (uint32_t)((uint32_t)CAN_InitStruct->CAN_Mode << 30) | \
 218              		.loc 1 290 0
 219 00bc C361     		str	r3, [r0, #28]
 295:/home/jonas/warwick/3dProfilometer/xpcc/ext/stm32f4xx_lib/STM32F4xx_StdPeriph_Driver/src/stm32f4xx_can.c **** 
 296:/home/jonas/warwick/3dProfilometer/xpcc/ext/stm32f4xx_lib/STM32F4xx_StdPeriph_Driver/src/stm32f4xx_can.c ****     /* Request leave initialisation */
 297:/home/jonas/warwick/3dProfilometer/xpcc/ext/stm32f4xx_lib/STM32F4xx_StdPeriph_Driver/src/stm32f4xx_can.c ****     CANx->MCR &= ~(uint32_t)CAN_MCR_INRQ;
 220              		.loc 1 297 0
 221 00be 0368     		ldr	r3, [r0, #0]
 222 00c0 23F00103 		bic	r3, r3, #1
 223 00c4 0360     		str	r3, [r0, #0]
 224              	.LVL13:
 298:/home/jonas/warwick/3dProfilometer/xpcc/ext/stm32f4xx_lib/STM32F4xx_StdPeriph_Driver/src/stm32f4xx_can.c **** 
 299:/home/jonas/warwick/3dProfilometer/xpcc/ext/stm32f4xx_lib/STM32F4xx_StdPeriph_Driver/src/stm32f4xx_can.c ****    /* Wait the acknowledge */
 300:/home/jonas/warwick/3dProfilometer/xpcc/ext/stm32f4xx_lib/STM32F4xx_StdPeriph_Driver/src/stm32f4xx_can.c ****    wait_ack = 0;
 301:/home/jonas/warwick/3dProfilometer/xpcc/ext/stm32f4xx_lib/STM32F4xx_StdPeriph_Driver/src/stm32f4xx_can.c **** 
 302:/home/jonas/warwick/3dProfilometer/xpcc/ext/stm32f4xx_lib/STM32F4xx_StdPeriph_Driver/src/stm32f4xx_can.c ****    while (((CANx->MSR & CAN_MSR_INAK) == CAN_MSR_INAK) && (wait_ack != INAK_TIMEOUT))
 225              		.loc 1 302 0
 226 00c6 4368     		ldr	r3, [r0, #4]
 227 00c8 D907     		lsls	r1, r3, #31
 228              	.LVL14:
 229 00ca 09D5     		bpl	.L24
 230 00cc 0023     		movs	r3, #0
 231 00ce 03E0     		b	.L25
 232              	.LVL15:
 233              	.L36:
 234              		.loc 1 302 0 is_stmt 0 discriminator 2
 235 00d0 4FF6FF72 		movw	r2, #65535
 236 00d4 9342     		cmp	r3, r2
 237 00d6 03D0     		beq	.L24
 238              	.LVL16:
 239              	.L25:
 240              		.loc 1 302 0
 241 00d8 4268     		ldr	r2, [r0, #4]
 303:/home/jonas/warwick/3dProfilometer/xpcc/ext/stm32f4xx_lib/STM32F4xx_StdPeriph_Driver/src/stm32f4xx_can.c ****    {
 304:/home/jonas/warwick/3dProfilometer/xpcc/ext/stm32f4xx_lib/STM32F4xx_StdPeriph_Driver/src/stm32f4xx_can.c ****      wait_ack++;
 242              		.loc 1 304 0 is_stmt 1
 243 00da 0133     		adds	r3, r3, #1
 244              	.LVL17:
 302:/home/jonas/warwick/3dProfilometer/xpcc/ext/stm32f4xx_lib/STM32F4xx_StdPeriph_Driver/src/stm32f4xx_can.c ****    while (((CANx->MSR & CAN_MSR_INAK) == CAN_MSR_INAK) && (wait_ack != INAK_TIMEOUT))
 245              		.loc 1 302 0
 246 00dc D207     		lsls	r2, r2, #31
 247 00de F7D4     		bmi	.L36
 248              	.LVL18:
 249              	.L24:
 305:/home/jonas/warwick/3dProfilometer/xpcc/ext/stm32f4xx_lib/STM32F4xx_StdPeriph_Driver/src/stm32f4xx_can.c ****    }
 306:/home/jonas/warwick/3dProfilometer/xpcc/ext/stm32f4xx_lib/STM32F4xx_StdPeriph_Driver/src/stm32f4xx_can.c **** 
 307:/home/jonas/warwick/3dProfilometer/xpcc/ext/stm32f4xx_lib/STM32F4xx_StdPeriph_Driver/src/stm32f4xx_can.c ****     /* ...and check acknowledged */
 308:/home/jonas/warwick/3dProfilometer/xpcc/ext/stm32f4xx_lib/STM32F4xx_StdPeriph_Driver/src/stm32f4xx_can.c ****     if ((CANx->MSR & CAN_MSR_INAK) == CAN_MSR_INAK)
 250              		.loc 1 308 0
 251 00e0 4068     		ldr	r0, [r0, #4]
 252              	.LVL19:
 253 00e2 00F00100 		and	r0, r0, #1
 225:/home/jonas/warwick/3dProfilometer/xpcc/ext/stm32f4xx_lib/STM32F4xx_StdPeriph_Driver/src/stm32f4xx_can.c ****     InitStatus = CAN_InitStatus_Failed;
 254              		.loc 1 225 0
 255 00e6 80F00100 		eor	r0, r0, #1
 256              	.L11:
 257              	.LVL20:
 309:/home/jonas/warwick/3dProfilometer/xpcc/ext/stm32f4xx_lib/STM32F4xx_StdPeriph_Driver/src/stm32f4xx_can.c ****     {
 310:/home/jonas/warwick/3dProfilometer/xpcc/ext/stm32f4xx_lib/STM32F4xx_StdPeriph_Driver/src/stm32f4xx_can.c ****       InitStatus = CAN_InitStatus_Failed;
 311:/home/jonas/warwick/3dProfilometer/xpcc/ext/stm32f4xx_lib/STM32F4xx_StdPeriph_Driver/src/stm32f4xx_can.c ****     }
 312:/home/jonas/warwick/3dProfilometer/xpcc/ext/stm32f4xx_lib/STM32F4xx_StdPeriph_Driver/src/stm32f4xx_can.c ****     else
 313:/home/jonas/warwick/3dProfilometer/xpcc/ext/stm32f4xx_lib/STM32F4xx_StdPeriph_Driver/src/stm32f4xx_can.c ****     {
 314:/home/jonas/warwick/3dProfilometer/xpcc/ext/stm32f4xx_lib/STM32F4xx_StdPeriph_Driver/src/stm32f4xx_can.c ****       InitStatus = CAN_InitStatus_Success ;
 315:/home/jonas/warwick/3dProfilometer/xpcc/ext/stm32f4xx_lib/STM32F4xx_StdPeriph_Driver/src/stm32f4xx_can.c ****     }
 316:/home/jonas/warwick/3dProfilometer/xpcc/ext/stm32f4xx_lib/STM32F4xx_StdPeriph_Driver/src/stm32f4xx_can.c ****   }
 317:/home/jonas/warwick/3dProfilometer/xpcc/ext/stm32f4xx_lib/STM32F4xx_StdPeriph_Driver/src/stm32f4xx_can.c **** 
 318:/home/jonas/warwick/3dProfilometer/xpcc/ext/stm32f4xx_lib/STM32F4xx_StdPeriph_Driver/src/stm32f4xx_can.c ****   /* At this step, return the status of initialization */
 319:/home/jonas/warwick/3dProfilometer/xpcc/ext/stm32f4xx_lib/STM32F4xx_StdPeriph_Driver/src/stm32f4xx_can.c ****   return InitStatus;
 320:/home/jonas/warwick/3dProfilometer/xpcc/ext/stm32f4xx_lib/STM32F4xx_StdPeriph_Driver/src/stm32f4xx_can.c **** }
 258              		.loc 1 320 0
 259 00ea 70BC     		pop	{r4, r5, r6}
 260 00ec 7047     		bx	lr
 261              	.LVL21:
 262              	.L26:
 225:/home/jonas/warwick/3dProfilometer/xpcc/ext/stm32f4xx_lib/STM32F4xx_StdPeriph_Driver/src/stm32f4xx_can.c ****     InitStatus = CAN_InitStatus_Failed;
 263              		.loc 1 225 0
 264 00ee 1846     		mov	r0, r3
 265              	.LVL22:
 266 00f0 FBE7     		b	.L11
 267              		.cfi_endproc
 268              	.LFE111:
 270 00f2 00BF     		.section	.text.CAN_FilterInit,"ax",%progbits
 271              		.align	2
 272              		.global	CAN_FilterInit
 273              		.thumb
 274              		.thumb_func
 276              	CAN_FilterInit:
 277              	.LFB112:
 321:/home/jonas/warwick/3dProfilometer/xpcc/ext/stm32f4xx_lib/STM32F4xx_StdPeriph_Driver/src/stm32f4xx_can.c **** 
 322:/home/jonas/warwick/3dProfilometer/xpcc/ext/stm32f4xx_lib/STM32F4xx_StdPeriph_Driver/src/stm32f4xx_can.c **** /**
 323:/home/jonas/warwick/3dProfilometer/xpcc/ext/stm32f4xx_lib/STM32F4xx_StdPeriph_Driver/src/stm32f4xx_can.c ****   * @brief  Configures the CAN reception filter according to the specified
 324:/home/jonas/warwick/3dProfilometer/xpcc/ext/stm32f4xx_lib/STM32F4xx_StdPeriph_Driver/src/stm32f4xx_can.c ****   *         parameters in the CAN_FilterInitStruct.
 325:/home/jonas/warwick/3dProfilometer/xpcc/ext/stm32f4xx_lib/STM32F4xx_StdPeriph_Driver/src/stm32f4xx_can.c ****   * @param  CAN_FilterInitStruct: pointer to a CAN_FilterInitTypeDef structure that
 326:/home/jonas/warwick/3dProfilometer/xpcc/ext/stm32f4xx_lib/STM32F4xx_StdPeriph_Driver/src/stm32f4xx_can.c ****   *         contains the configuration information.
 327:/home/jonas/warwick/3dProfilometer/xpcc/ext/stm32f4xx_lib/STM32F4xx_StdPeriph_Driver/src/stm32f4xx_can.c ****   * @retval None
 328:/home/jonas/warwick/3dProfilometer/xpcc/ext/stm32f4xx_lib/STM32F4xx_StdPeriph_Driver/src/stm32f4xx_can.c ****   */
 329:/home/jonas/warwick/3dProfilometer/xpcc/ext/stm32f4xx_lib/STM32F4xx_StdPeriph_Driver/src/stm32f4xx_can.c **** void CAN_FilterInit(CAN_FilterInitTypeDef* CAN_FilterInitStruct)
 330:/home/jonas/warwick/3dProfilometer/xpcc/ext/stm32f4xx_lib/STM32F4xx_StdPeriph_Driver/src/stm32f4xx_can.c **** {
 278              		.loc 1 330 0
 279              		.cfi_startproc
 280              		@ args = 0, pretend = 0, frame = 0
 281              		@ frame_needed = 0, uses_anonymous_args = 0
 282              		@ link register save eliminated.
 283              	.LVL23:
 331:/home/jonas/warwick/3dProfilometer/xpcc/ext/stm32f4xx_lib/STM32F4xx_StdPeriph_Driver/src/stm32f4xx_can.c ****   uint32_t filter_number_bit_pos = 0;
 332:/home/jonas/warwick/3dProfilometer/xpcc/ext/stm32f4xx_lib/STM32F4xx_StdPeriph_Driver/src/stm32f4xx_can.c ****   /* Check the parameters */
 333:/home/jonas/warwick/3dProfilometer/xpcc/ext/stm32f4xx_lib/STM32F4xx_StdPeriph_Driver/src/stm32f4xx_can.c ****   assert_param(IS_CAN_FILTER_NUMBER(CAN_FilterInitStruct->CAN_FilterNumber));
 334:/home/jonas/warwick/3dProfilometer/xpcc/ext/stm32f4xx_lib/STM32F4xx_StdPeriph_Driver/src/stm32f4xx_can.c ****   assert_param(IS_CAN_FILTER_MODE(CAN_FilterInitStruct->CAN_FilterMode));
 335:/home/jonas/warwick/3dProfilometer/xpcc/ext/stm32f4xx_lib/STM32F4xx_StdPeriph_Driver/src/stm32f4xx_can.c ****   assert_param(IS_CAN_FILTER_SCALE(CAN_FilterInitStruct->CAN_FilterScale));
 336:/home/jonas/warwick/3dProfilometer/xpcc/ext/stm32f4xx_lib/STM32F4xx_StdPeriph_Driver/src/stm32f4xx_can.c ****   assert_param(IS_CAN_FILTER_FIFO(CAN_FilterInitStruct->CAN_FilterFIFOAssignment));
 337:/home/jonas/warwick/3dProfilometer/xpcc/ext/stm32f4xx_lib/STM32F4xx_StdPeriph_Driver/src/stm32f4xx_can.c ****   assert_param(IS_FUNCTIONAL_STATE(CAN_FilterInitStruct->CAN_FilterActivation));
 338:/home/jonas/warwick/3dProfilometer/xpcc/ext/stm32f4xx_lib/STM32F4xx_StdPeriph_Driver/src/stm32f4xx_can.c **** 
 339:/home/jonas/warwick/3dProfilometer/xpcc/ext/stm32f4xx_lib/STM32F4xx_StdPeriph_Driver/src/stm32f4xx_can.c ****   filter_number_bit_pos = ((uint32_t)1) << CAN_FilterInitStruct->CAN_FilterNumber;
 340:/home/jonas/warwick/3dProfilometer/xpcc/ext/stm32f4xx_lib/STM32F4xx_StdPeriph_Driver/src/stm32f4xx_can.c **** 
 341:/home/jonas/warwick/3dProfilometer/xpcc/ext/stm32f4xx_lib/STM32F4xx_StdPeriph_Driver/src/stm32f4xx_can.c ****   /* Initialisation mode for the filter */
 342:/home/jonas/warwick/3dProfilometer/xpcc/ext/stm32f4xx_lib/STM32F4xx_StdPeriph_Driver/src/stm32f4xx_can.c ****   CAN1->FMR |= FMR_FINIT;
 284              		.loc 1 342 0
 285 0000 3E4B     		ldr	r3, .L46
 339:/home/jonas/warwick/3dProfilometer/xpcc/ext/stm32f4xx_lib/STM32F4xx_StdPeriph_Driver/src/stm32f4xx_can.c ****   filter_number_bit_pos = ((uint32_t)1) << CAN_FilterInitStruct->CAN_FilterNumber;
 286              		.loc 1 339 0
 287 0002 827A     		ldrb	r2, [r0, #10]	@ zero_extendqisi2
 288              		.loc 1 342 0
 289 0004 D3F80012 		ldr	r1, [r3, #512]
 290 0008 41F00101 		orr	r1, r1, #1
 330:/home/jonas/warwick/3dProfilometer/xpcc/ext/stm32f4xx_lib/STM32F4xx_StdPeriph_Driver/src/stm32f4xx_can.c **** {
 291              		.loc 1 330 0
 292 000c 2DE9F001 		push	{r4, r5, r6, r7, r8}
 293              	.LCFI2:
 294              		.cfi_def_cfa_offset 20
 295              		.cfi_offset 4, -20
 296              		.cfi_offset 5, -16
 297              		.cfi_offset 6, -12
 298              		.cfi_offset 7, -8
 299              		.cfi_offset 8, -4
 300              		.loc 1 342 0
 301 0010 C3F80012 		str	r1, [r3, #512]
 339:/home/jonas/warwick/3dProfilometer/xpcc/ext/stm32f4xx_lib/STM32F4xx_StdPeriph_Driver/src/stm32f4xx_can.c ****   filter_number_bit_pos = ((uint32_t)1) << CAN_FilterInitStruct->CAN_FilterNumber;
 302              		.loc 1 339 0
 303 0014 0124     		movs	r4, #1
 343:/home/jonas/warwick/3dProfilometer/xpcc/ext/stm32f4xx_lib/STM32F4xx_StdPeriph_Driver/src/stm32f4xx_can.c **** 
 344:/home/jonas/warwick/3dProfilometer/xpcc/ext/stm32f4xx_lib/STM32F4xx_StdPeriph_Driver/src/stm32f4xx_can.c ****   /* Filter Deactivation */
 345:/home/jonas/warwick/3dProfilometer/xpcc/ext/stm32f4xx_lib/STM32F4xx_StdPeriph_Driver/src/stm32f4xx_can.c ****   CAN1->FA1R &= ~(uint32_t)filter_number_bit_pos;
 304              		.loc 1 345 0
 305 0016 D3F81C12 		ldr	r1, [r3, #540]
 339:/home/jonas/warwick/3dProfilometer/xpcc/ext/stm32f4xx_lib/STM32F4xx_StdPeriph_Driver/src/stm32f4xx_can.c ****   filter_number_bit_pos = ((uint32_t)1) << CAN_FilterInitStruct->CAN_FilterNumber;
 306              		.loc 1 339 0
 307 001a 04FA02F4 		lsl	r4, r4, r2
 308              	.LVL24:
 309              		.loc 1 345 0
 310 001e E243     		mvns	r2, r4
 311 0020 1140     		ands	r1, r1, r2
 312 0022 C3F81C12 		str	r1, [r3, #540]
 346:/home/jonas/warwick/3dProfilometer/xpcc/ext/stm32f4xx_lib/STM32F4xx_StdPeriph_Driver/src/stm32f4xx_can.c **** 
 347:/home/jonas/warwick/3dProfilometer/xpcc/ext/stm32f4xx_lib/STM32F4xx_StdPeriph_Driver/src/stm32f4xx_can.c ****   /* Filter Scale */
 348:/home/jonas/warwick/3dProfilometer/xpcc/ext/stm32f4xx_lib/STM32F4xx_StdPeriph_Driver/src/stm32f4xx_can.c ****   if (CAN_FilterInitStruct->CAN_FilterScale == CAN_FilterScale_16bit)
 313              		.loc 1 348 0
 314 0026 017B     		ldrb	r1, [r0, #12]	@ zero_extendqisi2
 315 0028 C1B9     		cbnz	r1, .L38
 349:/home/jonas/warwick/3dProfilometer/xpcc/ext/stm32f4xx_lib/STM32F4xx_StdPeriph_Driver/src/stm32f4xx_can.c ****   {
 350:/home/jonas/warwick/3dProfilometer/xpcc/ext/stm32f4xx_lib/STM32F4xx_StdPeriph_Driver/src/stm32f4xx_can.c ****     /* 16-bit scale for the filter */
 351:/home/jonas/warwick/3dProfilometer/xpcc/ext/stm32f4xx_lib/STM32F4xx_StdPeriph_Driver/src/stm32f4xx_can.c ****     CAN1->FS1R &= ~(uint32_t)filter_number_bit_pos;
 316              		.loc 1 351 0
 317 002a D3F80C72 		ldr	r7, [r3, #524]
 352:/home/jonas/warwick/3dProfilometer/xpcc/ext/stm32f4xx_lib/STM32F4xx_StdPeriph_Driver/src/stm32f4xx_can.c **** 
 353:/home/jonas/warwick/3dProfilometer/xpcc/ext/stm32f4xx_lib/STM32F4xx_StdPeriph_Driver/src/stm32f4xx_can.c ****     /* First 16-bit identifier and First 16-bit mask */
 354:/home/jonas/warwick/3dProfilometer/xpcc/ext/stm32f4xx_lib/STM32F4xx_StdPeriph_Driver/src/stm32f4xx_can.c ****     /* Or First 16-bit identifier and Second 16-bit identifier */
 355:/home/jonas/warwick/3dProfilometer/xpcc/ext/stm32f4xx_lib/STM32F4xx_StdPeriph_Driver/src/stm32f4xx_can.c ****     CAN1->sFilterRegister[CAN_FilterInitStruct->CAN_FilterNumber].FR1 = 
 356:/home/jonas/warwick/3dProfilometer/xpcc/ext/stm32f4xx_lib/STM32F4xx_StdPeriph_Driver/src/stm32f4xx_can.c ****        ((0x0000FFFF & (uint32_t)CAN_FilterInitStruct->CAN_FilterMaskIdLow) << 16) |
 318              		.loc 1 356 0
 319 002e B0F80680 		ldrh	r8, [r0, #6]
 357:/home/jonas/warwick/3dProfilometer/xpcc/ext/stm32f4xx_lib/STM32F4xx_StdPeriph_Driver/src/stm32f4xx_can.c ****         (0x0000FFFF & (uint32_t)CAN_FilterInitStruct->CAN_FilterIdLow);
 320              		.loc 1 357 0
 321 0032 B0F802C0 		ldrh	ip, [r0, #2]
 358:/home/jonas/warwick/3dProfilometer/xpcc/ext/stm32f4xx_lib/STM32F4xx_StdPeriph_Driver/src/stm32f4xx_can.c **** 
 359:/home/jonas/warwick/3dProfilometer/xpcc/ext/stm32f4xx_lib/STM32F4xx_StdPeriph_Driver/src/stm32f4xx_can.c ****     /* Second 16-bit identifier and Second 16-bit mask */
 360:/home/jonas/warwick/3dProfilometer/xpcc/ext/stm32f4xx_lib/STM32F4xx_StdPeriph_Driver/src/stm32f4xx_can.c ****     /* Or Third 16-bit identifier and Fourth 16-bit identifier */
 361:/home/jonas/warwick/3dProfilometer/xpcc/ext/stm32f4xx_lib/STM32F4xx_StdPeriph_Driver/src/stm32f4xx_can.c ****     CAN1->sFilterRegister[CAN_FilterInitStruct->CAN_FilterNumber].FR2 = 
 362:/home/jonas/warwick/3dProfilometer/xpcc/ext/stm32f4xx_lib/STM32F4xx_StdPeriph_Driver/src/stm32f4xx_can.c ****        ((0x0000FFFF & (uint32_t)CAN_FilterInitStruct->CAN_FilterMaskIdHigh) << 16) |
 322              		.loc 1 362 0
 323 0036 8688     		ldrh	r6, [r0, #4]
 363:/home/jonas/warwick/3dProfilometer/xpcc/ext/stm32f4xx_lib/STM32F4xx_StdPeriph_Driver/src/stm32f4xx_can.c ****         (0x0000FFFF & (uint32_t)CAN_FilterInitStruct->CAN_FilterIdHigh);
 324              		.loc 1 363 0
 325 0038 0588     		ldrh	r5, [r0, #0]
 361:/home/jonas/warwick/3dProfilometer/xpcc/ext/stm32f4xx_lib/STM32F4xx_StdPeriph_Driver/src/stm32f4xx_can.c ****     CAN1->sFilterRegister[CAN_FilterInitStruct->CAN_FilterNumber].FR2 = 
 326              		.loc 1 361 0
 327 003a 3149     		ldr	r1, .L46+4
 351:/home/jonas/warwick/3dProfilometer/xpcc/ext/stm32f4xx_lib/STM32F4xx_StdPeriph_Driver/src/stm32f4xx_can.c ****     CAN1->FS1R &= ~(uint32_t)filter_number_bit_pos;
 328              		.loc 1 351 0
 329 003c 1740     		ands	r7, r7, r2
 330 003e C3F80C72 		str	r7, [r3, #524]
 355:/home/jonas/warwick/3dProfilometer/xpcc/ext/stm32f4xx_lib/STM32F4xx_StdPeriph_Driver/src/stm32f4xx_can.c ****     CAN1->sFilterRegister[CAN_FilterInitStruct->CAN_FilterNumber].FR1 = 
 331              		.loc 1 355 0
 332 0042 877A     		ldrb	r7, [r0, #10]	@ zero_extendqisi2
 333 0044 4837     		adds	r7, r7, #72
 356:/home/jonas/warwick/3dProfilometer/xpcc/ext/stm32f4xx_lib/STM32F4xx_StdPeriph_Driver/src/stm32f4xx_can.c ****        ((0x0000FFFF & (uint32_t)CAN_FilterInitStruct->CAN_FilterMaskIdLow) << 16) |
 334              		.loc 1 356 0
 335 0046 4CEA084C 		orr	ip, ip, r8, lsl #16
 355:/home/jonas/warwick/3dProfilometer/xpcc/ext/stm32f4xx_lib/STM32F4xx_StdPeriph_Driver/src/stm32f4xx_can.c ****     CAN1->sFilterRegister[CAN_FilterInitStruct->CAN_FilterNumber].FR1 = 
 336              		.loc 1 355 0
 337 004a 43F837C0 		str	ip, [r3, r7, lsl #3]
 361:/home/jonas/warwick/3dProfilometer/xpcc/ext/stm32f4xx_lib/STM32F4xx_StdPeriph_Driver/src/stm32f4xx_can.c ****     CAN1->sFilterRegister[CAN_FilterInitStruct->CAN_FilterNumber].FR2 = 
 338              		.loc 1 361 0
 339 004e 837A     		ldrb	r3, [r0, #10]	@ zero_extendqisi2
 340 0050 DB00     		lsls	r3, r3, #3
 341 0052 5918     		adds	r1, r3, r1
 362:/home/jonas/warwick/3dProfilometer/xpcc/ext/stm32f4xx_lib/STM32F4xx_StdPeriph_Driver/src/stm32f4xx_can.c ****        ((0x0000FFFF & (uint32_t)CAN_FilterInitStruct->CAN_FilterMaskIdHigh) << 16) |
 342              		.loc 1 362 0
 343 0054 45EA0643 		orr	r3, r5, r6, lsl #16
 361:/home/jonas/warwick/3dProfilometer/xpcc/ext/stm32f4xx_lib/STM32F4xx_StdPeriph_Driver/src/stm32f4xx_can.c ****     CAN1->sFilterRegister[CAN_FilterInitStruct->CAN_FilterNumber].FR2 = 
 344              		.loc 1 361 0
 345 0058 4B60     		str	r3, [r1, #4]
 346 005a 017B     		ldrb	r1, [r0, #12]	@ zero_extendqisi2
 347              	.L38:
 364:/home/jonas/warwick/3dProfilometer/xpcc/ext/stm32f4xx_lib/STM32F4xx_StdPeriph_Driver/src/stm32f4xx_can.c ****   }
 365:/home/jonas/warwick/3dProfilometer/xpcc/ext/stm32f4xx_lib/STM32F4xx_StdPeriph_Driver/src/stm32f4xx_can.c **** 
 366:/home/jonas/warwick/3dProfilometer/xpcc/ext/stm32f4xx_lib/STM32F4xx_StdPeriph_Driver/src/stm32f4xx_can.c ****   if (CAN_FilterInitStruct->CAN_FilterScale == CAN_FilterScale_32bit)
 348              		.loc 1 366 0
 349 005c 0129     		cmp	r1, #1
 350 005e 33D0     		beq	.L45
 351              	.L39:
 367:/home/jonas/warwick/3dProfilometer/xpcc/ext/stm32f4xx_lib/STM32F4xx_StdPeriph_Driver/src/stm32f4xx_can.c ****   {
 368:/home/jonas/warwick/3dProfilometer/xpcc/ext/stm32f4xx_lib/STM32F4xx_StdPeriph_Driver/src/stm32f4xx_can.c ****     /* 32-bit scale for the filter */
 369:/home/jonas/warwick/3dProfilometer/xpcc/ext/stm32f4xx_lib/STM32F4xx_StdPeriph_Driver/src/stm32f4xx_can.c ****     CAN1->FS1R |= filter_number_bit_pos;
 370:/home/jonas/warwick/3dProfilometer/xpcc/ext/stm32f4xx_lib/STM32F4xx_StdPeriph_Driver/src/stm32f4xx_can.c ****     /* 32-bit identifier or First 32-bit identifier */
 371:/home/jonas/warwick/3dProfilometer/xpcc/ext/stm32f4xx_lib/STM32F4xx_StdPeriph_Driver/src/stm32f4xx_can.c ****     CAN1->sFilterRegister[CAN_FilterInitStruct->CAN_FilterNumber].FR1 = 
 372:/home/jonas/warwick/3dProfilometer/xpcc/ext/stm32f4xx_lib/STM32F4xx_StdPeriph_Driver/src/stm32f4xx_can.c ****        ((0x0000FFFF & (uint32_t)CAN_FilterInitStruct->CAN_FilterIdHigh) << 16) |
 373:/home/jonas/warwick/3dProfilometer/xpcc/ext/stm32f4xx_lib/STM32F4xx_StdPeriph_Driver/src/stm32f4xx_can.c ****         (0x0000FFFF & (uint32_t)CAN_FilterInitStruct->CAN_FilterIdLow);
 374:/home/jonas/warwick/3dProfilometer/xpcc/ext/stm32f4xx_lib/STM32F4xx_StdPeriph_Driver/src/stm32f4xx_can.c ****     /* 32-bit mask or Second 32-bit identifier */
 375:/home/jonas/warwick/3dProfilometer/xpcc/ext/stm32f4xx_lib/STM32F4xx_StdPeriph_Driver/src/stm32f4xx_can.c ****     CAN1->sFilterRegister[CAN_FilterInitStruct->CAN_FilterNumber].FR2 = 
 376:/home/jonas/warwick/3dProfilometer/xpcc/ext/stm32f4xx_lib/STM32F4xx_StdPeriph_Driver/src/stm32f4xx_can.c ****        ((0x0000FFFF & (uint32_t)CAN_FilterInitStruct->CAN_FilterMaskIdHigh) << 16) |
 377:/home/jonas/warwick/3dProfilometer/xpcc/ext/stm32f4xx_lib/STM32F4xx_StdPeriph_Driver/src/stm32f4xx_can.c ****         (0x0000FFFF & (uint32_t)CAN_FilterInitStruct->CAN_FilterMaskIdLow);
 378:/home/jonas/warwick/3dProfilometer/xpcc/ext/stm32f4xx_lib/STM32F4xx_StdPeriph_Driver/src/stm32f4xx_can.c ****   }
 379:/home/jonas/warwick/3dProfilometer/xpcc/ext/stm32f4xx_lib/STM32F4xx_StdPeriph_Driver/src/stm32f4xx_can.c **** 
 380:/home/jonas/warwick/3dProfilometer/xpcc/ext/stm32f4xx_lib/STM32F4xx_StdPeriph_Driver/src/stm32f4xx_can.c ****   /* Filter Mode */
 381:/home/jonas/warwick/3dProfilometer/xpcc/ext/stm32f4xx_lib/STM32F4xx_StdPeriph_Driver/src/stm32f4xx_can.c ****   if (CAN_FilterInitStruct->CAN_FilterMode == CAN_FilterMode_IdMask)
 352              		.loc 1 381 0
 353 0060 C37A     		ldrb	r3, [r0, #11]	@ zero_extendqisi2
 354 0062 002B     		cmp	r3, #0
 355 0064 29D1     		bne	.L40
 382:/home/jonas/warwick/3dProfilometer/xpcc/ext/stm32f4xx_lib/STM32F4xx_StdPeriph_Driver/src/stm32f4xx_can.c ****   {
 383:/home/jonas/warwick/3dProfilometer/xpcc/ext/stm32f4xx_lib/STM32F4xx_StdPeriph_Driver/src/stm32f4xx_can.c ****     /*Id/Mask mode for the filter*/
 384:/home/jonas/warwick/3dProfilometer/xpcc/ext/stm32f4xx_lib/STM32F4xx_StdPeriph_Driver/src/stm32f4xx_can.c ****     CAN1->FM1R &= ~(uint32_t)filter_number_bit_pos;
 356              		.loc 1 384 0
 357 0066 254B     		ldr	r3, .L46
 358 0068 D3F80412 		ldr	r1, [r3, #516]
 359 006c 1140     		ands	r1, r1, r2
 360 006e C3F80412 		str	r1, [r3, #516]
 361              	.L41:
 385:/home/jonas/warwick/3dProfilometer/xpcc/ext/stm32f4xx_lib/STM32F4xx_StdPeriph_Driver/src/stm32f4xx_can.c ****   }
 386:/home/jonas/warwick/3dProfilometer/xpcc/ext/stm32f4xx_lib/STM32F4xx_StdPeriph_Driver/src/stm32f4xx_can.c ****   else /* CAN_FilterInitStruct->CAN_FilterMode == CAN_FilterMode_IdList */
 387:/home/jonas/warwick/3dProfilometer/xpcc/ext/stm32f4xx_lib/STM32F4xx_StdPeriph_Driver/src/stm32f4xx_can.c ****   {
 388:/home/jonas/warwick/3dProfilometer/xpcc/ext/stm32f4xx_lib/STM32F4xx_StdPeriph_Driver/src/stm32f4xx_can.c ****     /*Identifier list mode for the filter*/
 389:/home/jonas/warwick/3dProfilometer/xpcc/ext/stm32f4xx_lib/STM32F4xx_StdPeriph_Driver/src/stm32f4xx_can.c ****     CAN1->FM1R |= (uint32_t)filter_number_bit_pos;
 390:/home/jonas/warwick/3dProfilometer/xpcc/ext/stm32f4xx_lib/STM32F4xx_StdPeriph_Driver/src/stm32f4xx_can.c ****   }
 391:/home/jonas/warwick/3dProfilometer/xpcc/ext/stm32f4xx_lib/STM32F4xx_StdPeriph_Driver/src/stm32f4xx_can.c **** 
 392:/home/jonas/warwick/3dProfilometer/xpcc/ext/stm32f4xx_lib/STM32F4xx_StdPeriph_Driver/src/stm32f4xx_can.c ****   /* Filter FIFO assignment */
 393:/home/jonas/warwick/3dProfilometer/xpcc/ext/stm32f4xx_lib/STM32F4xx_StdPeriph_Driver/src/stm32f4xx_can.c ****   if (CAN_FilterInitStruct->CAN_FilterFIFOAssignment == CAN_Filter_FIFO0)
 362              		.loc 1 393 0
 363 0072 0389     		ldrh	r3, [r0, #8]
 364 0074 C3B9     		cbnz	r3, .L42
 394:/home/jonas/warwick/3dProfilometer/xpcc/ext/stm32f4xx_lib/STM32F4xx_StdPeriph_Driver/src/stm32f4xx_can.c ****   {
 395:/home/jonas/warwick/3dProfilometer/xpcc/ext/stm32f4xx_lib/STM32F4xx_StdPeriph_Driver/src/stm32f4xx_can.c ****     /* FIFO 0 assignation for the filter */
 396:/home/jonas/warwick/3dProfilometer/xpcc/ext/stm32f4xx_lib/STM32F4xx_StdPeriph_Driver/src/stm32f4xx_can.c ****     CAN1->FFA1R &= ~(uint32_t)filter_number_bit_pos;
 365              		.loc 1 396 0
 366 0076 214B     		ldr	r3, .L46
 367 0078 D3F81412 		ldr	r1, [r3, #532]
 368 007c 0A40     		ands	r2, r2, r1
 369 007e C3F81422 		str	r2, [r3, #532]
 370              	.L43:
 397:/home/jonas/warwick/3dProfilometer/xpcc/ext/stm32f4xx_lib/STM32F4xx_StdPeriph_Driver/src/stm32f4xx_can.c ****   }
 398:/home/jonas/warwick/3dProfilometer/xpcc/ext/stm32f4xx_lib/STM32F4xx_StdPeriph_Driver/src/stm32f4xx_can.c **** 
 399:/home/jonas/warwick/3dProfilometer/xpcc/ext/stm32f4xx_lib/STM32F4xx_StdPeriph_Driver/src/stm32f4xx_can.c ****   if (CAN_FilterInitStruct->CAN_FilterFIFOAssignment == CAN_Filter_FIFO1)
 400:/home/jonas/warwick/3dProfilometer/xpcc/ext/stm32f4xx_lib/STM32F4xx_StdPeriph_Driver/src/stm32f4xx_can.c ****   {
 401:/home/jonas/warwick/3dProfilometer/xpcc/ext/stm32f4xx_lib/STM32F4xx_StdPeriph_Driver/src/stm32f4xx_can.c ****     /* FIFO 1 assignation for the filter */
 402:/home/jonas/warwick/3dProfilometer/xpcc/ext/stm32f4xx_lib/STM32F4xx_StdPeriph_Driver/src/stm32f4xx_can.c ****     CAN1->FFA1R |= (uint32_t)filter_number_bit_pos;
 403:/home/jonas/warwick/3dProfilometer/xpcc/ext/stm32f4xx_lib/STM32F4xx_StdPeriph_Driver/src/stm32f4xx_can.c ****   }
 404:/home/jonas/warwick/3dProfilometer/xpcc/ext/stm32f4xx_lib/STM32F4xx_StdPeriph_Driver/src/stm32f4xx_can.c ****   
 405:/home/jonas/warwick/3dProfilometer/xpcc/ext/stm32f4xx_lib/STM32F4xx_StdPeriph_Driver/src/stm32f4xx_can.c ****   /* Filter activation */
 406:/home/jonas/warwick/3dProfilometer/xpcc/ext/stm32f4xx_lib/STM32F4xx_StdPeriph_Driver/src/stm32f4xx_can.c ****   if (CAN_FilterInitStruct->CAN_FilterActivation == ENABLE)
 371              		.loc 1 406 0
 372 0082 437B     		ldrb	r3, [r0, #13]	@ zero_extendqisi2
 373 0084 012B     		cmp	r3, #1
 374 0086 05D1     		bne	.L44
 407:/home/jonas/warwick/3dProfilometer/xpcc/ext/stm32f4xx_lib/STM32F4xx_StdPeriph_Driver/src/stm32f4xx_can.c ****   {
 408:/home/jonas/warwick/3dProfilometer/xpcc/ext/stm32f4xx_lib/STM32F4xx_StdPeriph_Driver/src/stm32f4xx_can.c ****     CAN1->FA1R |= filter_number_bit_pos;
 375              		.loc 1 408 0
 376 0088 1C4B     		ldr	r3, .L46
 377 008a D3F81C22 		ldr	r2, [r3, #540]
 378 008e 1443     		orrs	r4, r4, r2
 379              	.LVL25:
 380 0090 C3F81C42 		str	r4, [r3, #540]
 381              	.L44:
 409:/home/jonas/warwick/3dProfilometer/xpcc/ext/stm32f4xx_lib/STM32F4xx_StdPeriph_Driver/src/stm32f4xx_can.c ****   }
 410:/home/jonas/warwick/3dProfilometer/xpcc/ext/stm32f4xx_lib/STM32F4xx_StdPeriph_Driver/src/stm32f4xx_can.c **** 
 411:/home/jonas/warwick/3dProfilometer/xpcc/ext/stm32f4xx_lib/STM32F4xx_StdPeriph_Driver/src/stm32f4xx_can.c ****   /* Leave the initialisation mode for the filter */
 412:/home/jonas/warwick/3dProfilometer/xpcc/ext/stm32f4xx_lib/STM32F4xx_StdPeriph_Driver/src/stm32f4xx_can.c ****   CAN1->FMR &= ~FMR_FINIT;
 382              		.loc 1 412 0
 383 0094 194B     		ldr	r3, .L46
 384 0096 D3F80022 		ldr	r2, [r3, #512]
 385 009a 22F00102 		bic	r2, r2, #1
 386 009e C3F80022 		str	r2, [r3, #512]
 413:/home/jonas/warwick/3dProfilometer/xpcc/ext/stm32f4xx_lib/STM32F4xx_StdPeriph_Driver/src/stm32f4xx_can.c **** }
 387              		.loc 1 413 0
 388 00a2 BDE8F001 		pop	{r4, r5, r6, r7, r8}
 389 00a6 7047     		bx	lr
 390              	.LVL26:
 391              	.L42:
 399:/home/jonas/warwick/3dProfilometer/xpcc/ext/stm32f4xx_lib/STM32F4xx_StdPeriph_Driver/src/stm32f4xx_can.c ****   if (CAN_FilterInitStruct->CAN_FilterFIFOAssignment == CAN_Filter_FIFO1)
 392              		.loc 1 399 0
 393 00a8 012B     		cmp	r3, #1
 394 00aa EAD1     		bne	.L43
 402:/home/jonas/warwick/3dProfilometer/xpcc/ext/stm32f4xx_lib/STM32F4xx_StdPeriph_Driver/src/stm32f4xx_can.c ****     CAN1->FFA1R |= (uint32_t)filter_number_bit_pos;
 395              		.loc 1 402 0
 396 00ac 134B     		ldr	r3, .L46
 397 00ae D3F81422 		ldr	r2, [r3, #532]
 398 00b2 2243     		orrs	r2, r2, r4
 399 00b4 C3F81422 		str	r2, [r3, #532]
 400 00b8 E3E7     		b	.L43
 401              	.L40:
 389:/home/jonas/warwick/3dProfilometer/xpcc/ext/stm32f4xx_lib/STM32F4xx_StdPeriph_Driver/src/stm32f4xx_can.c ****     CAN1->FM1R |= (uint32_t)filter_number_bit_pos;
 402              		.loc 1 389 0
 403 00ba 104B     		ldr	r3, .L46
 404 00bc D3F80412 		ldr	r1, [r3, #516]
 405 00c0 2143     		orrs	r1, r1, r4
 406 00c2 C3F80412 		str	r1, [r3, #516]
 407 00c6 D4E7     		b	.L41
 408              	.L45:
 369:/home/jonas/warwick/3dProfilometer/xpcc/ext/stm32f4xx_lib/STM32F4xx_StdPeriph_Driver/src/stm32f4xx_can.c ****     CAN1->FS1R |= filter_number_bit_pos;
 409              		.loc 1 369 0
 410 00c8 0C49     		ldr	r1, .L46
 372:/home/jonas/warwick/3dProfilometer/xpcc/ext/stm32f4xx_lib/STM32F4xx_StdPeriph_Driver/src/stm32f4xx_can.c ****        ((0x0000FFFF & (uint32_t)CAN_FilterInitStruct->CAN_FilterIdHigh) << 16) |
 411              		.loc 1 372 0
 412 00ca B0F80080 		ldrh	r8, [r0, #0]
 369:/home/jonas/warwick/3dProfilometer/xpcc/ext/stm32f4xx_lib/STM32F4xx_StdPeriph_Driver/src/stm32f4xx_can.c ****     CAN1->FS1R |= filter_number_bit_pos;
 413              		.loc 1 369 0
 414 00ce D1F80C72 		ldr	r7, [r1, #524]
 373:/home/jonas/warwick/3dProfilometer/xpcc/ext/stm32f4xx_lib/STM32F4xx_StdPeriph_Driver/src/stm32f4xx_can.c ****         (0x0000FFFF & (uint32_t)CAN_FilterInitStruct->CAN_FilterIdLow);
 415              		.loc 1 373 0
 416 00d2 B0F802C0 		ldrh	ip, [r0, #2]
 376:/home/jonas/warwick/3dProfilometer/xpcc/ext/stm32f4xx_lib/STM32F4xx_StdPeriph_Driver/src/stm32f4xx_can.c ****        ((0x0000FFFF & (uint32_t)CAN_FilterInitStruct->CAN_FilterMaskIdHigh) << 16) |
 417              		.loc 1 376 0
 418 00d6 8688     		ldrh	r6, [r0, #4]
 377:/home/jonas/warwick/3dProfilometer/xpcc/ext/stm32f4xx_lib/STM32F4xx_StdPeriph_Driver/src/stm32f4xx_can.c ****         (0x0000FFFF & (uint32_t)CAN_FilterInitStruct->CAN_FilterMaskIdLow);
 419              		.loc 1 377 0
 420 00d8 C588     		ldrh	r5, [r0, #6]
 375:/home/jonas/warwick/3dProfilometer/xpcc/ext/stm32f4xx_lib/STM32F4xx_StdPeriph_Driver/src/stm32f4xx_can.c ****     CAN1->sFilterRegister[CAN_FilterInitStruct->CAN_FilterNumber].FR2 = 
 421              		.loc 1 375 0
 422 00da 094B     		ldr	r3, .L46+4
 369:/home/jonas/warwick/3dProfilometer/xpcc/ext/stm32f4xx_lib/STM32F4xx_StdPeriph_Driver/src/stm32f4xx_can.c ****     CAN1->FS1R |= filter_number_bit_pos;
 423              		.loc 1 369 0
 424 00dc 2743     		orrs	r7, r7, r4
 425 00de C1F80C72 		str	r7, [r1, #524]
 371:/home/jonas/warwick/3dProfilometer/xpcc/ext/stm32f4xx_lib/STM32F4xx_StdPeriph_Driver/src/stm32f4xx_can.c ****     CAN1->sFilterRegister[CAN_FilterInitStruct->CAN_FilterNumber].FR1 = 
 426              		.loc 1 371 0
 427 00e2 877A     		ldrb	r7, [r0, #10]	@ zero_extendqisi2
 428 00e4 4837     		adds	r7, r7, #72
 372:/home/jonas/warwick/3dProfilometer/xpcc/ext/stm32f4xx_lib/STM32F4xx_StdPeriph_Driver/src/stm32f4xx_can.c ****        ((0x0000FFFF & (uint32_t)CAN_FilterInitStruct->CAN_FilterIdHigh) << 16) |
 429              		.loc 1 372 0
 430 00e6 4CEA084C 		orr	ip, ip, r8, lsl #16
 371:/home/jonas/warwick/3dProfilometer/xpcc/ext/stm32f4xx_lib/STM32F4xx_StdPeriph_Driver/src/stm32f4xx_can.c ****     CAN1->sFilterRegister[CAN_FilterInitStruct->CAN_FilterNumber].FR1 = 
 431              		.loc 1 371 0
 432 00ea 41F837C0 		str	ip, [r1, r7, lsl #3]
 375:/home/jonas/warwick/3dProfilometer/xpcc/ext/stm32f4xx_lib/STM32F4xx_StdPeriph_Driver/src/stm32f4xx_can.c ****     CAN1->sFilterRegister[CAN_FilterInitStruct->CAN_FilterNumber].FR2 = 
 433              		.loc 1 375 0
 434 00ee 817A     		ldrb	r1, [r0, #10]	@ zero_extendqisi2
 435 00f0 C900     		lsls	r1, r1, #3
 436 00f2 CB18     		adds	r3, r1, r3
 376:/home/jonas/warwick/3dProfilometer/xpcc/ext/stm32f4xx_lib/STM32F4xx_StdPeriph_Driver/src/stm32f4xx_can.c ****        ((0x0000FFFF & (uint32_t)CAN_FilterInitStruct->CAN_FilterMaskIdHigh) << 16) |
 437              		.loc 1 376 0
 438 00f4 45EA0641 		orr	r1, r5, r6, lsl #16
 375:/home/jonas/warwick/3dProfilometer/xpcc/ext/stm32f4xx_lib/STM32F4xx_StdPeriph_Driver/src/stm32f4xx_can.c ****     CAN1->sFilterRegister[CAN_FilterInitStruct->CAN_FilterNumber].FR2 = 
 439              		.loc 1 375 0
 440 00f8 5960     		str	r1, [r3, #4]
 441 00fa B1E7     		b	.L39
 442              	.L47:
 443              		.align	2
 444              	.L46:
 445 00fc 00640040 		.word	1073767424
 446 0100 40660040 		.word	1073768000
 447              		.cfi_endproc
 448              	.LFE112:
 450              		.section	.text.CAN_StructInit,"ax",%progbits
 451              		.align	2
 452              		.global	CAN_StructInit
 453              		.thumb
 454              		.thumb_func
 456              	CAN_StructInit:
 457              	.LFB113:
 414:/home/jonas/warwick/3dProfilometer/xpcc/ext/stm32f4xx_lib/STM32F4xx_StdPeriph_Driver/src/stm32f4xx_can.c **** 
 415:/home/jonas/warwick/3dProfilometer/xpcc/ext/stm32f4xx_lib/STM32F4xx_StdPeriph_Driver/src/stm32f4xx_can.c **** /**
 416:/home/jonas/warwick/3dProfilometer/xpcc/ext/stm32f4xx_lib/STM32F4xx_StdPeriph_Driver/src/stm32f4xx_can.c ****   * @brief  Fills each CAN_InitStruct member with its default value.
 417:/home/jonas/warwick/3dProfilometer/xpcc/ext/stm32f4xx_lib/STM32F4xx_StdPeriph_Driver/src/stm32f4xx_can.c ****   * @param  CAN_InitStruct: pointer to a CAN_InitTypeDef structure which ill be initialized.
 418:/home/jonas/warwick/3dProfilometer/xpcc/ext/stm32f4xx_lib/STM32F4xx_StdPeriph_Driver/src/stm32f4xx_can.c ****   * @retval None
 419:/home/jonas/warwick/3dProfilometer/xpcc/ext/stm32f4xx_lib/STM32F4xx_StdPeriph_Driver/src/stm32f4xx_can.c ****   */
 420:/home/jonas/warwick/3dProfilometer/xpcc/ext/stm32f4xx_lib/STM32F4xx_StdPeriph_Driver/src/stm32f4xx_can.c **** void CAN_StructInit(CAN_InitTypeDef* CAN_InitStruct)
 421:/home/jonas/warwick/3dProfilometer/xpcc/ext/stm32f4xx_lib/STM32F4xx_StdPeriph_Driver/src/stm32f4xx_can.c **** {
 458              		.loc 1 421 0
 459              		.cfi_startproc
 460              		@ args = 0, pretend = 0, frame = 0
 461              		@ frame_needed = 0, uses_anonymous_args = 0
 462              		@ link register save eliminated.
 463              	.LVL27:
 422:/home/jonas/warwick/3dProfilometer/xpcc/ext/stm32f4xx_lib/STM32F4xx_StdPeriph_Driver/src/stm32f4xx_can.c ****   /* Reset CAN init structure parameters values */
 423:/home/jonas/warwick/3dProfilometer/xpcc/ext/stm32f4xx_lib/STM32F4xx_StdPeriph_Driver/src/stm32f4xx_can.c ****   
 424:/home/jonas/warwick/3dProfilometer/xpcc/ext/stm32f4xx_lib/STM32F4xx_StdPeriph_Driver/src/stm32f4xx_can.c ****   /* Initialize the time triggered communication mode */
 425:/home/jonas/warwick/3dProfilometer/xpcc/ext/stm32f4xx_lib/STM32F4xx_StdPeriph_Driver/src/stm32f4xx_can.c ****   CAN_InitStruct->CAN_TTCM = DISABLE;
 464              		.loc 1 425 0
 465 0000 0023     		movs	r3, #0
 466 0002 8371     		strb	r3, [r0, #6]
 426:/home/jonas/warwick/3dProfilometer/xpcc/ext/stm32f4xx_lib/STM32F4xx_StdPeriph_Driver/src/stm32f4xx_can.c ****   
 427:/home/jonas/warwick/3dProfilometer/xpcc/ext/stm32f4xx_lib/STM32F4xx_StdPeriph_Driver/src/stm32f4xx_can.c ****   /* Initialize the automatic bus-off management */
 428:/home/jonas/warwick/3dProfilometer/xpcc/ext/stm32f4xx_lib/STM32F4xx_StdPeriph_Driver/src/stm32f4xx_can.c ****   CAN_InitStruct->CAN_ABOM = DISABLE;
 467              		.loc 1 428 0
 468 0004 C371     		strb	r3, [r0, #7]
 429:/home/jonas/warwick/3dProfilometer/xpcc/ext/stm32f4xx_lib/STM32F4xx_StdPeriph_Driver/src/stm32f4xx_can.c ****   
 430:/home/jonas/warwick/3dProfilometer/xpcc/ext/stm32f4xx_lib/STM32F4xx_StdPeriph_Driver/src/stm32f4xx_can.c ****   /* Initialize the automatic wake-up mode */
 431:/home/jonas/warwick/3dProfilometer/xpcc/ext/stm32f4xx_lib/STM32F4xx_StdPeriph_Driver/src/stm32f4xx_can.c ****   CAN_InitStruct->CAN_AWUM = DISABLE;
 469              		.loc 1 431 0
 470 0006 0372     		strb	r3, [r0, #8]
 432:/home/jonas/warwick/3dProfilometer/xpcc/ext/stm32f4xx_lib/STM32F4xx_StdPeriph_Driver/src/stm32f4xx_can.c ****   
 433:/home/jonas/warwick/3dProfilometer/xpcc/ext/stm32f4xx_lib/STM32F4xx_StdPeriph_Driver/src/stm32f4xx_can.c ****   /* Initialize the no automatic retransmission */
 434:/home/jonas/warwick/3dProfilometer/xpcc/ext/stm32f4xx_lib/STM32F4xx_StdPeriph_Driver/src/stm32f4xx_can.c ****   CAN_InitStruct->CAN_NART = DISABLE;
 471              		.loc 1 434 0
 472 0008 4372     		strb	r3, [r0, #9]
 435:/home/jonas/warwick/3dProfilometer/xpcc/ext/stm32f4xx_lib/STM32F4xx_StdPeriph_Driver/src/stm32f4xx_can.c ****   
 436:/home/jonas/warwick/3dProfilometer/xpcc/ext/stm32f4xx_lib/STM32F4xx_StdPeriph_Driver/src/stm32f4xx_can.c ****   /* Initialize the receive FIFO locked mode */
 437:/home/jonas/warwick/3dProfilometer/xpcc/ext/stm32f4xx_lib/STM32F4xx_StdPeriph_Driver/src/stm32f4xx_can.c ****   CAN_InitStruct->CAN_RFLM = DISABLE;
 473              		.loc 1 437 0
 474 000a 8372     		strb	r3, [r0, #10]
 438:/home/jonas/warwick/3dProfilometer/xpcc/ext/stm32f4xx_lib/STM32F4xx_StdPeriph_Driver/src/stm32f4xx_can.c ****   
 439:/home/jonas/warwick/3dProfilometer/xpcc/ext/stm32f4xx_lib/STM32F4xx_StdPeriph_Driver/src/stm32f4xx_can.c ****   /* Initialize the transmit FIFO priority */
 440:/home/jonas/warwick/3dProfilometer/xpcc/ext/stm32f4xx_lib/STM32F4xx_StdPeriph_Driver/src/stm32f4xx_can.c ****   CAN_InitStruct->CAN_TXFP = DISABLE;
 475              		.loc 1 440 0
 476 000c C372     		strb	r3, [r0, #11]
 441:/home/jonas/warwick/3dProfilometer/xpcc/ext/stm32f4xx_lib/STM32F4xx_StdPeriph_Driver/src/stm32f4xx_can.c ****   
 442:/home/jonas/warwick/3dProfilometer/xpcc/ext/stm32f4xx_lib/STM32F4xx_StdPeriph_Driver/src/stm32f4xx_can.c ****   /* Initialize the CAN_Mode member */
 443:/home/jonas/warwick/3dProfilometer/xpcc/ext/stm32f4xx_lib/STM32F4xx_StdPeriph_Driver/src/stm32f4xx_can.c ****   CAN_InitStruct->CAN_Mode = CAN_Mode_Normal;
 477              		.loc 1 443 0
 478 000e 8370     		strb	r3, [r0, #2]
 444:/home/jonas/warwick/3dProfilometer/xpcc/ext/stm32f4xx_lib/STM32F4xx_StdPeriph_Driver/src/stm32f4xx_can.c ****   
 445:/home/jonas/warwick/3dProfilometer/xpcc/ext/stm32f4xx_lib/STM32F4xx_StdPeriph_Driver/src/stm32f4xx_can.c ****   /* Initialize the CAN_SJW member */
 446:/home/jonas/warwick/3dProfilometer/xpcc/ext/stm32f4xx_lib/STM32F4xx_StdPeriph_Driver/src/stm32f4xx_can.c ****   CAN_InitStruct->CAN_SJW = CAN_SJW_1tq;
 479              		.loc 1 446 0
 480 0010 C370     		strb	r3, [r0, #3]
 447:/home/jonas/warwick/3dProfilometer/xpcc/ext/stm32f4xx_lib/STM32F4xx_StdPeriph_Driver/src/stm32f4xx_can.c ****   
 448:/home/jonas/warwick/3dProfilometer/xpcc/ext/stm32f4xx_lib/STM32F4xx_StdPeriph_Driver/src/stm32f4xx_can.c ****   /* Initialize the CAN_BS1 member */
 449:/home/jonas/warwick/3dProfilometer/xpcc/ext/stm32f4xx_lib/STM32F4xx_StdPeriph_Driver/src/stm32f4xx_can.c ****   CAN_InitStruct->CAN_BS1 = CAN_BS1_4tq;
 481              		.loc 1 449 0
 482 0012 0323     		movs	r3, #3
 483 0014 0371     		strb	r3, [r0, #4]
 450:/home/jonas/warwick/3dProfilometer/xpcc/ext/stm32f4xx_lib/STM32F4xx_StdPeriph_Driver/src/stm32f4xx_can.c ****   
 451:/home/jonas/warwick/3dProfilometer/xpcc/ext/stm32f4xx_lib/STM32F4xx_StdPeriph_Driver/src/stm32f4xx_can.c ****   /* Initialize the CAN_BS2 member */
 452:/home/jonas/warwick/3dProfilometer/xpcc/ext/stm32f4xx_lib/STM32F4xx_StdPeriph_Driver/src/stm32f4xx_can.c ****   CAN_InitStruct->CAN_BS2 = CAN_BS2_3tq;
 484              		.loc 1 452 0
 485 0016 0223     		movs	r3, #2
 486 0018 4371     		strb	r3, [r0, #5]
 453:/home/jonas/warwick/3dProfilometer/xpcc/ext/stm32f4xx_lib/STM32F4xx_StdPeriph_Driver/src/stm32f4xx_can.c ****   
 454:/home/jonas/warwick/3dProfilometer/xpcc/ext/stm32f4xx_lib/STM32F4xx_StdPeriph_Driver/src/stm32f4xx_can.c ****   /* Initialize the CAN_Prescaler member */
 455:/home/jonas/warwick/3dProfilometer/xpcc/ext/stm32f4xx_lib/STM32F4xx_StdPeriph_Driver/src/stm32f4xx_can.c ****   CAN_InitStruct->CAN_Prescaler = 1;
 487              		.loc 1 455 0
 488 001a 0123     		movs	r3, #1
 489 001c 0380     		strh	r3, [r0, #0]	@ movhi
 490 001e 7047     		bx	lr
 491              		.cfi_endproc
 492              	.LFE113:
 494              		.section	.text.CAN_SlaveStartBank,"ax",%progbits
 495              		.align	2
 496              		.global	CAN_SlaveStartBank
 497              		.thumb
 498              		.thumb_func
 500              	CAN_SlaveStartBank:
 501              	.LFB114:
 456:/home/jonas/warwick/3dProfilometer/xpcc/ext/stm32f4xx_lib/STM32F4xx_StdPeriph_Driver/src/stm32f4xx_can.c **** }
 457:/home/jonas/warwick/3dProfilometer/xpcc/ext/stm32f4xx_lib/STM32F4xx_StdPeriph_Driver/src/stm32f4xx_can.c **** 
 458:/home/jonas/warwick/3dProfilometer/xpcc/ext/stm32f4xx_lib/STM32F4xx_StdPeriph_Driver/src/stm32f4xx_can.c **** /**
 459:/home/jonas/warwick/3dProfilometer/xpcc/ext/stm32f4xx_lib/STM32F4xx_StdPeriph_Driver/src/stm32f4xx_can.c ****   * @brief  Select the start bank filter for slave CAN.
 460:/home/jonas/warwick/3dProfilometer/xpcc/ext/stm32f4xx_lib/STM32F4xx_StdPeriph_Driver/src/stm32f4xx_can.c ****   * @param  CAN_BankNumber: Select the start slave bank filter from 1..27.
 461:/home/jonas/warwick/3dProfilometer/xpcc/ext/stm32f4xx_lib/STM32F4xx_StdPeriph_Driver/src/stm32f4xx_can.c ****   * @retval None
 462:/home/jonas/warwick/3dProfilometer/xpcc/ext/stm32f4xx_lib/STM32F4xx_StdPeriph_Driver/src/stm32f4xx_can.c ****   */
 463:/home/jonas/warwick/3dProfilometer/xpcc/ext/stm32f4xx_lib/STM32F4xx_StdPeriph_Driver/src/stm32f4xx_can.c **** void CAN_SlaveStartBank(uint8_t CAN_BankNumber) 
 464:/home/jonas/warwick/3dProfilometer/xpcc/ext/stm32f4xx_lib/STM32F4xx_StdPeriph_Driver/src/stm32f4xx_can.c **** {
 502              		.loc 1 464 0
 503              		.cfi_startproc
 504              		@ args = 0, pretend = 0, frame = 0
 505              		@ frame_needed = 0, uses_anonymous_args = 0
 506              		@ link register save eliminated.
 507              	.LVL28:
 465:/home/jonas/warwick/3dProfilometer/xpcc/ext/stm32f4xx_lib/STM32F4xx_StdPeriph_Driver/src/stm32f4xx_can.c ****   /* Check the parameters */
 466:/home/jonas/warwick/3dProfilometer/xpcc/ext/stm32f4xx_lib/STM32F4xx_StdPeriph_Driver/src/stm32f4xx_can.c ****   assert_param(IS_CAN_BANKNUMBER(CAN_BankNumber));
 467:/home/jonas/warwick/3dProfilometer/xpcc/ext/stm32f4xx_lib/STM32F4xx_StdPeriph_Driver/src/stm32f4xx_can.c ****   
 468:/home/jonas/warwick/3dProfilometer/xpcc/ext/stm32f4xx_lib/STM32F4xx_StdPeriph_Driver/src/stm32f4xx_can.c ****   /* Enter Initialisation mode for the filter */
 469:/home/jonas/warwick/3dProfilometer/xpcc/ext/stm32f4xx_lib/STM32F4xx_StdPeriph_Driver/src/stm32f4xx_can.c ****   CAN1->FMR |= FMR_FINIT;
 508              		.loc 1 469 0
 509 0000 0D4B     		ldr	r3, .L50
 510 0002 D3F80022 		ldr	r2, [r3, #512]
 511 0006 42F00102 		orr	r2, r2, #1
 512 000a C3F80022 		str	r2, [r3, #512]
 470:/home/jonas/warwick/3dProfilometer/xpcc/ext/stm32f4xx_lib/STM32F4xx_StdPeriph_Driver/src/stm32f4xx_can.c ****   
 471:/home/jonas/warwick/3dProfilometer/xpcc/ext/stm32f4xx_lib/STM32F4xx_StdPeriph_Driver/src/stm32f4xx_can.c ****   /* Select the start slave bank */
 472:/home/jonas/warwick/3dProfilometer/xpcc/ext/stm32f4xx_lib/STM32F4xx_StdPeriph_Driver/src/stm32f4xx_can.c ****   CAN1->FMR &= (uint32_t)0xFFFFC0F1 ;
 513              		.loc 1 472 0
 514 000e D3F80022 		ldr	r2, [r3, #512]
 515 0012 22F47C52 		bic	r2, r2, #16128
 516 0016 22F00E02 		bic	r2, r2, #14
 517 001a C3F80022 		str	r2, [r3, #512]
 473:/home/jonas/warwick/3dProfilometer/xpcc/ext/stm32f4xx_lib/STM32F4xx_StdPeriph_Driver/src/stm32f4xx_can.c ****   CAN1->FMR |= (uint32_t)(CAN_BankNumber)<<8;
 518              		.loc 1 473 0
 519 001e D3F80022 		ldr	r2, [r3, #512]
 520 0022 42EA0020 		orr	r0, r2, r0, lsl #8
 521              	.LVL29:
 522 0026 C3F80002 		str	r0, [r3, #512]
 474:/home/jonas/warwick/3dProfilometer/xpcc/ext/stm32f4xx_lib/STM32F4xx_StdPeriph_Driver/src/stm32f4xx_can.c ****   
 475:/home/jonas/warwick/3dProfilometer/xpcc/ext/stm32f4xx_lib/STM32F4xx_StdPeriph_Driver/src/stm32f4xx_can.c ****   /* Leave Initialisation mode for the filter */
 476:/home/jonas/warwick/3dProfilometer/xpcc/ext/stm32f4xx_lib/STM32F4xx_StdPeriph_Driver/src/stm32f4xx_can.c ****   CAN1->FMR &= ~FMR_FINIT;
 523              		.loc 1 476 0
 524 002a D3F80022 		ldr	r2, [r3, #512]
 525 002e 22F00102 		bic	r2, r2, #1
 526 0032 C3F80022 		str	r2, [r3, #512]
 527 0036 7047     		bx	lr
 528              	.L51:
 529              		.align	2
 530              	.L50:
 531 0038 00640040 		.word	1073767424
 532              		.cfi_endproc
 533              	.LFE114:
 535              		.section	.text.CAN_DBGFreeze,"ax",%progbits
 536              		.align	2
 537              		.global	CAN_DBGFreeze
 538              		.thumb
 539              		.thumb_func
 541              	CAN_DBGFreeze:
 542              	.LFB115:
 477:/home/jonas/warwick/3dProfilometer/xpcc/ext/stm32f4xx_lib/STM32F4xx_StdPeriph_Driver/src/stm32f4xx_can.c **** }
 478:/home/jonas/warwick/3dProfilometer/xpcc/ext/stm32f4xx_lib/STM32F4xx_StdPeriph_Driver/src/stm32f4xx_can.c **** 
 479:/home/jonas/warwick/3dProfilometer/xpcc/ext/stm32f4xx_lib/STM32F4xx_StdPeriph_Driver/src/stm32f4xx_can.c **** /**
 480:/home/jonas/warwick/3dProfilometer/xpcc/ext/stm32f4xx_lib/STM32F4xx_StdPeriph_Driver/src/stm32f4xx_can.c ****   * @brief  Enables or disables the DBG Freeze for CAN.
 481:/home/jonas/warwick/3dProfilometer/xpcc/ext/stm32f4xx_lib/STM32F4xx_StdPeriph_Driver/src/stm32f4xx_can.c ****   * @param  CANx: where x can be 1 or 2 to to select the CAN peripheral.
 482:/home/jonas/warwick/3dProfilometer/xpcc/ext/stm32f4xx_lib/STM32F4xx_StdPeriph_Driver/src/stm32f4xx_can.c ****   * @param  NewState: new state of the CAN peripheral. 
 483:/home/jonas/warwick/3dProfilometer/xpcc/ext/stm32f4xx_lib/STM32F4xx_StdPeriph_Driver/src/stm32f4xx_can.c ****   *          This parameter can be: ENABLE (CAN reception/transmission is frozen
 484:/home/jonas/warwick/3dProfilometer/xpcc/ext/stm32f4xx_lib/STM32F4xx_StdPeriph_Driver/src/stm32f4xx_can.c ****   *          during debug. Reception FIFOs can still be accessed/controlled normally) 
 485:/home/jonas/warwick/3dProfilometer/xpcc/ext/stm32f4xx_lib/STM32F4xx_StdPeriph_Driver/src/stm32f4xx_can.c ****   *          or DISABLE (CAN is working during debug).
 486:/home/jonas/warwick/3dProfilometer/xpcc/ext/stm32f4xx_lib/STM32F4xx_StdPeriph_Driver/src/stm32f4xx_can.c ****   * @retval None
 487:/home/jonas/warwick/3dProfilometer/xpcc/ext/stm32f4xx_lib/STM32F4xx_StdPeriph_Driver/src/stm32f4xx_can.c ****   */
 488:/home/jonas/warwick/3dProfilometer/xpcc/ext/stm32f4xx_lib/STM32F4xx_StdPeriph_Driver/src/stm32f4xx_can.c **** void CAN_DBGFreeze(CAN_TypeDef* CANx, FunctionalState NewState)
 489:/home/jonas/warwick/3dProfilometer/xpcc/ext/stm32f4xx_lib/STM32F4xx_StdPeriph_Driver/src/stm32f4xx_can.c **** {
 543              		.loc 1 489 0
 544              		.cfi_startproc
 545              		@ args = 0, pretend = 0, frame = 0
 546              		@ frame_needed = 0, uses_anonymous_args = 0
 547              		@ link register save eliminated.
 548              	.LVL30:
 490:/home/jonas/warwick/3dProfilometer/xpcc/ext/stm32f4xx_lib/STM32F4xx_StdPeriph_Driver/src/stm32f4xx_can.c ****   /* Check the parameters */
 491:/home/jonas/warwick/3dProfilometer/xpcc/ext/stm32f4xx_lib/STM32F4xx_StdPeriph_Driver/src/stm32f4xx_can.c ****   assert_param(IS_CAN_ALL_PERIPH(CANx));
 492:/home/jonas/warwick/3dProfilometer/xpcc/ext/stm32f4xx_lib/STM32F4xx_StdPeriph_Driver/src/stm32f4xx_can.c ****   assert_param(IS_FUNCTIONAL_STATE(NewState));
 493:/home/jonas/warwick/3dProfilometer/xpcc/ext/stm32f4xx_lib/STM32F4xx_StdPeriph_Driver/src/stm32f4xx_can.c ****   
 494:/home/jonas/warwick/3dProfilometer/xpcc/ext/stm32f4xx_lib/STM32F4xx_StdPeriph_Driver/src/stm32f4xx_can.c ****   if (NewState != DISABLE)
 495:/home/jonas/warwick/3dProfilometer/xpcc/ext/stm32f4xx_lib/STM32F4xx_StdPeriph_Driver/src/stm32f4xx_can.c ****   {
 496:/home/jonas/warwick/3dProfilometer/xpcc/ext/stm32f4xx_lib/STM32F4xx_StdPeriph_Driver/src/stm32f4xx_can.c ****     /* Enable Debug Freeze  */
 497:/home/jonas/warwick/3dProfilometer/xpcc/ext/stm32f4xx_lib/STM32F4xx_StdPeriph_Driver/src/stm32f4xx_can.c ****     CANx->MCR |= MCR_DBF;
 549              		.loc 1 497 0
 550 0000 0368     		ldr	r3, [r0, #0]
 494:/home/jonas/warwick/3dProfilometer/xpcc/ext/stm32f4xx_lib/STM32F4xx_StdPeriph_Driver/src/stm32f4xx_can.c ****   if (NewState != DISABLE)
 551              		.loc 1 494 0
 552 0002 19B9     		cbnz	r1, .L55
 498:/home/jonas/warwick/3dProfilometer/xpcc/ext/stm32f4xx_lib/STM32F4xx_StdPeriph_Driver/src/stm32f4xx_can.c ****   }
 499:/home/jonas/warwick/3dProfilometer/xpcc/ext/stm32f4xx_lib/STM32F4xx_StdPeriph_Driver/src/stm32f4xx_can.c ****   else
 500:/home/jonas/warwick/3dProfilometer/xpcc/ext/stm32f4xx_lib/STM32F4xx_StdPeriph_Driver/src/stm32f4xx_can.c ****   {
 501:/home/jonas/warwick/3dProfilometer/xpcc/ext/stm32f4xx_lib/STM32F4xx_StdPeriph_Driver/src/stm32f4xx_can.c ****     /* Disable Debug Freeze */
 502:/home/jonas/warwick/3dProfilometer/xpcc/ext/stm32f4xx_lib/STM32F4xx_StdPeriph_Driver/src/stm32f4xx_can.c ****     CANx->MCR &= ~MCR_DBF;
 553              		.loc 1 502 0
 554 0004 23F48033 		bic	r3, r3, #65536
 555 0008 0360     		str	r3, [r0, #0]
 556 000a 7047     		bx	lr
 557              	.L55:
 497:/home/jonas/warwick/3dProfilometer/xpcc/ext/stm32f4xx_lib/STM32F4xx_StdPeriph_Driver/src/stm32f4xx_can.c ****     CANx->MCR |= MCR_DBF;
 558              		.loc 1 497 0
 559 000c 43F48033 		orr	r3, r3, #65536
 560 0010 0360     		str	r3, [r0, #0]
 561 0012 7047     		bx	lr
 562              		.cfi_endproc
 563              	.LFE115:
 565              		.section	.text.CAN_TTComModeCmd,"ax",%progbits
 566              		.align	2
 567              		.global	CAN_TTComModeCmd
 568              		.thumb
 569              		.thumb_func
 571              	CAN_TTComModeCmd:
 572              	.LFB116:
 503:/home/jonas/warwick/3dProfilometer/xpcc/ext/stm32f4xx_lib/STM32F4xx_StdPeriph_Driver/src/stm32f4xx_can.c ****   }
 504:/home/jonas/warwick/3dProfilometer/xpcc/ext/stm32f4xx_lib/STM32F4xx_StdPeriph_Driver/src/stm32f4xx_can.c **** }
 505:/home/jonas/warwick/3dProfilometer/xpcc/ext/stm32f4xx_lib/STM32F4xx_StdPeriph_Driver/src/stm32f4xx_can.c **** 
 506:/home/jonas/warwick/3dProfilometer/xpcc/ext/stm32f4xx_lib/STM32F4xx_StdPeriph_Driver/src/stm32f4xx_can.c **** 
 507:/home/jonas/warwick/3dProfilometer/xpcc/ext/stm32f4xx_lib/STM32F4xx_StdPeriph_Driver/src/stm32f4xx_can.c **** /**
 508:/home/jonas/warwick/3dProfilometer/xpcc/ext/stm32f4xx_lib/STM32F4xx_StdPeriph_Driver/src/stm32f4xx_can.c ****   * @brief  Enables or disables the CAN Time TriggerOperation communication mode.
 509:/home/jonas/warwick/3dProfilometer/xpcc/ext/stm32f4xx_lib/STM32F4xx_StdPeriph_Driver/src/stm32f4xx_can.c ****   * @note   DLC must be programmed as 8 in order Time Stamp (2 bytes) to be 
 510:/home/jonas/warwick/3dProfilometer/xpcc/ext/stm32f4xx_lib/STM32F4xx_StdPeriph_Driver/src/stm32f4xx_can.c ****   *         sent over the CAN bus.  
 511:/home/jonas/warwick/3dProfilometer/xpcc/ext/stm32f4xx_lib/STM32F4xx_StdPeriph_Driver/src/stm32f4xx_can.c ****   * @param  CANx: where x can be 1 or 2 to to select the CAN peripheral.
 512:/home/jonas/warwick/3dProfilometer/xpcc/ext/stm32f4xx_lib/STM32F4xx_StdPeriph_Driver/src/stm32f4xx_can.c ****   * @param  NewState: Mode new state. This parameter can be: ENABLE or DISABLE.
 513:/home/jonas/warwick/3dProfilometer/xpcc/ext/stm32f4xx_lib/STM32F4xx_StdPeriph_Driver/src/stm32f4xx_can.c ****   *         When enabled, Time stamp (TIME[15:0]) value is  sent in the last two
 514:/home/jonas/warwick/3dProfilometer/xpcc/ext/stm32f4xx_lib/STM32F4xx_StdPeriph_Driver/src/stm32f4xx_can.c ****   *         data bytes of the 8-byte message: TIME[7:0] in data byte 6 and TIME[15:8] 
 515:/home/jonas/warwick/3dProfilometer/xpcc/ext/stm32f4xx_lib/STM32F4xx_StdPeriph_Driver/src/stm32f4xx_can.c ****   *         in data byte 7. 
 516:/home/jonas/warwick/3dProfilometer/xpcc/ext/stm32f4xx_lib/STM32F4xx_StdPeriph_Driver/src/stm32f4xx_can.c ****   * @retval None
 517:/home/jonas/warwick/3dProfilometer/xpcc/ext/stm32f4xx_lib/STM32F4xx_StdPeriph_Driver/src/stm32f4xx_can.c ****   */
 518:/home/jonas/warwick/3dProfilometer/xpcc/ext/stm32f4xx_lib/STM32F4xx_StdPeriph_Driver/src/stm32f4xx_can.c **** void CAN_TTComModeCmd(CAN_TypeDef* CANx, FunctionalState NewState)
 519:/home/jonas/warwick/3dProfilometer/xpcc/ext/stm32f4xx_lib/STM32F4xx_StdPeriph_Driver/src/stm32f4xx_can.c **** {
 573              		.loc 1 519 0
 574              		.cfi_startproc
 575              		@ args = 0, pretend = 0, frame = 0
 576              		@ frame_needed = 0, uses_anonymous_args = 0
 577              		@ link register save eliminated.
 578              	.LVL31:
 520:/home/jonas/warwick/3dProfilometer/xpcc/ext/stm32f4xx_lib/STM32F4xx_StdPeriph_Driver/src/stm32f4xx_can.c ****   /* Check the parameters */
 521:/home/jonas/warwick/3dProfilometer/xpcc/ext/stm32f4xx_lib/STM32F4xx_StdPeriph_Driver/src/stm32f4xx_can.c ****   assert_param(IS_CAN_ALL_PERIPH(CANx));
 522:/home/jonas/warwick/3dProfilometer/xpcc/ext/stm32f4xx_lib/STM32F4xx_StdPeriph_Driver/src/stm32f4xx_can.c ****   assert_param(IS_FUNCTIONAL_STATE(NewState));
 523:/home/jonas/warwick/3dProfilometer/xpcc/ext/stm32f4xx_lib/STM32F4xx_StdPeriph_Driver/src/stm32f4xx_can.c ****   if (NewState != DISABLE)
 524:/home/jonas/warwick/3dProfilometer/xpcc/ext/stm32f4xx_lib/STM32F4xx_StdPeriph_Driver/src/stm32f4xx_can.c ****   {
 525:/home/jonas/warwick/3dProfilometer/xpcc/ext/stm32f4xx_lib/STM32F4xx_StdPeriph_Driver/src/stm32f4xx_can.c ****     /* Enable the TTCM mode */
 526:/home/jonas/warwick/3dProfilometer/xpcc/ext/stm32f4xx_lib/STM32F4xx_StdPeriph_Driver/src/stm32f4xx_can.c ****     CANx->MCR |= CAN_MCR_TTCM;
 579              		.loc 1 526 0
 580 0000 0368     		ldr	r3, [r0, #0]
 523:/home/jonas/warwick/3dProfilometer/xpcc/ext/stm32f4xx_lib/STM32F4xx_StdPeriph_Driver/src/stm32f4xx_can.c ****   if (NewState != DISABLE)
 581              		.loc 1 523 0
 582 0002 A9B9     		cbnz	r1, .L59
 527:/home/jonas/warwick/3dProfilometer/xpcc/ext/stm32f4xx_lib/STM32F4xx_StdPeriph_Driver/src/stm32f4xx_can.c **** 
 528:/home/jonas/warwick/3dProfilometer/xpcc/ext/stm32f4xx_lib/STM32F4xx_StdPeriph_Driver/src/stm32f4xx_can.c ****     /* Set TGT bits */
 529:/home/jonas/warwick/3dProfilometer/xpcc/ext/stm32f4xx_lib/STM32F4xx_StdPeriph_Driver/src/stm32f4xx_can.c ****     CANx->sTxMailBox[0].TDTR |= ((uint32_t)CAN_TDT0R_TGT);
 530:/home/jonas/warwick/3dProfilometer/xpcc/ext/stm32f4xx_lib/STM32F4xx_StdPeriph_Driver/src/stm32f4xx_can.c ****     CANx->sTxMailBox[1].TDTR |= ((uint32_t)CAN_TDT1R_TGT);
 531:/home/jonas/warwick/3dProfilometer/xpcc/ext/stm32f4xx_lib/STM32F4xx_StdPeriph_Driver/src/stm32f4xx_can.c ****     CANx->sTxMailBox[2].TDTR |= ((uint32_t)CAN_TDT2R_TGT);
 532:/home/jonas/warwick/3dProfilometer/xpcc/ext/stm32f4xx_lib/STM32F4xx_StdPeriph_Driver/src/stm32f4xx_can.c ****   }
 533:/home/jonas/warwick/3dProfilometer/xpcc/ext/stm32f4xx_lib/STM32F4xx_StdPeriph_Driver/src/stm32f4xx_can.c ****   else
 534:/home/jonas/warwick/3dProfilometer/xpcc/ext/stm32f4xx_lib/STM32F4xx_StdPeriph_Driver/src/stm32f4xx_can.c ****   {
 535:/home/jonas/warwick/3dProfilometer/xpcc/ext/stm32f4xx_lib/STM32F4xx_StdPeriph_Driver/src/stm32f4xx_can.c ****     /* Disable the TTCM mode */
 536:/home/jonas/warwick/3dProfilometer/xpcc/ext/stm32f4xx_lib/STM32F4xx_StdPeriph_Driver/src/stm32f4xx_can.c ****     CANx->MCR &= (uint32_t)(~(uint32_t)CAN_MCR_TTCM);
 583              		.loc 1 536 0
 584 0004 23F08003 		bic	r3, r3, #128
 585 0008 0360     		str	r3, [r0, #0]
 537:/home/jonas/warwick/3dProfilometer/xpcc/ext/stm32f4xx_lib/STM32F4xx_StdPeriph_Driver/src/stm32f4xx_can.c **** 
 538:/home/jonas/warwick/3dProfilometer/xpcc/ext/stm32f4xx_lib/STM32F4xx_StdPeriph_Driver/src/stm32f4xx_can.c ****     /* Reset TGT bits */
 539:/home/jonas/warwick/3dProfilometer/xpcc/ext/stm32f4xx_lib/STM32F4xx_StdPeriph_Driver/src/stm32f4xx_can.c ****     CANx->sTxMailBox[0].TDTR &= ((uint32_t)~CAN_TDT0R_TGT);
 586              		.loc 1 539 0
 587 000a D0F88431 		ldr	r3, [r0, #388]
 588 000e 23F48073 		bic	r3, r3, #256
 589 0012 C0F88431 		str	r3, [r0, #388]
 540:/home/jonas/warwick/3dProfilometer/xpcc/ext/stm32f4xx_lib/STM32F4xx_StdPeriph_Driver/src/stm32f4xx_can.c ****     CANx->sTxMailBox[1].TDTR &= ((uint32_t)~CAN_TDT1R_TGT);
 590              		.loc 1 540 0
 591 0016 D0F89431 		ldr	r3, [r0, #404]
 592 001a 23F48073 		bic	r3, r3, #256
 593 001e C0F89431 		str	r3, [r0, #404]
 541:/home/jonas/warwick/3dProfilometer/xpcc/ext/stm32f4xx_lib/STM32F4xx_StdPeriph_Driver/src/stm32f4xx_can.c ****     CANx->sTxMailBox[2].TDTR &= ((uint32_t)~CAN_TDT2R_TGT);
 594              		.loc 1 541 0
 595 0022 D0F8A431 		ldr	r3, [r0, #420]
 596 0026 23F48073 		bic	r3, r3, #256
 597 002a C0F8A431 		str	r3, [r0, #420]
 598 002e 7047     		bx	lr
 599              	.L59:
 526:/home/jonas/warwick/3dProfilometer/xpcc/ext/stm32f4xx_lib/STM32F4xx_StdPeriph_Driver/src/stm32f4xx_can.c ****     CANx->MCR |= CAN_MCR_TTCM;
 600              		.loc 1 526 0
 601 0030 43F08003 		orr	r3, r3, #128
 602 0034 0360     		str	r3, [r0, #0]
 529:/home/jonas/warwick/3dProfilometer/xpcc/ext/stm32f4xx_lib/STM32F4xx_StdPeriph_Driver/src/stm32f4xx_can.c ****     CANx->sTxMailBox[0].TDTR |= ((uint32_t)CAN_TDT0R_TGT);
 603              		.loc 1 529 0
 604 0036 D0F88431 		ldr	r3, [r0, #388]
 605 003a 43F48073 		orr	r3, r3, #256
 606 003e C0F88431 		str	r3, [r0, #388]
 530:/home/jonas/warwick/3dProfilometer/xpcc/ext/stm32f4xx_lib/STM32F4xx_StdPeriph_Driver/src/stm32f4xx_can.c ****     CANx->sTxMailBox[1].TDTR |= ((uint32_t)CAN_TDT1R_TGT);
 607              		.loc 1 530 0
 608 0042 D0F89431 		ldr	r3, [r0, #404]
 609 0046 43F48073 		orr	r3, r3, #256
 610 004a C0F89431 		str	r3, [r0, #404]
 531:/home/jonas/warwick/3dProfilometer/xpcc/ext/stm32f4xx_lib/STM32F4xx_StdPeriph_Driver/src/stm32f4xx_can.c ****     CANx->sTxMailBox[2].TDTR |= ((uint32_t)CAN_TDT2R_TGT);
 611              		.loc 1 531 0
 612 004e D0F8A431 		ldr	r3, [r0, #420]
 613 0052 43F48073 		orr	r3, r3, #256
 614 0056 C0F8A431 		str	r3, [r0, #420]
 615 005a 7047     		bx	lr
 616              		.cfi_endproc
 617              	.LFE116:
 619              		.section	.text.CAN_Transmit,"ax",%progbits
 620              		.align	2
 621              		.global	CAN_Transmit
 622              		.thumb
 623              		.thumb_func
 625              	CAN_Transmit:
 626              	.LFB117:
 542:/home/jonas/warwick/3dProfilometer/xpcc/ext/stm32f4xx_lib/STM32F4xx_StdPeriph_Driver/src/stm32f4xx_can.c ****   }
 543:/home/jonas/warwick/3dProfilometer/xpcc/ext/stm32f4xx_lib/STM32F4xx_StdPeriph_Driver/src/stm32f4xx_can.c **** }
 544:/home/jonas/warwick/3dProfilometer/xpcc/ext/stm32f4xx_lib/STM32F4xx_StdPeriph_Driver/src/stm32f4xx_can.c **** /**
 545:/home/jonas/warwick/3dProfilometer/xpcc/ext/stm32f4xx_lib/STM32F4xx_StdPeriph_Driver/src/stm32f4xx_can.c ****   * @}
 546:/home/jonas/warwick/3dProfilometer/xpcc/ext/stm32f4xx_lib/STM32F4xx_StdPeriph_Driver/src/stm32f4xx_can.c ****   */
 547:/home/jonas/warwick/3dProfilometer/xpcc/ext/stm32f4xx_lib/STM32F4xx_StdPeriph_Driver/src/stm32f4xx_can.c **** 
 548:/home/jonas/warwick/3dProfilometer/xpcc/ext/stm32f4xx_lib/STM32F4xx_StdPeriph_Driver/src/stm32f4xx_can.c **** 
 549:/home/jonas/warwick/3dProfilometer/xpcc/ext/stm32f4xx_lib/STM32F4xx_StdPeriph_Driver/src/stm32f4xx_can.c **** /** @defgroup CAN_Group2 CAN Frames Transmission functions
 550:/home/jonas/warwick/3dProfilometer/xpcc/ext/stm32f4xx_lib/STM32F4xx_StdPeriph_Driver/src/stm32f4xx_can.c ****  *  @brief    CAN Frames Transmission functions 
 551:/home/jonas/warwick/3dProfilometer/xpcc/ext/stm32f4xx_lib/STM32F4xx_StdPeriph_Driver/src/stm32f4xx_can.c ****  *
 552:/home/jonas/warwick/3dProfilometer/xpcc/ext/stm32f4xx_lib/STM32F4xx_StdPeriph_Driver/src/stm32f4xx_can.c **** @verbatim    
 553:/home/jonas/warwick/3dProfilometer/xpcc/ext/stm32f4xx_lib/STM32F4xx_StdPeriph_Driver/src/stm32f4xx_can.c ****  ===============================================================================
 554:/home/jonas/warwick/3dProfilometer/xpcc/ext/stm32f4xx_lib/STM32F4xx_StdPeriph_Driver/src/stm32f4xx_can.c ****                       CAN Frames Transmission functions
 555:/home/jonas/warwick/3dProfilometer/xpcc/ext/stm32f4xx_lib/STM32F4xx_StdPeriph_Driver/src/stm32f4xx_can.c ****  ===============================================================================  
 556:/home/jonas/warwick/3dProfilometer/xpcc/ext/stm32f4xx_lib/STM32F4xx_StdPeriph_Driver/src/stm32f4xx_can.c ****   This section provides functions allowing to 
 557:/home/jonas/warwick/3dProfilometer/xpcc/ext/stm32f4xx_lib/STM32F4xx_StdPeriph_Driver/src/stm32f4xx_can.c ****    - Initiate and transmit a CAN frame message (if there is an empty mailbox).
 558:/home/jonas/warwick/3dProfilometer/xpcc/ext/stm32f4xx_lib/STM32F4xx_StdPeriph_Driver/src/stm32f4xx_can.c ****    - Check the transmission status of a CAN Frame
 559:/home/jonas/warwick/3dProfilometer/xpcc/ext/stm32f4xx_lib/STM32F4xx_StdPeriph_Driver/src/stm32f4xx_can.c ****    - Cancel a transmit request
 560:/home/jonas/warwick/3dProfilometer/xpcc/ext/stm32f4xx_lib/STM32F4xx_StdPeriph_Driver/src/stm32f4xx_can.c ****    
 561:/home/jonas/warwick/3dProfilometer/xpcc/ext/stm32f4xx_lib/STM32F4xx_StdPeriph_Driver/src/stm32f4xx_can.c **** @endverbatim
 562:/home/jonas/warwick/3dProfilometer/xpcc/ext/stm32f4xx_lib/STM32F4xx_StdPeriph_Driver/src/stm32f4xx_can.c ****   * @{
 563:/home/jonas/warwick/3dProfilometer/xpcc/ext/stm32f4xx_lib/STM32F4xx_StdPeriph_Driver/src/stm32f4xx_can.c ****   */
 564:/home/jonas/warwick/3dProfilometer/xpcc/ext/stm32f4xx_lib/STM32F4xx_StdPeriph_Driver/src/stm32f4xx_can.c **** 
 565:/home/jonas/warwick/3dProfilometer/xpcc/ext/stm32f4xx_lib/STM32F4xx_StdPeriph_Driver/src/stm32f4xx_can.c **** /**
 566:/home/jonas/warwick/3dProfilometer/xpcc/ext/stm32f4xx_lib/STM32F4xx_StdPeriph_Driver/src/stm32f4xx_can.c ****   * @brief  Initiates and transmits a CAN frame message.
 567:/home/jonas/warwick/3dProfilometer/xpcc/ext/stm32f4xx_lib/STM32F4xx_StdPeriph_Driver/src/stm32f4xx_can.c ****   * @param  CANx: where x can be 1 or 2 to to select the CAN peripheral.
 568:/home/jonas/warwick/3dProfilometer/xpcc/ext/stm32f4xx_lib/STM32F4xx_StdPeriph_Driver/src/stm32f4xx_can.c ****   * @param  TxMessage: pointer to a structure which contains CAN Id, CAN DLC and CAN data.
 569:/home/jonas/warwick/3dProfilometer/xpcc/ext/stm32f4xx_lib/STM32F4xx_StdPeriph_Driver/src/stm32f4xx_can.c ****   * @retval The number of the mailbox that is used for transmission or
 570:/home/jonas/warwick/3dProfilometer/xpcc/ext/stm32f4xx_lib/STM32F4xx_StdPeriph_Driver/src/stm32f4xx_can.c ****   *         CAN_TxStatus_NoMailBox if there is no empty mailbox.
 571:/home/jonas/warwick/3dProfilometer/xpcc/ext/stm32f4xx_lib/STM32F4xx_StdPeriph_Driver/src/stm32f4xx_can.c ****   */
 572:/home/jonas/warwick/3dProfilometer/xpcc/ext/stm32f4xx_lib/STM32F4xx_StdPeriph_Driver/src/stm32f4xx_can.c **** uint8_t CAN_Transmit(CAN_TypeDef* CANx, CanTxMsg* TxMessage)
 573:/home/jonas/warwick/3dProfilometer/xpcc/ext/stm32f4xx_lib/STM32F4xx_StdPeriph_Driver/src/stm32f4xx_can.c **** {
 627              		.loc 1 573 0
 628              		.cfi_startproc
 629              		@ args = 0, pretend = 0, frame = 0
 630              		@ frame_needed = 0, uses_anonymous_args = 0
 631              		@ link register save eliminated.
 632              	.LVL32:
 574:/home/jonas/warwick/3dProfilometer/xpcc/ext/stm32f4xx_lib/STM32F4xx_StdPeriph_Driver/src/stm32f4xx_can.c ****   uint8_t transmit_mailbox = 0;
 575:/home/jonas/warwick/3dProfilometer/xpcc/ext/stm32f4xx_lib/STM32F4xx_StdPeriph_Driver/src/stm32f4xx_can.c ****   /* Check the parameters */
 576:/home/jonas/warwick/3dProfilometer/xpcc/ext/stm32f4xx_lib/STM32F4xx_StdPeriph_Driver/src/stm32f4xx_can.c ****   assert_param(IS_CAN_ALL_PERIPH(CANx));
 577:/home/jonas/warwick/3dProfilometer/xpcc/ext/stm32f4xx_lib/STM32F4xx_StdPeriph_Driver/src/stm32f4xx_can.c ****   assert_param(IS_CAN_IDTYPE(TxMessage->IDE));
 578:/home/jonas/warwick/3dProfilometer/xpcc/ext/stm32f4xx_lib/STM32F4xx_StdPeriph_Driver/src/stm32f4xx_can.c ****   assert_param(IS_CAN_RTR(TxMessage->RTR));
 579:/home/jonas/warwick/3dProfilometer/xpcc/ext/stm32f4xx_lib/STM32F4xx_StdPeriph_Driver/src/stm32f4xx_can.c ****   assert_param(IS_CAN_DLC(TxMessage->DLC));
 580:/home/jonas/warwick/3dProfilometer/xpcc/ext/stm32f4xx_lib/STM32F4xx_StdPeriph_Driver/src/stm32f4xx_can.c **** 
 581:/home/jonas/warwick/3dProfilometer/xpcc/ext/stm32f4xx_lib/STM32F4xx_StdPeriph_Driver/src/stm32f4xx_can.c ****   /* Select one empty transmit mailbox */
 582:/home/jonas/warwick/3dProfilometer/xpcc/ext/stm32f4xx_lib/STM32F4xx_StdPeriph_Driver/src/stm32f4xx_can.c ****   if ((CANx->TSR&CAN_TSR_TME0) == CAN_TSR_TME0)
 633              		.loc 1 582 0
 634 0000 8268     		ldr	r2, [r0, #8]
 573:/home/jonas/warwick/3dProfilometer/xpcc/ext/stm32f4xx_lib/STM32F4xx_StdPeriph_Driver/src/stm32f4xx_can.c **** {
 635              		.loc 1 573 0
 636 0002 0346     		mov	r3, r0
 637              		.loc 1 582 0
 638 0004 5001     		lsls	r0, r2, #5
 639              	.LVL33:
 573:/home/jonas/warwick/3dProfilometer/xpcc/ext/stm32f4xx_lib/STM32F4xx_StdPeriph_Driver/src/stm32f4xx_can.c **** {
 640              		.loc 1 573 0
 641 0006 2DE9F001 		push	{r4, r5, r6, r7, r8}
 642              	.LCFI3:
 643              		.cfi_def_cfa_offset 20
 644              		.cfi_offset 4, -20
 645              		.cfi_offset 5, -16
 646              		.cfi_offset 6, -12
 647              		.cfi_offset 7, -8
 648              		.cfi_offset 8, -4
 649              		.loc 1 582 0
 650 000a 05D4     		bmi	.L66
 583:/home/jonas/warwick/3dProfilometer/xpcc/ext/stm32f4xx_lib/STM32F4xx_StdPeriph_Driver/src/stm32f4xx_can.c ****   {
 584:/home/jonas/warwick/3dProfilometer/xpcc/ext/stm32f4xx_lib/STM32F4xx_StdPeriph_Driver/src/stm32f4xx_can.c ****     transmit_mailbox = 0;
 585:/home/jonas/warwick/3dProfilometer/xpcc/ext/stm32f4xx_lib/STM32F4xx_StdPeriph_Driver/src/stm32f4xx_can.c ****   }
 586:/home/jonas/warwick/3dProfilometer/xpcc/ext/stm32f4xx_lib/STM32F4xx_StdPeriph_Driver/src/stm32f4xx_can.c ****   else if ((CANx->TSR&CAN_TSR_TME1) == CAN_TSR_TME1)
 651              		.loc 1 586 0
 652 000c 9A68     		ldr	r2, [r3, #8]
 653 000e 1201     		lsls	r2, r2, #4
 654 0010 56D5     		bpl	.L71
 655 0012 0124     		movs	r4, #1
 587:/home/jonas/warwick/3dProfilometer/xpcc/ext/stm32f4xx_lib/STM32F4xx_StdPeriph_Driver/src/stm32f4xx_can.c ****   {
 588:/home/jonas/warwick/3dProfilometer/xpcc/ext/stm32f4xx_lib/STM32F4xx_StdPeriph_Driver/src/stm32f4xx_can.c ****     transmit_mailbox = 1;
 656              		.loc 1 588 0
 657 0014 2046     		mov	r0, r4
 658 0016 01E0     		b	.L61
 659              	.L66:
 582:/home/jonas/warwick/3dProfilometer/xpcc/ext/stm32f4xx_lib/STM32F4xx_StdPeriph_Driver/src/stm32f4xx_can.c ****   if ((CANx->TSR&CAN_TSR_TME0) == CAN_TSR_TME0)
 660              		.loc 1 582 0
 661 0018 0024     		movs	r4, #0
 584:/home/jonas/warwick/3dProfilometer/xpcc/ext/stm32f4xx_lib/STM32F4xx_StdPeriph_Driver/src/stm32f4xx_can.c ****     transmit_mailbox = 0;
 662              		.loc 1 584 0
 663 001a 2046     		mov	r0, r4
 664              	.L61:
 665              	.LVL34:
 589:/home/jonas/warwick/3dProfilometer/xpcc/ext/stm32f4xx_lib/STM32F4xx_StdPeriph_Driver/src/stm32f4xx_can.c ****   }
 590:/home/jonas/warwick/3dProfilometer/xpcc/ext/stm32f4xx_lib/STM32F4xx_StdPeriph_Driver/src/stm32f4xx_can.c ****   else if ((CANx->TSR&CAN_TSR_TME2) == CAN_TSR_TME2)
 591:/home/jonas/warwick/3dProfilometer/xpcc/ext/stm32f4xx_lib/STM32F4xx_StdPeriph_Driver/src/stm32f4xx_can.c ****   {
 592:/home/jonas/warwick/3dProfilometer/xpcc/ext/stm32f4xx_lib/STM32F4xx_StdPeriph_Driver/src/stm32f4xx_can.c ****     transmit_mailbox = 2;
 593:/home/jonas/warwick/3dProfilometer/xpcc/ext/stm32f4xx_lib/STM32F4xx_StdPeriph_Driver/src/stm32f4xx_can.c ****   }
 594:/home/jonas/warwick/3dProfilometer/xpcc/ext/stm32f4xx_lib/STM32F4xx_StdPeriph_Driver/src/stm32f4xx_can.c ****   else
 595:/home/jonas/warwick/3dProfilometer/xpcc/ext/stm32f4xx_lib/STM32F4xx_StdPeriph_Driver/src/stm32f4xx_can.c ****   {
 596:/home/jonas/warwick/3dProfilometer/xpcc/ext/stm32f4xx_lib/STM32F4xx_StdPeriph_Driver/src/stm32f4xx_can.c ****     transmit_mailbox = CAN_TxStatus_NoMailBox;
 597:/home/jonas/warwick/3dProfilometer/xpcc/ext/stm32f4xx_lib/STM32F4xx_StdPeriph_Driver/src/stm32f4xx_can.c ****   }
 598:/home/jonas/warwick/3dProfilometer/xpcc/ext/stm32f4xx_lib/STM32F4xx_StdPeriph_Driver/src/stm32f4xx_can.c **** 
 599:/home/jonas/warwick/3dProfilometer/xpcc/ext/stm32f4xx_lib/STM32F4xx_StdPeriph_Driver/src/stm32f4xx_can.c ****   if (transmit_mailbox != CAN_TxStatus_NoMailBox)
 600:/home/jonas/warwick/3dProfilometer/xpcc/ext/stm32f4xx_lib/STM32F4xx_StdPeriph_Driver/src/stm32f4xx_can.c ****   {
 601:/home/jonas/warwick/3dProfilometer/xpcc/ext/stm32f4xx_lib/STM32F4xx_StdPeriph_Driver/src/stm32f4xx_can.c ****     /* Set up the Id */
 602:/home/jonas/warwick/3dProfilometer/xpcc/ext/stm32f4xx_lib/STM32F4xx_StdPeriph_Driver/src/stm32f4xx_can.c ****     CANx->sTxMailBox[transmit_mailbox].TIR &= TMIDxR_TXRQ;
 666              		.loc 1 602 0
 667 001c 04F11805 		add	r5, r4, #24
 668 0020 2A01     		lsls	r2, r5, #4
 669 0022 9E58     		ldr	r6, [r3, r2]
 670 0024 06F00106 		and	r6, r6, #1
 671 0028 9E50     		str	r6, [r3, r2]
 603:/home/jonas/warwick/3dProfilometer/xpcc/ext/stm32f4xx_lib/STM32F4xx_StdPeriph_Driver/src/stm32f4xx_can.c ****     if (TxMessage->IDE == CAN_Id_Standard)
 672              		.loc 1 603 0
 673 002a 91F80880 		ldrb	r8, [r1, #8]	@ zero_extendqisi2
 674 002e B8F1000F 		cmp	r8, #0
 675 0032 3CD0     		beq	.L64
 604:/home/jonas/warwick/3dProfilometer/xpcc/ext/stm32f4xx_lib/STM32F4xx_StdPeriph_Driver/src/stm32f4xx_can.c ****     {
 605:/home/jonas/warwick/3dProfilometer/xpcc/ext/stm32f4xx_lib/STM32F4xx_StdPeriph_Driver/src/stm32f4xx_can.c ****       assert_param(IS_CAN_STDID(TxMessage->StdId));  
 606:/home/jonas/warwick/3dProfilometer/xpcc/ext/stm32f4xx_lib/STM32F4xx_StdPeriph_Driver/src/stm32f4xx_can.c ****       CANx->sTxMailBox[transmit_mailbox].TIR |= ((TxMessage->StdId << 21) | \
 607:/home/jonas/warwick/3dProfilometer/xpcc/ext/stm32f4xx_lib/STM32F4xx_StdPeriph_Driver/src/stm32f4xx_can.c ****                                                   TxMessage->RTR);
 608:/home/jonas/warwick/3dProfilometer/xpcc/ext/stm32f4xx_lib/STM32F4xx_StdPeriph_Driver/src/stm32f4xx_can.c ****     }
 609:/home/jonas/warwick/3dProfilometer/xpcc/ext/stm32f4xx_lib/STM32F4xx_StdPeriph_Driver/src/stm32f4xx_can.c ****     else
 610:/home/jonas/warwick/3dProfilometer/xpcc/ext/stm32f4xx_lib/STM32F4xx_StdPeriph_Driver/src/stm32f4xx_can.c ****     {
 611:/home/jonas/warwick/3dProfilometer/xpcc/ext/stm32f4xx_lib/STM32F4xx_StdPeriph_Driver/src/stm32f4xx_can.c ****       assert_param(IS_CAN_EXTID(TxMessage->ExtId));
 612:/home/jonas/warwick/3dProfilometer/xpcc/ext/stm32f4xx_lib/STM32F4xx_StdPeriph_Driver/src/stm32f4xx_can.c ****       CANx->sTxMailBox[transmit_mailbox].TIR |= ((TxMessage->ExtId << 3) | \
 676              		.loc 1 612 0
 677 0034 4E68     		ldr	r6, [r1, #4]
 678 0036 9F58     		ldr	r7, [r3, r2]
 613:/home/jonas/warwick/3dProfilometer/xpcc/ext/stm32f4xx_lib/STM32F4xx_StdPeriph_Driver/src/stm32f4xx_can.c ****                                                   TxMessage->IDE | \
 679              		.loc 1 613 0
 680 0038 91F809C0 		ldrb	ip, [r1, #9]	@ zero_extendqisi2
 612:/home/jonas/warwick/3dProfilometer/xpcc/ext/stm32f4xx_lib/STM32F4xx_StdPeriph_Driver/src/stm32f4xx_can.c ****       CANx->sTxMailBox[transmit_mailbox].TIR |= ((TxMessage->ExtId << 3) | \
 681              		.loc 1 612 0
 682 003c 48EAC608 		orr	r8, r8, r6, lsl #3
 683              		.loc 1 613 0
 684 0040 48EA0706 		orr	r6, r8, r7
 612:/home/jonas/warwick/3dProfilometer/xpcc/ext/stm32f4xx_lib/STM32F4xx_StdPeriph_Driver/src/stm32f4xx_can.c ****       CANx->sTxMailBox[transmit_mailbox].TIR |= ((TxMessage->ExtId << 3) | \
 685              		.loc 1 612 0
 686 0044 46EA0C06 		orr	r6, r6, ip
 687 0048 9E50     		str	r6, [r3, r2]
 688              	.L63:
 614:/home/jonas/warwick/3dProfilometer/xpcc/ext/stm32f4xx_lib/STM32F4xx_StdPeriph_Driver/src/stm32f4xx_can.c ****                                                   TxMessage->RTR);
 615:/home/jonas/warwick/3dProfilometer/xpcc/ext/stm32f4xx_lib/STM32F4xx_StdPeriph_Driver/src/stm32f4xx_can.c ****     }
 616:/home/jonas/warwick/3dProfilometer/xpcc/ext/stm32f4xx_lib/STM32F4xx_StdPeriph_Driver/src/stm32f4xx_can.c ****     
 617:/home/jonas/warwick/3dProfilometer/xpcc/ext/stm32f4xx_lib/STM32F4xx_StdPeriph_Driver/src/stm32f4xx_can.c ****     /* Set up the DLC */
 618:/home/jonas/warwick/3dProfilometer/xpcc/ext/stm32f4xx_lib/STM32F4xx_StdPeriph_Driver/src/stm32f4xx_can.c ****     TxMessage->DLC &= (uint8_t)0x0000000F;
 689              		.loc 1 618 0
 690 004a 8E7A     		ldrb	r6, [r1, #10]	@ zero_extendqisi2
 619:/home/jonas/warwick/3dProfilometer/xpcc/ext/stm32f4xx_lib/STM32F4xx_StdPeriph_Driver/src/stm32f4xx_can.c ****     CANx->sTxMailBox[transmit_mailbox].TDTR &= (uint32_t)0xFFFFFFF0;
 691              		.loc 1 619 0
 692 004c 2D01     		lsls	r5, r5, #4
 693 004e 5A19     		adds	r2, r3, r5
 618:/home/jonas/warwick/3dProfilometer/xpcc/ext/stm32f4xx_lib/STM32F4xx_StdPeriph_Driver/src/stm32f4xx_can.c ****     TxMessage->DLC &= (uint8_t)0x0000000F;
 694              		.loc 1 618 0
 695 0050 06F00F06 		and	r6, r6, #15
 696 0054 8E72     		strb	r6, [r1, #10]
 697              		.loc 1 619 0
 698 0056 5668     		ldr	r6, [r2, #4]
 699 0058 26F00F06 		bic	r6, r6, #15
 700 005c 5660     		str	r6, [r2, #4]
 620:/home/jonas/warwick/3dProfilometer/xpcc/ext/stm32f4xx_lib/STM32F4xx_StdPeriph_Driver/src/stm32f4xx_can.c ****     CANx->sTxMailBox[transmit_mailbox].TDTR |= TxMessage->DLC;
 701              		.loc 1 620 0
 702 005e 5668     		ldr	r6, [r2, #4]
 703 0060 8F7A     		ldrb	r7, [r1, #10]	@ zero_extendqisi2
 704 0062 3E43     		orrs	r6, r6, r7
 705 0064 5660     		str	r6, [r2, #4]
 621:/home/jonas/warwick/3dProfilometer/xpcc/ext/stm32f4xx_lib/STM32F4xx_StdPeriph_Driver/src/stm32f4xx_can.c **** 
 622:/home/jonas/warwick/3dProfilometer/xpcc/ext/stm32f4xx_lib/STM32F4xx_StdPeriph_Driver/src/stm32f4xx_can.c ****     /* Set up the data field */
 623:/home/jonas/warwick/3dProfilometer/xpcc/ext/stm32f4xx_lib/STM32F4xx_StdPeriph_Driver/src/stm32f4xx_can.c ****     CANx->sTxMailBox[transmit_mailbox].TDLR = (((uint32_t)TxMessage->Data[3] << 24) | 
 624:/home/jonas/warwick/3dProfilometer/xpcc/ext/stm32f4xx_lib/STM32F4xx_StdPeriph_Driver/src/stm32f4xx_can.c ****                                              ((uint32_t)TxMessage->Data[2] << 16) |
 706              		.loc 1 624 0
 707 0066 4A7B     		ldrb	r2, [r1, #13]	@ zero_extendqisi2
 623:/home/jonas/warwick/3dProfilometer/xpcc/ext/stm32f4xx_lib/STM32F4xx_StdPeriph_Driver/src/stm32f4xx_can.c ****     CANx->sTxMailBox[transmit_mailbox].TDLR = (((uint32_t)TxMessage->Data[3] << 24) | 
 708              		.loc 1 623 0
 709 0068 91F80EC0 		ldrb	ip, [r1, #14]	@ zero_extendqisi2
 625:/home/jonas/warwick/3dProfilometer/xpcc/ext/stm32f4xx_lib/STM32F4xx_StdPeriph_Driver/src/stm32f4xx_can.c ****                                              ((uint32_t)TxMessage->Data[1] << 8) | 
 626:/home/jonas/warwick/3dProfilometer/xpcc/ext/stm32f4xx_lib/STM32F4xx_StdPeriph_Driver/src/stm32f4xx_can.c ****                                              ((uint32_t)TxMessage->Data[0]));
 710              		.loc 1 626 0
 711 006c CF7A     		ldrb	r7, [r1, #11]	@ zero_extendqisi2
 625:/home/jonas/warwick/3dProfilometer/xpcc/ext/stm32f4xx_lib/STM32F4xx_StdPeriph_Driver/src/stm32f4xx_can.c ****                                              ((uint32_t)TxMessage->Data[1] << 8) | 
 712              		.loc 1 625 0
 713 006e 0E7B     		ldrb	r6, [r1, #12]	@ zero_extendqisi2
 624:/home/jonas/warwick/3dProfilometer/xpcc/ext/stm32f4xx_lib/STM32F4xx_StdPeriph_Driver/src/stm32f4xx_can.c ****                                              ((uint32_t)TxMessage->Data[2] << 16) |
 714              		.loc 1 624 0
 715 0070 1204     		lsls	r2, r2, #16
 623:/home/jonas/warwick/3dProfilometer/xpcc/ext/stm32f4xx_lib/STM32F4xx_StdPeriph_Driver/src/stm32f4xx_can.c ****     CANx->sTxMailBox[transmit_mailbox].TDLR = (((uint32_t)TxMessage->Data[3] << 24) | 
 716              		.loc 1 623 0
 717 0072 42EA0C62 		orr	r2, r2, ip, lsl #24
 718 0076 03EB0414 		add	r4, r3, r4, lsl #4
 624:/home/jonas/warwick/3dProfilometer/xpcc/ext/stm32f4xx_lib/STM32F4xx_StdPeriph_Driver/src/stm32f4xx_can.c ****                                              ((uint32_t)TxMessage->Data[2] << 16) |
 719              		.loc 1 624 0
 720 007a 3A43     		orrs	r2, r2, r7
 625:/home/jonas/warwick/3dProfilometer/xpcc/ext/stm32f4xx_lib/STM32F4xx_StdPeriph_Driver/src/stm32f4xx_can.c ****                                              ((uint32_t)TxMessage->Data[1] << 8) | 
 721              		.loc 1 625 0
 722 007c 42EA0622 		orr	r2, r2, r6, lsl #8
 623:/home/jonas/warwick/3dProfilometer/xpcc/ext/stm32f4xx_lib/STM32F4xx_StdPeriph_Driver/src/stm32f4xx_can.c ****     CANx->sTxMailBox[transmit_mailbox].TDLR = (((uint32_t)TxMessage->Data[3] << 24) | 
 723              		.loc 1 623 0
 724 0080 C4F88821 		str	r2, [r4, #392]
 627:/home/jonas/warwick/3dProfilometer/xpcc/ext/stm32f4xx_lib/STM32F4xx_StdPeriph_Driver/src/stm32f4xx_can.c ****     CANx->sTxMailBox[transmit_mailbox].TDHR = (((uint32_t)TxMessage->Data[7] << 24) | 
 628:/home/jonas/warwick/3dProfilometer/xpcc/ext/stm32f4xx_lib/STM32F4xx_StdPeriph_Driver/src/stm32f4xx_can.c ****                                              ((uint32_t)TxMessage->Data[6] << 16) |
 725              		.loc 1 628 0
 726 0084 4A7C     		ldrb	r2, [r1, #17]	@ zero_extendqisi2
 627:/home/jonas/warwick/3dProfilometer/xpcc/ext/stm32f4xx_lib/STM32F4xx_StdPeriph_Driver/src/stm32f4xx_can.c ****     CANx->sTxMailBox[transmit_mailbox].TDHR = (((uint32_t)TxMessage->Data[7] << 24) | 
 727              		.loc 1 627 0
 728 0086 8F7C     		ldrb	r7, [r1, #18]	@ zero_extendqisi2
 629:/home/jonas/warwick/3dProfilometer/xpcc/ext/stm32f4xx_lib/STM32F4xx_StdPeriph_Driver/src/stm32f4xx_can.c ****                                              ((uint32_t)TxMessage->Data[5] << 8) |
 630:/home/jonas/warwick/3dProfilometer/xpcc/ext/stm32f4xx_lib/STM32F4xx_StdPeriph_Driver/src/stm32f4xx_can.c ****                                              ((uint32_t)TxMessage->Data[4]));
 729              		.loc 1 630 0
 730 0088 CE7B     		ldrb	r6, [r1, #15]	@ zero_extendqisi2
 629:/home/jonas/warwick/3dProfilometer/xpcc/ext/stm32f4xx_lib/STM32F4xx_StdPeriph_Driver/src/stm32f4xx_can.c ****                                              ((uint32_t)TxMessage->Data[5] << 8) |
 731              		.loc 1 629 0
 732 008a 097C     		ldrb	r1, [r1, #16]	@ zero_extendqisi2
 733              	.LVL35:
 628:/home/jonas/warwick/3dProfilometer/xpcc/ext/stm32f4xx_lib/STM32F4xx_StdPeriph_Driver/src/stm32f4xx_can.c ****                                              ((uint32_t)TxMessage->Data[6] << 16) |
 734              		.loc 1 628 0
 735 008c 1204     		lsls	r2, r2, #16
 627:/home/jonas/warwick/3dProfilometer/xpcc/ext/stm32f4xx_lib/STM32F4xx_StdPeriph_Driver/src/stm32f4xx_can.c ****     CANx->sTxMailBox[transmit_mailbox].TDHR = (((uint32_t)TxMessage->Data[7] << 24) | 
 736              		.loc 1 627 0
 737 008e 42EA0762 		orr	r2, r2, r7, lsl #24
 628:/home/jonas/warwick/3dProfilometer/xpcc/ext/stm32f4xx_lib/STM32F4xx_StdPeriph_Driver/src/stm32f4xx_can.c ****                                              ((uint32_t)TxMessage->Data[6] << 16) |
 738              		.loc 1 628 0
 739 0092 3243     		orrs	r2, r2, r6
 629:/home/jonas/warwick/3dProfilometer/xpcc/ext/stm32f4xx_lib/STM32F4xx_StdPeriph_Driver/src/stm32f4xx_can.c ****                                              ((uint32_t)TxMessage->Data[5] << 8) |
 740              		.loc 1 629 0
 741 0094 42EA0122 		orr	r2, r2, r1, lsl #8
 627:/home/jonas/warwick/3dProfilometer/xpcc/ext/stm32f4xx_lib/STM32F4xx_StdPeriph_Driver/src/stm32f4xx_can.c ****     CANx->sTxMailBox[transmit_mailbox].TDHR = (((uint32_t)TxMessage->Data[7] << 24) | 
 742              		.loc 1 627 0
 743 0098 C4F88C21 		str	r2, [r4, #396]
 631:/home/jonas/warwick/3dProfilometer/xpcc/ext/stm32f4xx_lib/STM32F4xx_StdPeriph_Driver/src/stm32f4xx_can.c ****     /* Request transmission */
 632:/home/jonas/warwick/3dProfilometer/xpcc/ext/stm32f4xx_lib/STM32F4xx_StdPeriph_Driver/src/stm32f4xx_can.c ****     CANx->sTxMailBox[transmit_mailbox].TIR |= TMIDxR_TXRQ;
 744              		.loc 1 632 0
 745 009c 5A59     		ldr	r2, [r3, r5]
 746 009e 42F00102 		orr	r2, r2, #1
 747 00a2 5A51     		str	r2, [r3, r5]
 623:/home/jonas/warwick/3dProfilometer/xpcc/ext/stm32f4xx_lib/STM32F4xx_StdPeriph_Driver/src/stm32f4xx_can.c ****     CANx->sTxMailBox[transmit_mailbox].TDLR = (((uint32_t)TxMessage->Data[3] << 24) | 
 748              		.loc 1 623 0
 749 00a4 04F5C474 		add	r4, r4, #392
 750              	.LVL36:
 751              	.L69:
 633:/home/jonas/warwick/3dProfilometer/xpcc/ext/stm32f4xx_lib/STM32F4xx_StdPeriph_Driver/src/stm32f4xx_can.c ****   }
 634:/home/jonas/warwick/3dProfilometer/xpcc/ext/stm32f4xx_lib/STM32F4xx_StdPeriph_Driver/src/stm32f4xx_can.c ****   return transmit_mailbox;
 635:/home/jonas/warwick/3dProfilometer/xpcc/ext/stm32f4xx_lib/STM32F4xx_StdPeriph_Driver/src/stm32f4xx_can.c **** }
 752              		.loc 1 635 0
 753 00a8 BDE8F001 		pop	{r4, r5, r6, r7, r8}
 754 00ac 7047     		bx	lr
 755              	.LVL37:
 756              	.L64:
 606:/home/jonas/warwick/3dProfilometer/xpcc/ext/stm32f4xx_lib/STM32F4xx_StdPeriph_Driver/src/stm32f4xx_can.c ****       CANx->sTxMailBox[transmit_mailbox].TIR |= ((TxMessage->StdId << 21) | \
 757              		.loc 1 606 0
 758 00ae 0E68     		ldr	r6, [r1, #0]
 759 00b0 91F809C0 		ldrb	ip, [r1, #9]	@ zero_extendqisi2
 760 00b4 9F58     		ldr	r7, [r3, r2]
 761 00b6 4CEA4656 		orr	r6, ip, r6, lsl #21
 762 00ba 3E43     		orrs	r6, r6, r7
 763 00bc 9E50     		str	r6, [r3, r2]
 764 00be C4E7     		b	.L63
 765              	.LVL38:
 766              	.L71:
 590:/home/jonas/warwick/3dProfilometer/xpcc/ext/stm32f4xx_lib/STM32F4xx_StdPeriph_Driver/src/stm32f4xx_can.c ****   else if ((CANx->TSR&CAN_TSR_TME2) == CAN_TSR_TME2)
 767              		.loc 1 590 0
 768 00c0 9A68     		ldr	r2, [r3, #8]
 769 00c2 D000     		lsls	r0, r2, #3
 770 00c4 02D5     		bpl	.L72
 771 00c6 0224     		movs	r4, #2
 592:/home/jonas/warwick/3dProfilometer/xpcc/ext/stm32f4xx_lib/STM32F4xx_StdPeriph_Driver/src/stm32f4xx_can.c ****     transmit_mailbox = 2;
 772              		.loc 1 592 0
 773 00c8 2046     		mov	r0, r4
 774 00ca A7E7     		b	.L61
 775              	.L72:
 596:/home/jonas/warwick/3dProfilometer/xpcc/ext/stm32f4xx_lib/STM32F4xx_StdPeriph_Driver/src/stm32f4xx_can.c ****     transmit_mailbox = CAN_TxStatus_NoMailBox;
 776              		.loc 1 596 0
 777 00cc 0420     		movs	r0, #4
 778 00ce EBE7     		b	.L69
 779              		.cfi_endproc
 780              	.LFE117:
 782              		.section	.text.CAN_TransmitStatus,"ax",%progbits
 783              		.align	2
 784              		.global	CAN_TransmitStatus
 785              		.thumb
 786              		.thumb_func
 788              	CAN_TransmitStatus:
 789              	.LFB118:
 636:/home/jonas/warwick/3dProfilometer/xpcc/ext/stm32f4xx_lib/STM32F4xx_StdPeriph_Driver/src/stm32f4xx_can.c **** 
 637:/home/jonas/warwick/3dProfilometer/xpcc/ext/stm32f4xx_lib/STM32F4xx_StdPeriph_Driver/src/stm32f4xx_can.c **** /**
 638:/home/jonas/warwick/3dProfilometer/xpcc/ext/stm32f4xx_lib/STM32F4xx_StdPeriph_Driver/src/stm32f4xx_can.c ****   * @brief  Checks the transmission status of a CAN Frame.
 639:/home/jonas/warwick/3dProfilometer/xpcc/ext/stm32f4xx_lib/STM32F4xx_StdPeriph_Driver/src/stm32f4xx_can.c ****   * @param  CANx: where x can be 1 or 2 to select the CAN peripheral.
 640:/home/jonas/warwick/3dProfilometer/xpcc/ext/stm32f4xx_lib/STM32F4xx_StdPeriph_Driver/src/stm32f4xx_can.c ****   * @param  TransmitMailbox: the number of the mailbox that is used for transmission.
 641:/home/jonas/warwick/3dProfilometer/xpcc/ext/stm32f4xx_lib/STM32F4xx_StdPeriph_Driver/src/stm32f4xx_can.c ****   * @retval CAN_TxStatus_Ok if the CAN driver transmits the message, 
 642:/home/jonas/warwick/3dProfilometer/xpcc/ext/stm32f4xx_lib/STM32F4xx_StdPeriph_Driver/src/stm32f4xx_can.c ****   *         CAN_TxStatus_Failed in an other case.
 643:/home/jonas/warwick/3dProfilometer/xpcc/ext/stm32f4xx_lib/STM32F4xx_StdPeriph_Driver/src/stm32f4xx_can.c ****   */
 644:/home/jonas/warwick/3dProfilometer/xpcc/ext/stm32f4xx_lib/STM32F4xx_StdPeriph_Driver/src/stm32f4xx_can.c **** uint8_t CAN_TransmitStatus(CAN_TypeDef* CANx, uint8_t TransmitMailbox)
 645:/home/jonas/warwick/3dProfilometer/xpcc/ext/stm32f4xx_lib/STM32F4xx_StdPeriph_Driver/src/stm32f4xx_can.c **** {
 790              		.loc 1 645 0
 791              		.cfi_startproc
 792              		@ args = 0, pretend = 0, frame = 0
 793              		@ frame_needed = 0, uses_anonymous_args = 0
 794              		@ link register save eliminated.
 795              	.LVL39:
 646:/home/jonas/warwick/3dProfilometer/xpcc/ext/stm32f4xx_lib/STM32F4xx_StdPeriph_Driver/src/stm32f4xx_can.c ****   uint32_t state = 0;
 647:/home/jonas/warwick/3dProfilometer/xpcc/ext/stm32f4xx_lib/STM32F4xx_StdPeriph_Driver/src/stm32f4xx_can.c **** 
 648:/home/jonas/warwick/3dProfilometer/xpcc/ext/stm32f4xx_lib/STM32F4xx_StdPeriph_Driver/src/stm32f4xx_can.c ****   /* Check the parameters */
 649:/home/jonas/warwick/3dProfilometer/xpcc/ext/stm32f4xx_lib/STM32F4xx_StdPeriph_Driver/src/stm32f4xx_can.c ****   assert_param(IS_CAN_ALL_PERIPH(CANx));
 650:/home/jonas/warwick/3dProfilometer/xpcc/ext/stm32f4xx_lib/STM32F4xx_StdPeriph_Driver/src/stm32f4xx_can.c ****   assert_param(IS_CAN_TRANSMITMAILBOX(TransmitMailbox));
 651:/home/jonas/warwick/3dProfilometer/xpcc/ext/stm32f4xx_lib/STM32F4xx_StdPeriph_Driver/src/stm32f4xx_can.c ****  
 652:/home/jonas/warwick/3dProfilometer/xpcc/ext/stm32f4xx_lib/STM32F4xx_StdPeriph_Driver/src/stm32f4xx_can.c ****   switch (TransmitMailbox)
 796              		.loc 1 652 0
 797 0000 0129     		cmp	r1, #1
 798 0002 16D0     		beq	.L76
 799 0004 09D2     		bcs	.L87
 653:/home/jonas/warwick/3dProfilometer/xpcc/ext/stm32f4xx_lib/STM32F4xx_StdPeriph_Driver/src/stm32f4xx_can.c ****   {
 654:/home/jonas/warwick/3dProfilometer/xpcc/ext/stm32f4xx_lib/STM32F4xx_StdPeriph_Driver/src/stm32f4xx_can.c ****     case (CAN_TXMAILBOX_0): 
 655:/home/jonas/warwick/3dProfilometer/xpcc/ext/stm32f4xx_lib/STM32F4xx_StdPeriph_Driver/src/stm32f4xx_can.c ****       state =   CANx->TSR &  (CAN_TSR_RQCP0 | CAN_TSR_TXOK0 | CAN_TSR_TME0);
 800              		.loc 1 655 0
 801 0006 8268     		ldr	r2, [r0, #8]
 802 0008 0E4B     		ldr	r3, .L89
 803 000a 1340     		ands	r3, r3, r2
 804              	.LVL40:
 805              	.L78:
 656:/home/jonas/warwick/3dProfilometer/xpcc/ext/stm32f4xx_lib/STM32F4xx_StdPeriph_Driver/src/stm32f4xx_can.c ****       break;
 657:/home/jonas/warwick/3dProfilometer/xpcc/ext/stm32f4xx_lib/STM32F4xx_StdPeriph_Driver/src/stm32f4xx_can.c ****     case (CAN_TXMAILBOX_1): 
 658:/home/jonas/warwick/3dProfilometer/xpcc/ext/stm32f4xx_lib/STM32F4xx_StdPeriph_Driver/src/stm32f4xx_can.c ****       state =   CANx->TSR &  (CAN_TSR_RQCP1 | CAN_TSR_TXOK1 | CAN_TSR_TME1);
 659:/home/jonas/warwick/3dProfilometer/xpcc/ext/stm32f4xx_lib/STM32F4xx_StdPeriph_Driver/src/stm32f4xx_can.c ****       break;
 660:/home/jonas/warwick/3dProfilometer/xpcc/ext/stm32f4xx_lib/STM32F4xx_StdPeriph_Driver/src/stm32f4xx_can.c ****     case (CAN_TXMAILBOX_2): 
 661:/home/jonas/warwick/3dProfilometer/xpcc/ext/stm32f4xx_lib/STM32F4xx_StdPeriph_Driver/src/stm32f4xx_can.c ****       state =   CANx->TSR &  (CAN_TSR_RQCP2 | CAN_TSR_TXOK2 | CAN_TSR_TME2);
 662:/home/jonas/warwick/3dProfilometer/xpcc/ext/stm32f4xx_lib/STM32F4xx_StdPeriph_Driver/src/stm32f4xx_can.c ****       break;
 663:/home/jonas/warwick/3dProfilometer/xpcc/ext/stm32f4xx_lib/STM32F4xx_StdPeriph_Driver/src/stm32f4xx_can.c ****     default:
 664:/home/jonas/warwick/3dProfilometer/xpcc/ext/stm32f4xx_lib/STM32F4xx_StdPeriph_Driver/src/stm32f4xx_can.c ****       state = CAN_TxStatus_Failed;
 665:/home/jonas/warwick/3dProfilometer/xpcc/ext/stm32f4xx_lib/STM32F4xx_StdPeriph_Driver/src/stm32f4xx_can.c ****       break;
 666:/home/jonas/warwick/3dProfilometer/xpcc/ext/stm32f4xx_lib/STM32F4xx_StdPeriph_Driver/src/stm32f4xx_can.c ****   }
 667:/home/jonas/warwick/3dProfilometer/xpcc/ext/stm32f4xx_lib/STM32F4xx_StdPeriph_Driver/src/stm32f4xx_can.c ****   switch (state)
 806              		.loc 1 667 0
 807 000c 0D4A     		ldr	r2, .L89
 808 000e 9342     		cmp	r3, r2
 809 0010 0DD0     		beq	.L82
 810 0012 06D8     		bhi	.L83
 811 0014 1BB1     		cbz	r3, .L86
 812              	.L85:
 813 0016 0020     		movs	r0, #0
 814              	.LVL41:
 668:/home/jonas/warwick/3dProfilometer/xpcc/ext/stm32f4xx_lib/STM32F4xx_StdPeriph_Driver/src/stm32f4xx_can.c ****   {
 669:/home/jonas/warwick/3dProfilometer/xpcc/ext/stm32f4xx_lib/STM32F4xx_StdPeriph_Driver/src/stm32f4xx_can.c ****       /* transmit pending  */
 670:/home/jonas/warwick/3dProfilometer/xpcc/ext/stm32f4xx_lib/STM32F4xx_StdPeriph_Driver/src/stm32f4xx_can.c ****     case (0x0): state = CAN_TxStatus_Pending;
 671:/home/jonas/warwick/3dProfilometer/xpcc/ext/stm32f4xx_lib/STM32F4xx_StdPeriph_Driver/src/stm32f4xx_can.c ****       break;
 672:/home/jonas/warwick/3dProfilometer/xpcc/ext/stm32f4xx_lib/STM32F4xx_StdPeriph_Driver/src/stm32f4xx_can.c ****       /* transmit failed  */
 673:/home/jonas/warwick/3dProfilometer/xpcc/ext/stm32f4xx_lib/STM32F4xx_StdPeriph_Driver/src/stm32f4xx_can.c ****      case (CAN_TSR_RQCP0 | CAN_TSR_TME0): state = CAN_TxStatus_Failed;
 674:/home/jonas/warwick/3dProfilometer/xpcc/ext/stm32f4xx_lib/STM32F4xx_StdPeriph_Driver/src/stm32f4xx_can.c ****       break;
 675:/home/jonas/warwick/3dProfilometer/xpcc/ext/stm32f4xx_lib/STM32F4xx_StdPeriph_Driver/src/stm32f4xx_can.c ****      case (CAN_TSR_RQCP1 | CAN_TSR_TME1): state = CAN_TxStatus_Failed;
 676:/home/jonas/warwick/3dProfilometer/xpcc/ext/stm32f4xx_lib/STM32F4xx_StdPeriph_Driver/src/stm32f4xx_can.c ****       break;
 677:/home/jonas/warwick/3dProfilometer/xpcc/ext/stm32f4xx_lib/STM32F4xx_StdPeriph_Driver/src/stm32f4xx_can.c ****      case (CAN_TSR_RQCP2 | CAN_TSR_TME2): state = CAN_TxStatus_Failed;
 678:/home/jonas/warwick/3dProfilometer/xpcc/ext/stm32f4xx_lib/STM32F4xx_StdPeriph_Driver/src/stm32f4xx_can.c ****       break;
 679:/home/jonas/warwick/3dProfilometer/xpcc/ext/stm32f4xx_lib/STM32F4xx_StdPeriph_Driver/src/stm32f4xx_can.c ****       /* transmit succeeded  */
 680:/home/jonas/warwick/3dProfilometer/xpcc/ext/stm32f4xx_lib/STM32F4xx_StdPeriph_Driver/src/stm32f4xx_can.c ****     case (CAN_TSR_RQCP0 | CAN_TSR_TXOK0 | CAN_TSR_TME0):state = CAN_TxStatus_Ok;
 681:/home/jonas/warwick/3dProfilometer/xpcc/ext/stm32f4xx_lib/STM32F4xx_StdPeriph_Driver/src/stm32f4xx_can.c ****       break;
 682:/home/jonas/warwick/3dProfilometer/xpcc/ext/stm32f4xx_lib/STM32F4xx_StdPeriph_Driver/src/stm32f4xx_can.c ****     case (CAN_TSR_RQCP1 | CAN_TSR_TXOK1 | CAN_TSR_TME1):state = CAN_TxStatus_Ok;
 683:/home/jonas/warwick/3dProfilometer/xpcc/ext/stm32f4xx_lib/STM32F4xx_StdPeriph_Driver/src/stm32f4xx_can.c ****       break;
 684:/home/jonas/warwick/3dProfilometer/xpcc/ext/stm32f4xx_lib/STM32F4xx_StdPeriph_Driver/src/stm32f4xx_can.c ****     case (CAN_TSR_RQCP2 | CAN_TSR_TXOK2 | CAN_TSR_TME2):state = CAN_TxStatus_Ok;
 685:/home/jonas/warwick/3dProfilometer/xpcc/ext/stm32f4xx_lib/STM32F4xx_StdPeriph_Driver/src/stm32f4xx_can.c ****       break;
 686:/home/jonas/warwick/3dProfilometer/xpcc/ext/stm32f4xx_lib/STM32F4xx_StdPeriph_Driver/src/stm32f4xx_can.c ****     default: state = CAN_TxStatus_Failed;
 687:/home/jonas/warwick/3dProfilometer/xpcc/ext/stm32f4xx_lib/STM32F4xx_StdPeriph_Driver/src/stm32f4xx_can.c ****       break;
 688:/home/jonas/warwick/3dProfilometer/xpcc/ext/stm32f4xx_lib/STM32F4xx_StdPeriph_Driver/src/stm32f4xx_can.c ****   }
 689:/home/jonas/warwick/3dProfilometer/xpcc/ext/stm32f4xx_lib/STM32F4xx_StdPeriph_Driver/src/stm32f4xx_can.c ****   return (uint8_t) state;
 690:/home/jonas/warwick/3dProfilometer/xpcc/ext/stm32f4xx_lib/STM32F4xx_StdPeriph_Driver/src/stm32f4xx_can.c **** }
 815              		.loc 1 690 0
 816 0018 7047     		bx	lr
 817              	.LVL42:
 818              	.L87:
 652:/home/jonas/warwick/3dProfilometer/xpcc/ext/stm32f4xx_lib/STM32F4xx_StdPeriph_Driver/src/stm32f4xx_can.c ****   switch (TransmitMailbox)
 819              		.loc 1 652 0
 820 001a 0229     		cmp	r1, #2
 821 001c 0DD0     		beq	.L88
 822              	.LVL43:
 823              	.L86:
 824 001e 0220     		movs	r0, #2
 825              	.LVL44:
 826 0020 7047     		bx	lr
 827              	.LVL45:
 828              	.L83:
 667:/home/jonas/warwick/3dProfilometer/xpcc/ext/stm32f4xx_lib/STM32F4xx_StdPeriph_Driver/src/stm32f4xx_can.c ****   switch (state)
 829              		.loc 1 667 0
 830 0022 094A     		ldr	r2, .L89+4
 831 0024 9342     		cmp	r3, r2
 832 0026 02D0     		beq	.L82
 833 0028 084A     		ldr	r2, .L89+8
 834 002a 9342     		cmp	r3, r2
 835 002c F3D1     		bne	.L85
 836              	.L82:
 837              	.LVL46:
 685:/home/jonas/warwick/3dProfilometer/xpcc/ext/stm32f4xx_lib/STM32F4xx_StdPeriph_Driver/src/stm32f4xx_can.c ****       break;
 838              		.loc 1 685 0
 839 002e 0120     		movs	r0, #1
 840              	.LVL47:
 841 0030 7047     		bx	lr
 842              	.LVL48:
 843              	.L76:
 658:/home/jonas/warwick/3dProfilometer/xpcc/ext/stm32f4xx_lib/STM32F4xx_StdPeriph_Driver/src/stm32f4xx_can.c ****       state =   CANx->TSR &  (CAN_TSR_RQCP1 | CAN_TSR_TXOK1 | CAN_TSR_TME1);
 844              		.loc 1 658 0
 845 0032 8268     		ldr	r2, [r0, #8]
 846 0034 044B     		ldr	r3, .L89+4
 847 0036 1340     		ands	r3, r3, r2
 848              	.LVL49:
 659:/home/jonas/warwick/3dProfilometer/xpcc/ext/stm32f4xx_lib/STM32F4xx_StdPeriph_Driver/src/stm32f4xx_can.c ****       break;
 849              		.loc 1 659 0
 850 0038 E8E7     		b	.L78
 851              	.LVL50:
 852              	.L88:
 661:/home/jonas/warwick/3dProfilometer/xpcc/ext/stm32f4xx_lib/STM32F4xx_StdPeriph_Driver/src/stm32f4xx_can.c ****       state =   CANx->TSR &  (CAN_TSR_RQCP2 | CAN_TSR_TXOK2 | CAN_TSR_TME2);
 853              		.loc 1 661 0
 854 003a 8268     		ldr	r2, [r0, #8]
 855 003c 034B     		ldr	r3, .L89+8
 856 003e 1340     		ands	r3, r3, r2
 857              	.LVL51:
 662:/home/jonas/warwick/3dProfilometer/xpcc/ext/stm32f4xx_lib/STM32F4xx_StdPeriph_Driver/src/stm32f4xx_can.c ****       break;
 858              		.loc 1 662 0
 859 0040 E4E7     		b	.L78
 860              	.L90:
 861 0042 00BF     		.align	2
 862              	.L89:
 863 0044 03000004 		.word	67108867
 864 0048 00030008 		.word	134218496
 865 004c 00000310 		.word	268632064
 866              		.cfi_endproc
 867              	.LFE118:
 869              		.section	.text.CAN_CancelTransmit,"ax",%progbits
 870              		.align	2
 871              		.global	CAN_CancelTransmit
 872              		.thumb
 873              		.thumb_func
 875              	CAN_CancelTransmit:
 876              	.LFB119:
 691:/home/jonas/warwick/3dProfilometer/xpcc/ext/stm32f4xx_lib/STM32F4xx_StdPeriph_Driver/src/stm32f4xx_can.c **** 
 692:/home/jonas/warwick/3dProfilometer/xpcc/ext/stm32f4xx_lib/STM32F4xx_StdPeriph_Driver/src/stm32f4xx_can.c **** /**
 693:/home/jonas/warwick/3dProfilometer/xpcc/ext/stm32f4xx_lib/STM32F4xx_StdPeriph_Driver/src/stm32f4xx_can.c ****   * @brief  Cancels a transmit request.
 694:/home/jonas/warwick/3dProfilometer/xpcc/ext/stm32f4xx_lib/STM32F4xx_StdPeriph_Driver/src/stm32f4xx_can.c ****   * @param  CANx: where x can be 1 or 2 to select the CAN peripheral.
 695:/home/jonas/warwick/3dProfilometer/xpcc/ext/stm32f4xx_lib/STM32F4xx_StdPeriph_Driver/src/stm32f4xx_can.c ****   * @param  Mailbox: Mailbox number.
 696:/home/jonas/warwick/3dProfilometer/xpcc/ext/stm32f4xx_lib/STM32F4xx_StdPeriph_Driver/src/stm32f4xx_can.c ****   * @retval None
 697:/home/jonas/warwick/3dProfilometer/xpcc/ext/stm32f4xx_lib/STM32F4xx_StdPeriph_Driver/src/stm32f4xx_can.c ****   */
 698:/home/jonas/warwick/3dProfilometer/xpcc/ext/stm32f4xx_lib/STM32F4xx_StdPeriph_Driver/src/stm32f4xx_can.c **** void CAN_CancelTransmit(CAN_TypeDef* CANx, uint8_t Mailbox)
 699:/home/jonas/warwick/3dProfilometer/xpcc/ext/stm32f4xx_lib/STM32F4xx_StdPeriph_Driver/src/stm32f4xx_can.c **** {
 877              		.loc 1 699 0
 878              		.cfi_startproc
 879              		@ args = 0, pretend = 0, frame = 0
 880              		@ frame_needed = 0, uses_anonymous_args = 0
 881              		@ link register save eliminated.
 882              	.LVL52:
 700:/home/jonas/warwick/3dProfilometer/xpcc/ext/stm32f4xx_lib/STM32F4xx_StdPeriph_Driver/src/stm32f4xx_can.c ****   /* Check the parameters */
 701:/home/jonas/warwick/3dProfilometer/xpcc/ext/stm32f4xx_lib/STM32F4xx_StdPeriph_Driver/src/stm32f4xx_can.c ****   assert_param(IS_CAN_ALL_PERIPH(CANx));
 702:/home/jonas/warwick/3dProfilometer/xpcc/ext/stm32f4xx_lib/STM32F4xx_StdPeriph_Driver/src/stm32f4xx_can.c ****   assert_param(IS_CAN_TRANSMITMAILBOX(Mailbox));
 703:/home/jonas/warwick/3dProfilometer/xpcc/ext/stm32f4xx_lib/STM32F4xx_StdPeriph_Driver/src/stm32f4xx_can.c ****   /* abort transmission */
 704:/home/jonas/warwick/3dProfilometer/xpcc/ext/stm32f4xx_lib/STM32F4xx_StdPeriph_Driver/src/stm32f4xx_can.c ****   switch (Mailbox)
 883              		.loc 1 704 0
 884 0000 0129     		cmp	r1, #1
 885 0002 0CD0     		beq	.L94
 886 0004 06D3     		bcc	.L93
 887 0006 0229     		cmp	r1, #2
 888 0008 03D1     		bne	.L91
 705:/home/jonas/warwick/3dProfilometer/xpcc/ext/stm32f4xx_lib/STM32F4xx_StdPeriph_Driver/src/stm32f4xx_can.c ****   {
 706:/home/jonas/warwick/3dProfilometer/xpcc/ext/stm32f4xx_lib/STM32F4xx_StdPeriph_Driver/src/stm32f4xx_can.c ****     case (CAN_TXMAILBOX_0): CANx->TSR |= CAN_TSR_ABRQ0;
 707:/home/jonas/warwick/3dProfilometer/xpcc/ext/stm32f4xx_lib/STM32F4xx_StdPeriph_Driver/src/stm32f4xx_can.c ****       break;
 708:/home/jonas/warwick/3dProfilometer/xpcc/ext/stm32f4xx_lib/STM32F4xx_StdPeriph_Driver/src/stm32f4xx_can.c ****     case (CAN_TXMAILBOX_1): CANx->TSR |= CAN_TSR_ABRQ1;
 709:/home/jonas/warwick/3dProfilometer/xpcc/ext/stm32f4xx_lib/STM32F4xx_StdPeriph_Driver/src/stm32f4xx_can.c ****       break;
 710:/home/jonas/warwick/3dProfilometer/xpcc/ext/stm32f4xx_lib/STM32F4xx_StdPeriph_Driver/src/stm32f4xx_can.c ****     case (CAN_TXMAILBOX_2): CANx->TSR |= CAN_TSR_ABRQ2;
 889              		.loc 1 710 0
 890 000a 8368     		ldr	r3, [r0, #8]
 891 000c 43F40003 		orr	r3, r3, #8388608
 892 0010 8360     		str	r3, [r0, #8]
 893              	.L91:
 894 0012 7047     		bx	lr
 895              	.L93:
 706:/home/jonas/warwick/3dProfilometer/xpcc/ext/stm32f4xx_lib/STM32F4xx_StdPeriph_Driver/src/stm32f4xx_can.c ****     case (CAN_TXMAILBOX_0): CANx->TSR |= CAN_TSR_ABRQ0;
 896              		.loc 1 706 0
 897 0014 8368     		ldr	r3, [r0, #8]
 898 0016 43F08003 		orr	r3, r3, #128
 899 001a 8360     		str	r3, [r0, #8]
 707:/home/jonas/warwick/3dProfilometer/xpcc/ext/stm32f4xx_lib/STM32F4xx_StdPeriph_Driver/src/stm32f4xx_can.c ****       break;
 900              		.loc 1 707 0
 901 001c 7047     		bx	lr
 902              	.L94:
 708:/home/jonas/warwick/3dProfilometer/xpcc/ext/stm32f4xx_lib/STM32F4xx_StdPeriph_Driver/src/stm32f4xx_can.c ****     case (CAN_TXMAILBOX_1): CANx->TSR |= CAN_TSR_ABRQ1;
 903              		.loc 1 708 0
 904 001e 8368     		ldr	r3, [r0, #8]
 905 0020 43F40043 		orr	r3, r3, #32768
 906 0024 8360     		str	r3, [r0, #8]
 709:/home/jonas/warwick/3dProfilometer/xpcc/ext/stm32f4xx_lib/STM32F4xx_StdPeriph_Driver/src/stm32f4xx_can.c ****       break;
 907              		.loc 1 709 0
 908 0026 7047     		bx	lr
 909              		.cfi_endproc
 910              	.LFE119:
 912              		.section	.text.CAN_Receive,"ax",%progbits
 913              		.align	2
 914              		.global	CAN_Receive
 915              		.thumb
 916              		.thumb_func
 918              	CAN_Receive:
 919              	.LFB120:
 711:/home/jonas/warwick/3dProfilometer/xpcc/ext/stm32f4xx_lib/STM32F4xx_StdPeriph_Driver/src/stm32f4xx_can.c ****       break;
 712:/home/jonas/warwick/3dProfilometer/xpcc/ext/stm32f4xx_lib/STM32F4xx_StdPeriph_Driver/src/stm32f4xx_can.c ****     default:
 713:/home/jonas/warwick/3dProfilometer/xpcc/ext/stm32f4xx_lib/STM32F4xx_StdPeriph_Driver/src/stm32f4xx_can.c ****       break;
 714:/home/jonas/warwick/3dProfilometer/xpcc/ext/stm32f4xx_lib/STM32F4xx_StdPeriph_Driver/src/stm32f4xx_can.c ****   }
 715:/home/jonas/warwick/3dProfilometer/xpcc/ext/stm32f4xx_lib/STM32F4xx_StdPeriph_Driver/src/stm32f4xx_can.c **** }
 716:/home/jonas/warwick/3dProfilometer/xpcc/ext/stm32f4xx_lib/STM32F4xx_StdPeriph_Driver/src/stm32f4xx_can.c **** /**
 717:/home/jonas/warwick/3dProfilometer/xpcc/ext/stm32f4xx_lib/STM32F4xx_StdPeriph_Driver/src/stm32f4xx_can.c ****   * @}
 718:/home/jonas/warwick/3dProfilometer/xpcc/ext/stm32f4xx_lib/STM32F4xx_StdPeriph_Driver/src/stm32f4xx_can.c ****   */
 719:/home/jonas/warwick/3dProfilometer/xpcc/ext/stm32f4xx_lib/STM32F4xx_StdPeriph_Driver/src/stm32f4xx_can.c **** 
 720:/home/jonas/warwick/3dProfilometer/xpcc/ext/stm32f4xx_lib/STM32F4xx_StdPeriph_Driver/src/stm32f4xx_can.c **** 
 721:/home/jonas/warwick/3dProfilometer/xpcc/ext/stm32f4xx_lib/STM32F4xx_StdPeriph_Driver/src/stm32f4xx_can.c **** /** @defgroup CAN_Group3 CAN Frames Reception functions
 722:/home/jonas/warwick/3dProfilometer/xpcc/ext/stm32f4xx_lib/STM32F4xx_StdPeriph_Driver/src/stm32f4xx_can.c ****  *  @brief    CAN Frames Reception functions 
 723:/home/jonas/warwick/3dProfilometer/xpcc/ext/stm32f4xx_lib/STM32F4xx_StdPeriph_Driver/src/stm32f4xx_can.c ****  *
 724:/home/jonas/warwick/3dProfilometer/xpcc/ext/stm32f4xx_lib/STM32F4xx_StdPeriph_Driver/src/stm32f4xx_can.c **** @verbatim    
 725:/home/jonas/warwick/3dProfilometer/xpcc/ext/stm32f4xx_lib/STM32F4xx_StdPeriph_Driver/src/stm32f4xx_can.c ****  ===============================================================================
 726:/home/jonas/warwick/3dProfilometer/xpcc/ext/stm32f4xx_lib/STM32F4xx_StdPeriph_Driver/src/stm32f4xx_can.c ****                       CAN Frames Reception functions
 727:/home/jonas/warwick/3dProfilometer/xpcc/ext/stm32f4xx_lib/STM32F4xx_StdPeriph_Driver/src/stm32f4xx_can.c ****  ===============================================================================  
 728:/home/jonas/warwick/3dProfilometer/xpcc/ext/stm32f4xx_lib/STM32F4xx_StdPeriph_Driver/src/stm32f4xx_can.c ****   This section provides functions allowing to 
 729:/home/jonas/warwick/3dProfilometer/xpcc/ext/stm32f4xx_lib/STM32F4xx_StdPeriph_Driver/src/stm32f4xx_can.c ****    -  Receive a correct CAN frame
 730:/home/jonas/warwick/3dProfilometer/xpcc/ext/stm32f4xx_lib/STM32F4xx_StdPeriph_Driver/src/stm32f4xx_can.c ****    -  Release a specified receive FIFO (2 FIFOs are available)
 731:/home/jonas/warwick/3dProfilometer/xpcc/ext/stm32f4xx_lib/STM32F4xx_StdPeriph_Driver/src/stm32f4xx_can.c ****    -  Return the number of the pending received CAN frames
 732:/home/jonas/warwick/3dProfilometer/xpcc/ext/stm32f4xx_lib/STM32F4xx_StdPeriph_Driver/src/stm32f4xx_can.c ****    
 733:/home/jonas/warwick/3dProfilometer/xpcc/ext/stm32f4xx_lib/STM32F4xx_StdPeriph_Driver/src/stm32f4xx_can.c **** @endverbatim
 734:/home/jonas/warwick/3dProfilometer/xpcc/ext/stm32f4xx_lib/STM32F4xx_StdPeriph_Driver/src/stm32f4xx_can.c ****   * @{
 735:/home/jonas/warwick/3dProfilometer/xpcc/ext/stm32f4xx_lib/STM32F4xx_StdPeriph_Driver/src/stm32f4xx_can.c ****   */
 736:/home/jonas/warwick/3dProfilometer/xpcc/ext/stm32f4xx_lib/STM32F4xx_StdPeriph_Driver/src/stm32f4xx_can.c **** 
 737:/home/jonas/warwick/3dProfilometer/xpcc/ext/stm32f4xx_lib/STM32F4xx_StdPeriph_Driver/src/stm32f4xx_can.c **** /**
 738:/home/jonas/warwick/3dProfilometer/xpcc/ext/stm32f4xx_lib/STM32F4xx_StdPeriph_Driver/src/stm32f4xx_can.c ****   * @brief  Receives a correct CAN frame.
 739:/home/jonas/warwick/3dProfilometer/xpcc/ext/stm32f4xx_lib/STM32F4xx_StdPeriph_Driver/src/stm32f4xx_can.c ****   * @param  CANx: where x can be 1 or 2 to select the CAN peripheral.
 740:/home/jonas/warwick/3dProfilometer/xpcc/ext/stm32f4xx_lib/STM32F4xx_StdPeriph_Driver/src/stm32f4xx_can.c ****   * @param  FIFONumber: Receive FIFO number, CAN_FIFO0 or CAN_FIFO1.
 741:/home/jonas/warwick/3dProfilometer/xpcc/ext/stm32f4xx_lib/STM32F4xx_StdPeriph_Driver/src/stm32f4xx_can.c ****   * @param  RxMessage: pointer to a structure receive frame which contains CAN Id,
 742:/home/jonas/warwick/3dProfilometer/xpcc/ext/stm32f4xx_lib/STM32F4xx_StdPeriph_Driver/src/stm32f4xx_can.c ****   *         CAN DLC, CAN data and FMI number.
 743:/home/jonas/warwick/3dProfilometer/xpcc/ext/stm32f4xx_lib/STM32F4xx_StdPeriph_Driver/src/stm32f4xx_can.c ****   * @retval None
 744:/home/jonas/warwick/3dProfilometer/xpcc/ext/stm32f4xx_lib/STM32F4xx_StdPeriph_Driver/src/stm32f4xx_can.c ****   */
 745:/home/jonas/warwick/3dProfilometer/xpcc/ext/stm32f4xx_lib/STM32F4xx_StdPeriph_Driver/src/stm32f4xx_can.c **** void CAN_Receive(CAN_TypeDef* CANx, uint8_t FIFONumber, CanRxMsg* RxMessage)
 746:/home/jonas/warwick/3dProfilometer/xpcc/ext/stm32f4xx_lib/STM32F4xx_StdPeriph_Driver/src/stm32f4xx_can.c **** {
 920              		.loc 1 746 0
 921              		.cfi_startproc
 922              		@ args = 0, pretend = 0, frame = 0
 923              		@ frame_needed = 0, uses_anonymous_args = 0
 924              		@ link register save eliminated.
 925              	.LVL53:
 747:/home/jonas/warwick/3dProfilometer/xpcc/ext/stm32f4xx_lib/STM32F4xx_StdPeriph_Driver/src/stm32f4xx_can.c ****   /* Check the parameters */
 748:/home/jonas/warwick/3dProfilometer/xpcc/ext/stm32f4xx_lib/STM32F4xx_StdPeriph_Driver/src/stm32f4xx_can.c ****   assert_param(IS_CAN_ALL_PERIPH(CANx));
 749:/home/jonas/warwick/3dProfilometer/xpcc/ext/stm32f4xx_lib/STM32F4xx_StdPeriph_Driver/src/stm32f4xx_can.c ****   assert_param(IS_CAN_FIFO(FIFONumber));
 750:/home/jonas/warwick/3dProfilometer/xpcc/ext/stm32f4xx_lib/STM32F4xx_StdPeriph_Driver/src/stm32f4xx_can.c ****   /* Get the Id */
 751:/home/jonas/warwick/3dProfilometer/xpcc/ext/stm32f4xx_lib/STM32F4xx_StdPeriph_Driver/src/stm32f4xx_can.c ****   RxMessage->IDE = (uint8_t)0x04 & CANx->sFIFOMailBox[FIFONumber].RIR;
 926              		.loc 1 751 0
 927 0000 01F11B03 		add	r3, r1, #27
 746:/home/jonas/warwick/3dProfilometer/xpcc/ext/stm32f4xx_lib/STM32F4xx_StdPeriph_Driver/src/stm32f4xx_can.c **** {
 928              		.loc 1 746 0
 929 0004 30B4     		push	{r4, r5}
 930              	.LCFI4:
 931              		.cfi_def_cfa_offset 8
 932              		.cfi_offset 4, -8
 933              		.cfi_offset 5, -4
 934              		.loc 1 751 0
 935 0006 1C01     		lsls	r4, r3, #4
 936 0008 0559     		ldr	r5, [r0, r4]
 937 000a 05F00405 		and	r5, r5, #4
 938 000e EDB2     		uxtb	r5, r5
 939 0010 1572     		strb	r5, [r2, #8]
 752:/home/jonas/warwick/3dProfilometer/xpcc/ext/stm32f4xx_lib/STM32F4xx_StdPeriph_Driver/src/stm32f4xx_can.c ****   if (RxMessage->IDE == CAN_Id_Standard)
 753:/home/jonas/warwick/3dProfilometer/xpcc/ext/stm32f4xx_lib/STM32F4xx_StdPeriph_Driver/src/stm32f4xx_can.c ****   {
 754:/home/jonas/warwick/3dProfilometer/xpcc/ext/stm32f4xx_lib/STM32F4xx_StdPeriph_Driver/src/stm32f4xx_can.c ****     RxMessage->StdId = (uint32_t)0x000007FF & (CANx->sFIFOMailBox[FIFONumber].RIR >> 21);
 940              		.loc 1 754 0
 941 0012 0459     		ldr	r4, [r0, r4]
 752:/home/jonas/warwick/3dProfilometer/xpcc/ext/stm32f4xx_lib/STM32F4xx_StdPeriph_Driver/src/stm32f4xx_can.c ****   if (RxMessage->IDE == CAN_Id_Standard)
 942              		.loc 1 752 0
 943 0014 002D     		cmp	r5, #0
 944 0016 36D1     		bne	.L97
 945              		.loc 1 754 0
 946 0018 640D     		lsrs	r4, r4, #21
 947 001a 1460     		str	r4, [r2, #0]
 948              	.L98:
 755:/home/jonas/warwick/3dProfilometer/xpcc/ext/stm32f4xx_lib/STM32F4xx_StdPeriph_Driver/src/stm32f4xx_can.c ****   }
 756:/home/jonas/warwick/3dProfilometer/xpcc/ext/stm32f4xx_lib/STM32F4xx_StdPeriph_Driver/src/stm32f4xx_can.c ****   else
 757:/home/jonas/warwick/3dProfilometer/xpcc/ext/stm32f4xx_lib/STM32F4xx_StdPeriph_Driver/src/stm32f4xx_can.c ****   {
 758:/home/jonas/warwick/3dProfilometer/xpcc/ext/stm32f4xx_lib/STM32F4xx_StdPeriph_Driver/src/stm32f4xx_can.c ****     RxMessage->ExtId = (uint32_t)0x1FFFFFFF & (CANx->sFIFOMailBox[FIFONumber].RIR >> 3);
 759:/home/jonas/warwick/3dProfilometer/xpcc/ext/stm32f4xx_lib/STM32F4xx_StdPeriph_Driver/src/stm32f4xx_can.c ****   }
 760:/home/jonas/warwick/3dProfilometer/xpcc/ext/stm32f4xx_lib/STM32F4xx_StdPeriph_Driver/src/stm32f4xx_can.c ****   
 761:/home/jonas/warwick/3dProfilometer/xpcc/ext/stm32f4xx_lib/STM32F4xx_StdPeriph_Driver/src/stm32f4xx_can.c ****   RxMessage->RTR = (uint8_t)0x02 & CANx->sFIFOMailBox[FIFONumber].RIR;
 949              		.loc 1 761 0
 950 001c 1B01     		lsls	r3, r3, #4
 951 001e C418     		adds	r4, r0, r3
 952 0020 C358     		ldr	r3, [r0, r3]
 953 0022 03F00203 		and	r3, r3, #2
 954 0026 5372     		strb	r3, [r2, #9]
 762:/home/jonas/warwick/3dProfilometer/xpcc/ext/stm32f4xx_lib/STM32F4xx_StdPeriph_Driver/src/stm32f4xx_can.c ****   /* Get the DLC */
 763:/home/jonas/warwick/3dProfilometer/xpcc/ext/stm32f4xx_lib/STM32F4xx_StdPeriph_Driver/src/stm32f4xx_can.c ****   RxMessage->DLC = (uint8_t)0x0F & CANx->sFIFOMailBox[FIFONumber].RDTR;
 955              		.loc 1 763 0
 956 0028 6368     		ldr	r3, [r4, #4]
 957 002a 03F00F03 		and	r3, r3, #15
 958 002e 9372     		strb	r3, [r2, #10]
 764:/home/jonas/warwick/3dProfilometer/xpcc/ext/stm32f4xx_lib/STM32F4xx_StdPeriph_Driver/src/stm32f4xx_can.c ****   /* Get the FMI */
 765:/home/jonas/warwick/3dProfilometer/xpcc/ext/stm32f4xx_lib/STM32F4xx_StdPeriph_Driver/src/stm32f4xx_can.c ****   RxMessage->FMI = (uint8_t)0xFF & (CANx->sFIFOMailBox[FIFONumber].RDTR >> 8);
 959              		.loc 1 765 0
 960 0030 6468     		ldr	r4, [r4, #4]
 766:/home/jonas/warwick/3dProfilometer/xpcc/ext/stm32f4xx_lib/STM32F4xx_StdPeriph_Driver/src/stm32f4xx_can.c ****   /* Get the data field */
 767:/home/jonas/warwick/3dProfilometer/xpcc/ext/stm32f4xx_lib/STM32F4xx_StdPeriph_Driver/src/stm32f4xx_can.c ****   RxMessage->Data[0] = (uint8_t)0xFF & CANx->sFIFOMailBox[FIFONumber].RDLR;
 961              		.loc 1 767 0
 962 0032 00EB0113 		add	r3, r0, r1, lsl #4
 765:/home/jonas/warwick/3dProfilometer/xpcc/ext/stm32f4xx_lib/STM32F4xx_StdPeriph_Driver/src/stm32f4xx_can.c ****   RxMessage->FMI = (uint8_t)0xFF & (CANx->sFIFOMailBox[FIFONumber].RDTR >> 8);
 963              		.loc 1 765 0
 964 0036 240A     		lsrs	r4, r4, #8
 965 0038 D474     		strb	r4, [r2, #19]
 966              		.loc 1 767 0
 967 003a D3F8B841 		ldr	r4, [r3, #440]
 968 003e D472     		strb	r4, [r2, #11]
 768:/home/jonas/warwick/3dProfilometer/xpcc/ext/stm32f4xx_lib/STM32F4xx_StdPeriph_Driver/src/stm32f4xx_can.c ****   RxMessage->Data[1] = (uint8_t)0xFF & (CANx->sFIFOMailBox[FIFONumber].RDLR >> 8);
 969              		.loc 1 768 0
 970 0040 D3F8B841 		ldr	r4, [r3, #440]
 971 0044 240A     		lsrs	r4, r4, #8
 972 0046 1473     		strb	r4, [r2, #12]
 769:/home/jonas/warwick/3dProfilometer/xpcc/ext/stm32f4xx_lib/STM32F4xx_StdPeriph_Driver/src/stm32f4xx_can.c ****   RxMessage->Data[2] = (uint8_t)0xFF & (CANx->sFIFOMailBox[FIFONumber].RDLR >> 16);
 973              		.loc 1 769 0
 974 0048 D3F8B841 		ldr	r4, [r3, #440]
 975 004c 240C     		lsrs	r4, r4, #16
 976 004e 5473     		strb	r4, [r2, #13]
 770:/home/jonas/warwick/3dProfilometer/xpcc/ext/stm32f4xx_lib/STM32F4xx_StdPeriph_Driver/src/stm32f4xx_can.c ****   RxMessage->Data[3] = (uint8_t)0xFF & (CANx->sFIFOMailBox[FIFONumber].RDLR >> 24);
 977              		.loc 1 770 0
 978 0050 D3F8B841 		ldr	r4, [r3, #440]
 979 0054 240E     		lsrs	r4, r4, #24
 980 0056 9473     		strb	r4, [r2, #14]
 771:/home/jonas/warwick/3dProfilometer/xpcc/ext/stm32f4xx_lib/STM32F4xx_StdPeriph_Driver/src/stm32f4xx_can.c ****   RxMessage->Data[4] = (uint8_t)0xFF & CANx->sFIFOMailBox[FIFONumber].RDHR;
 981              		.loc 1 771 0
 982 0058 D3F8BC41 		ldr	r4, [r3, #444]
 983 005c D473     		strb	r4, [r2, #15]
 772:/home/jonas/warwick/3dProfilometer/xpcc/ext/stm32f4xx_lib/STM32F4xx_StdPeriph_Driver/src/stm32f4xx_can.c ****   RxMessage->Data[5] = (uint8_t)0xFF & (CANx->sFIFOMailBox[FIFONumber].RDHR >> 8);
 984              		.loc 1 772 0
 985 005e D3F8BC41 		ldr	r4, [r3, #444]
 986 0062 240A     		lsrs	r4, r4, #8
 987 0064 1474     		strb	r4, [r2, #16]
 773:/home/jonas/warwick/3dProfilometer/xpcc/ext/stm32f4xx_lib/STM32F4xx_StdPeriph_Driver/src/stm32f4xx_can.c ****   RxMessage->Data[6] = (uint8_t)0xFF & (CANx->sFIFOMailBox[FIFONumber].RDHR >> 16);
 988              		.loc 1 773 0
 989 0066 D3F8BC41 		ldr	r4, [r3, #444]
 767:/home/jonas/warwick/3dProfilometer/xpcc/ext/stm32f4xx_lib/STM32F4xx_StdPeriph_Driver/src/stm32f4xx_can.c ****   RxMessage->Data[0] = (uint8_t)0xFF & CANx->sFIFOMailBox[FIFONumber].RDLR;
 990              		.loc 1 767 0
 991 006a 03F5DC73 		add	r3, r3, #440
 992              		.loc 1 773 0
 993 006e 240C     		lsrs	r4, r4, #16
 994 0070 5474     		strb	r4, [r2, #17]
 774:/home/jonas/warwick/3dProfilometer/xpcc/ext/stm32f4xx_lib/STM32F4xx_StdPeriph_Driver/src/stm32f4xx_can.c ****   RxMessage->Data[7] = (uint8_t)0xFF & (CANx->sFIFOMailBox[FIFONumber].RDHR >> 24);
 995              		.loc 1 774 0
 996 0072 5B68     		ldr	r3, [r3, #4]
 997 0074 1B0E     		lsrs	r3, r3, #24
 998 0076 9374     		strb	r3, [r2, #18]
 775:/home/jonas/warwick/3dProfilometer/xpcc/ext/stm32f4xx_lib/STM32F4xx_StdPeriph_Driver/src/stm32f4xx_can.c ****   /* Release the FIFO */
 776:/home/jonas/warwick/3dProfilometer/xpcc/ext/stm32f4xx_lib/STM32F4xx_StdPeriph_Driver/src/stm32f4xx_can.c ****   /* Release FIFO0 */
 777:/home/jonas/warwick/3dProfilometer/xpcc/ext/stm32f4xx_lib/STM32F4xx_StdPeriph_Driver/src/stm32f4xx_can.c ****   if (FIFONumber == CAN_FIFO0)
 999              		.loc 1 777 0
 1000 0078 41B1     		cbz	r1, .L101
 778:/home/jonas/warwick/3dProfilometer/xpcc/ext/stm32f4xx_lib/STM32F4xx_StdPeriph_Driver/src/stm32f4xx_can.c ****   {
 779:/home/jonas/warwick/3dProfilometer/xpcc/ext/stm32f4xx_lib/STM32F4xx_StdPeriph_Driver/src/stm32f4xx_can.c ****     CANx->RF0R |= CAN_RF0R_RFOM0;
 780:/home/jonas/warwick/3dProfilometer/xpcc/ext/stm32f4xx_lib/STM32F4xx_StdPeriph_Driver/src/stm32f4xx_can.c ****   }
 781:/home/jonas/warwick/3dProfilometer/xpcc/ext/stm32f4xx_lib/STM32F4xx_StdPeriph_Driver/src/stm32f4xx_can.c ****   /* Release FIFO1 */
 782:/home/jonas/warwick/3dProfilometer/xpcc/ext/stm32f4xx_lib/STM32F4xx_StdPeriph_Driver/src/stm32f4xx_can.c ****   else /* FIFONumber == CAN_FIFO1 */
 783:/home/jonas/warwick/3dProfilometer/xpcc/ext/stm32f4xx_lib/STM32F4xx_StdPeriph_Driver/src/stm32f4xx_can.c ****   {
 784:/home/jonas/warwick/3dProfilometer/xpcc/ext/stm32f4xx_lib/STM32F4xx_StdPeriph_Driver/src/stm32f4xx_can.c ****     CANx->RF1R |= CAN_RF1R_RFOM1;
 1001              		.loc 1 784 0
 1002 007a 0369     		ldr	r3, [r0, #16]
 1003 007c 43F02003 		orr	r3, r3, #32
 1004 0080 0361     		str	r3, [r0, #16]
 1005              	.L96:
 785:/home/jonas/warwick/3dProfilometer/xpcc/ext/stm32f4xx_lib/STM32F4xx_StdPeriph_Driver/src/stm32f4xx_can.c ****   }
 786:/home/jonas/warwick/3dProfilometer/xpcc/ext/stm32f4xx_lib/STM32F4xx_StdPeriph_Driver/src/stm32f4xx_can.c **** }
 1006              		.loc 1 786 0
 1007 0082 30BC     		pop	{r4, r5}
 1008 0084 7047     		bx	lr
 1009              	.L97:
 758:/home/jonas/warwick/3dProfilometer/xpcc/ext/stm32f4xx_lib/STM32F4xx_StdPeriph_Driver/src/stm32f4xx_can.c ****     RxMessage->ExtId = (uint32_t)0x1FFFFFFF & (CANx->sFIFOMailBox[FIFONumber].RIR >> 3);
 1010              		.loc 1 758 0
 1011 0086 E408     		lsrs	r4, r4, #3
 1012 0088 5460     		str	r4, [r2, #4]
 1013 008a C7E7     		b	.L98
 1014              	.L101:
 779:/home/jonas/warwick/3dProfilometer/xpcc/ext/stm32f4xx_lib/STM32F4xx_StdPeriph_Driver/src/stm32f4xx_can.c ****     CANx->RF0R |= CAN_RF0R_RFOM0;
 1015              		.loc 1 779 0
 1016 008c C368     		ldr	r3, [r0, #12]
 1017 008e 43F02003 		orr	r3, r3, #32
 1018 0092 C360     		str	r3, [r0, #12]
 1019 0094 F5E7     		b	.L96
 1020              		.cfi_endproc
 1021              	.LFE120:
 1023 0096 00BF     		.section	.text.CAN_FIFORelease,"ax",%progbits
 1024              		.align	2
 1025              		.global	CAN_FIFORelease
 1026              		.thumb
 1027              		.thumb_func
 1029              	CAN_FIFORelease:
 1030              	.LFB121:
 787:/home/jonas/warwick/3dProfilometer/xpcc/ext/stm32f4xx_lib/STM32F4xx_StdPeriph_Driver/src/stm32f4xx_can.c **** 
 788:/home/jonas/warwick/3dProfilometer/xpcc/ext/stm32f4xx_lib/STM32F4xx_StdPeriph_Driver/src/stm32f4xx_can.c **** /**
 789:/home/jonas/warwick/3dProfilometer/xpcc/ext/stm32f4xx_lib/STM32F4xx_StdPeriph_Driver/src/stm32f4xx_can.c ****   * @brief  Releases the specified receive FIFO.
 790:/home/jonas/warwick/3dProfilometer/xpcc/ext/stm32f4xx_lib/STM32F4xx_StdPeriph_Driver/src/stm32f4xx_can.c ****   * @param  CANx: where x can be 1 or 2 to select the CAN peripheral.
 791:/home/jonas/warwick/3dProfilometer/xpcc/ext/stm32f4xx_lib/STM32F4xx_StdPeriph_Driver/src/stm32f4xx_can.c ****   * @param  FIFONumber: FIFO to release, CAN_FIFO0 or CAN_FIFO1.
 792:/home/jonas/warwick/3dProfilometer/xpcc/ext/stm32f4xx_lib/STM32F4xx_StdPeriph_Driver/src/stm32f4xx_can.c ****   * @retval None
 793:/home/jonas/warwick/3dProfilometer/xpcc/ext/stm32f4xx_lib/STM32F4xx_StdPeriph_Driver/src/stm32f4xx_can.c ****   */
 794:/home/jonas/warwick/3dProfilometer/xpcc/ext/stm32f4xx_lib/STM32F4xx_StdPeriph_Driver/src/stm32f4xx_can.c **** void CAN_FIFORelease(CAN_TypeDef* CANx, uint8_t FIFONumber)
 795:/home/jonas/warwick/3dProfilometer/xpcc/ext/stm32f4xx_lib/STM32F4xx_StdPeriph_Driver/src/stm32f4xx_can.c **** {
 1031              		.loc 1 795 0
 1032              		.cfi_startproc
 1033              		@ args = 0, pretend = 0, frame = 0
 1034              		@ frame_needed = 0, uses_anonymous_args = 0
 1035              		@ link register save eliminated.
 1036              	.LVL54:
 796:/home/jonas/warwick/3dProfilometer/xpcc/ext/stm32f4xx_lib/STM32F4xx_StdPeriph_Driver/src/stm32f4xx_can.c ****   /* Check the parameters */
 797:/home/jonas/warwick/3dProfilometer/xpcc/ext/stm32f4xx_lib/STM32F4xx_StdPeriph_Driver/src/stm32f4xx_can.c ****   assert_param(IS_CAN_ALL_PERIPH(CANx));
 798:/home/jonas/warwick/3dProfilometer/xpcc/ext/stm32f4xx_lib/STM32F4xx_StdPeriph_Driver/src/stm32f4xx_can.c ****   assert_param(IS_CAN_FIFO(FIFONumber));
 799:/home/jonas/warwick/3dProfilometer/xpcc/ext/stm32f4xx_lib/STM32F4xx_StdPeriph_Driver/src/stm32f4xx_can.c ****   /* Release FIFO0 */
 800:/home/jonas/warwick/3dProfilometer/xpcc/ext/stm32f4xx_lib/STM32F4xx_StdPeriph_Driver/src/stm32f4xx_can.c ****   if (FIFONumber == CAN_FIFO0)
 1037              		.loc 1 800 0
 1038 0000 21B1     		cbz	r1, .L105
 801:/home/jonas/warwick/3dProfilometer/xpcc/ext/stm32f4xx_lib/STM32F4xx_StdPeriph_Driver/src/stm32f4xx_can.c ****   {
 802:/home/jonas/warwick/3dProfilometer/xpcc/ext/stm32f4xx_lib/STM32F4xx_StdPeriph_Driver/src/stm32f4xx_can.c ****     CANx->RF0R |= CAN_RF0R_RFOM0;
 803:/home/jonas/warwick/3dProfilometer/xpcc/ext/stm32f4xx_lib/STM32F4xx_StdPeriph_Driver/src/stm32f4xx_can.c ****   }
 804:/home/jonas/warwick/3dProfilometer/xpcc/ext/stm32f4xx_lib/STM32F4xx_StdPeriph_Driver/src/stm32f4xx_can.c ****   /* Release FIFO1 */
 805:/home/jonas/warwick/3dProfilometer/xpcc/ext/stm32f4xx_lib/STM32F4xx_StdPeriph_Driver/src/stm32f4xx_can.c ****   else /* FIFONumber == CAN_FIFO1 */
 806:/home/jonas/warwick/3dProfilometer/xpcc/ext/stm32f4xx_lib/STM32F4xx_StdPeriph_Driver/src/stm32f4xx_can.c ****   {
 807:/home/jonas/warwick/3dProfilometer/xpcc/ext/stm32f4xx_lib/STM32F4xx_StdPeriph_Driver/src/stm32f4xx_can.c ****     CANx->RF1R |= CAN_RF1R_RFOM1;
 1039              		.loc 1 807 0
 1040 0002 0369     		ldr	r3, [r0, #16]
 1041 0004 43F02003 		orr	r3, r3, #32
 1042 0008 0361     		str	r3, [r0, #16]
 1043 000a 7047     		bx	lr
 1044              	.L105:
 802:/home/jonas/warwick/3dProfilometer/xpcc/ext/stm32f4xx_lib/STM32F4xx_StdPeriph_Driver/src/stm32f4xx_can.c ****     CANx->RF0R |= CAN_RF0R_RFOM0;
 1045              		.loc 1 802 0
 1046 000c C368     		ldr	r3, [r0, #12]
 1047 000e 43F02003 		orr	r3, r3, #32
 1048 0012 C360     		str	r3, [r0, #12]
 1049 0014 7047     		bx	lr
 1050              		.cfi_endproc
 1051              	.LFE121:
 1053 0016 00BF     		.section	.text.CAN_MessagePending,"ax",%progbits
 1054              		.align	2
 1055              		.global	CAN_MessagePending
 1056              		.thumb
 1057              		.thumb_func
 1059              	CAN_MessagePending:
 1060              	.LFB122:
 808:/home/jonas/warwick/3dProfilometer/xpcc/ext/stm32f4xx_lib/STM32F4xx_StdPeriph_Driver/src/stm32f4xx_can.c ****   }
 809:/home/jonas/warwick/3dProfilometer/xpcc/ext/stm32f4xx_lib/STM32F4xx_StdPeriph_Driver/src/stm32f4xx_can.c **** }
 810:/home/jonas/warwick/3dProfilometer/xpcc/ext/stm32f4xx_lib/STM32F4xx_StdPeriph_Driver/src/stm32f4xx_can.c **** 
 811:/home/jonas/warwick/3dProfilometer/xpcc/ext/stm32f4xx_lib/STM32F4xx_StdPeriph_Driver/src/stm32f4xx_can.c **** /**
 812:/home/jonas/warwick/3dProfilometer/xpcc/ext/stm32f4xx_lib/STM32F4xx_StdPeriph_Driver/src/stm32f4xx_can.c ****   * @brief  Returns the number of pending received messages.
 813:/home/jonas/warwick/3dProfilometer/xpcc/ext/stm32f4xx_lib/STM32F4xx_StdPeriph_Driver/src/stm32f4xx_can.c ****   * @param  CANx: where x can be 1 or 2 to select the CAN peripheral.
 814:/home/jonas/warwick/3dProfilometer/xpcc/ext/stm32f4xx_lib/STM32F4xx_StdPeriph_Driver/src/stm32f4xx_can.c ****   * @param  FIFONumber: Receive FIFO number, CAN_FIFO0 or CAN_FIFO1.
 815:/home/jonas/warwick/3dProfilometer/xpcc/ext/stm32f4xx_lib/STM32F4xx_StdPeriph_Driver/src/stm32f4xx_can.c ****   * @retval NbMessage : which is the number of pending message.
 816:/home/jonas/warwick/3dProfilometer/xpcc/ext/stm32f4xx_lib/STM32F4xx_StdPeriph_Driver/src/stm32f4xx_can.c ****   */
 817:/home/jonas/warwick/3dProfilometer/xpcc/ext/stm32f4xx_lib/STM32F4xx_StdPeriph_Driver/src/stm32f4xx_can.c **** uint8_t CAN_MessagePending(CAN_TypeDef* CANx, uint8_t FIFONumber)
 818:/home/jonas/warwick/3dProfilometer/xpcc/ext/stm32f4xx_lib/STM32F4xx_StdPeriph_Driver/src/stm32f4xx_can.c **** {
 1061              		.loc 1 818 0
 1062              		.cfi_startproc
 1063              		@ args = 0, pretend = 0, frame = 0
 1064              		@ frame_needed = 0, uses_anonymous_args = 0
 1065              		@ link register save eliminated.
 1066              	.LVL55:
 819:/home/jonas/warwick/3dProfilometer/xpcc/ext/stm32f4xx_lib/STM32F4xx_StdPeriph_Driver/src/stm32f4xx_can.c ****   uint8_t message_pending=0;
 820:/home/jonas/warwick/3dProfilometer/xpcc/ext/stm32f4xx_lib/STM32F4xx_StdPeriph_Driver/src/stm32f4xx_can.c ****   /* Check the parameters */
 821:/home/jonas/warwick/3dProfilometer/xpcc/ext/stm32f4xx_lib/STM32F4xx_StdPeriph_Driver/src/stm32f4xx_can.c ****   assert_param(IS_CAN_ALL_PERIPH(CANx));
 822:/home/jonas/warwick/3dProfilometer/xpcc/ext/stm32f4xx_lib/STM32F4xx_StdPeriph_Driver/src/stm32f4xx_can.c ****   assert_param(IS_CAN_FIFO(FIFONumber));
 823:/home/jonas/warwick/3dProfilometer/xpcc/ext/stm32f4xx_lib/STM32F4xx_StdPeriph_Driver/src/stm32f4xx_can.c ****   if (FIFONumber == CAN_FIFO0)
 1067              		.loc 1 823 0
 1068 0000 39B1     		cbz	r1, .L110
 824:/home/jonas/warwick/3dProfilometer/xpcc/ext/stm32f4xx_lib/STM32F4xx_StdPeriph_Driver/src/stm32f4xx_can.c ****   {
 825:/home/jonas/warwick/3dProfilometer/xpcc/ext/stm32f4xx_lib/STM32F4xx_StdPeriph_Driver/src/stm32f4xx_can.c ****     message_pending = (uint8_t)(CANx->RF0R&(uint32_t)0x03);
 826:/home/jonas/warwick/3dProfilometer/xpcc/ext/stm32f4xx_lib/STM32F4xx_StdPeriph_Driver/src/stm32f4xx_can.c ****   }
 827:/home/jonas/warwick/3dProfilometer/xpcc/ext/stm32f4xx_lib/STM32F4xx_StdPeriph_Driver/src/stm32f4xx_can.c ****   else if (FIFONumber == CAN_FIFO1)
 1069              		.loc 1 827 0
 1070 0002 0129     		cmp	r1, #1
 1071 0004 01D0     		beq	.L111
 828:/home/jonas/warwick/3dProfilometer/xpcc/ext/stm32f4xx_lib/STM32F4xx_StdPeriph_Driver/src/stm32f4xx_can.c ****   {
 829:/home/jonas/warwick/3dProfilometer/xpcc/ext/stm32f4xx_lib/STM32F4xx_StdPeriph_Driver/src/stm32f4xx_can.c ****     message_pending = (uint8_t)(CANx->RF1R&(uint32_t)0x03);
 830:/home/jonas/warwick/3dProfilometer/xpcc/ext/stm32f4xx_lib/STM32F4xx_StdPeriph_Driver/src/stm32f4xx_can.c ****   }
 831:/home/jonas/warwick/3dProfilometer/xpcc/ext/stm32f4xx_lib/STM32F4xx_StdPeriph_Driver/src/stm32f4xx_can.c ****   else
 832:/home/jonas/warwick/3dProfilometer/xpcc/ext/stm32f4xx_lib/STM32F4xx_StdPeriph_Driver/src/stm32f4xx_can.c ****   {
 833:/home/jonas/warwick/3dProfilometer/xpcc/ext/stm32f4xx_lib/STM32F4xx_StdPeriph_Driver/src/stm32f4xx_can.c ****     message_pending = 0;
 1072              		.loc 1 833 0
 1073 0006 0020     		movs	r0, #0
 1074              	.LVL56:
 834:/home/jonas/warwick/3dProfilometer/xpcc/ext/stm32f4xx_lib/STM32F4xx_StdPeriph_Driver/src/stm32f4xx_can.c ****   }
 835:/home/jonas/warwick/3dProfilometer/xpcc/ext/stm32f4xx_lib/STM32F4xx_StdPeriph_Driver/src/stm32f4xx_can.c ****   return message_pending;
 836:/home/jonas/warwick/3dProfilometer/xpcc/ext/stm32f4xx_lib/STM32F4xx_StdPeriph_Driver/src/stm32f4xx_can.c **** }
 1075              		.loc 1 836 0
 1076 0008 7047     		bx	lr
 1077              	.LVL57:
 1078              	.L111:
 829:/home/jonas/warwick/3dProfilometer/xpcc/ext/stm32f4xx_lib/STM32F4xx_StdPeriph_Driver/src/stm32f4xx_can.c ****     message_pending = (uint8_t)(CANx->RF1R&(uint32_t)0x03);
 1079              		.loc 1 829 0
 1080 000a 0069     		ldr	r0, [r0, #16]
 1081              	.LVL58:
 1082 000c 00F00300 		and	r0, r0, #3
 1083              	.LVL59:
 1084 0010 7047     		bx	lr
 1085              	.LVL60:
 1086              	.L110:
 825:/home/jonas/warwick/3dProfilometer/xpcc/ext/stm32f4xx_lib/STM32F4xx_StdPeriph_Driver/src/stm32f4xx_can.c ****     message_pending = (uint8_t)(CANx->RF0R&(uint32_t)0x03);
 1087              		.loc 1 825 0
 1088 0012 C068     		ldr	r0, [r0, #12]
 1089              	.LVL61:
 1090 0014 00F00300 		and	r0, r0, #3
 1091              	.LVL62:
 1092 0018 7047     		bx	lr
 1093              		.cfi_endproc
 1094              	.LFE122:
 1096 001a 00BF     		.section	.text.CAN_OperatingModeRequest,"ax",%progbits
 1097              		.align	2
 1098              		.global	CAN_OperatingModeRequest
 1099              		.thumb
 1100              		.thumb_func
 1102              	CAN_OperatingModeRequest:
 1103              	.LFB123:
 837:/home/jonas/warwick/3dProfilometer/xpcc/ext/stm32f4xx_lib/STM32F4xx_StdPeriph_Driver/src/stm32f4xx_can.c **** /**
 838:/home/jonas/warwick/3dProfilometer/xpcc/ext/stm32f4xx_lib/STM32F4xx_StdPeriph_Driver/src/stm32f4xx_can.c ****   * @}
 839:/home/jonas/warwick/3dProfilometer/xpcc/ext/stm32f4xx_lib/STM32F4xx_StdPeriph_Driver/src/stm32f4xx_can.c ****   */
 840:/home/jonas/warwick/3dProfilometer/xpcc/ext/stm32f4xx_lib/STM32F4xx_StdPeriph_Driver/src/stm32f4xx_can.c **** 
 841:/home/jonas/warwick/3dProfilometer/xpcc/ext/stm32f4xx_lib/STM32F4xx_StdPeriph_Driver/src/stm32f4xx_can.c **** 
 842:/home/jonas/warwick/3dProfilometer/xpcc/ext/stm32f4xx_lib/STM32F4xx_StdPeriph_Driver/src/stm32f4xx_can.c **** /** @defgroup CAN_Group4 CAN Operation modes functions
 843:/home/jonas/warwick/3dProfilometer/xpcc/ext/stm32f4xx_lib/STM32F4xx_StdPeriph_Driver/src/stm32f4xx_can.c ****  *  @brief    CAN Operation modes functions 
 844:/home/jonas/warwick/3dProfilometer/xpcc/ext/stm32f4xx_lib/STM32F4xx_StdPeriph_Driver/src/stm32f4xx_can.c ****  *
 845:/home/jonas/warwick/3dProfilometer/xpcc/ext/stm32f4xx_lib/STM32F4xx_StdPeriph_Driver/src/stm32f4xx_can.c **** @verbatim    
 846:/home/jonas/warwick/3dProfilometer/xpcc/ext/stm32f4xx_lib/STM32F4xx_StdPeriph_Driver/src/stm32f4xx_can.c ****  ===============================================================================
 847:/home/jonas/warwick/3dProfilometer/xpcc/ext/stm32f4xx_lib/STM32F4xx_StdPeriph_Driver/src/stm32f4xx_can.c ****                       CAN Operation modes functions
 848:/home/jonas/warwick/3dProfilometer/xpcc/ext/stm32f4xx_lib/STM32F4xx_StdPeriph_Driver/src/stm32f4xx_can.c ****  ===============================================================================  
 849:/home/jonas/warwick/3dProfilometer/xpcc/ext/stm32f4xx_lib/STM32F4xx_StdPeriph_Driver/src/stm32f4xx_can.c ****   This section provides functions allowing to select the CAN Operation modes
 850:/home/jonas/warwick/3dProfilometer/xpcc/ext/stm32f4xx_lib/STM32F4xx_StdPeriph_Driver/src/stm32f4xx_can.c ****   - sleep mode
 851:/home/jonas/warwick/3dProfilometer/xpcc/ext/stm32f4xx_lib/STM32F4xx_StdPeriph_Driver/src/stm32f4xx_can.c ****   - normal mode 
 852:/home/jonas/warwick/3dProfilometer/xpcc/ext/stm32f4xx_lib/STM32F4xx_StdPeriph_Driver/src/stm32f4xx_can.c ****   - initialization mode
 853:/home/jonas/warwick/3dProfilometer/xpcc/ext/stm32f4xx_lib/STM32F4xx_StdPeriph_Driver/src/stm32f4xx_can.c ****    
 854:/home/jonas/warwick/3dProfilometer/xpcc/ext/stm32f4xx_lib/STM32F4xx_StdPeriph_Driver/src/stm32f4xx_can.c **** @endverbatim
 855:/home/jonas/warwick/3dProfilometer/xpcc/ext/stm32f4xx_lib/STM32F4xx_StdPeriph_Driver/src/stm32f4xx_can.c ****   * @{
 856:/home/jonas/warwick/3dProfilometer/xpcc/ext/stm32f4xx_lib/STM32F4xx_StdPeriph_Driver/src/stm32f4xx_can.c ****   */
 857:/home/jonas/warwick/3dProfilometer/xpcc/ext/stm32f4xx_lib/STM32F4xx_StdPeriph_Driver/src/stm32f4xx_can.c ****   
 858:/home/jonas/warwick/3dProfilometer/xpcc/ext/stm32f4xx_lib/STM32F4xx_StdPeriph_Driver/src/stm32f4xx_can.c ****   
 859:/home/jonas/warwick/3dProfilometer/xpcc/ext/stm32f4xx_lib/STM32F4xx_StdPeriph_Driver/src/stm32f4xx_can.c **** /**
 860:/home/jonas/warwick/3dProfilometer/xpcc/ext/stm32f4xx_lib/STM32F4xx_StdPeriph_Driver/src/stm32f4xx_can.c ****   * @brief  Selects the CAN Operation mode.
 861:/home/jonas/warwick/3dProfilometer/xpcc/ext/stm32f4xx_lib/STM32F4xx_StdPeriph_Driver/src/stm32f4xx_can.c ****   * @param  CAN_OperatingMode: CAN Operating Mode.
 862:/home/jonas/warwick/3dProfilometer/xpcc/ext/stm32f4xx_lib/STM32F4xx_StdPeriph_Driver/src/stm32f4xx_can.c ****   *         This parameter can be one of @ref CAN_OperatingMode_TypeDef enumeration.
 863:/home/jonas/warwick/3dProfilometer/xpcc/ext/stm32f4xx_lib/STM32F4xx_StdPeriph_Driver/src/stm32f4xx_can.c ****   * @retval status of the requested mode which can be 
 864:/home/jonas/warwick/3dProfilometer/xpcc/ext/stm32f4xx_lib/STM32F4xx_StdPeriph_Driver/src/stm32f4xx_can.c ****   *         - CAN_ModeStatus_Failed:  CAN failed entering the specific mode 
 865:/home/jonas/warwick/3dProfilometer/xpcc/ext/stm32f4xx_lib/STM32F4xx_StdPeriph_Driver/src/stm32f4xx_can.c ****   *         - CAN_ModeStatus_Success: CAN Succeed entering the specific mode 
 866:/home/jonas/warwick/3dProfilometer/xpcc/ext/stm32f4xx_lib/STM32F4xx_StdPeriph_Driver/src/stm32f4xx_can.c ****   */
 867:/home/jonas/warwick/3dProfilometer/xpcc/ext/stm32f4xx_lib/STM32F4xx_StdPeriph_Driver/src/stm32f4xx_can.c **** uint8_t CAN_OperatingModeRequest(CAN_TypeDef* CANx, uint8_t CAN_OperatingMode)
 868:/home/jonas/warwick/3dProfilometer/xpcc/ext/stm32f4xx_lib/STM32F4xx_StdPeriph_Driver/src/stm32f4xx_can.c **** {
 1104              		.loc 1 868 0
 1105              		.cfi_startproc
 1106              		@ args = 0, pretend = 0, frame = 0
 1107              		@ frame_needed = 0, uses_anonymous_args = 0
 1108              		@ link register save eliminated.
 1109              	.LVL63:
 869:/home/jonas/warwick/3dProfilometer/xpcc/ext/stm32f4xx_lib/STM32F4xx_StdPeriph_Driver/src/stm32f4xx_can.c ****   uint8_t status = CAN_ModeStatus_Failed;
 870:/home/jonas/warwick/3dProfilometer/xpcc/ext/stm32f4xx_lib/STM32F4xx_StdPeriph_Driver/src/stm32f4xx_can.c ****   
 871:/home/jonas/warwick/3dProfilometer/xpcc/ext/stm32f4xx_lib/STM32F4xx_StdPeriph_Driver/src/stm32f4xx_can.c ****   /* Timeout for INAK or also for SLAK bits*/
 872:/home/jonas/warwick/3dProfilometer/xpcc/ext/stm32f4xx_lib/STM32F4xx_StdPeriph_Driver/src/stm32f4xx_can.c ****   uint32_t timeout = INAK_TIMEOUT; 
 873:/home/jonas/warwick/3dProfilometer/xpcc/ext/stm32f4xx_lib/STM32F4xx_StdPeriph_Driver/src/stm32f4xx_can.c **** 
 874:/home/jonas/warwick/3dProfilometer/xpcc/ext/stm32f4xx_lib/STM32F4xx_StdPeriph_Driver/src/stm32f4xx_can.c ****   /* Check the parameters */
 875:/home/jonas/warwick/3dProfilometer/xpcc/ext/stm32f4xx_lib/STM32F4xx_StdPeriph_Driver/src/stm32f4xx_can.c ****   assert_param(IS_CAN_ALL_PERIPH(CANx));
 876:/home/jonas/warwick/3dProfilometer/xpcc/ext/stm32f4xx_lib/STM32F4xx_StdPeriph_Driver/src/stm32f4xx_can.c ****   assert_param(IS_CAN_OPERATING_MODE(CAN_OperatingMode));
 877:/home/jonas/warwick/3dProfilometer/xpcc/ext/stm32f4xx_lib/STM32F4xx_StdPeriph_Driver/src/stm32f4xx_can.c **** 
 878:/home/jonas/warwick/3dProfilometer/xpcc/ext/stm32f4xx_lib/STM32F4xx_StdPeriph_Driver/src/stm32f4xx_can.c ****   if (CAN_OperatingMode == CAN_OperatingMode_Initialization)
 1110              		.loc 1 878 0
 1111 0000 F1B9     		cbnz	r1, .L113
 879:/home/jonas/warwick/3dProfilometer/xpcc/ext/stm32f4xx_lib/STM32F4xx_StdPeriph_Driver/src/stm32f4xx_can.c ****   {
 880:/home/jonas/warwick/3dProfilometer/xpcc/ext/stm32f4xx_lib/STM32F4xx_StdPeriph_Driver/src/stm32f4xx_can.c ****     /* Request initialisation */
 881:/home/jonas/warwick/3dProfilometer/xpcc/ext/stm32f4xx_lib/STM32F4xx_StdPeriph_Driver/src/stm32f4xx_can.c ****     CANx->MCR = (uint32_t)((CANx->MCR & (uint32_t)(~(uint32_t)CAN_MCR_SLEEP)) | CAN_MCR_INRQ);
 1112              		.loc 1 881 0
 1113 0002 0368     		ldr	r3, [r0, #0]
 1114 0004 23F00303 		bic	r3, r3, #3
 1115 0008 43F00103 		orr	r3, r3, #1
 1116 000c 0360     		str	r3, [r0, #0]
 882:/home/jonas/warwick/3dProfilometer/xpcc/ext/stm32f4xx_lib/STM32F4xx_StdPeriph_Driver/src/stm32f4xx_can.c **** 
 883:/home/jonas/warwick/3dProfilometer/xpcc/ext/stm32f4xx_lib/STM32F4xx_StdPeriph_Driver/src/stm32f4xx_can.c ****     /* Wait the acknowledge */
 884:/home/jonas/warwick/3dProfilometer/xpcc/ext/stm32f4xx_lib/STM32F4xx_StdPeriph_Driver/src/stm32f4xx_can.c ****     while (((CANx->MSR & CAN_MODE_MASK) != CAN_MSR_INAK) && (timeout != 0))
 1117              		.loc 1 884 0
 1118 000e 4368     		ldr	r3, [r0, #4]
 1119 0010 03F00303 		and	r3, r3, #3
 1120 0014 012B     		cmp	r3, #1
 1121 0016 09D0     		beq	.L114
 1122 0018 4FF6FF73 		movw	r3, #65535
 1123 001c 00E0     		b	.L115
 1124              	.LVL64:
 1125              	.L144:
 1126              		.loc 1 884 0 is_stmt 0 discriminator 2
 1127 001e 2BB1     		cbz	r3, .L114
 1128              	.LVL65:
 1129              	.L115:
 1130              		.loc 1 884 0
 1131 0020 4268     		ldr	r2, [r0, #4]
 1132 0022 02F00302 		and	r2, r2, #3
 885:/home/jonas/warwick/3dProfilometer/xpcc/ext/stm32f4xx_lib/STM32F4xx_StdPeriph_Driver/src/stm32f4xx_can.c ****     {
 886:/home/jonas/warwick/3dProfilometer/xpcc/ext/stm32f4xx_lib/STM32F4xx_StdPeriph_Driver/src/stm32f4xx_can.c ****       timeout--;
 1133              		.loc 1 886 0 is_stmt 1
 1134 0026 013B     		subs	r3, r3, #1
 1135              	.LVL66:
 884:/home/jonas/warwick/3dProfilometer/xpcc/ext/stm32f4xx_lib/STM32F4xx_StdPeriph_Driver/src/stm32f4xx_can.c ****     while (((CANx->MSR & CAN_MODE_MASK) != CAN_MSR_INAK) && (timeout != 0))
 1136              		.loc 1 884 0
 1137 0028 012A     		cmp	r2, #1
 1138 002a F8D1     		bne	.L144
 1139              	.LVL67:
 1140              	.L114:
 887:/home/jonas/warwick/3dProfilometer/xpcc/ext/stm32f4xx_lib/STM32F4xx_StdPeriph_Driver/src/stm32f4xx_can.c ****     }
 888:/home/jonas/warwick/3dProfilometer/xpcc/ext/stm32f4xx_lib/STM32F4xx_StdPeriph_Driver/src/stm32f4xx_can.c ****     if ((CANx->MSR & CAN_MODE_MASK) != CAN_MSR_INAK)
 1141              		.loc 1 888 0
 1142 002c 4068     		ldr	r0, [r0, #4]
 1143              	.LVL68:
 1144 002e 00F00300 		and	r0, r0, #3
 889:/home/jonas/warwick/3dProfilometer/xpcc/ext/stm32f4xx_lib/STM32F4xx_StdPeriph_Driver/src/stm32f4xx_can.c ****     {
 890:/home/jonas/warwick/3dProfilometer/xpcc/ext/stm32f4xx_lib/STM32F4xx_StdPeriph_Driver/src/stm32f4xx_can.c ****       status = CAN_ModeStatus_Failed;
 891:/home/jonas/warwick/3dProfilometer/xpcc/ext/stm32f4xx_lib/STM32F4xx_StdPeriph_Driver/src/stm32f4xx_can.c ****     }
 892:/home/jonas/warwick/3dProfilometer/xpcc/ext/stm32f4xx_lib/STM32F4xx_StdPeriph_Driver/src/stm32f4xx_can.c ****     else
 893:/home/jonas/warwick/3dProfilometer/xpcc/ext/stm32f4xx_lib/STM32F4xx_StdPeriph_Driver/src/stm32f4xx_can.c ****     {
 894:/home/jonas/warwick/3dProfilometer/xpcc/ext/stm32f4xx_lib/STM32F4xx_StdPeriph_Driver/src/stm32f4xx_can.c ****       status = CAN_ModeStatus_Success;
 1145              		.loc 1 894 0
 1146 0032 B0F1010C 		subs	ip, r0, #1
 1147 0036 DCF10000 		rsbs	r0, ip, #0
 1148 003a 50EB0C00 		adcs	r0, r0, ip
 1149 003e 7047     		bx	lr
 1150              	.LVL69:
 1151              	.L113:
 895:/home/jonas/warwick/3dProfilometer/xpcc/ext/stm32f4xx_lib/STM32F4xx_StdPeriph_Driver/src/stm32f4xx_can.c ****     }
 896:/home/jonas/warwick/3dProfilometer/xpcc/ext/stm32f4xx_lib/STM32F4xx_StdPeriph_Driver/src/stm32f4xx_can.c ****   }
 897:/home/jonas/warwick/3dProfilometer/xpcc/ext/stm32f4xx_lib/STM32F4xx_StdPeriph_Driver/src/stm32f4xx_can.c ****   else  if (CAN_OperatingMode == CAN_OperatingMode_Normal)
 1152              		.loc 1 897 0
 1153 0040 0129     		cmp	r1, #1
 1154 0042 03D0     		beq	.L145
 898:/home/jonas/warwick/3dProfilometer/xpcc/ext/stm32f4xx_lib/STM32F4xx_StdPeriph_Driver/src/stm32f4xx_can.c ****   {
 899:/home/jonas/warwick/3dProfilometer/xpcc/ext/stm32f4xx_lib/STM32F4xx_StdPeriph_Driver/src/stm32f4xx_can.c ****     /* Request leave initialisation and sleep mode  and enter Normal mode */
 900:/home/jonas/warwick/3dProfilometer/xpcc/ext/stm32f4xx_lib/STM32F4xx_StdPeriph_Driver/src/stm32f4xx_can.c ****     CANx->MCR &= (uint32_t)(~(CAN_MCR_SLEEP|CAN_MCR_INRQ));
 901:/home/jonas/warwick/3dProfilometer/xpcc/ext/stm32f4xx_lib/STM32F4xx_StdPeriph_Driver/src/stm32f4xx_can.c **** 
 902:/home/jonas/warwick/3dProfilometer/xpcc/ext/stm32f4xx_lib/STM32F4xx_StdPeriph_Driver/src/stm32f4xx_can.c ****     /* Wait the acknowledge */
 903:/home/jonas/warwick/3dProfilometer/xpcc/ext/stm32f4xx_lib/STM32F4xx_StdPeriph_Driver/src/stm32f4xx_can.c ****     while (((CANx->MSR & CAN_MODE_MASK) != 0) && (timeout!=0))
 904:/home/jonas/warwick/3dProfilometer/xpcc/ext/stm32f4xx_lib/STM32F4xx_StdPeriph_Driver/src/stm32f4xx_can.c ****     {
 905:/home/jonas/warwick/3dProfilometer/xpcc/ext/stm32f4xx_lib/STM32F4xx_StdPeriph_Driver/src/stm32f4xx_can.c ****       timeout--;
 906:/home/jonas/warwick/3dProfilometer/xpcc/ext/stm32f4xx_lib/STM32F4xx_StdPeriph_Driver/src/stm32f4xx_can.c ****     }
 907:/home/jonas/warwick/3dProfilometer/xpcc/ext/stm32f4xx_lib/STM32F4xx_StdPeriph_Driver/src/stm32f4xx_can.c ****     if ((CANx->MSR & CAN_MODE_MASK) != 0)
 908:/home/jonas/warwick/3dProfilometer/xpcc/ext/stm32f4xx_lib/STM32F4xx_StdPeriph_Driver/src/stm32f4xx_can.c ****     {
 909:/home/jonas/warwick/3dProfilometer/xpcc/ext/stm32f4xx_lib/STM32F4xx_StdPeriph_Driver/src/stm32f4xx_can.c ****       status = CAN_ModeStatus_Failed;
 910:/home/jonas/warwick/3dProfilometer/xpcc/ext/stm32f4xx_lib/STM32F4xx_StdPeriph_Driver/src/stm32f4xx_can.c ****     }
 911:/home/jonas/warwick/3dProfilometer/xpcc/ext/stm32f4xx_lib/STM32F4xx_StdPeriph_Driver/src/stm32f4xx_can.c ****     else
 912:/home/jonas/warwick/3dProfilometer/xpcc/ext/stm32f4xx_lib/STM32F4xx_StdPeriph_Driver/src/stm32f4xx_can.c ****     {
 913:/home/jonas/warwick/3dProfilometer/xpcc/ext/stm32f4xx_lib/STM32F4xx_StdPeriph_Driver/src/stm32f4xx_can.c ****       status = CAN_ModeStatus_Success;
 914:/home/jonas/warwick/3dProfilometer/xpcc/ext/stm32f4xx_lib/STM32F4xx_StdPeriph_Driver/src/stm32f4xx_can.c ****     }
 915:/home/jonas/warwick/3dProfilometer/xpcc/ext/stm32f4xx_lib/STM32F4xx_StdPeriph_Driver/src/stm32f4xx_can.c ****   }
 916:/home/jonas/warwick/3dProfilometer/xpcc/ext/stm32f4xx_lib/STM32F4xx_StdPeriph_Driver/src/stm32f4xx_can.c ****   else  if (CAN_OperatingMode == CAN_OperatingMode_Sleep)
 1155              		.loc 1 916 0
 1156 0044 0229     		cmp	r1, #2
 1157 0046 17D0     		beq	.L146
 917:/home/jonas/warwick/3dProfilometer/xpcc/ext/stm32f4xx_lib/STM32F4xx_StdPeriph_Driver/src/stm32f4xx_can.c ****   {
 918:/home/jonas/warwick/3dProfilometer/xpcc/ext/stm32f4xx_lib/STM32F4xx_StdPeriph_Driver/src/stm32f4xx_can.c ****     /* Request Sleep mode */
 919:/home/jonas/warwick/3dProfilometer/xpcc/ext/stm32f4xx_lib/STM32F4xx_StdPeriph_Driver/src/stm32f4xx_can.c ****     CANx->MCR = (uint32_t)((CANx->MCR & (uint32_t)(~(uint32_t)CAN_MCR_INRQ)) | CAN_MCR_SLEEP);
 920:/home/jonas/warwick/3dProfilometer/xpcc/ext/stm32f4xx_lib/STM32F4xx_StdPeriph_Driver/src/stm32f4xx_can.c **** 
 921:/home/jonas/warwick/3dProfilometer/xpcc/ext/stm32f4xx_lib/STM32F4xx_StdPeriph_Driver/src/stm32f4xx_can.c ****     /* Wait the acknowledge */
 922:/home/jonas/warwick/3dProfilometer/xpcc/ext/stm32f4xx_lib/STM32F4xx_StdPeriph_Driver/src/stm32f4xx_can.c ****     while (((CANx->MSR & CAN_MODE_MASK) != CAN_MSR_SLAK) && (timeout!=0))
 923:/home/jonas/warwick/3dProfilometer/xpcc/ext/stm32f4xx_lib/STM32F4xx_StdPeriph_Driver/src/stm32f4xx_can.c ****     {
 924:/home/jonas/warwick/3dProfilometer/xpcc/ext/stm32f4xx_lib/STM32F4xx_StdPeriph_Driver/src/stm32f4xx_can.c ****       timeout--;
 925:/home/jonas/warwick/3dProfilometer/xpcc/ext/stm32f4xx_lib/STM32F4xx_StdPeriph_Driver/src/stm32f4xx_can.c ****     }
 926:/home/jonas/warwick/3dProfilometer/xpcc/ext/stm32f4xx_lib/STM32F4xx_StdPeriph_Driver/src/stm32f4xx_can.c ****     if ((CANx->MSR & CAN_MODE_MASK) != CAN_MSR_SLAK)
 927:/home/jonas/warwick/3dProfilometer/xpcc/ext/stm32f4xx_lib/STM32F4xx_StdPeriph_Driver/src/stm32f4xx_can.c ****     {
 928:/home/jonas/warwick/3dProfilometer/xpcc/ext/stm32f4xx_lib/STM32F4xx_StdPeriph_Driver/src/stm32f4xx_can.c ****       status = CAN_ModeStatus_Failed;
 929:/home/jonas/warwick/3dProfilometer/xpcc/ext/stm32f4xx_lib/STM32F4xx_StdPeriph_Driver/src/stm32f4xx_can.c ****     }
 930:/home/jonas/warwick/3dProfilometer/xpcc/ext/stm32f4xx_lib/STM32F4xx_StdPeriph_Driver/src/stm32f4xx_can.c ****     else
 931:/home/jonas/warwick/3dProfilometer/xpcc/ext/stm32f4xx_lib/STM32F4xx_StdPeriph_Driver/src/stm32f4xx_can.c ****     {
 932:/home/jonas/warwick/3dProfilometer/xpcc/ext/stm32f4xx_lib/STM32F4xx_StdPeriph_Driver/src/stm32f4xx_can.c ****       status = CAN_ModeStatus_Success;
 933:/home/jonas/warwick/3dProfilometer/xpcc/ext/stm32f4xx_lib/STM32F4xx_StdPeriph_Driver/src/stm32f4xx_can.c ****     }
 934:/home/jonas/warwick/3dProfilometer/xpcc/ext/stm32f4xx_lib/STM32F4xx_StdPeriph_Driver/src/stm32f4xx_can.c ****   }
 935:/home/jonas/warwick/3dProfilometer/xpcc/ext/stm32f4xx_lib/STM32F4xx_StdPeriph_Driver/src/stm32f4xx_can.c ****   else
 936:/home/jonas/warwick/3dProfilometer/xpcc/ext/stm32f4xx_lib/STM32F4xx_StdPeriph_Driver/src/stm32f4xx_can.c ****   {
 937:/home/jonas/warwick/3dProfilometer/xpcc/ext/stm32f4xx_lib/STM32F4xx_StdPeriph_Driver/src/stm32f4xx_can.c ****     status = CAN_ModeStatus_Failed;
 1158              		.loc 1 937 0
 1159 0048 0020     		movs	r0, #0
 1160              	.LVL70:
 938:/home/jonas/warwick/3dProfilometer/xpcc/ext/stm32f4xx_lib/STM32F4xx_StdPeriph_Driver/src/stm32f4xx_can.c ****   }
 939:/home/jonas/warwick/3dProfilometer/xpcc/ext/stm32f4xx_lib/STM32F4xx_StdPeriph_Driver/src/stm32f4xx_can.c **** 
 940:/home/jonas/warwick/3dProfilometer/xpcc/ext/stm32f4xx_lib/STM32F4xx_StdPeriph_Driver/src/stm32f4xx_can.c ****   return  (uint8_t) status;
 941:/home/jonas/warwick/3dProfilometer/xpcc/ext/stm32f4xx_lib/STM32F4xx_StdPeriph_Driver/src/stm32f4xx_can.c **** }
 1161              		.loc 1 941 0
 1162 004a 7047     		bx	lr
 1163              	.LVL71:
 1164              	.L145:
 900:/home/jonas/warwick/3dProfilometer/xpcc/ext/stm32f4xx_lib/STM32F4xx_StdPeriph_Driver/src/stm32f4xx_can.c ****     CANx->MCR &= (uint32_t)(~(CAN_MCR_SLEEP|CAN_MCR_INRQ));
 1165              		.loc 1 900 0
 1166 004c 0368     		ldr	r3, [r0, #0]
 1167 004e 23F00303 		bic	r3, r3, #3
 1168 0052 0360     		str	r3, [r0, #0]
 903:/home/jonas/warwick/3dProfilometer/xpcc/ext/stm32f4xx_lib/STM32F4xx_StdPeriph_Driver/src/stm32f4xx_can.c ****     while (((CANx->MSR & CAN_MODE_MASK) != 0) && (timeout!=0))
 1169              		.loc 1 903 0
 1170 0054 4368     		ldr	r3, [r0, #4]
 1171 0056 9907     		lsls	r1, r3, #30
 1172              	.LVL72:
 1173 0058 07D0     		beq	.L118
 1174 005a 4FF6FF73 		movw	r3, #65535
 1175 005e 00E0     		b	.L119
 1176              	.LVL73:
 1177              	.L147:
 903:/home/jonas/warwick/3dProfilometer/xpcc/ext/stm32f4xx_lib/STM32F4xx_StdPeriph_Driver/src/stm32f4xx_can.c ****     while (((CANx->MSR & CAN_MODE_MASK) != 0) && (timeout!=0))
 1178              		.loc 1 903 0 is_stmt 0 discriminator 2
 1179 0060 1BB1     		cbz	r3, .L118
 1180              	.LVL74:
 1181              	.L119:
 903:/home/jonas/warwick/3dProfilometer/xpcc/ext/stm32f4xx_lib/STM32F4xx_StdPeriph_Driver/src/stm32f4xx_can.c ****     while (((CANx->MSR & CAN_MODE_MASK) != 0) && (timeout!=0))
 1182              		.loc 1 903 0
 1183 0062 4268     		ldr	r2, [r0, #4]
 905:/home/jonas/warwick/3dProfilometer/xpcc/ext/stm32f4xx_lib/STM32F4xx_StdPeriph_Driver/src/stm32f4xx_can.c ****       timeout--;
 1184              		.loc 1 905 0 is_stmt 1
 1185 0064 013B     		subs	r3, r3, #1
 1186              	.LVL75:
 903:/home/jonas/warwick/3dProfilometer/xpcc/ext/stm32f4xx_lib/STM32F4xx_StdPeriph_Driver/src/stm32f4xx_can.c ****     while (((CANx->MSR & CAN_MODE_MASK) != 0) && (timeout!=0))
 1187              		.loc 1 903 0
 1188 0066 9207     		lsls	r2, r2, #30
 1189 0068 FAD1     		bne	.L147
 1190              	.LVL76:
 1191              	.L118:
 907:/home/jonas/warwick/3dProfilometer/xpcc/ext/stm32f4xx_lib/STM32F4xx_StdPeriph_Driver/src/stm32f4xx_can.c ****     if ((CANx->MSR & CAN_MODE_MASK) != 0)
 1192              		.loc 1 907 0
 1193 006a 4368     		ldr	r3, [r0, #4]
 1194 006c 13F0030F 		tst	r3, #3
 894:/home/jonas/warwick/3dProfilometer/xpcc/ext/stm32f4xx_lib/STM32F4xx_StdPeriph_Driver/src/stm32f4xx_can.c ****       status = CAN_ModeStatus_Success;
 1195              		.loc 1 894 0
 1196 0070 14BF     		ite	ne
 1197 0072 0020     		movne	r0, #0
 1198 0074 0120     		moveq	r0, #1
 1199              	.LVL77:
 1200 0076 7047     		bx	lr
 1201              	.LVL78:
 1202              	.L146:
 919:/home/jonas/warwick/3dProfilometer/xpcc/ext/stm32f4xx_lib/STM32F4xx_StdPeriph_Driver/src/stm32f4xx_can.c ****     CANx->MCR = (uint32_t)((CANx->MCR & (uint32_t)(~(uint32_t)CAN_MCR_INRQ)) | CAN_MCR_SLEEP);
 1203              		.loc 1 919 0
 1204 0078 0368     		ldr	r3, [r0, #0]
 1205 007a 23F00303 		bic	r3, r3, #3
 1206 007e 43F00203 		orr	r3, r3, #2
 1207 0082 0360     		str	r3, [r0, #0]
 922:/home/jonas/warwick/3dProfilometer/xpcc/ext/stm32f4xx_lib/STM32F4xx_StdPeriph_Driver/src/stm32f4xx_can.c ****     while (((CANx->MSR & CAN_MODE_MASK) != CAN_MSR_SLAK) && (timeout!=0))
 1208              		.loc 1 922 0
 1209 0084 4368     		ldr	r3, [r0, #4]
 1210 0086 03F00303 		and	r3, r3, #3
 1211 008a 022B     		cmp	r3, #2
 1212 008c 09D0     		beq	.L120
 1213 008e 4FF6FF73 		movw	r3, #65535
 1214 0092 00E0     		b	.L121
 1215              	.LVL79:
 1216              	.L148:
 922:/home/jonas/warwick/3dProfilometer/xpcc/ext/stm32f4xx_lib/STM32F4xx_StdPeriph_Driver/src/stm32f4xx_can.c ****     while (((CANx->MSR & CAN_MODE_MASK) != CAN_MSR_SLAK) && (timeout!=0))
 1217              		.loc 1 922 0 is_stmt 0 discriminator 2
 1218 0094 2BB1     		cbz	r3, .L120
 1219              	.LVL80:
 1220              	.L121:
 922:/home/jonas/warwick/3dProfilometer/xpcc/ext/stm32f4xx_lib/STM32F4xx_StdPeriph_Driver/src/stm32f4xx_can.c ****     while (((CANx->MSR & CAN_MODE_MASK) != CAN_MSR_SLAK) && (timeout!=0))
 1221              		.loc 1 922 0
 1222 0096 4268     		ldr	r2, [r0, #4]
 1223 0098 02F00302 		and	r2, r2, #3
 924:/home/jonas/warwick/3dProfilometer/xpcc/ext/stm32f4xx_lib/STM32F4xx_StdPeriph_Driver/src/stm32f4xx_can.c ****       timeout--;
 1224              		.loc 1 924 0 is_stmt 1
 1225 009c 013B     		subs	r3, r3, #1
 1226              	.LVL81:
 922:/home/jonas/warwick/3dProfilometer/xpcc/ext/stm32f4xx_lib/STM32F4xx_StdPeriph_Driver/src/stm32f4xx_can.c ****     while (((CANx->MSR & CAN_MODE_MASK) != CAN_MSR_SLAK) && (timeout!=0))
 1227              		.loc 1 922 0
 1228 009e 022A     		cmp	r2, #2
 1229 00a0 F8D1     		bne	.L148
 1230              	.LVL82:
 1231              	.L120:
 926:/home/jonas/warwick/3dProfilometer/xpcc/ext/stm32f4xx_lib/STM32F4xx_StdPeriph_Driver/src/stm32f4xx_can.c ****     if ((CANx->MSR & CAN_MODE_MASK) != CAN_MSR_SLAK)
 1232              		.loc 1 926 0
 1233 00a2 4068     		ldr	r0, [r0, #4]
 1234              	.LVL83:
 1235 00a4 00F00300 		and	r0, r0, #3
 894:/home/jonas/warwick/3dProfilometer/xpcc/ext/stm32f4xx_lib/STM32F4xx_StdPeriph_Driver/src/stm32f4xx_can.c ****       status = CAN_ModeStatus_Success;
 1236              		.loc 1 894 0
 1237 00a8 B0F1020C 		subs	ip, r0, #2
 1238 00ac DCF10000 		rsbs	r0, ip, #0
 1239 00b0 50EB0C00 		adcs	r0, r0, ip
 1240 00b4 7047     		bx	lr
 1241              		.cfi_endproc
 1242              	.LFE123:
 1244 00b6 00BF     		.section	.text.CAN_Sleep,"ax",%progbits
 1245              		.align	2
 1246              		.global	CAN_Sleep
 1247              		.thumb
 1248              		.thumb_func
 1250              	CAN_Sleep:
 1251              	.LFB124:
 942:/home/jonas/warwick/3dProfilometer/xpcc/ext/stm32f4xx_lib/STM32F4xx_StdPeriph_Driver/src/stm32f4xx_can.c **** 
 943:/home/jonas/warwick/3dProfilometer/xpcc/ext/stm32f4xx_lib/STM32F4xx_StdPeriph_Driver/src/stm32f4xx_can.c **** /**
 944:/home/jonas/warwick/3dProfilometer/xpcc/ext/stm32f4xx_lib/STM32F4xx_StdPeriph_Driver/src/stm32f4xx_can.c ****   * @brief  Enters the Sleep (low power) mode.
 945:/home/jonas/warwick/3dProfilometer/xpcc/ext/stm32f4xx_lib/STM32F4xx_StdPeriph_Driver/src/stm32f4xx_can.c ****   * @param  CANx: where x can be 1 or 2 to select the CAN peripheral.
 946:/home/jonas/warwick/3dProfilometer/xpcc/ext/stm32f4xx_lib/STM32F4xx_StdPeriph_Driver/src/stm32f4xx_can.c ****   * @retval CAN_Sleep_Ok if sleep entered, CAN_Sleep_Failed otherwise.
 947:/home/jonas/warwick/3dProfilometer/xpcc/ext/stm32f4xx_lib/STM32F4xx_StdPeriph_Driver/src/stm32f4xx_can.c ****   */
 948:/home/jonas/warwick/3dProfilometer/xpcc/ext/stm32f4xx_lib/STM32F4xx_StdPeriph_Driver/src/stm32f4xx_can.c **** uint8_t CAN_Sleep(CAN_TypeDef* CANx)
 949:/home/jonas/warwick/3dProfilometer/xpcc/ext/stm32f4xx_lib/STM32F4xx_StdPeriph_Driver/src/stm32f4xx_can.c **** {
 1252              		.loc 1 949 0
 1253              		.cfi_startproc
 1254              		@ args = 0, pretend = 0, frame = 0
 1255              		@ frame_needed = 0, uses_anonymous_args = 0
 1256              		@ link register save eliminated.
 1257              	.LVL84:
 950:/home/jonas/warwick/3dProfilometer/xpcc/ext/stm32f4xx_lib/STM32F4xx_StdPeriph_Driver/src/stm32f4xx_can.c ****   uint8_t sleepstatus = CAN_Sleep_Failed;
 951:/home/jonas/warwick/3dProfilometer/xpcc/ext/stm32f4xx_lib/STM32F4xx_StdPeriph_Driver/src/stm32f4xx_can.c ****   
 952:/home/jonas/warwick/3dProfilometer/xpcc/ext/stm32f4xx_lib/STM32F4xx_StdPeriph_Driver/src/stm32f4xx_can.c ****   /* Check the parameters */
 953:/home/jonas/warwick/3dProfilometer/xpcc/ext/stm32f4xx_lib/STM32F4xx_StdPeriph_Driver/src/stm32f4xx_can.c ****   assert_param(IS_CAN_ALL_PERIPH(CANx));
 954:/home/jonas/warwick/3dProfilometer/xpcc/ext/stm32f4xx_lib/STM32F4xx_StdPeriph_Driver/src/stm32f4xx_can.c ****     
 955:/home/jonas/warwick/3dProfilometer/xpcc/ext/stm32f4xx_lib/STM32F4xx_StdPeriph_Driver/src/stm32f4xx_can.c ****   /* Request Sleep mode */
 956:/home/jonas/warwick/3dProfilometer/xpcc/ext/stm32f4xx_lib/STM32F4xx_StdPeriph_Driver/src/stm32f4xx_can.c ****    CANx->MCR = (((CANx->MCR) & (uint32_t)(~(uint32_t)CAN_MCR_INRQ)) | CAN_MCR_SLEEP);
 1258              		.loc 1 956 0
 1259 0000 0368     		ldr	r3, [r0, #0]
 1260 0002 23F00303 		bic	r3, r3, #3
 1261 0006 43F00203 		orr	r3, r3, #2
 1262 000a 0360     		str	r3, [r0, #0]
 957:/home/jonas/warwick/3dProfilometer/xpcc/ext/stm32f4xx_lib/STM32F4xx_StdPeriph_Driver/src/stm32f4xx_can.c ****    
 958:/home/jonas/warwick/3dProfilometer/xpcc/ext/stm32f4xx_lib/STM32F4xx_StdPeriph_Driver/src/stm32f4xx_can.c ****   /* Sleep mode status */
 959:/home/jonas/warwick/3dProfilometer/xpcc/ext/stm32f4xx_lib/STM32F4xx_StdPeriph_Driver/src/stm32f4xx_can.c ****   if ((CANx->MSR & (CAN_MSR_SLAK|CAN_MSR_INAK)) == CAN_MSR_SLAK)
 1263              		.loc 1 959 0
 1264 000c 4068     		ldr	r0, [r0, #4]
 1265              	.LVL85:
 1266 000e 00F00300 		and	r0, r0, #3
 1267              	.LVL86:
 960:/home/jonas/warwick/3dProfilometer/xpcc/ext/stm32f4xx_lib/STM32F4xx_StdPeriph_Driver/src/stm32f4xx_can.c ****   {
 961:/home/jonas/warwick/3dProfilometer/xpcc/ext/stm32f4xx_lib/STM32F4xx_StdPeriph_Driver/src/stm32f4xx_can.c ****     /* Sleep mode not entered */
 962:/home/jonas/warwick/3dProfilometer/xpcc/ext/stm32f4xx_lib/STM32F4xx_StdPeriph_Driver/src/stm32f4xx_can.c ****     sleepstatus =  CAN_Sleep_Ok;
 963:/home/jonas/warwick/3dProfilometer/xpcc/ext/stm32f4xx_lib/STM32F4xx_StdPeriph_Driver/src/stm32f4xx_can.c ****   }
 964:/home/jonas/warwick/3dProfilometer/xpcc/ext/stm32f4xx_lib/STM32F4xx_StdPeriph_Driver/src/stm32f4xx_can.c ****   /* return sleep mode status */
 965:/home/jonas/warwick/3dProfilometer/xpcc/ext/stm32f4xx_lib/STM32F4xx_StdPeriph_Driver/src/stm32f4xx_can.c ****    return (uint8_t)sleepstatus;
 966:/home/jonas/warwick/3dProfilometer/xpcc/ext/stm32f4xx_lib/STM32F4xx_StdPeriph_Driver/src/stm32f4xx_can.c **** }
 1268              		.loc 1 966 0
 1269 0012 831E     		subs	r3, r0, #2
 1270 0014 5842     		rsbs	r0, r3, #0
 1271 0016 5841     		adcs	r0, r0, r3
 1272 0018 7047     		bx	lr
 1273              		.cfi_endproc
 1274              	.LFE124:
 1276 001a 00BF     		.section	.text.CAN_WakeUp,"ax",%progbits
 1277              		.align	2
 1278              		.global	CAN_WakeUp
 1279              		.thumb
 1280              		.thumb_func
 1282              	CAN_WakeUp:
 1283              	.LFB125:
 967:/home/jonas/warwick/3dProfilometer/xpcc/ext/stm32f4xx_lib/STM32F4xx_StdPeriph_Driver/src/stm32f4xx_can.c **** 
 968:/home/jonas/warwick/3dProfilometer/xpcc/ext/stm32f4xx_lib/STM32F4xx_StdPeriph_Driver/src/stm32f4xx_can.c **** /**
 969:/home/jonas/warwick/3dProfilometer/xpcc/ext/stm32f4xx_lib/STM32F4xx_StdPeriph_Driver/src/stm32f4xx_can.c ****   * @brief  Wakes up the CAN peripheral from sleep mode .
 970:/home/jonas/warwick/3dProfilometer/xpcc/ext/stm32f4xx_lib/STM32F4xx_StdPeriph_Driver/src/stm32f4xx_can.c ****   * @param  CANx: where x can be 1 or 2 to select the CAN peripheral.
 971:/home/jonas/warwick/3dProfilometer/xpcc/ext/stm32f4xx_lib/STM32F4xx_StdPeriph_Driver/src/stm32f4xx_can.c ****   * @retval CAN_WakeUp_Ok if sleep mode left, CAN_WakeUp_Failed otherwise.
 972:/home/jonas/warwick/3dProfilometer/xpcc/ext/stm32f4xx_lib/STM32F4xx_StdPeriph_Driver/src/stm32f4xx_can.c ****   */
 973:/home/jonas/warwick/3dProfilometer/xpcc/ext/stm32f4xx_lib/STM32F4xx_StdPeriph_Driver/src/stm32f4xx_can.c **** uint8_t CAN_WakeUp(CAN_TypeDef* CANx)
 974:/home/jonas/warwick/3dProfilometer/xpcc/ext/stm32f4xx_lib/STM32F4xx_StdPeriph_Driver/src/stm32f4xx_can.c **** {
 1284              		.loc 1 974 0
 1285              		.cfi_startproc
 1286              		@ args = 0, pretend = 0, frame = 0
 1287              		@ frame_needed = 0, uses_anonymous_args = 0
 1288              		@ link register save eliminated.
 1289              	.LVL87:
 975:/home/jonas/warwick/3dProfilometer/xpcc/ext/stm32f4xx_lib/STM32F4xx_StdPeriph_Driver/src/stm32f4xx_can.c ****   uint32_t wait_slak = SLAK_TIMEOUT;
 976:/home/jonas/warwick/3dProfilometer/xpcc/ext/stm32f4xx_lib/STM32F4xx_StdPeriph_Driver/src/stm32f4xx_can.c ****   uint8_t wakeupstatus = CAN_WakeUp_Failed;
 977:/home/jonas/warwick/3dProfilometer/xpcc/ext/stm32f4xx_lib/STM32F4xx_StdPeriph_Driver/src/stm32f4xx_can.c ****   
 978:/home/jonas/warwick/3dProfilometer/xpcc/ext/stm32f4xx_lib/STM32F4xx_StdPeriph_Driver/src/stm32f4xx_can.c ****   /* Check the parameters */
 979:/home/jonas/warwick/3dProfilometer/xpcc/ext/stm32f4xx_lib/STM32F4xx_StdPeriph_Driver/src/stm32f4xx_can.c ****   assert_param(IS_CAN_ALL_PERIPH(CANx));
 980:/home/jonas/warwick/3dProfilometer/xpcc/ext/stm32f4xx_lib/STM32F4xx_StdPeriph_Driver/src/stm32f4xx_can.c ****     
 981:/home/jonas/warwick/3dProfilometer/xpcc/ext/stm32f4xx_lib/STM32F4xx_StdPeriph_Driver/src/stm32f4xx_can.c ****   /* Wake up request */
 982:/home/jonas/warwick/3dProfilometer/xpcc/ext/stm32f4xx_lib/STM32F4xx_StdPeriph_Driver/src/stm32f4xx_can.c ****   CANx->MCR &= ~(uint32_t)CAN_MCR_SLEEP;
 1290              		.loc 1 982 0
 1291 0000 0368     		ldr	r3, [r0, #0]
 1292 0002 23F00203 		bic	r3, r3, #2
 1293 0006 0360     		str	r3, [r0, #0]
 983:/home/jonas/warwick/3dProfilometer/xpcc/ext/stm32f4xx_lib/STM32F4xx_StdPeriph_Driver/src/stm32f4xx_can.c ****     
 984:/home/jonas/warwick/3dProfilometer/xpcc/ext/stm32f4xx_lib/STM32F4xx_StdPeriph_Driver/src/stm32f4xx_can.c ****   /* Sleep mode status */
 985:/home/jonas/warwick/3dProfilometer/xpcc/ext/stm32f4xx_lib/STM32F4xx_StdPeriph_Driver/src/stm32f4xx_can.c ****   while(((CANx->MSR & CAN_MSR_SLAK) == CAN_MSR_SLAK)&&(wait_slak!=0x00))
 1294              		.loc 1 985 0
 1295 0008 4368     		ldr	r3, [r0, #4]
 1296 000a 9907     		lsls	r1, r3, #30
 1297 000c 07D5     		bpl	.L151
 1298 000e 4FF6FF73 		movw	r3, #65535
 1299 0012 00E0     		b	.L152
 1300              	.LVL88:
 1301              	.L160:
 1302              		.loc 1 985 0 is_stmt 0 discriminator 2
 1303 0014 1BB1     		cbz	r3, .L151
 1304              	.LVL89:
 1305              	.L152:
 1306              		.loc 1 985 0
 1307 0016 4268     		ldr	r2, [r0, #4]
 986:/home/jonas/warwick/3dProfilometer/xpcc/ext/stm32f4xx_lib/STM32F4xx_StdPeriph_Driver/src/stm32f4xx_can.c ****   {
 987:/home/jonas/warwick/3dProfilometer/xpcc/ext/stm32f4xx_lib/STM32F4xx_StdPeriph_Driver/src/stm32f4xx_can.c ****    wait_slak--;
 1308              		.loc 1 987 0 is_stmt 1
 1309 0018 013B     		subs	r3, r3, #1
 1310              	.LVL90:
 985:/home/jonas/warwick/3dProfilometer/xpcc/ext/stm32f4xx_lib/STM32F4xx_StdPeriph_Driver/src/stm32f4xx_can.c ****   while(((CANx->MSR & CAN_MSR_SLAK) == CAN_MSR_SLAK)&&(wait_slak!=0x00))
 1311              		.loc 1 985 0
 1312 001a 9207     		lsls	r2, r2, #30
 1313 001c FAD4     		bmi	.L160
 1314              	.LVL91:
 1315              	.L151:
 988:/home/jonas/warwick/3dProfilometer/xpcc/ext/stm32f4xx_lib/STM32F4xx_StdPeriph_Driver/src/stm32f4xx_can.c ****   }
 989:/home/jonas/warwick/3dProfilometer/xpcc/ext/stm32f4xx_lib/STM32F4xx_StdPeriph_Driver/src/stm32f4xx_can.c ****   if((CANx->MSR & CAN_MSR_SLAK) != CAN_MSR_SLAK)
 1316              		.loc 1 989 0
 1317 001e 4068     		ldr	r0, [r0, #4]
 1318              	.LVL92:
 1319 0020 80F00200 		eor	r0, r0, #2
 1320              	.LVL93:
 990:/home/jonas/warwick/3dProfilometer/xpcc/ext/stm32f4xx_lib/STM32F4xx_StdPeriph_Driver/src/stm32f4xx_can.c ****   {
 991:/home/jonas/warwick/3dProfilometer/xpcc/ext/stm32f4xx_lib/STM32F4xx_StdPeriph_Driver/src/stm32f4xx_can.c ****    /* wake up done : Sleep mode exited */
 992:/home/jonas/warwick/3dProfilometer/xpcc/ext/stm32f4xx_lib/STM32F4xx_StdPeriph_Driver/src/stm32f4xx_can.c ****     wakeupstatus = CAN_WakeUp_Ok;
 993:/home/jonas/warwick/3dProfilometer/xpcc/ext/stm32f4xx_lib/STM32F4xx_StdPeriph_Driver/src/stm32f4xx_can.c ****   }
 994:/home/jonas/warwick/3dProfilometer/xpcc/ext/stm32f4xx_lib/STM32F4xx_StdPeriph_Driver/src/stm32f4xx_can.c ****   /* return wakeup status */
 995:/home/jonas/warwick/3dProfilometer/xpcc/ext/stm32f4xx_lib/STM32F4xx_StdPeriph_Driver/src/stm32f4xx_can.c ****   return (uint8_t)wakeupstatus;
 996:/home/jonas/warwick/3dProfilometer/xpcc/ext/stm32f4xx_lib/STM32F4xx_StdPeriph_Driver/src/stm32f4xx_can.c **** }
 1321              		.loc 1 996 0
 1322 0024 C0F34000 		ubfx	r0, r0, #1, #1
 1323              	.LVL94:
 1324 0028 7047     		bx	lr
 1325              		.cfi_endproc
 1326              	.LFE125:
 1328 002a 00BF     		.section	.text.CAN_GetLastErrorCode,"ax",%progbits
 1329              		.align	2
 1330              		.global	CAN_GetLastErrorCode
 1331              		.thumb
 1332              		.thumb_func
 1334              	CAN_GetLastErrorCode:
 1335              	.LFB126:
 997:/home/jonas/warwick/3dProfilometer/xpcc/ext/stm32f4xx_lib/STM32F4xx_StdPeriph_Driver/src/stm32f4xx_can.c **** /**
 998:/home/jonas/warwick/3dProfilometer/xpcc/ext/stm32f4xx_lib/STM32F4xx_StdPeriph_Driver/src/stm32f4xx_can.c ****   * @}
 999:/home/jonas/warwick/3dProfilometer/xpcc/ext/stm32f4xx_lib/STM32F4xx_StdPeriph_Driver/src/stm32f4xx_can.c ****   */
1000:/home/jonas/warwick/3dProfilometer/xpcc/ext/stm32f4xx_lib/STM32F4xx_StdPeriph_Driver/src/stm32f4xx_can.c **** 
1001:/home/jonas/warwick/3dProfilometer/xpcc/ext/stm32f4xx_lib/STM32F4xx_StdPeriph_Driver/src/stm32f4xx_can.c **** 
1002:/home/jonas/warwick/3dProfilometer/xpcc/ext/stm32f4xx_lib/STM32F4xx_StdPeriph_Driver/src/stm32f4xx_can.c **** /** @defgroup CAN_Group5 CAN Bus Error management functions
1003:/home/jonas/warwick/3dProfilometer/xpcc/ext/stm32f4xx_lib/STM32F4xx_StdPeriph_Driver/src/stm32f4xx_can.c ****  *  @brief    CAN Bus Error management functions 
1004:/home/jonas/warwick/3dProfilometer/xpcc/ext/stm32f4xx_lib/STM32F4xx_StdPeriph_Driver/src/stm32f4xx_can.c ****  *
1005:/home/jonas/warwick/3dProfilometer/xpcc/ext/stm32f4xx_lib/STM32F4xx_StdPeriph_Driver/src/stm32f4xx_can.c **** @verbatim    
1006:/home/jonas/warwick/3dProfilometer/xpcc/ext/stm32f4xx_lib/STM32F4xx_StdPeriph_Driver/src/stm32f4xx_can.c ****  ===============================================================================
1007:/home/jonas/warwick/3dProfilometer/xpcc/ext/stm32f4xx_lib/STM32F4xx_StdPeriph_Driver/src/stm32f4xx_can.c ****                       CAN Bus Error management functions
1008:/home/jonas/warwick/3dProfilometer/xpcc/ext/stm32f4xx_lib/STM32F4xx_StdPeriph_Driver/src/stm32f4xx_can.c ****  ===============================================================================  
1009:/home/jonas/warwick/3dProfilometer/xpcc/ext/stm32f4xx_lib/STM32F4xx_StdPeriph_Driver/src/stm32f4xx_can.c ****   This section provides functions allowing to 
1010:/home/jonas/warwick/3dProfilometer/xpcc/ext/stm32f4xx_lib/STM32F4xx_StdPeriph_Driver/src/stm32f4xx_can.c ****    -  Return the CANx's last error code (LEC)
1011:/home/jonas/warwick/3dProfilometer/xpcc/ext/stm32f4xx_lib/STM32F4xx_StdPeriph_Driver/src/stm32f4xx_can.c ****    -  Return the CANx Receive Error Counter (REC)
1012:/home/jonas/warwick/3dProfilometer/xpcc/ext/stm32f4xx_lib/STM32F4xx_StdPeriph_Driver/src/stm32f4xx_can.c ****    -  Return the LSB of the 9-bit CANx Transmit Error Counter(TEC).
1013:/home/jonas/warwick/3dProfilometer/xpcc/ext/stm32f4xx_lib/STM32F4xx_StdPeriph_Driver/src/stm32f4xx_can.c ****    
1014:/home/jonas/warwick/3dProfilometer/xpcc/ext/stm32f4xx_lib/STM32F4xx_StdPeriph_Driver/src/stm32f4xx_can.c ****    @note If TEC is greater than 255, The CAN is in bus-off state.
1015:/home/jonas/warwick/3dProfilometer/xpcc/ext/stm32f4xx_lib/STM32F4xx_StdPeriph_Driver/src/stm32f4xx_can.c ****    @note if REC or TEC are greater than 96, an Error warning flag occurs.
1016:/home/jonas/warwick/3dProfilometer/xpcc/ext/stm32f4xx_lib/STM32F4xx_StdPeriph_Driver/src/stm32f4xx_can.c ****    @note if REC or TEC are greater than 127, an Error Passive Flag occurs.
1017:/home/jonas/warwick/3dProfilometer/xpcc/ext/stm32f4xx_lib/STM32F4xx_StdPeriph_Driver/src/stm32f4xx_can.c ****                         
1018:/home/jonas/warwick/3dProfilometer/xpcc/ext/stm32f4xx_lib/STM32F4xx_StdPeriph_Driver/src/stm32f4xx_can.c **** @endverbatim
1019:/home/jonas/warwick/3dProfilometer/xpcc/ext/stm32f4xx_lib/STM32F4xx_StdPeriph_Driver/src/stm32f4xx_can.c ****   * @{
1020:/home/jonas/warwick/3dProfilometer/xpcc/ext/stm32f4xx_lib/STM32F4xx_StdPeriph_Driver/src/stm32f4xx_can.c ****   */
1021:/home/jonas/warwick/3dProfilometer/xpcc/ext/stm32f4xx_lib/STM32F4xx_StdPeriph_Driver/src/stm32f4xx_can.c ****   
1022:/home/jonas/warwick/3dProfilometer/xpcc/ext/stm32f4xx_lib/STM32F4xx_StdPeriph_Driver/src/stm32f4xx_can.c **** /**
1023:/home/jonas/warwick/3dProfilometer/xpcc/ext/stm32f4xx_lib/STM32F4xx_StdPeriph_Driver/src/stm32f4xx_can.c ****   * @brief  Returns the CANx's last error code (LEC).
1024:/home/jonas/warwick/3dProfilometer/xpcc/ext/stm32f4xx_lib/STM32F4xx_StdPeriph_Driver/src/stm32f4xx_can.c ****   * @param  CANx: where x can be 1 or 2 to select the CAN peripheral.
1025:/home/jonas/warwick/3dProfilometer/xpcc/ext/stm32f4xx_lib/STM32F4xx_StdPeriph_Driver/src/stm32f4xx_can.c ****   * @retval Error code: 
1026:/home/jonas/warwick/3dProfilometer/xpcc/ext/stm32f4xx_lib/STM32F4xx_StdPeriph_Driver/src/stm32f4xx_can.c ****   *          - CAN_ERRORCODE_NoErr: No Error  
1027:/home/jonas/warwick/3dProfilometer/xpcc/ext/stm32f4xx_lib/STM32F4xx_StdPeriph_Driver/src/stm32f4xx_can.c ****   *          - CAN_ERRORCODE_StuffErr: Stuff Error
1028:/home/jonas/warwick/3dProfilometer/xpcc/ext/stm32f4xx_lib/STM32F4xx_StdPeriph_Driver/src/stm32f4xx_can.c ****   *          - CAN_ERRORCODE_FormErr: Form Error
1029:/home/jonas/warwick/3dProfilometer/xpcc/ext/stm32f4xx_lib/STM32F4xx_StdPeriph_Driver/src/stm32f4xx_can.c ****   *          - CAN_ERRORCODE_ACKErr : Acknowledgment Error
1030:/home/jonas/warwick/3dProfilometer/xpcc/ext/stm32f4xx_lib/STM32F4xx_StdPeriph_Driver/src/stm32f4xx_can.c ****   *          - CAN_ERRORCODE_BitRecessiveErr: Bit Recessive Error
1031:/home/jonas/warwick/3dProfilometer/xpcc/ext/stm32f4xx_lib/STM32F4xx_StdPeriph_Driver/src/stm32f4xx_can.c ****   *          - CAN_ERRORCODE_BitDominantErr: Bit Dominant Error
1032:/home/jonas/warwick/3dProfilometer/xpcc/ext/stm32f4xx_lib/STM32F4xx_StdPeriph_Driver/src/stm32f4xx_can.c ****   *          - CAN_ERRORCODE_CRCErr: CRC Error
1033:/home/jonas/warwick/3dProfilometer/xpcc/ext/stm32f4xx_lib/STM32F4xx_StdPeriph_Driver/src/stm32f4xx_can.c ****   *          - CAN_ERRORCODE_SoftwareSetErr: Software Set Error  
1034:/home/jonas/warwick/3dProfilometer/xpcc/ext/stm32f4xx_lib/STM32F4xx_StdPeriph_Driver/src/stm32f4xx_can.c ****   */
1035:/home/jonas/warwick/3dProfilometer/xpcc/ext/stm32f4xx_lib/STM32F4xx_StdPeriph_Driver/src/stm32f4xx_can.c **** uint8_t CAN_GetLastErrorCode(CAN_TypeDef* CANx)
1036:/home/jonas/warwick/3dProfilometer/xpcc/ext/stm32f4xx_lib/STM32F4xx_StdPeriph_Driver/src/stm32f4xx_can.c **** {
 1336              		.loc 1 1036 0
 1337              		.cfi_startproc
 1338              		@ args = 0, pretend = 0, frame = 0
 1339              		@ frame_needed = 0, uses_anonymous_args = 0
 1340              		@ link register save eliminated.
 1341              	.LVL95:
1037:/home/jonas/warwick/3dProfilometer/xpcc/ext/stm32f4xx_lib/STM32F4xx_StdPeriph_Driver/src/stm32f4xx_can.c ****   uint8_t errorcode=0;
1038:/home/jonas/warwick/3dProfilometer/xpcc/ext/stm32f4xx_lib/STM32F4xx_StdPeriph_Driver/src/stm32f4xx_can.c ****   
1039:/home/jonas/warwick/3dProfilometer/xpcc/ext/stm32f4xx_lib/STM32F4xx_StdPeriph_Driver/src/stm32f4xx_can.c ****   /* Check the parameters */
1040:/home/jonas/warwick/3dProfilometer/xpcc/ext/stm32f4xx_lib/STM32F4xx_StdPeriph_Driver/src/stm32f4xx_can.c ****   assert_param(IS_CAN_ALL_PERIPH(CANx));
1041:/home/jonas/warwick/3dProfilometer/xpcc/ext/stm32f4xx_lib/STM32F4xx_StdPeriph_Driver/src/stm32f4xx_can.c ****   
1042:/home/jonas/warwick/3dProfilometer/xpcc/ext/stm32f4xx_lib/STM32F4xx_StdPeriph_Driver/src/stm32f4xx_can.c ****   /* Get the error code*/
1043:/home/jonas/warwick/3dProfilometer/xpcc/ext/stm32f4xx_lib/STM32F4xx_StdPeriph_Driver/src/stm32f4xx_can.c ****   errorcode = (((uint8_t)CANx->ESR) & (uint8_t)CAN_ESR_LEC);
 1342              		.loc 1 1043 0
 1343 0000 8069     		ldr	r0, [r0, #24]
 1344              	.LVL96:
1044:/home/jonas/warwick/3dProfilometer/xpcc/ext/stm32f4xx_lib/STM32F4xx_StdPeriph_Driver/src/stm32f4xx_can.c ****   
1045:/home/jonas/warwick/3dProfilometer/xpcc/ext/stm32f4xx_lib/STM32F4xx_StdPeriph_Driver/src/stm32f4xx_can.c ****   /* Return the error code*/
1046:/home/jonas/warwick/3dProfilometer/xpcc/ext/stm32f4xx_lib/STM32F4xx_StdPeriph_Driver/src/stm32f4xx_can.c ****   return errorcode;
1047:/home/jonas/warwick/3dProfilometer/xpcc/ext/stm32f4xx_lib/STM32F4xx_StdPeriph_Driver/src/stm32f4xx_can.c **** }
 1345              		.loc 1 1047 0
 1346 0002 00F07000 		and	r0, r0, #112
 1347              	.LVL97:
 1348 0006 7047     		bx	lr
 1349              		.cfi_endproc
 1350              	.LFE126:
 1352              		.section	.text.CAN_GetReceiveErrorCounter,"ax",%progbits
 1353              		.align	2
 1354              		.global	CAN_GetReceiveErrorCounter
 1355              		.thumb
 1356              		.thumb_func
 1358              	CAN_GetReceiveErrorCounter:
 1359              	.LFB127:
1048:/home/jonas/warwick/3dProfilometer/xpcc/ext/stm32f4xx_lib/STM32F4xx_StdPeriph_Driver/src/stm32f4xx_can.c **** 
1049:/home/jonas/warwick/3dProfilometer/xpcc/ext/stm32f4xx_lib/STM32F4xx_StdPeriph_Driver/src/stm32f4xx_can.c **** /**
1050:/home/jonas/warwick/3dProfilometer/xpcc/ext/stm32f4xx_lib/STM32F4xx_StdPeriph_Driver/src/stm32f4xx_can.c ****   * @brief  Returns the CANx Receive Error Counter (REC).
1051:/home/jonas/warwick/3dProfilometer/xpcc/ext/stm32f4xx_lib/STM32F4xx_StdPeriph_Driver/src/stm32f4xx_can.c ****   * @note   In case of an error during reception, this counter is incremented 
1052:/home/jonas/warwick/3dProfilometer/xpcc/ext/stm32f4xx_lib/STM32F4xx_StdPeriph_Driver/src/stm32f4xx_can.c ****   *         by 1 or by 8 depending on the error condition as defined by the CAN 
1053:/home/jonas/warwick/3dProfilometer/xpcc/ext/stm32f4xx_lib/STM32F4xx_StdPeriph_Driver/src/stm32f4xx_can.c ****   *         standard. After every successful reception, the counter is 
1054:/home/jonas/warwick/3dProfilometer/xpcc/ext/stm32f4xx_lib/STM32F4xx_StdPeriph_Driver/src/stm32f4xx_can.c ****   *         decremented by 1 or reset to 120 if its value was higher than 128. 
1055:/home/jonas/warwick/3dProfilometer/xpcc/ext/stm32f4xx_lib/STM32F4xx_StdPeriph_Driver/src/stm32f4xx_can.c ****   *         When the counter value exceeds 127, the CAN controller enters the 
1056:/home/jonas/warwick/3dProfilometer/xpcc/ext/stm32f4xx_lib/STM32F4xx_StdPeriph_Driver/src/stm32f4xx_can.c ****   *         error passive state.  
1057:/home/jonas/warwick/3dProfilometer/xpcc/ext/stm32f4xx_lib/STM32F4xx_StdPeriph_Driver/src/stm32f4xx_can.c ****   * @param  CANx: where x can be 1 or 2 to to select the CAN peripheral.  
1058:/home/jonas/warwick/3dProfilometer/xpcc/ext/stm32f4xx_lib/STM32F4xx_StdPeriph_Driver/src/stm32f4xx_can.c ****   * @retval CAN Receive Error Counter. 
1059:/home/jonas/warwick/3dProfilometer/xpcc/ext/stm32f4xx_lib/STM32F4xx_StdPeriph_Driver/src/stm32f4xx_can.c ****   */
1060:/home/jonas/warwick/3dProfilometer/xpcc/ext/stm32f4xx_lib/STM32F4xx_StdPeriph_Driver/src/stm32f4xx_can.c **** uint8_t CAN_GetReceiveErrorCounter(CAN_TypeDef* CANx)
1061:/home/jonas/warwick/3dProfilometer/xpcc/ext/stm32f4xx_lib/STM32F4xx_StdPeriph_Driver/src/stm32f4xx_can.c **** {
 1360              		.loc 1 1061 0
 1361              		.cfi_startproc
 1362              		@ args = 0, pretend = 0, frame = 0
 1363              		@ frame_needed = 0, uses_anonymous_args = 0
 1364              		@ link register save eliminated.
 1365              	.LVL98:
1062:/home/jonas/warwick/3dProfilometer/xpcc/ext/stm32f4xx_lib/STM32F4xx_StdPeriph_Driver/src/stm32f4xx_can.c ****   uint8_t counter=0;
1063:/home/jonas/warwick/3dProfilometer/xpcc/ext/stm32f4xx_lib/STM32F4xx_StdPeriph_Driver/src/stm32f4xx_can.c ****   
1064:/home/jonas/warwick/3dProfilometer/xpcc/ext/stm32f4xx_lib/STM32F4xx_StdPeriph_Driver/src/stm32f4xx_can.c ****   /* Check the parameters */
1065:/home/jonas/warwick/3dProfilometer/xpcc/ext/stm32f4xx_lib/STM32F4xx_StdPeriph_Driver/src/stm32f4xx_can.c ****   assert_param(IS_CAN_ALL_PERIPH(CANx));
1066:/home/jonas/warwick/3dProfilometer/xpcc/ext/stm32f4xx_lib/STM32F4xx_StdPeriph_Driver/src/stm32f4xx_can.c ****   
1067:/home/jonas/warwick/3dProfilometer/xpcc/ext/stm32f4xx_lib/STM32F4xx_StdPeriph_Driver/src/stm32f4xx_can.c ****   /* Get the Receive Error Counter*/
1068:/home/jonas/warwick/3dProfilometer/xpcc/ext/stm32f4xx_lib/STM32F4xx_StdPeriph_Driver/src/stm32f4xx_can.c ****   counter = (uint8_t)((CANx->ESR & CAN_ESR_REC)>> 24);
 1366              		.loc 1 1068 0
 1367 0000 8069     		ldr	r0, [r0, #24]
 1368              	.LVL99:
1069:/home/jonas/warwick/3dProfilometer/xpcc/ext/stm32f4xx_lib/STM32F4xx_StdPeriph_Driver/src/stm32f4xx_can.c ****   
1070:/home/jonas/warwick/3dProfilometer/xpcc/ext/stm32f4xx_lib/STM32F4xx_StdPeriph_Driver/src/stm32f4xx_can.c ****   /* Return the Receive Error Counter*/
1071:/home/jonas/warwick/3dProfilometer/xpcc/ext/stm32f4xx_lib/STM32F4xx_StdPeriph_Driver/src/stm32f4xx_can.c ****   return counter;
1072:/home/jonas/warwick/3dProfilometer/xpcc/ext/stm32f4xx_lib/STM32F4xx_StdPeriph_Driver/src/stm32f4xx_can.c **** }
 1369              		.loc 1 1072 0
 1370 0002 000E     		lsrs	r0, r0, #24
 1371              	.LVL100:
 1372 0004 7047     		bx	lr
 1373              		.cfi_endproc
 1374              	.LFE127:
 1376 0006 00BF     		.section	.text.CAN_GetLSBTransmitErrorCounter,"ax",%progbits
 1377              		.align	2
 1378              		.global	CAN_GetLSBTransmitErrorCounter
 1379              		.thumb
 1380              		.thumb_func
 1382              	CAN_GetLSBTransmitErrorCounter:
 1383              	.LFB128:
1073:/home/jonas/warwick/3dProfilometer/xpcc/ext/stm32f4xx_lib/STM32F4xx_StdPeriph_Driver/src/stm32f4xx_can.c **** 
1074:/home/jonas/warwick/3dProfilometer/xpcc/ext/stm32f4xx_lib/STM32F4xx_StdPeriph_Driver/src/stm32f4xx_can.c **** 
1075:/home/jonas/warwick/3dProfilometer/xpcc/ext/stm32f4xx_lib/STM32F4xx_StdPeriph_Driver/src/stm32f4xx_can.c **** /**
1076:/home/jonas/warwick/3dProfilometer/xpcc/ext/stm32f4xx_lib/STM32F4xx_StdPeriph_Driver/src/stm32f4xx_can.c ****   * @brief  Returns the LSB of the 9-bit CANx Transmit Error Counter(TEC).
1077:/home/jonas/warwick/3dProfilometer/xpcc/ext/stm32f4xx_lib/STM32F4xx_StdPeriph_Driver/src/stm32f4xx_can.c ****   * @param  CANx: where x can be 1 or 2 to to select the CAN peripheral.
1078:/home/jonas/warwick/3dProfilometer/xpcc/ext/stm32f4xx_lib/STM32F4xx_StdPeriph_Driver/src/stm32f4xx_can.c ****   * @retval LSB of the 9-bit CAN Transmit Error Counter. 
1079:/home/jonas/warwick/3dProfilometer/xpcc/ext/stm32f4xx_lib/STM32F4xx_StdPeriph_Driver/src/stm32f4xx_can.c ****   */
1080:/home/jonas/warwick/3dProfilometer/xpcc/ext/stm32f4xx_lib/STM32F4xx_StdPeriph_Driver/src/stm32f4xx_can.c **** uint8_t CAN_GetLSBTransmitErrorCounter(CAN_TypeDef* CANx)
1081:/home/jonas/warwick/3dProfilometer/xpcc/ext/stm32f4xx_lib/STM32F4xx_StdPeriph_Driver/src/stm32f4xx_can.c **** {
 1384              		.loc 1 1081 0
 1385              		.cfi_startproc
 1386              		@ args = 0, pretend = 0, frame = 0
 1387              		@ frame_needed = 0, uses_anonymous_args = 0
 1388              		@ link register save eliminated.
 1389              	.LVL101:
1082:/home/jonas/warwick/3dProfilometer/xpcc/ext/stm32f4xx_lib/STM32F4xx_StdPeriph_Driver/src/stm32f4xx_can.c ****   uint8_t counter=0;
1083:/home/jonas/warwick/3dProfilometer/xpcc/ext/stm32f4xx_lib/STM32F4xx_StdPeriph_Driver/src/stm32f4xx_can.c ****   
1084:/home/jonas/warwick/3dProfilometer/xpcc/ext/stm32f4xx_lib/STM32F4xx_StdPeriph_Driver/src/stm32f4xx_can.c ****   /* Check the parameters */
1085:/home/jonas/warwick/3dProfilometer/xpcc/ext/stm32f4xx_lib/STM32F4xx_StdPeriph_Driver/src/stm32f4xx_can.c ****   assert_param(IS_CAN_ALL_PERIPH(CANx));
1086:/home/jonas/warwick/3dProfilometer/xpcc/ext/stm32f4xx_lib/STM32F4xx_StdPeriph_Driver/src/stm32f4xx_can.c ****   
1087:/home/jonas/warwick/3dProfilometer/xpcc/ext/stm32f4xx_lib/STM32F4xx_StdPeriph_Driver/src/stm32f4xx_can.c ****   /* Get the LSB of the 9-bit CANx Transmit Error Counter(TEC) */
1088:/home/jonas/warwick/3dProfilometer/xpcc/ext/stm32f4xx_lib/STM32F4xx_StdPeriph_Driver/src/stm32f4xx_can.c ****   counter = (uint8_t)((CANx->ESR & CAN_ESR_TEC)>> 16);
 1390              		.loc 1 1088 0
 1391 0000 8069     		ldr	r0, [r0, #24]
 1392              	.LVL102:
1089:/home/jonas/warwick/3dProfilometer/xpcc/ext/stm32f4xx_lib/STM32F4xx_StdPeriph_Driver/src/stm32f4xx_can.c ****   
1090:/home/jonas/warwick/3dProfilometer/xpcc/ext/stm32f4xx_lib/STM32F4xx_StdPeriph_Driver/src/stm32f4xx_can.c ****   /* Return the LSB of the 9-bit CANx Transmit Error Counter(TEC) */
1091:/home/jonas/warwick/3dProfilometer/xpcc/ext/stm32f4xx_lib/STM32F4xx_StdPeriph_Driver/src/stm32f4xx_can.c ****   return counter;
1092:/home/jonas/warwick/3dProfilometer/xpcc/ext/stm32f4xx_lib/STM32F4xx_StdPeriph_Driver/src/stm32f4xx_can.c **** }
 1393              		.loc 1 1092 0
 1394 0002 C0F30740 		ubfx	r0, r0, #16, #8
 1395              	.LVL103:
 1396 0006 7047     		bx	lr
 1397              		.cfi_endproc
 1398              	.LFE128:
 1400              		.section	.text.CAN_ITConfig,"ax",%progbits
 1401              		.align	2
 1402              		.global	CAN_ITConfig
 1403              		.thumb
 1404              		.thumb_func
 1406              	CAN_ITConfig:
 1407              	.LFB129:
1093:/home/jonas/warwick/3dProfilometer/xpcc/ext/stm32f4xx_lib/STM32F4xx_StdPeriph_Driver/src/stm32f4xx_can.c **** /**
1094:/home/jonas/warwick/3dProfilometer/xpcc/ext/stm32f4xx_lib/STM32F4xx_StdPeriph_Driver/src/stm32f4xx_can.c ****   * @}
1095:/home/jonas/warwick/3dProfilometer/xpcc/ext/stm32f4xx_lib/STM32F4xx_StdPeriph_Driver/src/stm32f4xx_can.c ****   */
1096:/home/jonas/warwick/3dProfilometer/xpcc/ext/stm32f4xx_lib/STM32F4xx_StdPeriph_Driver/src/stm32f4xx_can.c **** 
1097:/home/jonas/warwick/3dProfilometer/xpcc/ext/stm32f4xx_lib/STM32F4xx_StdPeriph_Driver/src/stm32f4xx_can.c **** /** @defgroup CAN_Group6 Interrupts and flags management functions
1098:/home/jonas/warwick/3dProfilometer/xpcc/ext/stm32f4xx_lib/STM32F4xx_StdPeriph_Driver/src/stm32f4xx_can.c ****  *  @brief   Interrupts and flags management functions
1099:/home/jonas/warwick/3dProfilometer/xpcc/ext/stm32f4xx_lib/STM32F4xx_StdPeriph_Driver/src/stm32f4xx_can.c ****  *
1100:/home/jonas/warwick/3dProfilometer/xpcc/ext/stm32f4xx_lib/STM32F4xx_StdPeriph_Driver/src/stm32f4xx_can.c **** @verbatim   
1101:/home/jonas/warwick/3dProfilometer/xpcc/ext/stm32f4xx_lib/STM32F4xx_StdPeriph_Driver/src/stm32f4xx_can.c ****  ===============================================================================
1102:/home/jonas/warwick/3dProfilometer/xpcc/ext/stm32f4xx_lib/STM32F4xx_StdPeriph_Driver/src/stm32f4xx_can.c ****                    Interrupts and flags management functions
1103:/home/jonas/warwick/3dProfilometer/xpcc/ext/stm32f4xx_lib/STM32F4xx_StdPeriph_Driver/src/stm32f4xx_can.c ****  ===============================================================================  
1104:/home/jonas/warwick/3dProfilometer/xpcc/ext/stm32f4xx_lib/STM32F4xx_StdPeriph_Driver/src/stm32f4xx_can.c **** 
1105:/home/jonas/warwick/3dProfilometer/xpcc/ext/stm32f4xx_lib/STM32F4xx_StdPeriph_Driver/src/stm32f4xx_can.c ****   This section provides functions allowing to configure the CAN Interrupts and 
1106:/home/jonas/warwick/3dProfilometer/xpcc/ext/stm32f4xx_lib/STM32F4xx_StdPeriph_Driver/src/stm32f4xx_can.c ****   to get the status and clear flags and Interrupts pending bits.
1107:/home/jonas/warwick/3dProfilometer/xpcc/ext/stm32f4xx_lib/STM32F4xx_StdPeriph_Driver/src/stm32f4xx_can.c ****   
1108:/home/jonas/warwick/3dProfilometer/xpcc/ext/stm32f4xx_lib/STM32F4xx_StdPeriph_Driver/src/stm32f4xx_can.c ****   The CAN provides 14 Interrupts sources and 15 Flags:
1109:/home/jonas/warwick/3dProfilometer/xpcc/ext/stm32f4xx_lib/STM32F4xx_StdPeriph_Driver/src/stm32f4xx_can.c **** 
1110:/home/jonas/warwick/3dProfilometer/xpcc/ext/stm32f4xx_lib/STM32F4xx_StdPeriph_Driver/src/stm32f4xx_can.c ****   ===============  
1111:/home/jonas/warwick/3dProfilometer/xpcc/ext/stm32f4xx_lib/STM32F4xx_StdPeriph_Driver/src/stm32f4xx_can.c ****       Flags :
1112:/home/jonas/warwick/3dProfilometer/xpcc/ext/stm32f4xx_lib/STM32F4xx_StdPeriph_Driver/src/stm32f4xx_can.c ****   ===============
1113:/home/jonas/warwick/3dProfilometer/xpcc/ext/stm32f4xx_lib/STM32F4xx_StdPeriph_Driver/src/stm32f4xx_can.c ****   The 15 flags can be divided on 4 groups: 
1114:/home/jonas/warwick/3dProfilometer/xpcc/ext/stm32f4xx_lib/STM32F4xx_StdPeriph_Driver/src/stm32f4xx_can.c **** 
1115:/home/jonas/warwick/3dProfilometer/xpcc/ext/stm32f4xx_lib/STM32F4xx_StdPeriph_Driver/src/stm32f4xx_can.c ****    A. Transmit Flags
1116:/home/jonas/warwick/3dProfilometer/xpcc/ext/stm32f4xx_lib/STM32F4xx_StdPeriph_Driver/src/stm32f4xx_can.c ****   -----------------------
1117:/home/jonas/warwick/3dProfilometer/xpcc/ext/stm32f4xx_lib/STM32F4xx_StdPeriph_Driver/src/stm32f4xx_can.c ****         CAN_FLAG_RQCP0, 
1118:/home/jonas/warwick/3dProfilometer/xpcc/ext/stm32f4xx_lib/STM32F4xx_StdPeriph_Driver/src/stm32f4xx_can.c ****         CAN_FLAG_RQCP1, 
1119:/home/jonas/warwick/3dProfilometer/xpcc/ext/stm32f4xx_lib/STM32F4xx_StdPeriph_Driver/src/stm32f4xx_can.c ****         CAN_FLAG_RQCP2  : Request completed MailBoxes 0, 1 and 2  Flags
1120:/home/jonas/warwick/3dProfilometer/xpcc/ext/stm32f4xx_lib/STM32F4xx_StdPeriph_Driver/src/stm32f4xx_can.c ****                           Set when when the last request (transmit or abort) has 
1121:/home/jonas/warwick/3dProfilometer/xpcc/ext/stm32f4xx_lib/STM32F4xx_StdPeriph_Driver/src/stm32f4xx_can.c ****                           been performed. 
1122:/home/jonas/warwick/3dProfilometer/xpcc/ext/stm32f4xx_lib/STM32F4xx_StdPeriph_Driver/src/stm32f4xx_can.c **** 
1123:/home/jonas/warwick/3dProfilometer/xpcc/ext/stm32f4xx_lib/STM32F4xx_StdPeriph_Driver/src/stm32f4xx_can.c ****   B. Receive Flags
1124:/home/jonas/warwick/3dProfilometer/xpcc/ext/stm32f4xx_lib/STM32F4xx_StdPeriph_Driver/src/stm32f4xx_can.c ****   -----------------------
1125:/home/jonas/warwick/3dProfilometer/xpcc/ext/stm32f4xx_lib/STM32F4xx_StdPeriph_Driver/src/stm32f4xx_can.c **** 
1126:/home/jonas/warwick/3dProfilometer/xpcc/ext/stm32f4xx_lib/STM32F4xx_StdPeriph_Driver/src/stm32f4xx_can.c ****         CAN_FLAG_FMP0,
1127:/home/jonas/warwick/3dProfilometer/xpcc/ext/stm32f4xx_lib/STM32F4xx_StdPeriph_Driver/src/stm32f4xx_can.c ****         CAN_FLAG_FMP1   : FIFO 0 and 1 Message Pending Flags 
1128:/home/jonas/warwick/3dProfilometer/xpcc/ext/stm32f4xx_lib/STM32F4xx_StdPeriph_Driver/src/stm32f4xx_can.c ****                           set to signal that messages are pending in the receive 
1129:/home/jonas/warwick/3dProfilometer/xpcc/ext/stm32f4xx_lib/STM32F4xx_StdPeriph_Driver/src/stm32f4xx_can.c ****                           FIFO.
1130:/home/jonas/warwick/3dProfilometer/xpcc/ext/stm32f4xx_lib/STM32F4xx_StdPeriph_Driver/src/stm32f4xx_can.c ****                           These Flags are cleared only by hardware. 
1131:/home/jonas/warwick/3dProfilometer/xpcc/ext/stm32f4xx_lib/STM32F4xx_StdPeriph_Driver/src/stm32f4xx_can.c **** 
1132:/home/jonas/warwick/3dProfilometer/xpcc/ext/stm32f4xx_lib/STM32F4xx_StdPeriph_Driver/src/stm32f4xx_can.c ****         CAN_FLAG_FF0,
1133:/home/jonas/warwick/3dProfilometer/xpcc/ext/stm32f4xx_lib/STM32F4xx_StdPeriph_Driver/src/stm32f4xx_can.c ****         CAN_FLAG_FF1    : FIFO 0 and 1 Full Flags
1134:/home/jonas/warwick/3dProfilometer/xpcc/ext/stm32f4xx_lib/STM32F4xx_StdPeriph_Driver/src/stm32f4xx_can.c ****                           set when three messages are stored in the selected 
1135:/home/jonas/warwick/3dProfilometer/xpcc/ext/stm32f4xx_lib/STM32F4xx_StdPeriph_Driver/src/stm32f4xx_can.c ****                           FIFO.                        
1136:/home/jonas/warwick/3dProfilometer/xpcc/ext/stm32f4xx_lib/STM32F4xx_StdPeriph_Driver/src/stm32f4xx_can.c **** 
1137:/home/jonas/warwick/3dProfilometer/xpcc/ext/stm32f4xx_lib/STM32F4xx_StdPeriph_Driver/src/stm32f4xx_can.c ****         CAN_FLAG_FOV0              
1138:/home/jonas/warwick/3dProfilometer/xpcc/ext/stm32f4xx_lib/STM32F4xx_StdPeriph_Driver/src/stm32f4xx_can.c ****         CAN_FLAG_FOV1   : FIFO 0 and 1 Overrun Flags
1139:/home/jonas/warwick/3dProfilometer/xpcc/ext/stm32f4xx_lib/STM32F4xx_StdPeriph_Driver/src/stm32f4xx_can.c ****                           set when a new message has been received and passed 
1140:/home/jonas/warwick/3dProfilometer/xpcc/ext/stm32f4xx_lib/STM32F4xx_StdPeriph_Driver/src/stm32f4xx_can.c ****                           the filter while the FIFO was full.         
1141:/home/jonas/warwick/3dProfilometer/xpcc/ext/stm32f4xx_lib/STM32F4xx_StdPeriph_Driver/src/stm32f4xx_can.c **** 
1142:/home/jonas/warwick/3dProfilometer/xpcc/ext/stm32f4xx_lib/STM32F4xx_StdPeriph_Driver/src/stm32f4xx_can.c ****   C. Operating Mode Flags
1143:/home/jonas/warwick/3dProfilometer/xpcc/ext/stm32f4xx_lib/STM32F4xx_StdPeriph_Driver/src/stm32f4xx_can.c ****   ----------------------- 
1144:/home/jonas/warwick/3dProfilometer/xpcc/ext/stm32f4xx_lib/STM32F4xx_StdPeriph_Driver/src/stm32f4xx_can.c ****         CAN_FLAG_WKU    : Wake up Flag
1145:/home/jonas/warwick/3dProfilometer/xpcc/ext/stm32f4xx_lib/STM32F4xx_StdPeriph_Driver/src/stm32f4xx_can.c ****                           set to signal that a SOF bit has been detected while 
1146:/home/jonas/warwick/3dProfilometer/xpcc/ext/stm32f4xx_lib/STM32F4xx_StdPeriph_Driver/src/stm32f4xx_can.c ****                           the CAN hardware was in Sleep mode. 
1147:/home/jonas/warwick/3dProfilometer/xpcc/ext/stm32f4xx_lib/STM32F4xx_StdPeriph_Driver/src/stm32f4xx_can.c ****         
1148:/home/jonas/warwick/3dProfilometer/xpcc/ext/stm32f4xx_lib/STM32F4xx_StdPeriph_Driver/src/stm32f4xx_can.c ****         CAN_FLAG_SLAK   : Sleep acknowledge Flag
1149:/home/jonas/warwick/3dProfilometer/xpcc/ext/stm32f4xx_lib/STM32F4xx_StdPeriph_Driver/src/stm32f4xx_can.c ****                           Set to signal that the CAN has entered Sleep Mode. 
1150:/home/jonas/warwick/3dProfilometer/xpcc/ext/stm32f4xx_lib/STM32F4xx_StdPeriph_Driver/src/stm32f4xx_can.c ****     
1151:/home/jonas/warwick/3dProfilometer/xpcc/ext/stm32f4xx_lib/STM32F4xx_StdPeriph_Driver/src/stm32f4xx_can.c ****   D. Error Flags
1152:/home/jonas/warwick/3dProfilometer/xpcc/ext/stm32f4xx_lib/STM32F4xx_StdPeriph_Driver/src/stm32f4xx_can.c ****   ----------------------- 
1153:/home/jonas/warwick/3dProfilometer/xpcc/ext/stm32f4xx_lib/STM32F4xx_StdPeriph_Driver/src/stm32f4xx_can.c ****         CAN_FLAG_EWG    : Error Warning Flag
1154:/home/jonas/warwick/3dProfilometer/xpcc/ext/stm32f4xx_lib/STM32F4xx_StdPeriph_Driver/src/stm32f4xx_can.c ****                           Set when the warning limit has been reached (Receive 
1155:/home/jonas/warwick/3dProfilometer/xpcc/ext/stm32f4xx_lib/STM32F4xx_StdPeriph_Driver/src/stm32f4xx_can.c ****                           Error Counter or Transmit Error Counter greater than 96). 
1156:/home/jonas/warwick/3dProfilometer/xpcc/ext/stm32f4xx_lib/STM32F4xx_StdPeriph_Driver/src/stm32f4xx_can.c ****                           This Flag is cleared only by hardware.
1157:/home/jonas/warwick/3dProfilometer/xpcc/ext/stm32f4xx_lib/STM32F4xx_StdPeriph_Driver/src/stm32f4xx_can.c ****                             
1158:/home/jonas/warwick/3dProfilometer/xpcc/ext/stm32f4xx_lib/STM32F4xx_StdPeriph_Driver/src/stm32f4xx_can.c ****         CAN_FLAG_EPV    : Error Passive Flag
1159:/home/jonas/warwick/3dProfilometer/xpcc/ext/stm32f4xx_lib/STM32F4xx_StdPeriph_Driver/src/stm32f4xx_can.c ****                           Set when the Error Passive limit has been reached 
1160:/home/jonas/warwick/3dProfilometer/xpcc/ext/stm32f4xx_lib/STM32F4xx_StdPeriph_Driver/src/stm32f4xx_can.c ****                           (Receive Error Counter or Transmit Error Counter 
1161:/home/jonas/warwick/3dProfilometer/xpcc/ext/stm32f4xx_lib/STM32F4xx_StdPeriph_Driver/src/stm32f4xx_can.c ****                           greater than 127).
1162:/home/jonas/warwick/3dProfilometer/xpcc/ext/stm32f4xx_lib/STM32F4xx_StdPeriph_Driver/src/stm32f4xx_can.c ****                           This Flag is cleared only by hardware.
1163:/home/jonas/warwick/3dProfilometer/xpcc/ext/stm32f4xx_lib/STM32F4xx_StdPeriph_Driver/src/stm32f4xx_can.c ****                              
1164:/home/jonas/warwick/3dProfilometer/xpcc/ext/stm32f4xx_lib/STM32F4xx_StdPeriph_Driver/src/stm32f4xx_can.c ****         CAN_FLAG_BOF    : Bus-Off Flag
1165:/home/jonas/warwick/3dProfilometer/xpcc/ext/stm32f4xx_lib/STM32F4xx_StdPeriph_Driver/src/stm32f4xx_can.c ****                           set when CAN enters the bus-off state. The bus-off 
1166:/home/jonas/warwick/3dProfilometer/xpcc/ext/stm32f4xx_lib/STM32F4xx_StdPeriph_Driver/src/stm32f4xx_can.c ****                           state is entered on TEC overflow, greater than 255.
1167:/home/jonas/warwick/3dProfilometer/xpcc/ext/stm32f4xx_lib/STM32F4xx_StdPeriph_Driver/src/stm32f4xx_can.c ****                           This Flag is cleared only by hardware.
1168:/home/jonas/warwick/3dProfilometer/xpcc/ext/stm32f4xx_lib/STM32F4xx_StdPeriph_Driver/src/stm32f4xx_can.c ****                                    
1169:/home/jonas/warwick/3dProfilometer/xpcc/ext/stm32f4xx_lib/STM32F4xx_StdPeriph_Driver/src/stm32f4xx_can.c ****         CAN_FLAG_LEC    : Last error code Flag
1170:/home/jonas/warwick/3dProfilometer/xpcc/ext/stm32f4xx_lib/STM32F4xx_StdPeriph_Driver/src/stm32f4xx_can.c ****                           set If a message has been transferred (reception or
1171:/home/jonas/warwick/3dProfilometer/xpcc/ext/stm32f4xx_lib/STM32F4xx_StdPeriph_Driver/src/stm32f4xx_can.c ****                           transmission) with error, and the error code is hold.              
1172:/home/jonas/warwick/3dProfilometer/xpcc/ext/stm32f4xx_lib/STM32F4xx_StdPeriph_Driver/src/stm32f4xx_can.c ****                           
1173:/home/jonas/warwick/3dProfilometer/xpcc/ext/stm32f4xx_lib/STM32F4xx_StdPeriph_Driver/src/stm32f4xx_can.c ****   ===============  
1174:/home/jonas/warwick/3dProfilometer/xpcc/ext/stm32f4xx_lib/STM32F4xx_StdPeriph_Driver/src/stm32f4xx_can.c ****    Interrupts :
1175:/home/jonas/warwick/3dProfilometer/xpcc/ext/stm32f4xx_lib/STM32F4xx_StdPeriph_Driver/src/stm32f4xx_can.c ****   ===============
1176:/home/jonas/warwick/3dProfilometer/xpcc/ext/stm32f4xx_lib/STM32F4xx_StdPeriph_Driver/src/stm32f4xx_can.c ****   The 14 interrupts can be divided on 4 groups: 
1177:/home/jonas/warwick/3dProfilometer/xpcc/ext/stm32f4xx_lib/STM32F4xx_StdPeriph_Driver/src/stm32f4xx_can.c ****   
1178:/home/jonas/warwick/3dProfilometer/xpcc/ext/stm32f4xx_lib/STM32F4xx_StdPeriph_Driver/src/stm32f4xx_can.c ****    A. Transmit interrupt
1179:/home/jonas/warwick/3dProfilometer/xpcc/ext/stm32f4xx_lib/STM32F4xx_StdPeriph_Driver/src/stm32f4xx_can.c ****   -----------------------   
1180:/home/jonas/warwick/3dProfilometer/xpcc/ext/stm32f4xx_lib/STM32F4xx_StdPeriph_Driver/src/stm32f4xx_can.c ****           CAN_IT_TME   :  Transmit mailbox empty Interrupt
1181:/home/jonas/warwick/3dProfilometer/xpcc/ext/stm32f4xx_lib/STM32F4xx_StdPeriph_Driver/src/stm32f4xx_can.c ****                           if enabled, this interrupt source is pending when 
1182:/home/jonas/warwick/3dProfilometer/xpcc/ext/stm32f4xx_lib/STM32F4xx_StdPeriph_Driver/src/stm32f4xx_can.c ****                           no transmit request are pending for Tx mailboxes.      
1183:/home/jonas/warwick/3dProfilometer/xpcc/ext/stm32f4xx_lib/STM32F4xx_StdPeriph_Driver/src/stm32f4xx_can.c **** 
1184:/home/jonas/warwick/3dProfilometer/xpcc/ext/stm32f4xx_lib/STM32F4xx_StdPeriph_Driver/src/stm32f4xx_can.c ****    B. Receive Interrupts
1185:/home/jonas/warwick/3dProfilometer/xpcc/ext/stm32f4xx_lib/STM32F4xx_StdPeriph_Driver/src/stm32f4xx_can.c ****   -----------------------          
1186:/home/jonas/warwick/3dProfilometer/xpcc/ext/stm32f4xx_lib/STM32F4xx_StdPeriph_Driver/src/stm32f4xx_can.c ****         CAN_IT_FMP0,
1187:/home/jonas/warwick/3dProfilometer/xpcc/ext/stm32f4xx_lib/STM32F4xx_StdPeriph_Driver/src/stm32f4xx_can.c ****         CAN_IT_FMP1    :  FIFO 0 and FIFO1 message pending Interrupts
1188:/home/jonas/warwick/3dProfilometer/xpcc/ext/stm32f4xx_lib/STM32F4xx_StdPeriph_Driver/src/stm32f4xx_can.c ****                           if enabled, these interrupt sources are pending when 
1189:/home/jonas/warwick/3dProfilometer/xpcc/ext/stm32f4xx_lib/STM32F4xx_StdPeriph_Driver/src/stm32f4xx_can.c ****                           messages are pending in the receive FIFO.
1190:/home/jonas/warwick/3dProfilometer/xpcc/ext/stm32f4xx_lib/STM32F4xx_StdPeriph_Driver/src/stm32f4xx_can.c ****                           The corresponding interrupt pending bits are cleared 
1191:/home/jonas/warwick/3dProfilometer/xpcc/ext/stm32f4xx_lib/STM32F4xx_StdPeriph_Driver/src/stm32f4xx_can.c ****                           only by hardware.
1192:/home/jonas/warwick/3dProfilometer/xpcc/ext/stm32f4xx_lib/STM32F4xx_StdPeriph_Driver/src/stm32f4xx_can.c ****                 
1193:/home/jonas/warwick/3dProfilometer/xpcc/ext/stm32f4xx_lib/STM32F4xx_StdPeriph_Driver/src/stm32f4xx_can.c ****         CAN_IT_FF0,              
1194:/home/jonas/warwick/3dProfilometer/xpcc/ext/stm32f4xx_lib/STM32F4xx_StdPeriph_Driver/src/stm32f4xx_can.c ****         CAN_IT_FF1     :  FIFO 0 and FIFO1 full Interrupts
1195:/home/jonas/warwick/3dProfilometer/xpcc/ext/stm32f4xx_lib/STM32F4xx_StdPeriph_Driver/src/stm32f4xx_can.c ****                           if enabled, these interrupt sources are pending when
1196:/home/jonas/warwick/3dProfilometer/xpcc/ext/stm32f4xx_lib/STM32F4xx_StdPeriph_Driver/src/stm32f4xx_can.c ****                           three messages are stored in the selected FIFO.
1197:/home/jonas/warwick/3dProfilometer/xpcc/ext/stm32f4xx_lib/STM32F4xx_StdPeriph_Driver/src/stm32f4xx_can.c ****         
1198:/home/jonas/warwick/3dProfilometer/xpcc/ext/stm32f4xx_lib/STM32F4xx_StdPeriph_Driver/src/stm32f4xx_can.c ****         CAN_IT_FOV0,        
1199:/home/jonas/warwick/3dProfilometer/xpcc/ext/stm32f4xx_lib/STM32F4xx_StdPeriph_Driver/src/stm32f4xx_can.c ****         CAN_IT_FOV1    :  FIFO 0 and FIFO1 overrun Interrupts        
1200:/home/jonas/warwick/3dProfilometer/xpcc/ext/stm32f4xx_lib/STM32F4xx_StdPeriph_Driver/src/stm32f4xx_can.c ****                           if enabled, these interrupt sources are pending when
1201:/home/jonas/warwick/3dProfilometer/xpcc/ext/stm32f4xx_lib/STM32F4xx_StdPeriph_Driver/src/stm32f4xx_can.c ****                           a new message has been received and passed the filter
1202:/home/jonas/warwick/3dProfilometer/xpcc/ext/stm32f4xx_lib/STM32F4xx_StdPeriph_Driver/src/stm32f4xx_can.c ****                           while the FIFO was full.
1203:/home/jonas/warwick/3dProfilometer/xpcc/ext/stm32f4xx_lib/STM32F4xx_StdPeriph_Driver/src/stm32f4xx_can.c **** 
1204:/home/jonas/warwick/3dProfilometer/xpcc/ext/stm32f4xx_lib/STM32F4xx_StdPeriph_Driver/src/stm32f4xx_can.c ****    C. Operating Mode Interrupts
1205:/home/jonas/warwick/3dProfilometer/xpcc/ext/stm32f4xx_lib/STM32F4xx_StdPeriph_Driver/src/stm32f4xx_can.c ****   -------------------------------          
1206:/home/jonas/warwick/3dProfilometer/xpcc/ext/stm32f4xx_lib/STM32F4xx_StdPeriph_Driver/src/stm32f4xx_can.c ****         CAN_IT_WKU     :  Wake-up Interrupt
1207:/home/jonas/warwick/3dProfilometer/xpcc/ext/stm32f4xx_lib/STM32F4xx_StdPeriph_Driver/src/stm32f4xx_can.c ****                           if enabled, this interrupt source is pending when 
1208:/home/jonas/warwick/3dProfilometer/xpcc/ext/stm32f4xx_lib/STM32F4xx_StdPeriph_Driver/src/stm32f4xx_can.c ****                           a SOF bit has been detected while the CAN hardware was 
1209:/home/jonas/warwick/3dProfilometer/xpcc/ext/stm32f4xx_lib/STM32F4xx_StdPeriph_Driver/src/stm32f4xx_can.c ****                           in Sleep mode.
1210:/home/jonas/warwick/3dProfilometer/xpcc/ext/stm32f4xx_lib/STM32F4xx_StdPeriph_Driver/src/stm32f4xx_can.c ****                                   
1211:/home/jonas/warwick/3dProfilometer/xpcc/ext/stm32f4xx_lib/STM32F4xx_StdPeriph_Driver/src/stm32f4xx_can.c ****         CAN_IT_SLK     :  Sleep acknowledge Interrupt
1212:/home/jonas/warwick/3dProfilometer/xpcc/ext/stm32f4xx_lib/STM32F4xx_StdPeriph_Driver/src/stm32f4xx_can.c ****                           if enabled, this interrupt source is pending when 
1213:/home/jonas/warwick/3dProfilometer/xpcc/ext/stm32f4xx_lib/STM32F4xx_StdPeriph_Driver/src/stm32f4xx_can.c ****                           the CAN has entered Sleep Mode.       
1214:/home/jonas/warwick/3dProfilometer/xpcc/ext/stm32f4xx_lib/STM32F4xx_StdPeriph_Driver/src/stm32f4xx_can.c **** 
1215:/home/jonas/warwick/3dProfilometer/xpcc/ext/stm32f4xx_lib/STM32F4xx_StdPeriph_Driver/src/stm32f4xx_can.c ****    D. Error Interrupts 
1216:/home/jonas/warwick/3dProfilometer/xpcc/ext/stm32f4xx_lib/STM32F4xx_StdPeriph_Driver/src/stm32f4xx_can.c ****   -----------------------         
1217:/home/jonas/warwick/3dProfilometer/xpcc/ext/stm32f4xx_lib/STM32F4xx_StdPeriph_Driver/src/stm32f4xx_can.c ****         CAN_IT_EWG     :  Error warning Interrupt 
1218:/home/jonas/warwick/3dProfilometer/xpcc/ext/stm32f4xx_lib/STM32F4xx_StdPeriph_Driver/src/stm32f4xx_can.c ****                           if enabled, this interrupt source is pending when
1219:/home/jonas/warwick/3dProfilometer/xpcc/ext/stm32f4xx_lib/STM32F4xx_StdPeriph_Driver/src/stm32f4xx_can.c ****                           the warning limit has been reached (Receive Error 
1220:/home/jonas/warwick/3dProfilometer/xpcc/ext/stm32f4xx_lib/STM32F4xx_StdPeriph_Driver/src/stm32f4xx_can.c ****                           Counter or Transmit Error Counter=96). 
1221:/home/jonas/warwick/3dProfilometer/xpcc/ext/stm32f4xx_lib/STM32F4xx_StdPeriph_Driver/src/stm32f4xx_can.c ****                                
1222:/home/jonas/warwick/3dProfilometer/xpcc/ext/stm32f4xx_lib/STM32F4xx_StdPeriph_Driver/src/stm32f4xx_can.c ****         CAN_IT_EPV     :  Error passive Interrupt        
1223:/home/jonas/warwick/3dProfilometer/xpcc/ext/stm32f4xx_lib/STM32F4xx_StdPeriph_Driver/src/stm32f4xx_can.c ****                           if enabled, this interrupt source is pending when
1224:/home/jonas/warwick/3dProfilometer/xpcc/ext/stm32f4xx_lib/STM32F4xx_StdPeriph_Driver/src/stm32f4xx_can.c ****                           the Error Passive limit has been reached (Receive 
1225:/home/jonas/warwick/3dProfilometer/xpcc/ext/stm32f4xx_lib/STM32F4xx_StdPeriph_Driver/src/stm32f4xx_can.c ****                           Error Counter or Transmit Error Counter>127).
1226:/home/jonas/warwick/3dProfilometer/xpcc/ext/stm32f4xx_lib/STM32F4xx_StdPeriph_Driver/src/stm32f4xx_can.c ****                           
1227:/home/jonas/warwick/3dProfilometer/xpcc/ext/stm32f4xx_lib/STM32F4xx_StdPeriph_Driver/src/stm32f4xx_can.c ****         CAN_IT_BOF     :  Bus-off Interrupt
1228:/home/jonas/warwick/3dProfilometer/xpcc/ext/stm32f4xx_lib/STM32F4xx_StdPeriph_Driver/src/stm32f4xx_can.c ****                           if enabled, this interrupt source is pending when
1229:/home/jonas/warwick/3dProfilometer/xpcc/ext/stm32f4xx_lib/STM32F4xx_StdPeriph_Driver/src/stm32f4xx_can.c ****                           CAN enters the bus-off state. The bus-off state is 
1230:/home/jonas/warwick/3dProfilometer/xpcc/ext/stm32f4xx_lib/STM32F4xx_StdPeriph_Driver/src/stm32f4xx_can.c ****                           entered on TEC overflow, greater than 255.
1231:/home/jonas/warwick/3dProfilometer/xpcc/ext/stm32f4xx_lib/STM32F4xx_StdPeriph_Driver/src/stm32f4xx_can.c ****                           This Flag is cleared only by hardware.
1232:/home/jonas/warwick/3dProfilometer/xpcc/ext/stm32f4xx_lib/STM32F4xx_StdPeriph_Driver/src/stm32f4xx_can.c ****                                   
1233:/home/jonas/warwick/3dProfilometer/xpcc/ext/stm32f4xx_lib/STM32F4xx_StdPeriph_Driver/src/stm32f4xx_can.c ****         CAN_IT_LEC     :  Last error code Interrupt        
1234:/home/jonas/warwick/3dProfilometer/xpcc/ext/stm32f4xx_lib/STM32F4xx_StdPeriph_Driver/src/stm32f4xx_can.c ****                           if enabled, this interrupt source is pending  when
1235:/home/jonas/warwick/3dProfilometer/xpcc/ext/stm32f4xx_lib/STM32F4xx_StdPeriph_Driver/src/stm32f4xx_can.c ****                           a message has been transferred (reception or
1236:/home/jonas/warwick/3dProfilometer/xpcc/ext/stm32f4xx_lib/STM32F4xx_StdPeriph_Driver/src/stm32f4xx_can.c ****                           transmission) with error, and the error code is hold.
1237:/home/jonas/warwick/3dProfilometer/xpcc/ext/stm32f4xx_lib/STM32F4xx_StdPeriph_Driver/src/stm32f4xx_can.c ****                           
1238:/home/jonas/warwick/3dProfilometer/xpcc/ext/stm32f4xx_lib/STM32F4xx_StdPeriph_Driver/src/stm32f4xx_can.c ****         CAN_IT_ERR     :  Error Interrupt
1239:/home/jonas/warwick/3dProfilometer/xpcc/ext/stm32f4xx_lib/STM32F4xx_StdPeriph_Driver/src/stm32f4xx_can.c ****                           if enabled, this interrupt source is pending when 
1240:/home/jonas/warwick/3dProfilometer/xpcc/ext/stm32f4xx_lib/STM32F4xx_StdPeriph_Driver/src/stm32f4xx_can.c ****                           an error condition is pending.      
1241:/home/jonas/warwick/3dProfilometer/xpcc/ext/stm32f4xx_lib/STM32F4xx_StdPeriph_Driver/src/stm32f4xx_can.c ****                       
1242:/home/jonas/warwick/3dProfilometer/xpcc/ext/stm32f4xx_lib/STM32F4xx_StdPeriph_Driver/src/stm32f4xx_can.c **** 
1243:/home/jonas/warwick/3dProfilometer/xpcc/ext/stm32f4xx_lib/STM32F4xx_StdPeriph_Driver/src/stm32f4xx_can.c ****   Managing the CAN controller events :
1244:/home/jonas/warwick/3dProfilometer/xpcc/ext/stm32f4xx_lib/STM32F4xx_StdPeriph_Driver/src/stm32f4xx_can.c ****   ------------------------------------ 
1245:/home/jonas/warwick/3dProfilometer/xpcc/ext/stm32f4xx_lib/STM32F4xx_StdPeriph_Driver/src/stm32f4xx_can.c ****   The user should identify which mode will be used in his application to manage 
1246:/home/jonas/warwick/3dProfilometer/xpcc/ext/stm32f4xx_lib/STM32F4xx_StdPeriph_Driver/src/stm32f4xx_can.c ****   the CAN controller events: Polling mode or Interrupt mode.
1247:/home/jonas/warwick/3dProfilometer/xpcc/ext/stm32f4xx_lib/STM32F4xx_StdPeriph_Driver/src/stm32f4xx_can.c ****   
1248:/home/jonas/warwick/3dProfilometer/xpcc/ext/stm32f4xx_lib/STM32F4xx_StdPeriph_Driver/src/stm32f4xx_can.c ****   1.  In the Polling Mode it is advised to use the following functions:
1249:/home/jonas/warwick/3dProfilometer/xpcc/ext/stm32f4xx_lib/STM32F4xx_StdPeriph_Driver/src/stm32f4xx_can.c ****       - CAN_GetFlagStatus() : to check if flags events occur. 
1250:/home/jonas/warwick/3dProfilometer/xpcc/ext/stm32f4xx_lib/STM32F4xx_StdPeriph_Driver/src/stm32f4xx_can.c ****       - CAN_ClearFlag()     : to clear the flags events.
1251:/home/jonas/warwick/3dProfilometer/xpcc/ext/stm32f4xx_lib/STM32F4xx_StdPeriph_Driver/src/stm32f4xx_can.c ****   
1252:/home/jonas/warwick/3dProfilometer/xpcc/ext/stm32f4xx_lib/STM32F4xx_StdPeriph_Driver/src/stm32f4xx_can.c **** 
1253:/home/jonas/warwick/3dProfilometer/xpcc/ext/stm32f4xx_lib/STM32F4xx_StdPeriph_Driver/src/stm32f4xx_can.c ****   
1254:/home/jonas/warwick/3dProfilometer/xpcc/ext/stm32f4xx_lib/STM32F4xx_StdPeriph_Driver/src/stm32f4xx_can.c ****   2.  In the Interrupt Mode it is advised to use the following functions:
1255:/home/jonas/warwick/3dProfilometer/xpcc/ext/stm32f4xx_lib/STM32F4xx_StdPeriph_Driver/src/stm32f4xx_can.c ****       - CAN_ITConfig()       : to enable or disable the interrupt source.
1256:/home/jonas/warwick/3dProfilometer/xpcc/ext/stm32f4xx_lib/STM32F4xx_StdPeriph_Driver/src/stm32f4xx_can.c ****       - CAN_GetITStatus()    : to check if Interrupt occurs.
1257:/home/jonas/warwick/3dProfilometer/xpcc/ext/stm32f4xx_lib/STM32F4xx_StdPeriph_Driver/src/stm32f4xx_can.c ****       - CAN_ClearITPendingBit() : to clear the Interrupt pending Bit (corresponding Flag).
1258:/home/jonas/warwick/3dProfilometer/xpcc/ext/stm32f4xx_lib/STM32F4xx_StdPeriph_Driver/src/stm32f4xx_can.c ****       @note  This function has no impact on CAN_IT_FMP0 and CAN_IT_FMP1 Interrupts 
1259:/home/jonas/warwick/3dProfilometer/xpcc/ext/stm32f4xx_lib/STM32F4xx_StdPeriph_Driver/src/stm32f4xx_can.c ****              pending bits since there are cleared only by hardware. 
1260:/home/jonas/warwick/3dProfilometer/xpcc/ext/stm32f4xx_lib/STM32F4xx_StdPeriph_Driver/src/stm32f4xx_can.c ****   
1261:/home/jonas/warwick/3dProfilometer/xpcc/ext/stm32f4xx_lib/STM32F4xx_StdPeriph_Driver/src/stm32f4xx_can.c **** @endverbatim
1262:/home/jonas/warwick/3dProfilometer/xpcc/ext/stm32f4xx_lib/STM32F4xx_StdPeriph_Driver/src/stm32f4xx_can.c ****   * @{
1263:/home/jonas/warwick/3dProfilometer/xpcc/ext/stm32f4xx_lib/STM32F4xx_StdPeriph_Driver/src/stm32f4xx_can.c ****   */ 
1264:/home/jonas/warwick/3dProfilometer/xpcc/ext/stm32f4xx_lib/STM32F4xx_StdPeriph_Driver/src/stm32f4xx_can.c **** /**
1265:/home/jonas/warwick/3dProfilometer/xpcc/ext/stm32f4xx_lib/STM32F4xx_StdPeriph_Driver/src/stm32f4xx_can.c ****   * @brief  Enables or disables the specified CANx interrupts.
1266:/home/jonas/warwick/3dProfilometer/xpcc/ext/stm32f4xx_lib/STM32F4xx_StdPeriph_Driver/src/stm32f4xx_can.c ****   * @param  CANx: where x can be 1 or 2 to to select the CAN peripheral.
1267:/home/jonas/warwick/3dProfilometer/xpcc/ext/stm32f4xx_lib/STM32F4xx_StdPeriph_Driver/src/stm32f4xx_can.c ****   * @param  CAN_IT: specifies the CAN interrupt sources to be enabled or disabled.
1268:/home/jonas/warwick/3dProfilometer/xpcc/ext/stm32f4xx_lib/STM32F4xx_StdPeriph_Driver/src/stm32f4xx_can.c ****   *          This parameter can be: 
1269:/home/jonas/warwick/3dProfilometer/xpcc/ext/stm32f4xx_lib/STM32F4xx_StdPeriph_Driver/src/stm32f4xx_can.c ****   *            @arg CAN_IT_TME: Transmit mailbox empty Interrupt 
1270:/home/jonas/warwick/3dProfilometer/xpcc/ext/stm32f4xx_lib/STM32F4xx_StdPeriph_Driver/src/stm32f4xx_can.c ****   *            @arg CAN_IT_FMP0: FIFO 0 message pending Interrupt 
1271:/home/jonas/warwick/3dProfilometer/xpcc/ext/stm32f4xx_lib/STM32F4xx_StdPeriph_Driver/src/stm32f4xx_can.c ****   *            @arg CAN_IT_FF0: FIFO 0 full Interrupt
1272:/home/jonas/warwick/3dProfilometer/xpcc/ext/stm32f4xx_lib/STM32F4xx_StdPeriph_Driver/src/stm32f4xx_can.c ****   *            @arg CAN_IT_FOV0: FIFO 0 overrun Interrupt
1273:/home/jonas/warwick/3dProfilometer/xpcc/ext/stm32f4xx_lib/STM32F4xx_StdPeriph_Driver/src/stm32f4xx_can.c ****   *            @arg CAN_IT_FMP1: FIFO 1 message pending Interrupt 
1274:/home/jonas/warwick/3dProfilometer/xpcc/ext/stm32f4xx_lib/STM32F4xx_StdPeriph_Driver/src/stm32f4xx_can.c ****   *            @arg CAN_IT_FF1: FIFO 1 full Interrupt
1275:/home/jonas/warwick/3dProfilometer/xpcc/ext/stm32f4xx_lib/STM32F4xx_StdPeriph_Driver/src/stm32f4xx_can.c ****   *            @arg CAN_IT_FOV1: FIFO 1 overrun Interrupt
1276:/home/jonas/warwick/3dProfilometer/xpcc/ext/stm32f4xx_lib/STM32F4xx_StdPeriph_Driver/src/stm32f4xx_can.c ****   *            @arg CAN_IT_WKU: Wake-up Interrupt
1277:/home/jonas/warwick/3dProfilometer/xpcc/ext/stm32f4xx_lib/STM32F4xx_StdPeriph_Driver/src/stm32f4xx_can.c ****   *            @arg CAN_IT_SLK: Sleep acknowledge Interrupt  
1278:/home/jonas/warwick/3dProfilometer/xpcc/ext/stm32f4xx_lib/STM32F4xx_StdPeriph_Driver/src/stm32f4xx_can.c ****   *            @arg CAN_IT_EWG: Error warning Interrupt
1279:/home/jonas/warwick/3dProfilometer/xpcc/ext/stm32f4xx_lib/STM32F4xx_StdPeriph_Driver/src/stm32f4xx_can.c ****   *            @arg CAN_IT_EPV: Error passive Interrupt
1280:/home/jonas/warwick/3dProfilometer/xpcc/ext/stm32f4xx_lib/STM32F4xx_StdPeriph_Driver/src/stm32f4xx_can.c ****   *            @arg CAN_IT_BOF: Bus-off Interrupt  
1281:/home/jonas/warwick/3dProfilometer/xpcc/ext/stm32f4xx_lib/STM32F4xx_StdPeriph_Driver/src/stm32f4xx_can.c ****   *            @arg CAN_IT_LEC: Last error code Interrupt
1282:/home/jonas/warwick/3dProfilometer/xpcc/ext/stm32f4xx_lib/STM32F4xx_StdPeriph_Driver/src/stm32f4xx_can.c ****   *            @arg CAN_IT_ERR: Error Interrupt
1283:/home/jonas/warwick/3dProfilometer/xpcc/ext/stm32f4xx_lib/STM32F4xx_StdPeriph_Driver/src/stm32f4xx_can.c ****   * @param  NewState: new state of the CAN interrupts.
1284:/home/jonas/warwick/3dProfilometer/xpcc/ext/stm32f4xx_lib/STM32F4xx_StdPeriph_Driver/src/stm32f4xx_can.c ****   *          This parameter can be: ENABLE or DISABLE.
1285:/home/jonas/warwick/3dProfilometer/xpcc/ext/stm32f4xx_lib/STM32F4xx_StdPeriph_Driver/src/stm32f4xx_can.c ****   * @retval None
1286:/home/jonas/warwick/3dProfilometer/xpcc/ext/stm32f4xx_lib/STM32F4xx_StdPeriph_Driver/src/stm32f4xx_can.c ****   */
1287:/home/jonas/warwick/3dProfilometer/xpcc/ext/stm32f4xx_lib/STM32F4xx_StdPeriph_Driver/src/stm32f4xx_can.c **** void CAN_ITConfig(CAN_TypeDef* CANx, uint32_t CAN_IT, FunctionalState NewState)
1288:/home/jonas/warwick/3dProfilometer/xpcc/ext/stm32f4xx_lib/STM32F4xx_StdPeriph_Driver/src/stm32f4xx_can.c **** {
 1408              		.loc 1 1288 0
 1409              		.cfi_startproc
 1410              		@ args = 0, pretend = 0, frame = 0
 1411              		@ frame_needed = 0, uses_anonymous_args = 0
 1412              		@ link register save eliminated.
 1413              	.LVL104:
1289:/home/jonas/warwick/3dProfilometer/xpcc/ext/stm32f4xx_lib/STM32F4xx_StdPeriph_Driver/src/stm32f4xx_can.c ****   /* Check the parameters */
1290:/home/jonas/warwick/3dProfilometer/xpcc/ext/stm32f4xx_lib/STM32F4xx_StdPeriph_Driver/src/stm32f4xx_can.c ****   assert_param(IS_CAN_ALL_PERIPH(CANx));
1291:/home/jonas/warwick/3dProfilometer/xpcc/ext/stm32f4xx_lib/STM32F4xx_StdPeriph_Driver/src/stm32f4xx_can.c ****   assert_param(IS_CAN_IT(CAN_IT));
1292:/home/jonas/warwick/3dProfilometer/xpcc/ext/stm32f4xx_lib/STM32F4xx_StdPeriph_Driver/src/stm32f4xx_can.c ****   assert_param(IS_FUNCTIONAL_STATE(NewState));
1293:/home/jonas/warwick/3dProfilometer/xpcc/ext/stm32f4xx_lib/STM32F4xx_StdPeriph_Driver/src/stm32f4xx_can.c **** 
1294:/home/jonas/warwick/3dProfilometer/xpcc/ext/stm32f4xx_lib/STM32F4xx_StdPeriph_Driver/src/stm32f4xx_can.c ****   if (NewState != DISABLE)
1295:/home/jonas/warwick/3dProfilometer/xpcc/ext/stm32f4xx_lib/STM32F4xx_StdPeriph_Driver/src/stm32f4xx_can.c ****   {
1296:/home/jonas/warwick/3dProfilometer/xpcc/ext/stm32f4xx_lib/STM32F4xx_StdPeriph_Driver/src/stm32f4xx_can.c ****     /* Enable the selected CANx interrupt */
1297:/home/jonas/warwick/3dProfilometer/xpcc/ext/stm32f4xx_lib/STM32F4xx_StdPeriph_Driver/src/stm32f4xx_can.c ****     CANx->IER |= CAN_IT;
 1414              		.loc 1 1297 0
 1415 0000 4369     		ldr	r3, [r0, #20]
1294:/home/jonas/warwick/3dProfilometer/xpcc/ext/stm32f4xx_lib/STM32F4xx_StdPeriph_Driver/src/stm32f4xx_can.c ****   if (NewState != DISABLE)
 1416              		.loc 1 1294 0
 1417 0002 1AB9     		cbnz	r2, .L167
1298:/home/jonas/warwick/3dProfilometer/xpcc/ext/stm32f4xx_lib/STM32F4xx_StdPeriph_Driver/src/stm32f4xx_can.c ****   }
1299:/home/jonas/warwick/3dProfilometer/xpcc/ext/stm32f4xx_lib/STM32F4xx_StdPeriph_Driver/src/stm32f4xx_can.c ****   else
1300:/home/jonas/warwick/3dProfilometer/xpcc/ext/stm32f4xx_lib/STM32F4xx_StdPeriph_Driver/src/stm32f4xx_can.c ****   {
1301:/home/jonas/warwick/3dProfilometer/xpcc/ext/stm32f4xx_lib/STM32F4xx_StdPeriph_Driver/src/stm32f4xx_can.c ****     /* Disable the selected CANx interrupt */
1302:/home/jonas/warwick/3dProfilometer/xpcc/ext/stm32f4xx_lib/STM32F4xx_StdPeriph_Driver/src/stm32f4xx_can.c ****     CANx->IER &= ~CAN_IT;
 1418              		.loc 1 1302 0
 1419 0004 23EA0101 		bic	r1, r3, r1
 1420              	.LVL105:
 1421 0008 4161     		str	r1, [r0, #20]
 1422 000a 7047     		bx	lr
 1423              	.LVL106:
 1424              	.L167:
1297:/home/jonas/warwick/3dProfilometer/xpcc/ext/stm32f4xx_lib/STM32F4xx_StdPeriph_Driver/src/stm32f4xx_can.c ****     CANx->IER |= CAN_IT;
 1425              		.loc 1 1297 0
 1426 000c 1943     		orrs	r1, r1, r3
 1427              	.LVL107:
 1428 000e 4161     		str	r1, [r0, #20]
 1429 0010 7047     		bx	lr
 1430              		.cfi_endproc
 1431              	.LFE129:
 1433 0012 00BF     		.section	.text.CAN_GetFlagStatus,"ax",%progbits
 1434              		.align	2
 1435              		.global	CAN_GetFlagStatus
 1436              		.thumb
 1437              		.thumb_func
 1439              	CAN_GetFlagStatus:
 1440              	.LFB130:
1303:/home/jonas/warwick/3dProfilometer/xpcc/ext/stm32f4xx_lib/STM32F4xx_StdPeriph_Driver/src/stm32f4xx_can.c ****   }
1304:/home/jonas/warwick/3dProfilometer/xpcc/ext/stm32f4xx_lib/STM32F4xx_StdPeriph_Driver/src/stm32f4xx_can.c **** }
1305:/home/jonas/warwick/3dProfilometer/xpcc/ext/stm32f4xx_lib/STM32F4xx_StdPeriph_Driver/src/stm32f4xx_can.c **** /**
1306:/home/jonas/warwick/3dProfilometer/xpcc/ext/stm32f4xx_lib/STM32F4xx_StdPeriph_Driver/src/stm32f4xx_can.c ****   * @brief  Checks whether the specified CAN flag is set or not.
1307:/home/jonas/warwick/3dProfilometer/xpcc/ext/stm32f4xx_lib/STM32F4xx_StdPeriph_Driver/src/stm32f4xx_can.c ****   * @param  CANx: where x can be 1 or 2 to to select the CAN peripheral.
1308:/home/jonas/warwick/3dProfilometer/xpcc/ext/stm32f4xx_lib/STM32F4xx_StdPeriph_Driver/src/stm32f4xx_can.c ****   * @param  CAN_FLAG: specifies the flag to check.
1309:/home/jonas/warwick/3dProfilometer/xpcc/ext/stm32f4xx_lib/STM32F4xx_StdPeriph_Driver/src/stm32f4xx_can.c ****   *          This parameter can be one of the following values:
1310:/home/jonas/warwick/3dProfilometer/xpcc/ext/stm32f4xx_lib/STM32F4xx_StdPeriph_Driver/src/stm32f4xx_can.c ****   *            @arg CAN_FLAG_RQCP0: Request MailBox0 Flag
1311:/home/jonas/warwick/3dProfilometer/xpcc/ext/stm32f4xx_lib/STM32F4xx_StdPeriph_Driver/src/stm32f4xx_can.c ****   *            @arg CAN_FLAG_RQCP1: Request MailBox1 Flag
1312:/home/jonas/warwick/3dProfilometer/xpcc/ext/stm32f4xx_lib/STM32F4xx_StdPeriph_Driver/src/stm32f4xx_can.c ****   *            @arg CAN_FLAG_RQCP2: Request MailBox2 Flag
1313:/home/jonas/warwick/3dProfilometer/xpcc/ext/stm32f4xx_lib/STM32F4xx_StdPeriph_Driver/src/stm32f4xx_can.c ****   *            @arg CAN_FLAG_FMP0: FIFO 0 Message Pending Flag   
1314:/home/jonas/warwick/3dProfilometer/xpcc/ext/stm32f4xx_lib/STM32F4xx_StdPeriph_Driver/src/stm32f4xx_can.c ****   *            @arg CAN_FLAG_FF0: FIFO 0 Full Flag       
1315:/home/jonas/warwick/3dProfilometer/xpcc/ext/stm32f4xx_lib/STM32F4xx_StdPeriph_Driver/src/stm32f4xx_can.c ****   *            @arg CAN_FLAG_FOV0: FIFO 0 Overrun Flag 
1316:/home/jonas/warwick/3dProfilometer/xpcc/ext/stm32f4xx_lib/STM32F4xx_StdPeriph_Driver/src/stm32f4xx_can.c ****   *            @arg CAN_FLAG_FMP1: FIFO 1 Message Pending Flag   
1317:/home/jonas/warwick/3dProfilometer/xpcc/ext/stm32f4xx_lib/STM32F4xx_StdPeriph_Driver/src/stm32f4xx_can.c ****   *            @arg CAN_FLAG_FF1: FIFO 1 Full Flag        
1318:/home/jonas/warwick/3dProfilometer/xpcc/ext/stm32f4xx_lib/STM32F4xx_StdPeriph_Driver/src/stm32f4xx_can.c ****   *            @arg CAN_FLAG_FOV1: FIFO 1 Overrun Flag     
1319:/home/jonas/warwick/3dProfilometer/xpcc/ext/stm32f4xx_lib/STM32F4xx_StdPeriph_Driver/src/stm32f4xx_can.c ****   *            @arg CAN_FLAG_WKU: Wake up Flag
1320:/home/jonas/warwick/3dProfilometer/xpcc/ext/stm32f4xx_lib/STM32F4xx_StdPeriph_Driver/src/stm32f4xx_can.c ****   *            @arg CAN_FLAG_SLAK: Sleep acknowledge Flag 
1321:/home/jonas/warwick/3dProfilometer/xpcc/ext/stm32f4xx_lib/STM32F4xx_StdPeriph_Driver/src/stm32f4xx_can.c ****   *            @arg CAN_FLAG_EWG: Error Warning Flag
1322:/home/jonas/warwick/3dProfilometer/xpcc/ext/stm32f4xx_lib/STM32F4xx_StdPeriph_Driver/src/stm32f4xx_can.c ****   *            @arg CAN_FLAG_EPV: Error Passive Flag  
1323:/home/jonas/warwick/3dProfilometer/xpcc/ext/stm32f4xx_lib/STM32F4xx_StdPeriph_Driver/src/stm32f4xx_can.c ****   *            @arg CAN_FLAG_BOF: Bus-Off Flag    
1324:/home/jonas/warwick/3dProfilometer/xpcc/ext/stm32f4xx_lib/STM32F4xx_StdPeriph_Driver/src/stm32f4xx_can.c ****   *            @arg CAN_FLAG_LEC: Last error code Flag      
1325:/home/jonas/warwick/3dProfilometer/xpcc/ext/stm32f4xx_lib/STM32F4xx_StdPeriph_Driver/src/stm32f4xx_can.c ****   * @retval The new state of CAN_FLAG (SET or RESET).
1326:/home/jonas/warwick/3dProfilometer/xpcc/ext/stm32f4xx_lib/STM32F4xx_StdPeriph_Driver/src/stm32f4xx_can.c ****   */
1327:/home/jonas/warwick/3dProfilometer/xpcc/ext/stm32f4xx_lib/STM32F4xx_StdPeriph_Driver/src/stm32f4xx_can.c **** FlagStatus CAN_GetFlagStatus(CAN_TypeDef* CANx, uint32_t CAN_FLAG)
1328:/home/jonas/warwick/3dProfilometer/xpcc/ext/stm32f4xx_lib/STM32F4xx_StdPeriph_Driver/src/stm32f4xx_can.c **** {
 1441              		.loc 1 1328 0
 1442              		.cfi_startproc
 1443              		@ args = 0, pretend = 0, frame = 0
 1444              		@ frame_needed = 0, uses_anonymous_args = 0
 1445              		@ link register save eliminated.
 1446              	.LVL108:
1329:/home/jonas/warwick/3dProfilometer/xpcc/ext/stm32f4xx_lib/STM32F4xx_StdPeriph_Driver/src/stm32f4xx_can.c ****   FlagStatus bitstatus = RESET;
1330:/home/jonas/warwick/3dProfilometer/xpcc/ext/stm32f4xx_lib/STM32F4xx_StdPeriph_Driver/src/stm32f4xx_can.c ****   
1331:/home/jonas/warwick/3dProfilometer/xpcc/ext/stm32f4xx_lib/STM32F4xx_StdPeriph_Driver/src/stm32f4xx_can.c ****   /* Check the parameters */
1332:/home/jonas/warwick/3dProfilometer/xpcc/ext/stm32f4xx_lib/STM32F4xx_StdPeriph_Driver/src/stm32f4xx_can.c ****   assert_param(IS_CAN_ALL_PERIPH(CANx));
1333:/home/jonas/warwick/3dProfilometer/xpcc/ext/stm32f4xx_lib/STM32F4xx_StdPeriph_Driver/src/stm32f4xx_can.c ****   assert_param(IS_CAN_GET_FLAG(CAN_FLAG));
1334:/home/jonas/warwick/3dProfilometer/xpcc/ext/stm32f4xx_lib/STM32F4xx_StdPeriph_Driver/src/stm32f4xx_can.c ****   
1335:/home/jonas/warwick/3dProfilometer/xpcc/ext/stm32f4xx_lib/STM32F4xx_StdPeriph_Driver/src/stm32f4xx_can.c **** 
1336:/home/jonas/warwick/3dProfilometer/xpcc/ext/stm32f4xx_lib/STM32F4xx_StdPeriph_Driver/src/stm32f4xx_can.c ****   if((CAN_FLAG & CAN_FLAGS_ESR) != (uint32_t)RESET)
 1447              		.loc 1 1336 0
 1448 0000 11F4700F 		tst	r1, #15728640
 1449 0004 09D0     		beq	.L169
1337:/home/jonas/warwick/3dProfilometer/xpcc/ext/stm32f4xx_lib/STM32F4xx_StdPeriph_Driver/src/stm32f4xx_can.c ****   { 
1338:/home/jonas/warwick/3dProfilometer/xpcc/ext/stm32f4xx_lib/STM32F4xx_StdPeriph_Driver/src/stm32f4xx_can.c ****     /* Check the status of the specified CAN flag */
1339:/home/jonas/warwick/3dProfilometer/xpcc/ext/stm32f4xx_lib/STM32F4xx_StdPeriph_Driver/src/stm32f4xx_can.c ****     if ((CANx->ESR & (CAN_FLAG & 0x000FFFFF)) != (uint32_t)RESET)
 1450              		.loc 1 1339 0
 1451 0006 8369     		ldr	r3, [r0, #24]
 1452 0008 23F07F43 		bic	r3, r3, #-16777216
 1453 000c 23F47003 		bic	r3, r3, #15728640
 1454 0010 0B42     		tst	r3, r1
1340:/home/jonas/warwick/3dProfilometer/xpcc/ext/stm32f4xx_lib/STM32F4xx_StdPeriph_Driver/src/stm32f4xx_can.c ****     { 
1341:/home/jonas/warwick/3dProfilometer/xpcc/ext/stm32f4xx_lib/STM32F4xx_StdPeriph_Driver/src/stm32f4xx_can.c ****       /* CAN_FLAG is set */
1342:/home/jonas/warwick/3dProfilometer/xpcc/ext/stm32f4xx_lib/STM32F4xx_StdPeriph_Driver/src/stm32f4xx_can.c ****       bitstatus = SET;
1343:/home/jonas/warwick/3dProfilometer/xpcc/ext/stm32f4xx_lib/STM32F4xx_StdPeriph_Driver/src/stm32f4xx_can.c ****     }
1344:/home/jonas/warwick/3dProfilometer/xpcc/ext/stm32f4xx_lib/STM32F4xx_StdPeriph_Driver/src/stm32f4xx_can.c ****     else
1345:/home/jonas/warwick/3dProfilometer/xpcc/ext/stm32f4xx_lib/STM32F4xx_StdPeriph_Driver/src/stm32f4xx_can.c ****     { 
1346:/home/jonas/warwick/3dProfilometer/xpcc/ext/stm32f4xx_lib/STM32F4xx_StdPeriph_Driver/src/stm32f4xx_can.c ****       /* CAN_FLAG is reset */
1347:/home/jonas/warwick/3dProfilometer/xpcc/ext/stm32f4xx_lib/STM32F4xx_StdPeriph_Driver/src/stm32f4xx_can.c ****       bitstatus = RESET;
 1455              		.loc 1 1347 0
 1456 0012 0CBF     		ite	eq
 1457 0014 0020     		moveq	r0, #0
 1458 0016 0120     		movne	r0, #1
 1459              	.LVL109:
 1460 0018 7047     		bx	lr
 1461              	.LVL110:
 1462              	.L169:
1348:/home/jonas/warwick/3dProfilometer/xpcc/ext/stm32f4xx_lib/STM32F4xx_StdPeriph_Driver/src/stm32f4xx_can.c ****     }
1349:/home/jonas/warwick/3dProfilometer/xpcc/ext/stm32f4xx_lib/STM32F4xx_StdPeriph_Driver/src/stm32f4xx_can.c ****   }
1350:/home/jonas/warwick/3dProfilometer/xpcc/ext/stm32f4xx_lib/STM32F4xx_StdPeriph_Driver/src/stm32f4xx_can.c ****   else if((CAN_FLAG & CAN_FLAGS_MSR) != (uint32_t)RESET)
 1463              		.loc 1 1350 0
 1464 001a CB01     		lsls	r3, r1, #7
 1465 001c 09D5     		bpl	.L171
1351:/home/jonas/warwick/3dProfilometer/xpcc/ext/stm32f4xx_lib/STM32F4xx_StdPeriph_Driver/src/stm32f4xx_can.c ****   { 
1352:/home/jonas/warwick/3dProfilometer/xpcc/ext/stm32f4xx_lib/STM32F4xx_StdPeriph_Driver/src/stm32f4xx_can.c ****     /* Check the status of the specified CAN flag */
1353:/home/jonas/warwick/3dProfilometer/xpcc/ext/stm32f4xx_lib/STM32F4xx_StdPeriph_Driver/src/stm32f4xx_can.c ****     if ((CANx->MSR & (CAN_FLAG & 0x000FFFFF)) != (uint32_t)RESET)
 1466              		.loc 1 1353 0
 1467 001e 4368     		ldr	r3, [r0, #4]
 1468 0020 23F07F43 		bic	r3, r3, #-16777216
 1469 0024 23F47003 		bic	r3, r3, #15728640
 1470 0028 0B42     		tst	r3, r1
1347:/home/jonas/warwick/3dProfilometer/xpcc/ext/stm32f4xx_lib/STM32F4xx_StdPeriph_Driver/src/stm32f4xx_can.c ****       bitstatus = RESET;
 1471              		.loc 1 1347 0
 1472 002a 0CBF     		ite	eq
 1473 002c 0020     		moveq	r0, #0
 1474 002e 0120     		movne	r0, #1
 1475              	.LVL111:
 1476 0030 7047     		bx	lr
 1477              	.LVL112:
 1478              	.L171:
1354:/home/jonas/warwick/3dProfilometer/xpcc/ext/stm32f4xx_lib/STM32F4xx_StdPeriph_Driver/src/stm32f4xx_can.c ****     { 
1355:/home/jonas/warwick/3dProfilometer/xpcc/ext/stm32f4xx_lib/STM32F4xx_StdPeriph_Driver/src/stm32f4xx_can.c ****       /* CAN_FLAG is set */
1356:/home/jonas/warwick/3dProfilometer/xpcc/ext/stm32f4xx_lib/STM32F4xx_StdPeriph_Driver/src/stm32f4xx_can.c ****       bitstatus = SET;
1357:/home/jonas/warwick/3dProfilometer/xpcc/ext/stm32f4xx_lib/STM32F4xx_StdPeriph_Driver/src/stm32f4xx_can.c ****     }
1358:/home/jonas/warwick/3dProfilometer/xpcc/ext/stm32f4xx_lib/STM32F4xx_StdPeriph_Driver/src/stm32f4xx_can.c ****     else
1359:/home/jonas/warwick/3dProfilometer/xpcc/ext/stm32f4xx_lib/STM32F4xx_StdPeriph_Driver/src/stm32f4xx_can.c ****     { 
1360:/home/jonas/warwick/3dProfilometer/xpcc/ext/stm32f4xx_lib/STM32F4xx_StdPeriph_Driver/src/stm32f4xx_can.c ****       /* CAN_FLAG is reset */
1361:/home/jonas/warwick/3dProfilometer/xpcc/ext/stm32f4xx_lib/STM32F4xx_StdPeriph_Driver/src/stm32f4xx_can.c ****       bitstatus = RESET;
1362:/home/jonas/warwick/3dProfilometer/xpcc/ext/stm32f4xx_lib/STM32F4xx_StdPeriph_Driver/src/stm32f4xx_can.c ****     }
1363:/home/jonas/warwick/3dProfilometer/xpcc/ext/stm32f4xx_lib/STM32F4xx_StdPeriph_Driver/src/stm32f4xx_can.c ****   }
1364:/home/jonas/warwick/3dProfilometer/xpcc/ext/stm32f4xx_lib/STM32F4xx_StdPeriph_Driver/src/stm32f4xx_can.c ****   else if((CAN_FLAG & CAN_FLAGS_TSR) != (uint32_t)RESET)
 1479              		.loc 1 1364 0
 1480 0032 0A01     		lsls	r2, r1, #4
 1481 0034 09D5     		bpl	.L172
1365:/home/jonas/warwick/3dProfilometer/xpcc/ext/stm32f4xx_lib/STM32F4xx_StdPeriph_Driver/src/stm32f4xx_can.c ****   { 
1366:/home/jonas/warwick/3dProfilometer/xpcc/ext/stm32f4xx_lib/STM32F4xx_StdPeriph_Driver/src/stm32f4xx_can.c ****     /* Check the status of the specified CAN flag */
1367:/home/jonas/warwick/3dProfilometer/xpcc/ext/stm32f4xx_lib/STM32F4xx_StdPeriph_Driver/src/stm32f4xx_can.c ****     if ((CANx->TSR & (CAN_FLAG & 0x000FFFFF)) != (uint32_t)RESET)
 1482              		.loc 1 1367 0
 1483 0036 8368     		ldr	r3, [r0, #8]
 1484 0038 23F07F43 		bic	r3, r3, #-16777216
 1485 003c 23F47003 		bic	r3, r3, #15728640
 1486 0040 0B42     		tst	r3, r1
1347:/home/jonas/warwick/3dProfilometer/xpcc/ext/stm32f4xx_lib/STM32F4xx_StdPeriph_Driver/src/stm32f4xx_can.c ****       bitstatus = RESET;
 1487              		.loc 1 1347 0
 1488 0042 0CBF     		ite	eq
 1489 0044 0020     		moveq	r0, #0
 1490 0046 0120     		movne	r0, #1
 1491              	.LVL113:
 1492 0048 7047     		bx	lr
 1493              	.LVL114:
 1494              	.L172:
1368:/home/jonas/warwick/3dProfilometer/xpcc/ext/stm32f4xx_lib/STM32F4xx_StdPeriph_Driver/src/stm32f4xx_can.c ****     { 
1369:/home/jonas/warwick/3dProfilometer/xpcc/ext/stm32f4xx_lib/STM32F4xx_StdPeriph_Driver/src/stm32f4xx_can.c ****       /* CAN_FLAG is set */
1370:/home/jonas/warwick/3dProfilometer/xpcc/ext/stm32f4xx_lib/STM32F4xx_StdPeriph_Driver/src/stm32f4xx_can.c ****       bitstatus = SET;
1371:/home/jonas/warwick/3dProfilometer/xpcc/ext/stm32f4xx_lib/STM32F4xx_StdPeriph_Driver/src/stm32f4xx_can.c ****     }
1372:/home/jonas/warwick/3dProfilometer/xpcc/ext/stm32f4xx_lib/STM32F4xx_StdPeriph_Driver/src/stm32f4xx_can.c ****     else
1373:/home/jonas/warwick/3dProfilometer/xpcc/ext/stm32f4xx_lib/STM32F4xx_StdPeriph_Driver/src/stm32f4xx_can.c ****     { 
1374:/home/jonas/warwick/3dProfilometer/xpcc/ext/stm32f4xx_lib/STM32F4xx_StdPeriph_Driver/src/stm32f4xx_can.c ****       /* CAN_FLAG is reset */
1375:/home/jonas/warwick/3dProfilometer/xpcc/ext/stm32f4xx_lib/STM32F4xx_StdPeriph_Driver/src/stm32f4xx_can.c ****       bitstatus = RESET;
1376:/home/jonas/warwick/3dProfilometer/xpcc/ext/stm32f4xx_lib/STM32F4xx_StdPeriph_Driver/src/stm32f4xx_can.c ****     }
1377:/home/jonas/warwick/3dProfilometer/xpcc/ext/stm32f4xx_lib/STM32F4xx_StdPeriph_Driver/src/stm32f4xx_can.c ****   }
1378:/home/jonas/warwick/3dProfilometer/xpcc/ext/stm32f4xx_lib/STM32F4xx_StdPeriph_Driver/src/stm32f4xx_can.c ****   else if((CAN_FLAG & CAN_FLAGS_RF0R) != (uint32_t)RESET)
 1495              		.loc 1 1378 0
 1496 004a 8B01     		lsls	r3, r1, #6
1379:/home/jonas/warwick/3dProfilometer/xpcc/ext/stm32f4xx_lib/STM32F4xx_StdPeriph_Driver/src/stm32f4xx_can.c ****   { 
1380:/home/jonas/warwick/3dProfilometer/xpcc/ext/stm32f4xx_lib/STM32F4xx_StdPeriph_Driver/src/stm32f4xx_can.c ****     /* Check the status of the specified CAN flag */
1381:/home/jonas/warwick/3dProfilometer/xpcc/ext/stm32f4xx_lib/STM32F4xx_StdPeriph_Driver/src/stm32f4xx_can.c ****     if ((CANx->RF0R & (CAN_FLAG & 0x000FFFFF)) != (uint32_t)RESET)
 1497              		.loc 1 1381 0
 1498 004c 4CBF     		ite	mi
 1499 004e C368     		ldrmi	r3, [r0, #12]
1382:/home/jonas/warwick/3dProfilometer/xpcc/ext/stm32f4xx_lib/STM32F4xx_StdPeriph_Driver/src/stm32f4xx_can.c ****     { 
1383:/home/jonas/warwick/3dProfilometer/xpcc/ext/stm32f4xx_lib/STM32F4xx_StdPeriph_Driver/src/stm32f4xx_can.c ****       /* CAN_FLAG is set */
1384:/home/jonas/warwick/3dProfilometer/xpcc/ext/stm32f4xx_lib/STM32F4xx_StdPeriph_Driver/src/stm32f4xx_can.c ****       bitstatus = SET;
1385:/home/jonas/warwick/3dProfilometer/xpcc/ext/stm32f4xx_lib/STM32F4xx_StdPeriph_Driver/src/stm32f4xx_can.c ****     }
1386:/home/jonas/warwick/3dProfilometer/xpcc/ext/stm32f4xx_lib/STM32F4xx_StdPeriph_Driver/src/stm32f4xx_can.c ****     else
1387:/home/jonas/warwick/3dProfilometer/xpcc/ext/stm32f4xx_lib/STM32F4xx_StdPeriph_Driver/src/stm32f4xx_can.c ****     { 
1388:/home/jonas/warwick/3dProfilometer/xpcc/ext/stm32f4xx_lib/STM32F4xx_StdPeriph_Driver/src/stm32f4xx_can.c ****       /* CAN_FLAG is reset */
1389:/home/jonas/warwick/3dProfilometer/xpcc/ext/stm32f4xx_lib/STM32F4xx_StdPeriph_Driver/src/stm32f4xx_can.c ****       bitstatus = RESET;
1390:/home/jonas/warwick/3dProfilometer/xpcc/ext/stm32f4xx_lib/STM32F4xx_StdPeriph_Driver/src/stm32f4xx_can.c ****     }
1391:/home/jonas/warwick/3dProfilometer/xpcc/ext/stm32f4xx_lib/STM32F4xx_StdPeriph_Driver/src/stm32f4xx_can.c ****   }
1392:/home/jonas/warwick/3dProfilometer/xpcc/ext/stm32f4xx_lib/STM32F4xx_StdPeriph_Driver/src/stm32f4xx_can.c ****   else /* If(CAN_FLAG & CAN_FLAGS_RF1R != (uint32_t)RESET) */
1393:/home/jonas/warwick/3dProfilometer/xpcc/ext/stm32f4xx_lib/STM32F4xx_StdPeriph_Driver/src/stm32f4xx_can.c ****   { 
1394:/home/jonas/warwick/3dProfilometer/xpcc/ext/stm32f4xx_lib/STM32F4xx_StdPeriph_Driver/src/stm32f4xx_can.c ****     /* Check the status of the specified CAN flag */
1395:/home/jonas/warwick/3dProfilometer/xpcc/ext/stm32f4xx_lib/STM32F4xx_StdPeriph_Driver/src/stm32f4xx_can.c ****     if ((uint32_t)(CANx->RF1R & (CAN_FLAG & 0x000FFFFF)) != (uint32_t)RESET)
 1500              		.loc 1 1395 0
 1501 0050 0369     		ldrpl	r3, [r0, #16]
 1502 0052 23F07F43 		bic	r3, r3, #-16777216
 1503 0056 23F47003 		bic	r3, r3, #15728640
 1504 005a 0B42     		tst	r3, r1
1347:/home/jonas/warwick/3dProfilometer/xpcc/ext/stm32f4xx_lib/STM32F4xx_StdPeriph_Driver/src/stm32f4xx_can.c ****       bitstatus = RESET;
 1505              		.loc 1 1347 0
 1506 005c 0CBF     		ite	eq
 1507 005e 0020     		moveq	r0, #0
 1508 0060 0120     		movne	r0, #1
 1509              	.LVL115:
1396:/home/jonas/warwick/3dProfilometer/xpcc/ext/stm32f4xx_lib/STM32F4xx_StdPeriph_Driver/src/stm32f4xx_can.c ****     { 
1397:/home/jonas/warwick/3dProfilometer/xpcc/ext/stm32f4xx_lib/STM32F4xx_StdPeriph_Driver/src/stm32f4xx_can.c ****       /* CAN_FLAG is set */
1398:/home/jonas/warwick/3dProfilometer/xpcc/ext/stm32f4xx_lib/STM32F4xx_StdPeriph_Driver/src/stm32f4xx_can.c ****       bitstatus = SET;
1399:/home/jonas/warwick/3dProfilometer/xpcc/ext/stm32f4xx_lib/STM32F4xx_StdPeriph_Driver/src/stm32f4xx_can.c ****     }
1400:/home/jonas/warwick/3dProfilometer/xpcc/ext/stm32f4xx_lib/STM32F4xx_StdPeriph_Driver/src/stm32f4xx_can.c ****     else
1401:/home/jonas/warwick/3dProfilometer/xpcc/ext/stm32f4xx_lib/STM32F4xx_StdPeriph_Driver/src/stm32f4xx_can.c ****     { 
1402:/home/jonas/warwick/3dProfilometer/xpcc/ext/stm32f4xx_lib/STM32F4xx_StdPeriph_Driver/src/stm32f4xx_can.c ****       /* CAN_FLAG is reset */
1403:/home/jonas/warwick/3dProfilometer/xpcc/ext/stm32f4xx_lib/STM32F4xx_StdPeriph_Driver/src/stm32f4xx_can.c ****       bitstatus = RESET;
1404:/home/jonas/warwick/3dProfilometer/xpcc/ext/stm32f4xx_lib/STM32F4xx_StdPeriph_Driver/src/stm32f4xx_can.c ****     }
1405:/home/jonas/warwick/3dProfilometer/xpcc/ext/stm32f4xx_lib/STM32F4xx_StdPeriph_Driver/src/stm32f4xx_can.c ****   }
1406:/home/jonas/warwick/3dProfilometer/xpcc/ext/stm32f4xx_lib/STM32F4xx_StdPeriph_Driver/src/stm32f4xx_can.c ****   /* Return the CAN_FLAG status */
1407:/home/jonas/warwick/3dProfilometer/xpcc/ext/stm32f4xx_lib/STM32F4xx_StdPeriph_Driver/src/stm32f4xx_can.c ****   return  bitstatus;
1408:/home/jonas/warwick/3dProfilometer/xpcc/ext/stm32f4xx_lib/STM32F4xx_StdPeriph_Driver/src/stm32f4xx_can.c **** }
 1510              		.loc 1 1408 0
 1511 0062 7047     		bx	lr
 1512              		.cfi_endproc
 1513              	.LFE130:
 1515              		.section	.text.CAN_ClearFlag,"ax",%progbits
 1516              		.align	2
 1517              		.global	CAN_ClearFlag
 1518              		.thumb
 1519              		.thumb_func
 1521              	CAN_ClearFlag:
 1522              	.LFB131:
1409:/home/jonas/warwick/3dProfilometer/xpcc/ext/stm32f4xx_lib/STM32F4xx_StdPeriph_Driver/src/stm32f4xx_can.c **** 
1410:/home/jonas/warwick/3dProfilometer/xpcc/ext/stm32f4xx_lib/STM32F4xx_StdPeriph_Driver/src/stm32f4xx_can.c **** /**
1411:/home/jonas/warwick/3dProfilometer/xpcc/ext/stm32f4xx_lib/STM32F4xx_StdPeriph_Driver/src/stm32f4xx_can.c ****   * @brief  Clears the CAN's pending flags.
1412:/home/jonas/warwick/3dProfilometer/xpcc/ext/stm32f4xx_lib/STM32F4xx_StdPeriph_Driver/src/stm32f4xx_can.c ****   * @param  CANx: where x can be 1 or 2 to to select the CAN peripheral.
1413:/home/jonas/warwick/3dProfilometer/xpcc/ext/stm32f4xx_lib/STM32F4xx_StdPeriph_Driver/src/stm32f4xx_can.c ****   * @param  CAN_FLAG: specifies the flag to clear.
1414:/home/jonas/warwick/3dProfilometer/xpcc/ext/stm32f4xx_lib/STM32F4xx_StdPeriph_Driver/src/stm32f4xx_can.c ****   *          This parameter can be one of the following values:
1415:/home/jonas/warwick/3dProfilometer/xpcc/ext/stm32f4xx_lib/STM32F4xx_StdPeriph_Driver/src/stm32f4xx_can.c ****   *            @arg CAN_FLAG_RQCP0: Request MailBox0 Flag
1416:/home/jonas/warwick/3dProfilometer/xpcc/ext/stm32f4xx_lib/STM32F4xx_StdPeriph_Driver/src/stm32f4xx_can.c ****   *            @arg CAN_FLAG_RQCP1: Request MailBox1 Flag
1417:/home/jonas/warwick/3dProfilometer/xpcc/ext/stm32f4xx_lib/STM32F4xx_StdPeriph_Driver/src/stm32f4xx_can.c ****   *            @arg CAN_FLAG_RQCP2: Request MailBox2 Flag 
1418:/home/jonas/warwick/3dProfilometer/xpcc/ext/stm32f4xx_lib/STM32F4xx_StdPeriph_Driver/src/stm32f4xx_can.c ****   *            @arg CAN_FLAG_FF0: FIFO 0 Full Flag       
1419:/home/jonas/warwick/3dProfilometer/xpcc/ext/stm32f4xx_lib/STM32F4xx_StdPeriph_Driver/src/stm32f4xx_can.c ****   *            @arg CAN_FLAG_FOV0: FIFO 0 Overrun Flag  
1420:/home/jonas/warwick/3dProfilometer/xpcc/ext/stm32f4xx_lib/STM32F4xx_StdPeriph_Driver/src/stm32f4xx_can.c ****   *            @arg CAN_FLAG_FF1: FIFO 1 Full Flag        
1421:/home/jonas/warwick/3dProfilometer/xpcc/ext/stm32f4xx_lib/STM32F4xx_StdPeriph_Driver/src/stm32f4xx_can.c ****   *            @arg CAN_FLAG_FOV1: FIFO 1 Overrun Flag     
1422:/home/jonas/warwick/3dProfilometer/xpcc/ext/stm32f4xx_lib/STM32F4xx_StdPeriph_Driver/src/stm32f4xx_can.c ****   *            @arg CAN_FLAG_WKU: Wake up Flag
1423:/home/jonas/warwick/3dProfilometer/xpcc/ext/stm32f4xx_lib/STM32F4xx_StdPeriph_Driver/src/stm32f4xx_can.c ****   *            @arg CAN_FLAG_SLAK: Sleep acknowledge Flag    
1424:/home/jonas/warwick/3dProfilometer/xpcc/ext/stm32f4xx_lib/STM32F4xx_StdPeriph_Driver/src/stm32f4xx_can.c ****   *            @arg CAN_FLAG_LEC: Last error code Flag        
1425:/home/jonas/warwick/3dProfilometer/xpcc/ext/stm32f4xx_lib/STM32F4xx_StdPeriph_Driver/src/stm32f4xx_can.c ****   * @retval None
1426:/home/jonas/warwick/3dProfilometer/xpcc/ext/stm32f4xx_lib/STM32F4xx_StdPeriph_Driver/src/stm32f4xx_can.c ****   */
1427:/home/jonas/warwick/3dProfilometer/xpcc/ext/stm32f4xx_lib/STM32F4xx_StdPeriph_Driver/src/stm32f4xx_can.c **** void CAN_ClearFlag(CAN_TypeDef* CANx, uint32_t CAN_FLAG)
1428:/home/jonas/warwick/3dProfilometer/xpcc/ext/stm32f4xx_lib/STM32F4xx_StdPeriph_Driver/src/stm32f4xx_can.c **** {
 1523              		.loc 1 1428 0
 1524              		.cfi_startproc
 1525              		@ args = 0, pretend = 0, frame = 0
 1526              		@ frame_needed = 0, uses_anonymous_args = 0
 1527              		@ link register save eliminated.
 1528              	.LVL116:
1429:/home/jonas/warwick/3dProfilometer/xpcc/ext/stm32f4xx_lib/STM32F4xx_StdPeriph_Driver/src/stm32f4xx_can.c ****   uint32_t flagtmp=0;
1430:/home/jonas/warwick/3dProfilometer/xpcc/ext/stm32f4xx_lib/STM32F4xx_StdPeriph_Driver/src/stm32f4xx_can.c ****   /* Check the parameters */
1431:/home/jonas/warwick/3dProfilometer/xpcc/ext/stm32f4xx_lib/STM32F4xx_StdPeriph_Driver/src/stm32f4xx_can.c ****   assert_param(IS_CAN_ALL_PERIPH(CANx));
1432:/home/jonas/warwick/3dProfilometer/xpcc/ext/stm32f4xx_lib/STM32F4xx_StdPeriph_Driver/src/stm32f4xx_can.c ****   assert_param(IS_CAN_CLEAR_FLAG(CAN_FLAG));
1433:/home/jonas/warwick/3dProfilometer/xpcc/ext/stm32f4xx_lib/STM32F4xx_StdPeriph_Driver/src/stm32f4xx_can.c ****   
1434:/home/jonas/warwick/3dProfilometer/xpcc/ext/stm32f4xx_lib/STM32F4xx_StdPeriph_Driver/src/stm32f4xx_can.c ****   if (CAN_FLAG == CAN_FLAG_LEC) /* ESR register */
 1529              		.loc 1 1434 0
 1530 0000 0B4B     		ldr	r3, .L183
 1531 0002 9942     		cmp	r1, r3
 1532 0004 0ED0     		beq	.L180
1435:/home/jonas/warwick/3dProfilometer/xpcc/ext/stm32f4xx_lib/STM32F4xx_StdPeriph_Driver/src/stm32f4xx_can.c ****   {
1436:/home/jonas/warwick/3dProfilometer/xpcc/ext/stm32f4xx_lib/STM32F4xx_StdPeriph_Driver/src/stm32f4xx_can.c ****     /* Clear the selected CAN flags */
1437:/home/jonas/warwick/3dProfilometer/xpcc/ext/stm32f4xx_lib/STM32F4xx_StdPeriph_Driver/src/stm32f4xx_can.c ****     CANx->ESR = (uint32_t)RESET;
1438:/home/jonas/warwick/3dProfilometer/xpcc/ext/stm32f4xx_lib/STM32F4xx_StdPeriph_Driver/src/stm32f4xx_can.c ****   }
1439:/home/jonas/warwick/3dProfilometer/xpcc/ext/stm32f4xx_lib/STM32F4xx_StdPeriph_Driver/src/stm32f4xx_can.c ****   else /* MSR or TSR or RF0R or RF1R */
1440:/home/jonas/warwick/3dProfilometer/xpcc/ext/stm32f4xx_lib/STM32F4xx_StdPeriph_Driver/src/stm32f4xx_can.c ****   {
1441:/home/jonas/warwick/3dProfilometer/xpcc/ext/stm32f4xx_lib/STM32F4xx_StdPeriph_Driver/src/stm32f4xx_can.c ****     flagtmp = CAN_FLAG & 0x000FFFFF;
 1533              		.loc 1 1441 0
 1534 0006 21F07F43 		bic	r3, r1, #-16777216
1442:/home/jonas/warwick/3dProfilometer/xpcc/ext/stm32f4xx_lib/STM32F4xx_StdPeriph_Driver/src/stm32f4xx_can.c **** 
1443:/home/jonas/warwick/3dProfilometer/xpcc/ext/stm32f4xx_lib/STM32F4xx_StdPeriph_Driver/src/stm32f4xx_can.c ****     if ((CAN_FLAG & CAN_FLAGS_RF0R)!=(uint32_t)RESET)
 1535              		.loc 1 1443 0
 1536 000a 8A01     		lsls	r2, r1, #6
1441:/home/jonas/warwick/3dProfilometer/xpcc/ext/stm32f4xx_lib/STM32F4xx_StdPeriph_Driver/src/stm32f4xx_can.c ****     flagtmp = CAN_FLAG & 0x000FFFFF;
 1537              		.loc 1 1441 0
 1538 000c 23F47003 		bic	r3, r3, #15728640
 1539              	.LVL117:
 1540              		.loc 1 1443 0
 1541 0010 06D4     		bmi	.L181
1444:/home/jonas/warwick/3dProfilometer/xpcc/ext/stm32f4xx_lib/STM32F4xx_StdPeriph_Driver/src/stm32f4xx_can.c ****     {
1445:/home/jonas/warwick/3dProfilometer/xpcc/ext/stm32f4xx_lib/STM32F4xx_StdPeriph_Driver/src/stm32f4xx_can.c ****       /* Receive Flags */
1446:/home/jonas/warwick/3dProfilometer/xpcc/ext/stm32f4xx_lib/STM32F4xx_StdPeriph_Driver/src/stm32f4xx_can.c ****       CANx->RF0R = (uint32_t)(flagtmp);
1447:/home/jonas/warwick/3dProfilometer/xpcc/ext/stm32f4xx_lib/STM32F4xx_StdPeriph_Driver/src/stm32f4xx_can.c ****     }
1448:/home/jonas/warwick/3dProfilometer/xpcc/ext/stm32f4xx_lib/STM32F4xx_StdPeriph_Driver/src/stm32f4xx_can.c ****     else if ((CAN_FLAG & CAN_FLAGS_RF1R)!=(uint32_t)RESET)
 1542              		.loc 1 1448 0
 1543 0012 4A01     		lsls	r2, r1, #5
 1544 0014 09D4     		bmi	.L182
1449:/home/jonas/warwick/3dProfilometer/xpcc/ext/stm32f4xx_lib/STM32F4xx_StdPeriph_Driver/src/stm32f4xx_can.c ****     {
1450:/home/jonas/warwick/3dProfilometer/xpcc/ext/stm32f4xx_lib/STM32F4xx_StdPeriph_Driver/src/stm32f4xx_can.c ****       /* Receive Flags */
1451:/home/jonas/warwick/3dProfilometer/xpcc/ext/stm32f4xx_lib/STM32F4xx_StdPeriph_Driver/src/stm32f4xx_can.c ****       CANx->RF1R = (uint32_t)(flagtmp);
1452:/home/jonas/warwick/3dProfilometer/xpcc/ext/stm32f4xx_lib/STM32F4xx_StdPeriph_Driver/src/stm32f4xx_can.c ****     }
1453:/home/jonas/warwick/3dProfilometer/xpcc/ext/stm32f4xx_lib/STM32F4xx_StdPeriph_Driver/src/stm32f4xx_can.c ****     else if ((CAN_FLAG & CAN_FLAGS_TSR)!=(uint32_t)RESET)
 1545              		.loc 1 1453 0
 1546 0016 0A01     		lsls	r2, r1, #4
1454:/home/jonas/warwick/3dProfilometer/xpcc/ext/stm32f4xx_lib/STM32F4xx_StdPeriph_Driver/src/stm32f4xx_can.c ****     {
1455:/home/jonas/warwick/3dProfilometer/xpcc/ext/stm32f4xx_lib/STM32F4xx_StdPeriph_Driver/src/stm32f4xx_can.c ****       /* Transmit Flags */
1456:/home/jonas/warwick/3dProfilometer/xpcc/ext/stm32f4xx_lib/STM32F4xx_StdPeriph_Driver/src/stm32f4xx_can.c ****       CANx->TSR = (uint32_t)(flagtmp);
 1547              		.loc 1 1456 0
 1548 0018 4CBF     		ite	mi
 1549 001a 8360     		strmi	r3, [r0, #8]
1457:/home/jonas/warwick/3dProfilometer/xpcc/ext/stm32f4xx_lib/STM32F4xx_StdPeriph_Driver/src/stm32f4xx_can.c ****     }
1458:/home/jonas/warwick/3dProfilometer/xpcc/ext/stm32f4xx_lib/STM32F4xx_StdPeriph_Driver/src/stm32f4xx_can.c ****     else /* If((CAN_FLAG & CAN_FLAGS_MSR)!=(uint32_t)RESET) */
1459:/home/jonas/warwick/3dProfilometer/xpcc/ext/stm32f4xx_lib/STM32F4xx_StdPeriph_Driver/src/stm32f4xx_can.c ****     {
1460:/home/jonas/warwick/3dProfilometer/xpcc/ext/stm32f4xx_lib/STM32F4xx_StdPeriph_Driver/src/stm32f4xx_can.c ****       /* Operating mode Flags */
1461:/home/jonas/warwick/3dProfilometer/xpcc/ext/stm32f4xx_lib/STM32F4xx_StdPeriph_Driver/src/stm32f4xx_can.c ****       CANx->MSR = (uint32_t)(flagtmp);
 1550              		.loc 1 1461 0
 1551 001c 4360     		strpl	r3, [r0, #4]
 1552 001e 7047     		bx	lr
 1553              	.L181:
1446:/home/jonas/warwick/3dProfilometer/xpcc/ext/stm32f4xx_lib/STM32F4xx_StdPeriph_Driver/src/stm32f4xx_can.c ****       CANx->RF0R = (uint32_t)(flagtmp);
 1554              		.loc 1 1446 0
 1555 0020 C360     		str	r3, [r0, #12]
 1556 0022 7047     		bx	lr
 1557              	.LVL118:
 1558              	.L180:
1437:/home/jonas/warwick/3dProfilometer/xpcc/ext/stm32f4xx_lib/STM32F4xx_StdPeriph_Driver/src/stm32f4xx_can.c ****     CANx->ESR = (uint32_t)RESET;
 1559              		.loc 1 1437 0
 1560 0024 0023     		movs	r3, #0
 1561 0026 8361     		str	r3, [r0, #24]
 1562 0028 7047     		bx	lr
 1563              	.LVL119:
 1564              	.L182:
1451:/home/jonas/warwick/3dProfilometer/xpcc/ext/stm32f4xx_lib/STM32F4xx_StdPeriph_Driver/src/stm32f4xx_can.c ****       CANx->RF1R = (uint32_t)(flagtmp);
 1565              		.loc 1 1451 0
 1566 002a 0361     		str	r3, [r0, #16]
 1567 002c 7047     		bx	lr
 1568              	.L184:
 1569 002e 00BF     		.align	2
 1570              	.L183:
 1571 0030 7000F030 		.word	821035120
 1572              		.cfi_endproc
 1573              	.LFE131:
 1575              		.section	.text.CAN_GetITStatus,"ax",%progbits
 1576              		.align	2
 1577              		.global	CAN_GetITStatus
 1578              		.thumb
 1579              		.thumb_func
 1581              	CAN_GetITStatus:
 1582              	.LFB132:
1462:/home/jonas/warwick/3dProfilometer/xpcc/ext/stm32f4xx_lib/STM32F4xx_StdPeriph_Driver/src/stm32f4xx_can.c ****     }
1463:/home/jonas/warwick/3dProfilometer/xpcc/ext/stm32f4xx_lib/STM32F4xx_StdPeriph_Driver/src/stm32f4xx_can.c ****   }
1464:/home/jonas/warwick/3dProfilometer/xpcc/ext/stm32f4xx_lib/STM32F4xx_StdPeriph_Driver/src/stm32f4xx_can.c **** }
1465:/home/jonas/warwick/3dProfilometer/xpcc/ext/stm32f4xx_lib/STM32F4xx_StdPeriph_Driver/src/stm32f4xx_can.c **** 
1466:/home/jonas/warwick/3dProfilometer/xpcc/ext/stm32f4xx_lib/STM32F4xx_StdPeriph_Driver/src/stm32f4xx_can.c **** /**
1467:/home/jonas/warwick/3dProfilometer/xpcc/ext/stm32f4xx_lib/STM32F4xx_StdPeriph_Driver/src/stm32f4xx_can.c ****   * @brief  Checks whether the specified CANx interrupt has occurred or not.
1468:/home/jonas/warwick/3dProfilometer/xpcc/ext/stm32f4xx_lib/STM32F4xx_StdPeriph_Driver/src/stm32f4xx_can.c ****   * @param  CANx: where x can be 1 or 2 to to select the CAN peripheral.
1469:/home/jonas/warwick/3dProfilometer/xpcc/ext/stm32f4xx_lib/STM32F4xx_StdPeriph_Driver/src/stm32f4xx_can.c ****   * @param  CAN_IT: specifies the CAN interrupt source to check.
1470:/home/jonas/warwick/3dProfilometer/xpcc/ext/stm32f4xx_lib/STM32F4xx_StdPeriph_Driver/src/stm32f4xx_can.c ****   *          This parameter can be one of the following values:
1471:/home/jonas/warwick/3dProfilometer/xpcc/ext/stm32f4xx_lib/STM32F4xx_StdPeriph_Driver/src/stm32f4xx_can.c ****   *            @arg CAN_IT_TME: Transmit mailbox empty Interrupt 
1472:/home/jonas/warwick/3dProfilometer/xpcc/ext/stm32f4xx_lib/STM32F4xx_StdPeriph_Driver/src/stm32f4xx_can.c ****   *            @arg CAN_IT_FMP0: FIFO 0 message pending Interrupt 
1473:/home/jonas/warwick/3dProfilometer/xpcc/ext/stm32f4xx_lib/STM32F4xx_StdPeriph_Driver/src/stm32f4xx_can.c ****   *            @arg CAN_IT_FF0: FIFO 0 full Interrupt
1474:/home/jonas/warwick/3dProfilometer/xpcc/ext/stm32f4xx_lib/STM32F4xx_StdPeriph_Driver/src/stm32f4xx_can.c ****   *            @arg CAN_IT_FOV0: FIFO 0 overrun Interrupt
1475:/home/jonas/warwick/3dProfilometer/xpcc/ext/stm32f4xx_lib/STM32F4xx_StdPeriph_Driver/src/stm32f4xx_can.c ****   *            @arg CAN_IT_FMP1: FIFO 1 message pending Interrupt 
1476:/home/jonas/warwick/3dProfilometer/xpcc/ext/stm32f4xx_lib/STM32F4xx_StdPeriph_Driver/src/stm32f4xx_can.c ****   *            @arg CAN_IT_FF1: FIFO 1 full Interrupt
1477:/home/jonas/warwick/3dProfilometer/xpcc/ext/stm32f4xx_lib/STM32F4xx_StdPeriph_Driver/src/stm32f4xx_can.c ****   *            @arg CAN_IT_FOV1: FIFO 1 overrun Interrupt
1478:/home/jonas/warwick/3dProfilometer/xpcc/ext/stm32f4xx_lib/STM32F4xx_StdPeriph_Driver/src/stm32f4xx_can.c ****   *            @arg CAN_IT_WKU: Wake-up Interrupt
1479:/home/jonas/warwick/3dProfilometer/xpcc/ext/stm32f4xx_lib/STM32F4xx_StdPeriph_Driver/src/stm32f4xx_can.c ****   *            @arg CAN_IT_SLK: Sleep acknowledge Interrupt  
1480:/home/jonas/warwick/3dProfilometer/xpcc/ext/stm32f4xx_lib/STM32F4xx_StdPeriph_Driver/src/stm32f4xx_can.c ****   *            @arg CAN_IT_EWG: Error warning Interrupt
1481:/home/jonas/warwick/3dProfilometer/xpcc/ext/stm32f4xx_lib/STM32F4xx_StdPeriph_Driver/src/stm32f4xx_can.c ****   *            @arg CAN_IT_EPV: Error passive Interrupt
1482:/home/jonas/warwick/3dProfilometer/xpcc/ext/stm32f4xx_lib/STM32F4xx_StdPeriph_Driver/src/stm32f4xx_can.c ****   *            @arg CAN_IT_BOF: Bus-off Interrupt  
1483:/home/jonas/warwick/3dProfilometer/xpcc/ext/stm32f4xx_lib/STM32F4xx_StdPeriph_Driver/src/stm32f4xx_can.c ****   *            @arg CAN_IT_LEC: Last error code Interrupt
1484:/home/jonas/warwick/3dProfilometer/xpcc/ext/stm32f4xx_lib/STM32F4xx_StdPeriph_Driver/src/stm32f4xx_can.c ****   *            @arg CAN_IT_ERR: Error Interrupt
1485:/home/jonas/warwick/3dProfilometer/xpcc/ext/stm32f4xx_lib/STM32F4xx_StdPeriph_Driver/src/stm32f4xx_can.c ****   * @retval The current state of CAN_IT (SET or RESET).
1486:/home/jonas/warwick/3dProfilometer/xpcc/ext/stm32f4xx_lib/STM32F4xx_StdPeriph_Driver/src/stm32f4xx_can.c ****   */
1487:/home/jonas/warwick/3dProfilometer/xpcc/ext/stm32f4xx_lib/STM32F4xx_StdPeriph_Driver/src/stm32f4xx_can.c **** ITStatus CAN_GetITStatus(CAN_TypeDef* CANx, uint32_t CAN_IT)
1488:/home/jonas/warwick/3dProfilometer/xpcc/ext/stm32f4xx_lib/STM32F4xx_StdPeriph_Driver/src/stm32f4xx_can.c **** {
 1583              		.loc 1 1488 0
 1584              		.cfi_startproc
 1585              		@ args = 0, pretend = 0, frame = 0
 1586              		@ frame_needed = 0, uses_anonymous_args = 0
 1587              		@ link register save eliminated.
 1588              	.LVL120:
1489:/home/jonas/warwick/3dProfilometer/xpcc/ext/stm32f4xx_lib/STM32F4xx_StdPeriph_Driver/src/stm32f4xx_can.c ****   ITStatus itstatus = RESET;
1490:/home/jonas/warwick/3dProfilometer/xpcc/ext/stm32f4xx_lib/STM32F4xx_StdPeriph_Driver/src/stm32f4xx_can.c ****   /* Check the parameters */
1491:/home/jonas/warwick/3dProfilometer/xpcc/ext/stm32f4xx_lib/STM32F4xx_StdPeriph_Driver/src/stm32f4xx_can.c ****   assert_param(IS_CAN_ALL_PERIPH(CANx));
1492:/home/jonas/warwick/3dProfilometer/xpcc/ext/stm32f4xx_lib/STM32F4xx_StdPeriph_Driver/src/stm32f4xx_can.c ****   assert_param(IS_CAN_IT(CAN_IT));
1493:/home/jonas/warwick/3dProfilometer/xpcc/ext/stm32f4xx_lib/STM32F4xx_StdPeriph_Driver/src/stm32f4xx_can.c ****   
1494:/home/jonas/warwick/3dProfilometer/xpcc/ext/stm32f4xx_lib/STM32F4xx_StdPeriph_Driver/src/stm32f4xx_can.c ****   /* check the interrupt enable bit */
1495:/home/jonas/warwick/3dProfilometer/xpcc/ext/stm32f4xx_lib/STM32F4xx_StdPeriph_Driver/src/stm32f4xx_can.c ****  if((CANx->IER & CAN_IT) != RESET)
 1589              		.loc 1 1495 0
 1590 0000 4369     		ldr	r3, [r0, #20]
 1591 0002 0B40     		ands	r3, r1, r3
 1592 0004 0BD0     		beq	.L204
1496:/home/jonas/warwick/3dProfilometer/xpcc/ext/stm32f4xx_lib/STM32F4xx_StdPeriph_Driver/src/stm32f4xx_can.c ****  {
1497:/home/jonas/warwick/3dProfilometer/xpcc/ext/stm32f4xx_lib/STM32F4xx_StdPeriph_Driver/src/stm32f4xx_can.c ****    /* in case the Interrupt is enabled, .... */
1498:/home/jonas/warwick/3dProfilometer/xpcc/ext/stm32f4xx_lib/STM32F4xx_StdPeriph_Driver/src/stm32f4xx_can.c ****     switch (CAN_IT)
 1593              		.loc 1 1498 0
 1594 0006 4029     		cmp	r1, #64
 1595 0008 33D0     		beq	.L193
 1596 000a 0AD8     		bhi	.L201
 1597 000c 0429     		cmp	r1, #4
 1598 000e 3BD0     		beq	.L189
 1599 0010 25D8     		bhi	.L202
 1600 0012 0129     		cmp	r1, #1
 1601 0014 4ED0     		beq	.L187
 1602 0016 0229     		cmp	r1, #2
 1603 0018 42D0     		beq	.L206
 1604              	.L205:
1499:/home/jonas/warwick/3dProfilometer/xpcc/ext/stm32f4xx_lib/STM32F4xx_StdPeriph_Driver/src/stm32f4xx_can.c ****     {
1500:/home/jonas/warwick/3dProfilometer/xpcc/ext/stm32f4xx_lib/STM32F4xx_StdPeriph_Driver/src/stm32f4xx_can.c ****       case CAN_IT_TME:
1501:/home/jonas/warwick/3dProfilometer/xpcc/ext/stm32f4xx_lib/STM32F4xx_StdPeriph_Driver/src/stm32f4xx_can.c ****         /* Check CAN_TSR_RQCPx bits */
1502:/home/jonas/warwick/3dProfilometer/xpcc/ext/stm32f4xx_lib/STM32F4xx_StdPeriph_Driver/src/stm32f4xx_can.c ****         itstatus = CheckITStatus(CANx->TSR, CAN_TSR_RQCP0|CAN_TSR_RQCP1|CAN_TSR_RQCP2);  
1503:/home/jonas/warwick/3dProfilometer/xpcc/ext/stm32f4xx_lib/STM32F4xx_StdPeriph_Driver/src/stm32f4xx_can.c ****         break;
1504:/home/jonas/warwick/3dProfilometer/xpcc/ext/stm32f4xx_lib/STM32F4xx_StdPeriph_Driver/src/stm32f4xx_can.c ****       case CAN_IT_FMP0:
1505:/home/jonas/warwick/3dProfilometer/xpcc/ext/stm32f4xx_lib/STM32F4xx_StdPeriph_Driver/src/stm32f4xx_can.c ****         /* Check CAN_RF0R_FMP0 bit */
1506:/home/jonas/warwick/3dProfilometer/xpcc/ext/stm32f4xx_lib/STM32F4xx_StdPeriph_Driver/src/stm32f4xx_can.c ****         itstatus = CheckITStatus(CANx->RF0R, CAN_RF0R_FMP0);  
1507:/home/jonas/warwick/3dProfilometer/xpcc/ext/stm32f4xx_lib/STM32F4xx_StdPeriph_Driver/src/stm32f4xx_can.c ****         break;
1508:/home/jonas/warwick/3dProfilometer/xpcc/ext/stm32f4xx_lib/STM32F4xx_StdPeriph_Driver/src/stm32f4xx_can.c ****       case CAN_IT_FF0:
1509:/home/jonas/warwick/3dProfilometer/xpcc/ext/stm32f4xx_lib/STM32F4xx_StdPeriph_Driver/src/stm32f4xx_can.c ****         /* Check CAN_RF0R_FULL0 bit */
1510:/home/jonas/warwick/3dProfilometer/xpcc/ext/stm32f4xx_lib/STM32F4xx_StdPeriph_Driver/src/stm32f4xx_can.c ****         itstatus = CheckITStatus(CANx->RF0R, CAN_RF0R_FULL0);  
1511:/home/jonas/warwick/3dProfilometer/xpcc/ext/stm32f4xx_lib/STM32F4xx_StdPeriph_Driver/src/stm32f4xx_can.c ****         break;
1512:/home/jonas/warwick/3dProfilometer/xpcc/ext/stm32f4xx_lib/STM32F4xx_StdPeriph_Driver/src/stm32f4xx_can.c ****       case CAN_IT_FOV0:
1513:/home/jonas/warwick/3dProfilometer/xpcc/ext/stm32f4xx_lib/STM32F4xx_StdPeriph_Driver/src/stm32f4xx_can.c ****         /* Check CAN_RF0R_FOVR0 bit */
1514:/home/jonas/warwick/3dProfilometer/xpcc/ext/stm32f4xx_lib/STM32F4xx_StdPeriph_Driver/src/stm32f4xx_can.c ****         itstatus = CheckITStatus(CANx->RF0R, CAN_RF0R_FOVR0);  
1515:/home/jonas/warwick/3dProfilometer/xpcc/ext/stm32f4xx_lib/STM32F4xx_StdPeriph_Driver/src/stm32f4xx_can.c ****         break;
1516:/home/jonas/warwick/3dProfilometer/xpcc/ext/stm32f4xx_lib/STM32F4xx_StdPeriph_Driver/src/stm32f4xx_can.c ****       case CAN_IT_FMP1:
1517:/home/jonas/warwick/3dProfilometer/xpcc/ext/stm32f4xx_lib/STM32F4xx_StdPeriph_Driver/src/stm32f4xx_can.c ****         /* Check CAN_RF1R_FMP1 bit */
1518:/home/jonas/warwick/3dProfilometer/xpcc/ext/stm32f4xx_lib/STM32F4xx_StdPeriph_Driver/src/stm32f4xx_can.c ****         itstatus = CheckITStatus(CANx->RF1R, CAN_RF1R_FMP1);  
1519:/home/jonas/warwick/3dProfilometer/xpcc/ext/stm32f4xx_lib/STM32F4xx_StdPeriph_Driver/src/stm32f4xx_can.c ****         break;
1520:/home/jonas/warwick/3dProfilometer/xpcc/ext/stm32f4xx_lib/STM32F4xx_StdPeriph_Driver/src/stm32f4xx_can.c ****       case CAN_IT_FF1:
1521:/home/jonas/warwick/3dProfilometer/xpcc/ext/stm32f4xx_lib/STM32F4xx_StdPeriph_Driver/src/stm32f4xx_can.c ****         /* Check CAN_RF1R_FULL1 bit */
1522:/home/jonas/warwick/3dProfilometer/xpcc/ext/stm32f4xx_lib/STM32F4xx_StdPeriph_Driver/src/stm32f4xx_can.c ****         itstatus = CheckITStatus(CANx->RF1R, CAN_RF1R_FULL1);  
1523:/home/jonas/warwick/3dProfilometer/xpcc/ext/stm32f4xx_lib/STM32F4xx_StdPeriph_Driver/src/stm32f4xx_can.c ****         break;
1524:/home/jonas/warwick/3dProfilometer/xpcc/ext/stm32f4xx_lib/STM32F4xx_StdPeriph_Driver/src/stm32f4xx_can.c ****       case CAN_IT_FOV1:
1525:/home/jonas/warwick/3dProfilometer/xpcc/ext/stm32f4xx_lib/STM32F4xx_StdPeriph_Driver/src/stm32f4xx_can.c ****         /* Check CAN_RF1R_FOVR1 bit */
1526:/home/jonas/warwick/3dProfilometer/xpcc/ext/stm32f4xx_lib/STM32F4xx_StdPeriph_Driver/src/stm32f4xx_can.c ****         itstatus = CheckITStatus(CANx->RF1R, CAN_RF1R_FOVR1);  
1527:/home/jonas/warwick/3dProfilometer/xpcc/ext/stm32f4xx_lib/STM32F4xx_StdPeriph_Driver/src/stm32f4xx_can.c ****         break;
1528:/home/jonas/warwick/3dProfilometer/xpcc/ext/stm32f4xx_lib/STM32F4xx_StdPeriph_Driver/src/stm32f4xx_can.c ****       case CAN_IT_WKU:
1529:/home/jonas/warwick/3dProfilometer/xpcc/ext/stm32f4xx_lib/STM32F4xx_StdPeriph_Driver/src/stm32f4xx_can.c ****         /* Check CAN_MSR_WKUI bit */
1530:/home/jonas/warwick/3dProfilometer/xpcc/ext/stm32f4xx_lib/STM32F4xx_StdPeriph_Driver/src/stm32f4xx_can.c ****         itstatus = CheckITStatus(CANx->MSR, CAN_MSR_WKUI);  
1531:/home/jonas/warwick/3dProfilometer/xpcc/ext/stm32f4xx_lib/STM32F4xx_StdPeriph_Driver/src/stm32f4xx_can.c ****         break;
1532:/home/jonas/warwick/3dProfilometer/xpcc/ext/stm32f4xx_lib/STM32F4xx_StdPeriph_Driver/src/stm32f4xx_can.c ****       case CAN_IT_SLK:
1533:/home/jonas/warwick/3dProfilometer/xpcc/ext/stm32f4xx_lib/STM32F4xx_StdPeriph_Driver/src/stm32f4xx_can.c ****         /* Check CAN_MSR_SLAKI bit */
1534:/home/jonas/warwick/3dProfilometer/xpcc/ext/stm32f4xx_lib/STM32F4xx_StdPeriph_Driver/src/stm32f4xx_can.c ****         itstatus = CheckITStatus(CANx->MSR, CAN_MSR_SLAKI);  
1535:/home/jonas/warwick/3dProfilometer/xpcc/ext/stm32f4xx_lib/STM32F4xx_StdPeriph_Driver/src/stm32f4xx_can.c ****         break;
1536:/home/jonas/warwick/3dProfilometer/xpcc/ext/stm32f4xx_lib/STM32F4xx_StdPeriph_Driver/src/stm32f4xx_can.c ****       case CAN_IT_EWG:
1537:/home/jonas/warwick/3dProfilometer/xpcc/ext/stm32f4xx_lib/STM32F4xx_StdPeriph_Driver/src/stm32f4xx_can.c ****         /* Check CAN_ESR_EWGF bit */
1538:/home/jonas/warwick/3dProfilometer/xpcc/ext/stm32f4xx_lib/STM32F4xx_StdPeriph_Driver/src/stm32f4xx_can.c ****         itstatus = CheckITStatus(CANx->ESR, CAN_ESR_EWGF);  
1539:/home/jonas/warwick/3dProfilometer/xpcc/ext/stm32f4xx_lib/STM32F4xx_StdPeriph_Driver/src/stm32f4xx_can.c ****         break;
1540:/home/jonas/warwick/3dProfilometer/xpcc/ext/stm32f4xx_lib/STM32F4xx_StdPeriph_Driver/src/stm32f4xx_can.c ****       case CAN_IT_EPV:
1541:/home/jonas/warwick/3dProfilometer/xpcc/ext/stm32f4xx_lib/STM32F4xx_StdPeriph_Driver/src/stm32f4xx_can.c ****         /* Check CAN_ESR_EPVF bit */
1542:/home/jonas/warwick/3dProfilometer/xpcc/ext/stm32f4xx_lib/STM32F4xx_StdPeriph_Driver/src/stm32f4xx_can.c ****         itstatus = CheckITStatus(CANx->ESR, CAN_ESR_EPVF);  
1543:/home/jonas/warwick/3dProfilometer/xpcc/ext/stm32f4xx_lib/STM32F4xx_StdPeriph_Driver/src/stm32f4xx_can.c ****         break;
1544:/home/jonas/warwick/3dProfilometer/xpcc/ext/stm32f4xx_lib/STM32F4xx_StdPeriph_Driver/src/stm32f4xx_can.c ****       case CAN_IT_BOF:
1545:/home/jonas/warwick/3dProfilometer/xpcc/ext/stm32f4xx_lib/STM32F4xx_StdPeriph_Driver/src/stm32f4xx_can.c ****         /* Check CAN_ESR_BOFF bit */
1546:/home/jonas/warwick/3dProfilometer/xpcc/ext/stm32f4xx_lib/STM32F4xx_StdPeriph_Driver/src/stm32f4xx_can.c ****         itstatus = CheckITStatus(CANx->ESR, CAN_ESR_BOFF);  
1547:/home/jonas/warwick/3dProfilometer/xpcc/ext/stm32f4xx_lib/STM32F4xx_StdPeriph_Driver/src/stm32f4xx_can.c ****         break;
1548:/home/jonas/warwick/3dProfilometer/xpcc/ext/stm32f4xx_lib/STM32F4xx_StdPeriph_Driver/src/stm32f4xx_can.c ****       case CAN_IT_LEC:
1549:/home/jonas/warwick/3dProfilometer/xpcc/ext/stm32f4xx_lib/STM32F4xx_StdPeriph_Driver/src/stm32f4xx_can.c ****         /* Check CAN_ESR_LEC bit */
1550:/home/jonas/warwick/3dProfilometer/xpcc/ext/stm32f4xx_lib/STM32F4xx_StdPeriph_Driver/src/stm32f4xx_can.c ****         itstatus = CheckITStatus(CANx->ESR, CAN_ESR_LEC);  
1551:/home/jonas/warwick/3dProfilometer/xpcc/ext/stm32f4xx_lib/STM32F4xx_StdPeriph_Driver/src/stm32f4xx_can.c ****         break;
1552:/home/jonas/warwick/3dProfilometer/xpcc/ext/stm32f4xx_lib/STM32F4xx_StdPeriph_Driver/src/stm32f4xx_can.c ****       case CAN_IT_ERR:
1553:/home/jonas/warwick/3dProfilometer/xpcc/ext/stm32f4xx_lib/STM32F4xx_StdPeriph_Driver/src/stm32f4xx_can.c ****         /* Check CAN_MSR_ERRI bit */ 
1554:/home/jonas/warwick/3dProfilometer/xpcc/ext/stm32f4xx_lib/STM32F4xx_StdPeriph_Driver/src/stm32f4xx_can.c ****         itstatus = CheckITStatus(CANx->MSR, CAN_MSR_ERRI); 
1555:/home/jonas/warwick/3dProfilometer/xpcc/ext/stm32f4xx_lib/STM32F4xx_StdPeriph_Driver/src/stm32f4xx_can.c ****         break;
1556:/home/jonas/warwick/3dProfilometer/xpcc/ext/stm32f4xx_lib/STM32F4xx_StdPeriph_Driver/src/stm32f4xx_can.c ****       default:
1557:/home/jonas/warwick/3dProfilometer/xpcc/ext/stm32f4xx_lib/STM32F4xx_StdPeriph_Driver/src/stm32f4xx_can.c ****         /* in case of error, return RESET */
1558:/home/jonas/warwick/3dProfilometer/xpcc/ext/stm32f4xx_lib/STM32F4xx_StdPeriph_Driver/src/stm32f4xx_can.c ****         itstatus = RESET;
 1605              		.loc 1 1558 0
 1606 001a 0020     		movs	r0, #0
 1607              	.LVL121:
1559:/home/jonas/warwick/3dProfilometer/xpcc/ext/stm32f4xx_lib/STM32F4xx_StdPeriph_Driver/src/stm32f4xx_can.c ****         break;
1560:/home/jonas/warwick/3dProfilometer/xpcc/ext/stm32f4xx_lib/STM32F4xx_StdPeriph_Driver/src/stm32f4xx_can.c ****     }
1561:/home/jonas/warwick/3dProfilometer/xpcc/ext/stm32f4xx_lib/STM32F4xx_StdPeriph_Driver/src/stm32f4xx_can.c ****   }
1562:/home/jonas/warwick/3dProfilometer/xpcc/ext/stm32f4xx_lib/STM32F4xx_StdPeriph_Driver/src/stm32f4xx_can.c ****   else
1563:/home/jonas/warwick/3dProfilometer/xpcc/ext/stm32f4xx_lib/STM32F4xx_StdPeriph_Driver/src/stm32f4xx_can.c ****   {
1564:/home/jonas/warwick/3dProfilometer/xpcc/ext/stm32f4xx_lib/STM32F4xx_StdPeriph_Driver/src/stm32f4xx_can.c ****    /* in case the Interrupt is not enabled, return RESET */
1565:/home/jonas/warwick/3dProfilometer/xpcc/ext/stm32f4xx_lib/STM32F4xx_StdPeriph_Driver/src/stm32f4xx_can.c ****     itstatus  = RESET;
1566:/home/jonas/warwick/3dProfilometer/xpcc/ext/stm32f4xx_lib/STM32F4xx_StdPeriph_Driver/src/stm32f4xx_can.c ****   }
1567:/home/jonas/warwick/3dProfilometer/xpcc/ext/stm32f4xx_lib/STM32F4xx_StdPeriph_Driver/src/stm32f4xx_can.c ****   
1568:/home/jonas/warwick/3dProfilometer/xpcc/ext/stm32f4xx_lib/STM32F4xx_StdPeriph_Driver/src/stm32f4xx_can.c ****   /* Return the CAN_IT status */
1569:/home/jonas/warwick/3dProfilometer/xpcc/ext/stm32f4xx_lib/STM32F4xx_StdPeriph_Driver/src/stm32f4xx_can.c ****   return  itstatus;
1570:/home/jonas/warwick/3dProfilometer/xpcc/ext/stm32f4xx_lib/STM32F4xx_StdPeriph_Driver/src/stm32f4xx_can.c **** }
 1608              		.loc 1 1570 0
 1609 001c 7047     		bx	lr
 1610              	.LVL122:
 1611              	.L204:
1565:/home/jonas/warwick/3dProfilometer/xpcc/ext/stm32f4xx_lib/STM32F4xx_StdPeriph_Driver/src/stm32f4xx_can.c ****     itstatus  = RESET;
 1612              		.loc 1 1565 0
 1613 001e 1846     		mov	r0, r3
 1614              	.LVL123:
 1615 0020 7047     		bx	lr
 1616              	.LVL124:
 1617              	.L201:
1498:/home/jonas/warwick/3dProfilometer/xpcc/ext/stm32f4xx_lib/STM32F4xx_StdPeriph_Driver/src/stm32f4xx_can.c ****     switch (CAN_IT)
 1618              		.loc 1 1498 0
 1619 0022 B1F5006F 		cmp	r1, #2048
 1620 0026 28D0     		beq	.L197
 1621 0028 0CD8     		bhi	.L203
 1622 002a B1F5007F 		cmp	r1, #512
 1623 002e 4ED0     		beq	.L195
 1624 0030 B1F5806F 		cmp	r1, #1024
 1625 0034 30D0     		beq	.L196
 1626 0036 B1F5807F 		cmp	r1, #256
 1627 003a EED1     		bne	.L205
1538:/home/jonas/warwick/3dProfilometer/xpcc/ext/stm32f4xx_lib/STM32F4xx_StdPeriph_Driver/src/stm32f4xx_can.c ****         itstatus = CheckITStatus(CANx->ESR, CAN_ESR_EWGF);  
 1628              		.loc 1 1538 0
 1629 003c 8069     		ldr	r0, [r0, #24]
 1630              	.LVL125:
1571:/home/jonas/warwick/3dProfilometer/xpcc/ext/stm32f4xx_lib/STM32F4xx_StdPeriph_Driver/src/stm32f4xx_can.c **** 
1572:/home/jonas/warwick/3dProfilometer/xpcc/ext/stm32f4xx_lib/STM32F4xx_StdPeriph_Driver/src/stm32f4xx_can.c **** /**
1573:/home/jonas/warwick/3dProfilometer/xpcc/ext/stm32f4xx_lib/STM32F4xx_StdPeriph_Driver/src/stm32f4xx_can.c ****   * @brief  Clears the CANx's interrupt pending bits.
1574:/home/jonas/warwick/3dProfilometer/xpcc/ext/stm32f4xx_lib/STM32F4xx_StdPeriph_Driver/src/stm32f4xx_can.c ****   * @param  CANx: where x can be 1 or 2 to to select the CAN peripheral.
1575:/home/jonas/warwick/3dProfilometer/xpcc/ext/stm32f4xx_lib/STM32F4xx_StdPeriph_Driver/src/stm32f4xx_can.c ****   * @param  CAN_IT: specifies the interrupt pending bit to clear.
1576:/home/jonas/warwick/3dProfilometer/xpcc/ext/stm32f4xx_lib/STM32F4xx_StdPeriph_Driver/src/stm32f4xx_can.c ****   *          This parameter can be one of the following values:
1577:/home/jonas/warwick/3dProfilometer/xpcc/ext/stm32f4xx_lib/STM32F4xx_StdPeriph_Driver/src/stm32f4xx_can.c ****   *            @arg CAN_IT_TME: Transmit mailbox empty Interrupt
1578:/home/jonas/warwick/3dProfilometer/xpcc/ext/stm32f4xx_lib/STM32F4xx_StdPeriph_Driver/src/stm32f4xx_can.c ****   *            @arg CAN_IT_FF0: FIFO 0 full Interrupt
1579:/home/jonas/warwick/3dProfilometer/xpcc/ext/stm32f4xx_lib/STM32F4xx_StdPeriph_Driver/src/stm32f4xx_can.c ****   *            @arg CAN_IT_FOV0: FIFO 0 overrun Interrupt
1580:/home/jonas/warwick/3dProfilometer/xpcc/ext/stm32f4xx_lib/STM32F4xx_StdPeriph_Driver/src/stm32f4xx_can.c ****   *            @arg CAN_IT_FF1: FIFO 1 full Interrupt
1581:/home/jonas/warwick/3dProfilometer/xpcc/ext/stm32f4xx_lib/STM32F4xx_StdPeriph_Driver/src/stm32f4xx_can.c ****   *            @arg CAN_IT_FOV1: FIFO 1 overrun Interrupt
1582:/home/jonas/warwick/3dProfilometer/xpcc/ext/stm32f4xx_lib/STM32F4xx_StdPeriph_Driver/src/stm32f4xx_can.c ****   *            @arg CAN_IT_WKU: Wake-up Interrupt
1583:/home/jonas/warwick/3dProfilometer/xpcc/ext/stm32f4xx_lib/STM32F4xx_StdPeriph_Driver/src/stm32f4xx_can.c ****   *            @arg CAN_IT_SLK: Sleep acknowledge Interrupt  
1584:/home/jonas/warwick/3dProfilometer/xpcc/ext/stm32f4xx_lib/STM32F4xx_StdPeriph_Driver/src/stm32f4xx_can.c ****   *            @arg CAN_IT_EWG: Error warning Interrupt
1585:/home/jonas/warwick/3dProfilometer/xpcc/ext/stm32f4xx_lib/STM32F4xx_StdPeriph_Driver/src/stm32f4xx_can.c ****   *            @arg CAN_IT_EPV: Error passive Interrupt
1586:/home/jonas/warwick/3dProfilometer/xpcc/ext/stm32f4xx_lib/STM32F4xx_StdPeriph_Driver/src/stm32f4xx_can.c ****   *            @arg CAN_IT_BOF: Bus-off Interrupt  
1587:/home/jonas/warwick/3dProfilometer/xpcc/ext/stm32f4xx_lib/STM32F4xx_StdPeriph_Driver/src/stm32f4xx_can.c ****   *            @arg CAN_IT_LEC: Last error code Interrupt
1588:/home/jonas/warwick/3dProfilometer/xpcc/ext/stm32f4xx_lib/STM32F4xx_StdPeriph_Driver/src/stm32f4xx_can.c ****   *            @arg CAN_IT_ERR: Error Interrupt 
1589:/home/jonas/warwick/3dProfilometer/xpcc/ext/stm32f4xx_lib/STM32F4xx_StdPeriph_Driver/src/stm32f4xx_can.c ****   * @retval None
1590:/home/jonas/warwick/3dProfilometer/xpcc/ext/stm32f4xx_lib/STM32F4xx_StdPeriph_Driver/src/stm32f4xx_can.c ****   */
1591:/home/jonas/warwick/3dProfilometer/xpcc/ext/stm32f4xx_lib/STM32F4xx_StdPeriph_Driver/src/stm32f4xx_can.c **** void CAN_ClearITPendingBit(CAN_TypeDef* CANx, uint32_t CAN_IT)
1592:/home/jonas/warwick/3dProfilometer/xpcc/ext/stm32f4xx_lib/STM32F4xx_StdPeriph_Driver/src/stm32f4xx_can.c **** {
1593:/home/jonas/warwick/3dProfilometer/xpcc/ext/stm32f4xx_lib/STM32F4xx_StdPeriph_Driver/src/stm32f4xx_can.c ****   /* Check the parameters */
1594:/home/jonas/warwick/3dProfilometer/xpcc/ext/stm32f4xx_lib/STM32F4xx_StdPeriph_Driver/src/stm32f4xx_can.c ****   assert_param(IS_CAN_ALL_PERIPH(CANx));
1595:/home/jonas/warwick/3dProfilometer/xpcc/ext/stm32f4xx_lib/STM32F4xx_StdPeriph_Driver/src/stm32f4xx_can.c ****   assert_param(IS_CAN_CLEAR_IT(CAN_IT));
1596:/home/jonas/warwick/3dProfilometer/xpcc/ext/stm32f4xx_lib/STM32F4xx_StdPeriph_Driver/src/stm32f4xx_can.c **** 
1597:/home/jonas/warwick/3dProfilometer/xpcc/ext/stm32f4xx_lib/STM32F4xx_StdPeriph_Driver/src/stm32f4xx_can.c ****   switch (CAN_IT)
1598:/home/jonas/warwick/3dProfilometer/xpcc/ext/stm32f4xx_lib/STM32F4xx_StdPeriph_Driver/src/stm32f4xx_can.c ****   {
1599:/home/jonas/warwick/3dProfilometer/xpcc/ext/stm32f4xx_lib/STM32F4xx_StdPeriph_Driver/src/stm32f4xx_can.c ****     case CAN_IT_TME:
1600:/home/jonas/warwick/3dProfilometer/xpcc/ext/stm32f4xx_lib/STM32F4xx_StdPeriph_Driver/src/stm32f4xx_can.c ****       /* Clear CAN_TSR_RQCPx (rc_w1)*/
1601:/home/jonas/warwick/3dProfilometer/xpcc/ext/stm32f4xx_lib/STM32F4xx_StdPeriph_Driver/src/stm32f4xx_can.c ****       CANx->TSR = CAN_TSR_RQCP0|CAN_TSR_RQCP1|CAN_TSR_RQCP2;  
1602:/home/jonas/warwick/3dProfilometer/xpcc/ext/stm32f4xx_lib/STM32F4xx_StdPeriph_Driver/src/stm32f4xx_can.c ****       break;
1603:/home/jonas/warwick/3dProfilometer/xpcc/ext/stm32f4xx_lib/STM32F4xx_StdPeriph_Driver/src/stm32f4xx_can.c ****     case CAN_IT_FF0:
1604:/home/jonas/warwick/3dProfilometer/xpcc/ext/stm32f4xx_lib/STM32F4xx_StdPeriph_Driver/src/stm32f4xx_can.c ****       /* Clear CAN_RF0R_FULL0 (rc_w1)*/
1605:/home/jonas/warwick/3dProfilometer/xpcc/ext/stm32f4xx_lib/STM32F4xx_StdPeriph_Driver/src/stm32f4xx_can.c ****       CANx->RF0R = CAN_RF0R_FULL0; 
1606:/home/jonas/warwick/3dProfilometer/xpcc/ext/stm32f4xx_lib/STM32F4xx_StdPeriph_Driver/src/stm32f4xx_can.c ****       break;
1607:/home/jonas/warwick/3dProfilometer/xpcc/ext/stm32f4xx_lib/STM32F4xx_StdPeriph_Driver/src/stm32f4xx_can.c ****     case CAN_IT_FOV0:
1608:/home/jonas/warwick/3dProfilometer/xpcc/ext/stm32f4xx_lib/STM32F4xx_StdPeriph_Driver/src/stm32f4xx_can.c ****       /* Clear CAN_RF0R_FOVR0 (rc_w1)*/
1609:/home/jonas/warwick/3dProfilometer/xpcc/ext/stm32f4xx_lib/STM32F4xx_StdPeriph_Driver/src/stm32f4xx_can.c ****       CANx->RF0R = CAN_RF0R_FOVR0; 
1610:/home/jonas/warwick/3dProfilometer/xpcc/ext/stm32f4xx_lib/STM32F4xx_StdPeriph_Driver/src/stm32f4xx_can.c ****       break;
1611:/home/jonas/warwick/3dProfilometer/xpcc/ext/stm32f4xx_lib/STM32F4xx_StdPeriph_Driver/src/stm32f4xx_can.c ****     case CAN_IT_FF1:
1612:/home/jonas/warwick/3dProfilometer/xpcc/ext/stm32f4xx_lib/STM32F4xx_StdPeriph_Driver/src/stm32f4xx_can.c ****       /* Clear CAN_RF1R_FULL1 (rc_w1)*/
1613:/home/jonas/warwick/3dProfilometer/xpcc/ext/stm32f4xx_lib/STM32F4xx_StdPeriph_Driver/src/stm32f4xx_can.c ****       CANx->RF1R = CAN_RF1R_FULL1;  
1614:/home/jonas/warwick/3dProfilometer/xpcc/ext/stm32f4xx_lib/STM32F4xx_StdPeriph_Driver/src/stm32f4xx_can.c ****       break;
1615:/home/jonas/warwick/3dProfilometer/xpcc/ext/stm32f4xx_lib/STM32F4xx_StdPeriph_Driver/src/stm32f4xx_can.c ****     case CAN_IT_FOV1:
1616:/home/jonas/warwick/3dProfilometer/xpcc/ext/stm32f4xx_lib/STM32F4xx_StdPeriph_Driver/src/stm32f4xx_can.c ****       /* Clear CAN_RF1R_FOVR1 (rc_w1)*/
1617:/home/jonas/warwick/3dProfilometer/xpcc/ext/stm32f4xx_lib/STM32F4xx_StdPeriph_Driver/src/stm32f4xx_can.c ****       CANx->RF1R = CAN_RF1R_FOVR1; 
1618:/home/jonas/warwick/3dProfilometer/xpcc/ext/stm32f4xx_lib/STM32F4xx_StdPeriph_Driver/src/stm32f4xx_can.c ****       break;
1619:/home/jonas/warwick/3dProfilometer/xpcc/ext/stm32f4xx_lib/STM32F4xx_StdPeriph_Driver/src/stm32f4xx_can.c ****     case CAN_IT_WKU:
1620:/home/jonas/warwick/3dProfilometer/xpcc/ext/stm32f4xx_lib/STM32F4xx_StdPeriph_Driver/src/stm32f4xx_can.c ****       /* Clear CAN_MSR_WKUI (rc_w1)*/
1621:/home/jonas/warwick/3dProfilometer/xpcc/ext/stm32f4xx_lib/STM32F4xx_StdPeriph_Driver/src/stm32f4xx_can.c ****       CANx->MSR = CAN_MSR_WKUI;  
1622:/home/jonas/warwick/3dProfilometer/xpcc/ext/stm32f4xx_lib/STM32F4xx_StdPeriph_Driver/src/stm32f4xx_can.c ****       break;
1623:/home/jonas/warwick/3dProfilometer/xpcc/ext/stm32f4xx_lib/STM32F4xx_StdPeriph_Driver/src/stm32f4xx_can.c ****     case CAN_IT_SLK:
1624:/home/jonas/warwick/3dProfilometer/xpcc/ext/stm32f4xx_lib/STM32F4xx_StdPeriph_Driver/src/stm32f4xx_can.c ****       /* Clear CAN_MSR_SLAKI (rc_w1)*/ 
1625:/home/jonas/warwick/3dProfilometer/xpcc/ext/stm32f4xx_lib/STM32F4xx_StdPeriph_Driver/src/stm32f4xx_can.c ****       CANx->MSR = CAN_MSR_SLAKI;   
1626:/home/jonas/warwick/3dProfilometer/xpcc/ext/stm32f4xx_lib/STM32F4xx_StdPeriph_Driver/src/stm32f4xx_can.c ****       break;
1627:/home/jonas/warwick/3dProfilometer/xpcc/ext/stm32f4xx_lib/STM32F4xx_StdPeriph_Driver/src/stm32f4xx_can.c ****     case CAN_IT_EWG:
1628:/home/jonas/warwick/3dProfilometer/xpcc/ext/stm32f4xx_lib/STM32F4xx_StdPeriph_Driver/src/stm32f4xx_can.c ****       /* Clear CAN_MSR_ERRI (rc_w1) */
1629:/home/jonas/warwick/3dProfilometer/xpcc/ext/stm32f4xx_lib/STM32F4xx_StdPeriph_Driver/src/stm32f4xx_can.c ****       CANx->MSR = CAN_MSR_ERRI;
1630:/home/jonas/warwick/3dProfilometer/xpcc/ext/stm32f4xx_lib/STM32F4xx_StdPeriph_Driver/src/stm32f4xx_can.c ****        /* @note the corresponding Flag is cleared by hardware depending on the CAN Bus status*/ 
1631:/home/jonas/warwick/3dProfilometer/xpcc/ext/stm32f4xx_lib/STM32F4xx_StdPeriph_Driver/src/stm32f4xx_can.c ****       break;
1632:/home/jonas/warwick/3dProfilometer/xpcc/ext/stm32f4xx_lib/STM32F4xx_StdPeriph_Driver/src/stm32f4xx_can.c ****     case CAN_IT_EPV:
1633:/home/jonas/warwick/3dProfilometer/xpcc/ext/stm32f4xx_lib/STM32F4xx_StdPeriph_Driver/src/stm32f4xx_can.c ****       /* Clear CAN_MSR_ERRI (rc_w1) */
1634:/home/jonas/warwick/3dProfilometer/xpcc/ext/stm32f4xx_lib/STM32F4xx_StdPeriph_Driver/src/stm32f4xx_can.c ****       CANx->MSR = CAN_MSR_ERRI; 
1635:/home/jonas/warwick/3dProfilometer/xpcc/ext/stm32f4xx_lib/STM32F4xx_StdPeriph_Driver/src/stm32f4xx_can.c ****        /* @note the corresponding Flag is cleared by hardware depending on the CAN Bus status*/
1636:/home/jonas/warwick/3dProfilometer/xpcc/ext/stm32f4xx_lib/STM32F4xx_StdPeriph_Driver/src/stm32f4xx_can.c ****       break;
1637:/home/jonas/warwick/3dProfilometer/xpcc/ext/stm32f4xx_lib/STM32F4xx_StdPeriph_Driver/src/stm32f4xx_can.c ****     case CAN_IT_BOF:
1638:/home/jonas/warwick/3dProfilometer/xpcc/ext/stm32f4xx_lib/STM32F4xx_StdPeriph_Driver/src/stm32f4xx_can.c ****       /* Clear CAN_MSR_ERRI (rc_w1) */ 
1639:/home/jonas/warwick/3dProfilometer/xpcc/ext/stm32f4xx_lib/STM32F4xx_StdPeriph_Driver/src/stm32f4xx_can.c ****       CANx->MSR = CAN_MSR_ERRI; 
1640:/home/jonas/warwick/3dProfilometer/xpcc/ext/stm32f4xx_lib/STM32F4xx_StdPeriph_Driver/src/stm32f4xx_can.c ****        /* @note the corresponding Flag is cleared by hardware depending on the CAN Bus status*/
1641:/home/jonas/warwick/3dProfilometer/xpcc/ext/stm32f4xx_lib/STM32F4xx_StdPeriph_Driver/src/stm32f4xx_can.c ****        break;
1642:/home/jonas/warwick/3dProfilometer/xpcc/ext/stm32f4xx_lib/STM32F4xx_StdPeriph_Driver/src/stm32f4xx_can.c ****     case CAN_IT_LEC:
1643:/home/jonas/warwick/3dProfilometer/xpcc/ext/stm32f4xx_lib/STM32F4xx_StdPeriph_Driver/src/stm32f4xx_can.c ****       /*  Clear LEC bits */
1644:/home/jonas/warwick/3dProfilometer/xpcc/ext/stm32f4xx_lib/STM32F4xx_StdPeriph_Driver/src/stm32f4xx_can.c ****       CANx->ESR = RESET; 
1645:/home/jonas/warwick/3dProfilometer/xpcc/ext/stm32f4xx_lib/STM32F4xx_StdPeriph_Driver/src/stm32f4xx_can.c ****       /* Clear CAN_MSR_ERRI (rc_w1) */
1646:/home/jonas/warwick/3dProfilometer/xpcc/ext/stm32f4xx_lib/STM32F4xx_StdPeriph_Driver/src/stm32f4xx_can.c ****       CANx->MSR = CAN_MSR_ERRI; 
1647:/home/jonas/warwick/3dProfilometer/xpcc/ext/stm32f4xx_lib/STM32F4xx_StdPeriph_Driver/src/stm32f4xx_can.c ****       break;
1648:/home/jonas/warwick/3dProfilometer/xpcc/ext/stm32f4xx_lib/STM32F4xx_StdPeriph_Driver/src/stm32f4xx_can.c ****     case CAN_IT_ERR:
1649:/home/jonas/warwick/3dProfilometer/xpcc/ext/stm32f4xx_lib/STM32F4xx_StdPeriph_Driver/src/stm32f4xx_can.c ****       /*Clear LEC bits */
1650:/home/jonas/warwick/3dProfilometer/xpcc/ext/stm32f4xx_lib/STM32F4xx_StdPeriph_Driver/src/stm32f4xx_can.c ****       CANx->ESR = RESET; 
1651:/home/jonas/warwick/3dProfilometer/xpcc/ext/stm32f4xx_lib/STM32F4xx_StdPeriph_Driver/src/stm32f4xx_can.c ****       /* Clear CAN_MSR_ERRI (rc_w1) */
1652:/home/jonas/warwick/3dProfilometer/xpcc/ext/stm32f4xx_lib/STM32F4xx_StdPeriph_Driver/src/stm32f4xx_can.c ****       CANx->MSR = CAN_MSR_ERRI; 
1653:/home/jonas/warwick/3dProfilometer/xpcc/ext/stm32f4xx_lib/STM32F4xx_StdPeriph_Driver/src/stm32f4xx_can.c ****        /* @note BOFF, EPVF and EWGF Flags are cleared by hardware depending on the CAN Bus status*/
1654:/home/jonas/warwick/3dProfilometer/xpcc/ext/stm32f4xx_lib/STM32F4xx_StdPeriph_Driver/src/stm32f4xx_can.c ****        break;
1655:/home/jonas/warwick/3dProfilometer/xpcc/ext/stm32f4xx_lib/STM32F4xx_StdPeriph_Driver/src/stm32f4xx_can.c ****     default:
1656:/home/jonas/warwick/3dProfilometer/xpcc/ext/stm32f4xx_lib/STM32F4xx_StdPeriph_Driver/src/stm32f4xx_can.c ****        break;
1657:/home/jonas/warwick/3dProfilometer/xpcc/ext/stm32f4xx_lib/STM32F4xx_StdPeriph_Driver/src/stm32f4xx_can.c ****    }
1658:/home/jonas/warwick/3dProfilometer/xpcc/ext/stm32f4xx_lib/STM32F4xx_StdPeriph_Driver/src/stm32f4xx_can.c **** }
1659:/home/jonas/warwick/3dProfilometer/xpcc/ext/stm32f4xx_lib/STM32F4xx_StdPeriph_Driver/src/stm32f4xx_can.c ****  /**
1660:/home/jonas/warwick/3dProfilometer/xpcc/ext/stm32f4xx_lib/STM32F4xx_StdPeriph_Driver/src/stm32f4xx_can.c ****   * @}
1661:/home/jonas/warwick/3dProfilometer/xpcc/ext/stm32f4xx_lib/STM32F4xx_StdPeriph_Driver/src/stm32f4xx_can.c ****   */
1662:/home/jonas/warwick/3dProfilometer/xpcc/ext/stm32f4xx_lib/STM32F4xx_StdPeriph_Driver/src/stm32f4xx_can.c **** 
1663:/home/jonas/warwick/3dProfilometer/xpcc/ext/stm32f4xx_lib/STM32F4xx_StdPeriph_Driver/src/stm32f4xx_can.c **** /**
1664:/home/jonas/warwick/3dProfilometer/xpcc/ext/stm32f4xx_lib/STM32F4xx_StdPeriph_Driver/src/stm32f4xx_can.c ****   * @brief  Checks whether the CAN interrupt has occurred or not.
1665:/home/jonas/warwick/3dProfilometer/xpcc/ext/stm32f4xx_lib/STM32F4xx_StdPeriph_Driver/src/stm32f4xx_can.c ****   * @param  CAN_Reg: specifies the CAN interrupt register to check.
1666:/home/jonas/warwick/3dProfilometer/xpcc/ext/stm32f4xx_lib/STM32F4xx_StdPeriph_Driver/src/stm32f4xx_can.c ****   * @param  It_Bit: specifies the interrupt source bit to check.
1667:/home/jonas/warwick/3dProfilometer/xpcc/ext/stm32f4xx_lib/STM32F4xx_StdPeriph_Driver/src/stm32f4xx_can.c ****   * @retval The new state of the CAN Interrupt (SET or RESET).
1668:/home/jonas/warwick/3dProfilometer/xpcc/ext/stm32f4xx_lib/STM32F4xx_StdPeriph_Driver/src/stm32f4xx_can.c ****   */
1669:/home/jonas/warwick/3dProfilometer/xpcc/ext/stm32f4xx_lib/STM32F4xx_StdPeriph_Driver/src/stm32f4xx_can.c **** static ITStatus CheckITStatus(uint32_t CAN_Reg, uint32_t It_Bit)
1670:/home/jonas/warwick/3dProfilometer/xpcc/ext/stm32f4xx_lib/STM32F4xx_StdPeriph_Driver/src/stm32f4xx_can.c **** {
1671:/home/jonas/warwick/3dProfilometer/xpcc/ext/stm32f4xx_lib/STM32F4xx_StdPeriph_Driver/src/stm32f4xx_can.c ****   ITStatus pendingbitstatus = RESET;
1672:/home/jonas/warwick/3dProfilometer/xpcc/ext/stm32f4xx_lib/STM32F4xx_StdPeriph_Driver/src/stm32f4xx_can.c ****   
1673:/home/jonas/warwick/3dProfilometer/xpcc/ext/stm32f4xx_lib/STM32F4xx_StdPeriph_Driver/src/stm32f4xx_can.c ****   if ((CAN_Reg & It_Bit) != (uint32_t)RESET)
1674:/home/jonas/warwick/3dProfilometer/xpcc/ext/stm32f4xx_lib/STM32F4xx_StdPeriph_Driver/src/stm32f4xx_can.c ****   {
1675:/home/jonas/warwick/3dProfilometer/xpcc/ext/stm32f4xx_lib/STM32F4xx_StdPeriph_Driver/src/stm32f4xx_can.c ****     /* CAN_IT is set */
1676:/home/jonas/warwick/3dProfilometer/xpcc/ext/stm32f4xx_lib/STM32F4xx_StdPeriph_Driver/src/stm32f4xx_can.c ****     pendingbitstatus = SET;
1677:/home/jonas/warwick/3dProfilometer/xpcc/ext/stm32f4xx_lib/STM32F4xx_StdPeriph_Driver/src/stm32f4xx_can.c ****   }
1678:/home/jonas/warwick/3dProfilometer/xpcc/ext/stm32f4xx_lib/STM32F4xx_StdPeriph_Driver/src/stm32f4xx_can.c ****   else
1679:/home/jonas/warwick/3dProfilometer/xpcc/ext/stm32f4xx_lib/STM32F4xx_StdPeriph_Driver/src/stm32f4xx_can.c ****   {
1680:/home/jonas/warwick/3dProfilometer/xpcc/ext/stm32f4xx_lib/STM32F4xx_StdPeriph_Driver/src/stm32f4xx_can.c ****     /* CAN_IT is reset */
1681:/home/jonas/warwick/3dProfilometer/xpcc/ext/stm32f4xx_lib/STM32F4xx_StdPeriph_Driver/src/stm32f4xx_can.c ****     pendingbitstatus = RESET;
 1631              		.loc 1 1681 0
 1632 003e 00F00100 		and	r0, r0, #1
 1633              	.LVL126:
 1634 0042 7047     		bx	lr
 1635              	.LVL127:
 1636              	.L203:
1498:/home/jonas/warwick/3dProfilometer/xpcc/ext/stm32f4xx_lib/STM32F4xx_StdPeriph_Driver/src/stm32f4xx_can.c ****     switch (CAN_IT)
 1637              		.loc 1 1498 0
 1638 0044 B1F5803F 		cmp	r1, #65536
 1639 0048 3DD0     		beq	.L199
 1640 004a B1F5003F 		cmp	r1, #131072
 1641 004e 2DD0     		beq	.L200
 1642 0050 B1F5004F 		cmp	r1, #32768
 1643 0054 E1D1     		bne	.L205
1554:/home/jonas/warwick/3dProfilometer/xpcc/ext/stm32f4xx_lib/STM32F4xx_StdPeriph_Driver/src/stm32f4xx_can.c ****         itstatus = CheckITStatus(CANx->MSR, CAN_MSR_ERRI); 
 1644              		.loc 1 1554 0
 1645 0056 4068     		ldr	r0, [r0, #4]
 1646              	.LVL128:
 1647              		.loc 1 1681 0
 1648 0058 C0F38000 		ubfx	r0, r0, #2, #1
 1649              	.LVL129:
 1650 005c 7047     		bx	lr
 1651              	.LVL130:
 1652              	.L202:
1498:/home/jonas/warwick/3dProfilometer/xpcc/ext/stm32f4xx_lib/STM32F4xx_StdPeriph_Driver/src/stm32f4xx_can.c ****     switch (CAN_IT)
 1653              		.loc 1 1498 0
 1654 005e 1029     		cmp	r1, #16
 1655 0060 39D0     		beq	.L191
 1656 0062 2029     		cmp	r1, #32
 1657 0064 14D0     		beq	.L192
 1658 0066 0829     		cmp	r1, #8
 1659 0068 D7D1     		bne	.L205
1514:/home/jonas/warwick/3dProfilometer/xpcc/ext/stm32f4xx_lib/STM32F4xx_StdPeriph_Driver/src/stm32f4xx_can.c ****         itstatus = CheckITStatus(CANx->RF0R, CAN_RF0R_FOVR0);  
 1660              		.loc 1 1514 0
 1661 006a C068     		ldr	r0, [r0, #12]
 1662              	.LVL131:
 1663              		.loc 1 1681 0
 1664 006c C0F30010 		ubfx	r0, r0, #4, #1
 1665              	.LVL132:
 1666 0070 7047     		bx	lr
 1667              	.LVL133:
 1668              	.L193:
1526:/home/jonas/warwick/3dProfilometer/xpcc/ext/stm32f4xx_lib/STM32F4xx_StdPeriph_Driver/src/stm32f4xx_can.c ****         itstatus = CheckITStatus(CANx->RF1R, CAN_RF1R_FOVR1);  
 1669              		.loc 1 1526 0
 1670 0072 0069     		ldr	r0, [r0, #16]
 1671              	.LVL134:
 1672              		.loc 1 1681 0
 1673 0074 C0F30010 		ubfx	r0, r0, #4, #1
 1674              	.LVL135:
 1675 0078 7047     		bx	lr
 1676              	.LVL136:
 1677              	.L197:
1550:/home/jonas/warwick/3dProfilometer/xpcc/ext/stm32f4xx_lib/STM32F4xx_StdPeriph_Driver/src/stm32f4xx_can.c ****         itstatus = CheckITStatus(CANx->ESR, CAN_ESR_LEC);  
 1678              		.loc 1 1550 0
 1679 007a 8369     		ldr	r3, [r0, #24]
 1680              	.LVL137:
1673:/home/jonas/warwick/3dProfilometer/xpcc/ext/stm32f4xx_lib/STM32F4xx_StdPeriph_Driver/src/stm32f4xx_can.c ****   if ((CAN_Reg & It_Bit) != (uint32_t)RESET)
 1681              		.loc 1 1673 0
 1682 007c 13F0700F 		tst	r3, #112
 1683              		.loc 1 1681 0
 1684 0080 0CBF     		ite	eq
 1685 0082 0020     		moveq	r0, #0
 1686 0084 0120     		movne	r0, #1
 1687              	.LVL138:
 1688 0086 7047     		bx	lr
 1689              	.LVL139:
 1690              	.L189:
1510:/home/jonas/warwick/3dProfilometer/xpcc/ext/stm32f4xx_lib/STM32F4xx_StdPeriph_Driver/src/stm32f4xx_can.c ****         itstatus = CheckITStatus(CANx->RF0R, CAN_RF0R_FULL0);  
 1691              		.loc 1 1510 0
 1692 0088 C068     		ldr	r0, [r0, #12]
 1693              	.LVL140:
 1694              		.loc 1 1681 0
 1695 008a C0F3C000 		ubfx	r0, r0, #3, #1
 1696              	.LVL141:
 1697 008e 7047     		bx	lr
 1698              	.LVL142:
 1699              	.L192:
1522:/home/jonas/warwick/3dProfilometer/xpcc/ext/stm32f4xx_lib/STM32F4xx_StdPeriph_Driver/src/stm32f4xx_can.c ****         itstatus = CheckITStatus(CANx->RF1R, CAN_RF1R_FULL1);  
 1700              		.loc 1 1522 0
 1701 0090 0069     		ldr	r0, [r0, #16]
 1702              	.LVL143:
 1703              		.loc 1 1681 0
 1704 0092 C0F3C000 		ubfx	r0, r0, #3, #1
 1705              	.LVL144:
 1706 0096 7047     		bx	lr
 1707              	.LVL145:
 1708              	.L196:
1546:/home/jonas/warwick/3dProfilometer/xpcc/ext/stm32f4xx_lib/STM32F4xx_StdPeriph_Driver/src/stm32f4xx_can.c ****         itstatus = CheckITStatus(CANx->ESR, CAN_ESR_BOFF);  
 1709              		.loc 1 1546 0
 1710 0098 8069     		ldr	r0, [r0, #24]
 1711              	.LVL146:
 1712              		.loc 1 1681 0
 1713 009a C0F38000 		ubfx	r0, r0, #2, #1
 1714              	.LVL147:
 1715 009e 7047     		bx	lr
 1716              	.LVL148:
 1717              	.L206:
1506:/home/jonas/warwick/3dProfilometer/xpcc/ext/stm32f4xx_lib/STM32F4xx_StdPeriph_Driver/src/stm32f4xx_can.c ****         itstatus = CheckITStatus(CANx->RF0R, CAN_RF0R_FMP0);  
 1718              		.loc 1 1506 0
 1719 00a0 C068     		ldr	r0, [r0, #12]
 1720              	.LVL149:
 1721              		.loc 1 1681 0
 1722 00a2 10F00300 		ands	r0, r0, #3
 1723              	.LVL150:
 1724 00a6 18BF     		it	ne
 1725 00a8 0120     		movne	r0, #1
 1726 00aa 7047     		bx	lr
 1727              	.LVL151:
 1728              	.L200:
1534:/home/jonas/warwick/3dProfilometer/xpcc/ext/stm32f4xx_lib/STM32F4xx_StdPeriph_Driver/src/stm32f4xx_can.c ****         itstatus = CheckITStatus(CANx->MSR, CAN_MSR_SLAKI);  
 1729              		.loc 1 1534 0
 1730 00ac 4068     		ldr	r0, [r0, #4]
 1731              	.LVL152:
 1732              		.loc 1 1681 0
 1733 00ae C0F30010 		ubfx	r0, r0, #4, #1
 1734              	.LVL153:
 1735 00b2 7047     		bx	lr
 1736              	.LVL154:
 1737              	.L187:
1502:/home/jonas/warwick/3dProfilometer/xpcc/ext/stm32f4xx_lib/STM32F4xx_StdPeriph_Driver/src/stm32f4xx_can.c ****         itstatus = CheckITStatus(CANx->TSR, CAN_TSR_RQCP0|CAN_TSR_RQCP1|CAN_TSR_RQCP2);  
 1738              		.loc 1 1502 0
 1739 00b4 8068     		ldr	r0, [r0, #8]
 1740              	.LVL155:
 1741              	.LBB30:
 1742              	.LBB31:
1673:/home/jonas/warwick/3dProfilometer/xpcc/ext/stm32f4xx_lib/STM32F4xx_StdPeriph_Driver/src/stm32f4xx_can.c ****   if ((CAN_Reg & It_Bit) != (uint32_t)RESET)
 1743              		.loc 1 1673 0
 1744 00b6 00F00130 		and	r0, r0, #16843009
 1745              	.LVL156:
 1746 00ba 20F08070 		bic	r0, r0, #16777216
 1747              	.LBE31:
 1748              	.LBE30:
1676:/home/jonas/warwick/3dProfilometer/xpcc/ext/stm32f4xx_lib/STM32F4xx_StdPeriph_Driver/src/stm32f4xx_can.c ****     pendingbitstatus = SET;
 1749              		.loc 1 1676 0
 1750 00be 0030     		adds	r0, r0, #0
 1751 00c0 18BF     		it	ne
 1752 00c2 0120     		movne	r0, #1
 1753 00c4 7047     		bx	lr
 1754              	.LVL157:
 1755              	.L199:
1530:/home/jonas/warwick/3dProfilometer/xpcc/ext/stm32f4xx_lib/STM32F4xx_StdPeriph_Driver/src/stm32f4xx_can.c ****         itstatus = CheckITStatus(CANx->MSR, CAN_MSR_WKUI);  
 1756              		.loc 1 1530 0
 1757 00c6 4068     		ldr	r0, [r0, #4]
 1758              	.LVL158:
 1759              		.loc 1 1681 0
 1760 00c8 C0F3C000 		ubfx	r0, r0, #3, #1
 1761              	.LVL159:
 1762 00cc 7047     		bx	lr
 1763              	.LVL160:
 1764              	.L195:
1542:/home/jonas/warwick/3dProfilometer/xpcc/ext/stm32f4xx_lib/STM32F4xx_StdPeriph_Driver/src/stm32f4xx_can.c ****         itstatus = CheckITStatus(CANx->ESR, CAN_ESR_EPVF);  
 1765              		.loc 1 1542 0
 1766 00ce 8069     		ldr	r0, [r0, #24]
 1767              	.LVL161:
 1768              		.loc 1 1681 0
 1769 00d0 C0F34000 		ubfx	r0, r0, #1, #1
 1770              	.LVL162:
 1771 00d4 7047     		bx	lr
 1772              	.LVL163:
 1773              	.L191:
1518:/home/jonas/warwick/3dProfilometer/xpcc/ext/stm32f4xx_lib/STM32F4xx_StdPeriph_Driver/src/stm32f4xx_can.c ****         itstatus = CheckITStatus(CANx->RF1R, CAN_RF1R_FMP1);  
 1774              		.loc 1 1518 0
 1775 00d6 0069     		ldr	r0, [r0, #16]
 1776              	.LVL164:
 1777              		.loc 1 1681 0
 1778 00d8 10F00300 		ands	r0, r0, #3
 1779              	.LVL165:
 1780 00dc 18BF     		it	ne
 1781 00de 0120     		movne	r0, #1
 1782 00e0 7047     		bx	lr
 1783              		.cfi_endproc
 1784              	.LFE132:
 1786 00e2 00BF     		.section	.text.CAN_ClearITPendingBit,"ax",%progbits
 1787              		.align	2
 1788              		.global	CAN_ClearITPendingBit
 1789              		.thumb
 1790              		.thumb_func
 1792              	CAN_ClearITPendingBit:
 1793              	.LFB133:
1592:/home/jonas/warwick/3dProfilometer/xpcc/ext/stm32f4xx_lib/STM32F4xx_StdPeriph_Driver/src/stm32f4xx_can.c **** {
 1794              		.loc 1 1592 0
 1795              		.cfi_startproc
 1796              		@ args = 0, pretend = 0, frame = 0
 1797              		@ frame_needed = 0, uses_anonymous_args = 0
 1798              		@ link register save eliminated.
 1799              	.LVL166:
1597:/home/jonas/warwick/3dProfilometer/xpcc/ext/stm32f4xx_lib/STM32F4xx_StdPeriph_Driver/src/stm32f4xx_can.c ****   switch (CAN_IT)
 1800              		.loc 1 1597 0
 1801 0000 B1F5807F 		cmp	r1, #256
 1802 0004 0FD0     		beq	.L224
 1803 0006 11D9     		bls	.L225
 1804 0008 B1F5006F 		cmp	r1, #2048
 1805 000c 09D0     		beq	.L218
 1806 000e 17D9     		bls	.L226
 1807 0010 B1F5803F 		cmp	r1, #65536
 1808 0014 2ED0     		beq	.L219
 1809 0016 B1F5003F 		cmp	r1, #131072
 1810 001a 28D0     		beq	.L220
 1811 001c B1F5004F 		cmp	r1, #32768
 1812 0020 03D1     		bne	.L207
 1813              	.L218:
1650:/home/jonas/warwick/3dProfilometer/xpcc/ext/stm32f4xx_lib/STM32F4xx_StdPeriph_Driver/src/stm32f4xx_can.c ****       CANx->ESR = RESET; 
 1814              		.loc 1 1650 0
 1815 0022 0023     		movs	r3, #0
 1816 0024 8361     		str	r3, [r0, #24]
 1817              	.L224:
1652:/home/jonas/warwick/3dProfilometer/xpcc/ext/stm32f4xx_lib/STM32F4xx_StdPeriph_Driver/src/stm32f4xx_can.c ****       CANx->MSR = CAN_MSR_ERRI; 
 1818              		.loc 1 1652 0
 1819 0026 0423     		movs	r3, #4
 1820 0028 4360     		str	r3, [r0, #4]
 1821              	.L207:
 1822 002a 7047     		bx	lr
 1823              	.L225:
1597:/home/jonas/warwick/3dProfilometer/xpcc/ext/stm32f4xx_lib/STM32F4xx_StdPeriph_Driver/src/stm32f4xx_can.c ****   switch (CAN_IT)
 1824              		.loc 1 1597 0
 1825 002c 0829     		cmp	r1, #8
 1826 002e 15D0     		beq	.L211
 1827 0030 0DD9     		bls	.L227
 1828 0032 2029     		cmp	r1, #32
 1829 0034 15D0     		beq	.L212
 1830 0036 4029     		cmp	r1, #64
 1831 0038 F7D1     		bne	.L207
1617:/home/jonas/warwick/3dProfilometer/xpcc/ext/stm32f4xx_lib/STM32F4xx_StdPeriph_Driver/src/stm32f4xx_can.c ****       CANx->RF1R = CAN_RF1R_FOVR1; 
 1832              		.loc 1 1617 0
 1833 003a 1023     		movs	r3, #16
 1834 003c 0361     		str	r3, [r0, #16]
1618:/home/jonas/warwick/3dProfilometer/xpcc/ext/stm32f4xx_lib/STM32F4xx_StdPeriph_Driver/src/stm32f4xx_can.c ****       break;
 1835              		.loc 1 1618 0
 1836 003e 7047     		bx	lr
 1837              	.L226:
1597:/home/jonas/warwick/3dProfilometer/xpcc/ext/stm32f4xx_lib/STM32F4xx_StdPeriph_Driver/src/stm32f4xx_can.c ****   switch (CAN_IT)
 1838              		.loc 1 1597 0
 1839 0040 B1F5007F 		cmp	r1, #512
 1840 0044 EFD0     		beq	.L224
 1841 0046 B1F5806F 		cmp	r1, #1024
 1842 004a EED1     		bne	.L207
 1843 004c EBE7     		b	.L224
 1844              	.L227:
 1845 004e 0129     		cmp	r1, #1
 1846 0050 0AD0     		beq	.L209
 1847 0052 0429     		cmp	r1, #4
 1848 0054 E9D1     		bne	.L207
1605:/home/jonas/warwick/3dProfilometer/xpcc/ext/stm32f4xx_lib/STM32F4xx_StdPeriph_Driver/src/stm32f4xx_can.c ****       CANx->RF0R = CAN_RF0R_FULL0; 
 1849              		.loc 1 1605 0
 1850 0056 0823     		movs	r3, #8
 1851 0058 C360     		str	r3, [r0, #12]
1606:/home/jonas/warwick/3dProfilometer/xpcc/ext/stm32f4xx_lib/STM32F4xx_StdPeriph_Driver/src/stm32f4xx_can.c ****       break;
 1852              		.loc 1 1606 0
 1853 005a 7047     		bx	lr
 1854              	.L211:
1609:/home/jonas/warwick/3dProfilometer/xpcc/ext/stm32f4xx_lib/STM32F4xx_StdPeriph_Driver/src/stm32f4xx_can.c ****       CANx->RF0R = CAN_RF0R_FOVR0; 
 1855              		.loc 1 1609 0
 1856 005c 1023     		movs	r3, #16
 1857 005e C360     		str	r3, [r0, #12]
1610:/home/jonas/warwick/3dProfilometer/xpcc/ext/stm32f4xx_lib/STM32F4xx_StdPeriph_Driver/src/stm32f4xx_can.c ****       break;
 1858              		.loc 1 1610 0
 1859 0060 7047     		bx	lr
 1860              	.L212:
1613:/home/jonas/warwick/3dProfilometer/xpcc/ext/stm32f4xx_lib/STM32F4xx_StdPeriph_Driver/src/stm32f4xx_can.c ****       CANx->RF1R = CAN_RF1R_FULL1;  
 1861              		.loc 1 1613 0
 1862 0062 0823     		movs	r3, #8
 1863 0064 0361     		str	r3, [r0, #16]
1614:/home/jonas/warwick/3dProfilometer/xpcc/ext/stm32f4xx_lib/STM32F4xx_StdPeriph_Driver/src/stm32f4xx_can.c ****       break;
 1864              		.loc 1 1614 0
 1865 0066 7047     		bx	lr
 1866              	.L209:
1601:/home/jonas/warwick/3dProfilometer/xpcc/ext/stm32f4xx_lib/STM32F4xx_StdPeriph_Driver/src/stm32f4xx_can.c ****       CANx->TSR = CAN_TSR_RQCP0|CAN_TSR_RQCP1|CAN_TSR_RQCP2;  
 1867              		.loc 1 1601 0
 1868 0068 044B     		ldr	r3, .L228
 1869 006a 8360     		str	r3, [r0, #8]
1602:/home/jonas/warwick/3dProfilometer/xpcc/ext/stm32f4xx_lib/STM32F4xx_StdPeriph_Driver/src/stm32f4xx_can.c ****       break;
 1870              		.loc 1 1602 0
 1871 006c 7047     		bx	lr
 1872              	.L220:
1625:/home/jonas/warwick/3dProfilometer/xpcc/ext/stm32f4xx_lib/STM32F4xx_StdPeriph_Driver/src/stm32f4xx_can.c ****       CANx->MSR = CAN_MSR_SLAKI;   
 1873              		.loc 1 1625 0
 1874 006e 1023     		movs	r3, #16
 1875 0070 4360     		str	r3, [r0, #4]
1626:/home/jonas/warwick/3dProfilometer/xpcc/ext/stm32f4xx_lib/STM32F4xx_StdPeriph_Driver/src/stm32f4xx_can.c ****       break;
 1876              		.loc 1 1626 0
 1877 0072 7047     		bx	lr
 1878              	.L219:
1621:/home/jonas/warwick/3dProfilometer/xpcc/ext/stm32f4xx_lib/STM32F4xx_StdPeriph_Driver/src/stm32f4xx_can.c ****       CANx->MSR = CAN_MSR_WKUI;  
 1879              		.loc 1 1621 0
 1880 0074 0823     		movs	r3, #8
 1881 0076 4360     		str	r3, [r0, #4]
1622:/home/jonas/warwick/3dProfilometer/xpcc/ext/stm32f4xx_lib/STM32F4xx_StdPeriph_Driver/src/stm32f4xx_can.c ****       break;
 1882              		.loc 1 1622 0
 1883 0078 7047     		bx	lr
 1884              	.L229:
 1885 007a 00BF     		.align	2
 1886              	.L228:
 1887 007c 01010100 		.word	65793
 1888              		.cfi_endproc
 1889              	.LFE133:
 1891              		.text
 1892              	.Letext0:
 1893              		.file 2 "/opt/arm-2012.09/bin/../lib/gcc/arm-none-eabi/4.7.2/../../../../arm-none-eabi/include/std
 1894              		.file 3 "/home/jonas/warwick/3dProfilometer/xpcc/ext/stm32f4xx_lib/CMSIS/Device/ST/STM32F4xx/Inclu
 1895              		.file 4 "/home/jonas/warwick/3dProfilometer/xpcc/ext/stm32f4xx_lib/STM32F4xx_StdPeriph_Driver/inc/
 1896              		.file 5 "/home/jonas/warwick/3dProfilometer/xpcc/ext/stm32f4xx_lib/CMSIS/Include/core_cm4.h"
DEFINED SYMBOLS
                            *ABS*:00000000 stm32f4xx_can.c
     /tmp/cc2Gc4k6.s:20     .text.CAN_DeInit:00000000 $t
     /tmp/cc2Gc4k6.s:25     .text.CAN_DeInit:00000000 CAN_DeInit
     /tmp/cc2Gc4k6.s:75     .text.CAN_DeInit:00000030 $d
     /tmp/cc2Gc4k6.s:81     .text.CAN_Init:00000000 $t
     /tmp/cc2Gc4k6.s:86     .text.CAN_Init:00000000 CAN_Init
     /tmp/cc2Gc4k6.s:271    .text.CAN_FilterInit:00000000 $t
     /tmp/cc2Gc4k6.s:276    .text.CAN_FilterInit:00000000 CAN_FilterInit
     /tmp/cc2Gc4k6.s:445    .text.CAN_FilterInit:000000fc $d
     /tmp/cc2Gc4k6.s:451    .text.CAN_StructInit:00000000 $t
     /tmp/cc2Gc4k6.s:456    .text.CAN_StructInit:00000000 CAN_StructInit
     /tmp/cc2Gc4k6.s:495    .text.CAN_SlaveStartBank:00000000 $t
     /tmp/cc2Gc4k6.s:500    .text.CAN_SlaveStartBank:00000000 CAN_SlaveStartBank
     /tmp/cc2Gc4k6.s:531    .text.CAN_SlaveStartBank:00000038 $d
     /tmp/cc2Gc4k6.s:536    .text.CAN_DBGFreeze:00000000 $t
     /tmp/cc2Gc4k6.s:541    .text.CAN_DBGFreeze:00000000 CAN_DBGFreeze
     /tmp/cc2Gc4k6.s:566    .text.CAN_TTComModeCmd:00000000 $t
     /tmp/cc2Gc4k6.s:571    .text.CAN_TTComModeCmd:00000000 CAN_TTComModeCmd
     /tmp/cc2Gc4k6.s:620    .text.CAN_Transmit:00000000 $t
     /tmp/cc2Gc4k6.s:625    .text.CAN_Transmit:00000000 CAN_Transmit
     /tmp/cc2Gc4k6.s:783    .text.CAN_TransmitStatus:00000000 $t
     /tmp/cc2Gc4k6.s:788    .text.CAN_TransmitStatus:00000000 CAN_TransmitStatus
     /tmp/cc2Gc4k6.s:863    .text.CAN_TransmitStatus:00000044 $d
     /tmp/cc2Gc4k6.s:870    .text.CAN_CancelTransmit:00000000 $t
     /tmp/cc2Gc4k6.s:875    .text.CAN_CancelTransmit:00000000 CAN_CancelTransmit
     /tmp/cc2Gc4k6.s:913    .text.CAN_Receive:00000000 $t
     /tmp/cc2Gc4k6.s:918    .text.CAN_Receive:00000000 CAN_Receive
     /tmp/cc2Gc4k6.s:1024   .text.CAN_FIFORelease:00000000 $t
     /tmp/cc2Gc4k6.s:1029   .text.CAN_FIFORelease:00000000 CAN_FIFORelease
     /tmp/cc2Gc4k6.s:1054   .text.CAN_MessagePending:00000000 $t
     /tmp/cc2Gc4k6.s:1059   .text.CAN_MessagePending:00000000 CAN_MessagePending
     /tmp/cc2Gc4k6.s:1097   .text.CAN_OperatingModeRequest:00000000 $t
     /tmp/cc2Gc4k6.s:1102   .text.CAN_OperatingModeRequest:00000000 CAN_OperatingModeRequest
     /tmp/cc2Gc4k6.s:1245   .text.CAN_Sleep:00000000 $t
     /tmp/cc2Gc4k6.s:1250   .text.CAN_Sleep:00000000 CAN_Sleep
     /tmp/cc2Gc4k6.s:1277   .text.CAN_WakeUp:00000000 $t
     /tmp/cc2Gc4k6.s:1282   .text.CAN_WakeUp:00000000 CAN_WakeUp
     /tmp/cc2Gc4k6.s:1329   .text.CAN_GetLastErrorCode:00000000 $t
     /tmp/cc2Gc4k6.s:1334   .text.CAN_GetLastErrorCode:00000000 CAN_GetLastErrorCode
     /tmp/cc2Gc4k6.s:1353   .text.CAN_GetReceiveErrorCounter:00000000 $t
     /tmp/cc2Gc4k6.s:1358   .text.CAN_GetReceiveErrorCounter:00000000 CAN_GetReceiveErrorCounter
     /tmp/cc2Gc4k6.s:1377   .text.CAN_GetLSBTransmitErrorCounter:00000000 $t
     /tmp/cc2Gc4k6.s:1382   .text.CAN_GetLSBTransmitErrorCounter:00000000 CAN_GetLSBTransmitErrorCounter
     /tmp/cc2Gc4k6.s:1401   .text.CAN_ITConfig:00000000 $t
     /tmp/cc2Gc4k6.s:1406   .text.CAN_ITConfig:00000000 CAN_ITConfig
     /tmp/cc2Gc4k6.s:1434   .text.CAN_GetFlagStatus:00000000 $t
     /tmp/cc2Gc4k6.s:1439   .text.CAN_GetFlagStatus:00000000 CAN_GetFlagStatus
     /tmp/cc2Gc4k6.s:1516   .text.CAN_ClearFlag:00000000 $t
     /tmp/cc2Gc4k6.s:1521   .text.CAN_ClearFlag:00000000 CAN_ClearFlag
     /tmp/cc2Gc4k6.s:1571   .text.CAN_ClearFlag:00000030 $d
     /tmp/cc2Gc4k6.s:1576   .text.CAN_GetITStatus:00000000 $t
     /tmp/cc2Gc4k6.s:1581   .text.CAN_GetITStatus:00000000 CAN_GetITStatus
     /tmp/cc2Gc4k6.s:1787   .text.CAN_ClearITPendingBit:00000000 $t
     /tmp/cc2Gc4k6.s:1792   .text.CAN_ClearITPendingBit:00000000 CAN_ClearITPendingBit
     /tmp/cc2Gc4k6.s:1887   .text.CAN_ClearITPendingBit:0000007c $d
                     .debug_frame:00000010 $d

UNDEFINED SYMBOLS
RCC_APB1PeriphResetCmd
