   1              		.syntax unified
   2              		.cpu cortex-m4
   3              		.eabi_attribute 27, 3
   4              		.fpu fpv4-sp-d16
   5              		.eabi_attribute 20, 1
   6              		.eabi_attribute 21, 1
   7              		.eabi_attribute 23, 3
   8              		.eabi_attribute 24, 1
   9              		.eabi_attribute 25, 1
  10              		.eabi_attribute 26, 1
  11              		.eabi_attribute 30, 2
  12              		.eabi_attribute 34, 1
  13              		.eabi_attribute 18, 4
  14              		.thumb
  15              		.file	"stm32f4xx_cryp.c"
  16              		.text
  17              	.Ltext0:
  18              		.cfi_sections	.debug_frame
  19              		.section	.text.CRYP_DeInit,"ax",%progbits
  20              		.align	2
  21              		.global	CRYP_DeInit
  22              		.thumb
  23              		.thumb_func
  25              	CRYP_DeInit:
  26              	.LFB110:
  27              		.file 1 "/home/jonas/warwick/3dProfilometer/xpcc/ext/stm32f4xx_lib/STM32F4xx_StdPeriph_Driver/src/
   1:/home/jonas/warwick/3dProfilometer/xpcc/ext/stm32f4xx_lib/STM32F4xx_StdPeriph_Driver/src/stm32f4xx_cryp.c **** /**
   2:/home/jonas/warwick/3dProfilometer/xpcc/ext/stm32f4xx_lib/STM32F4xx_StdPeriph_Driver/src/stm32f4xx_cryp.c ****   ******************************************************************************
   3:/home/jonas/warwick/3dProfilometer/xpcc/ext/stm32f4xx_lib/STM32F4xx_StdPeriph_Driver/src/stm32f4xx_cryp.c ****   * @file    stm32f4xx_cryp.c
   4:/home/jonas/warwick/3dProfilometer/xpcc/ext/stm32f4xx_lib/STM32F4xx_StdPeriph_Driver/src/stm32f4xx_cryp.c ****   * @author  MCD Application Team
   5:/home/jonas/warwick/3dProfilometer/xpcc/ext/stm32f4xx_lib/STM32F4xx_StdPeriph_Driver/src/stm32f4xx_cryp.c ****   * @version V1.0.0
   6:/home/jonas/warwick/3dProfilometer/xpcc/ext/stm32f4xx_lib/STM32F4xx_StdPeriph_Driver/src/stm32f4xx_cryp.c ****   * @date    30-September-2011
   7:/home/jonas/warwick/3dProfilometer/xpcc/ext/stm32f4xx_lib/STM32F4xx_StdPeriph_Driver/src/stm32f4xx_cryp.c ****   * @brief   This file provides firmware functions to manage the following 
   8:/home/jonas/warwick/3dProfilometer/xpcc/ext/stm32f4xx_lib/STM32F4xx_StdPeriph_Driver/src/stm32f4xx_cryp.c ****   *          functionalities of the  Cryptographic processor (CRYP) peripheral:           
   9:/home/jonas/warwick/3dProfilometer/xpcc/ext/stm32f4xx_lib/STM32F4xx_StdPeriph_Driver/src/stm32f4xx_cryp.c ****   *           - Initialization and Configuration functions
  10:/home/jonas/warwick/3dProfilometer/xpcc/ext/stm32f4xx_lib/STM32F4xx_StdPeriph_Driver/src/stm32f4xx_cryp.c ****   *           - Data treatment functions 
  11:/home/jonas/warwick/3dProfilometer/xpcc/ext/stm32f4xx_lib/STM32F4xx_StdPeriph_Driver/src/stm32f4xx_cryp.c ****   *           - Context swapping functions     
  12:/home/jonas/warwick/3dProfilometer/xpcc/ext/stm32f4xx_lib/STM32F4xx_StdPeriph_Driver/src/stm32f4xx_cryp.c ****   *           - DMA interface function       
  13:/home/jonas/warwick/3dProfilometer/xpcc/ext/stm32f4xx_lib/STM32F4xx_StdPeriph_Driver/src/stm32f4xx_cryp.c ****   *           - Interrupts and flags management       
  14:/home/jonas/warwick/3dProfilometer/xpcc/ext/stm32f4xx_lib/STM32F4xx_StdPeriph_Driver/src/stm32f4xx_cryp.c ****   *
  15:/home/jonas/warwick/3dProfilometer/xpcc/ext/stm32f4xx_lib/STM32F4xx_StdPeriph_Driver/src/stm32f4xx_cryp.c ****   *  @verbatim
  16:/home/jonas/warwick/3dProfilometer/xpcc/ext/stm32f4xx_lib/STM32F4xx_StdPeriph_Driver/src/stm32f4xx_cryp.c ****   *                               
  17:/home/jonas/warwick/3dProfilometer/xpcc/ext/stm32f4xx_lib/STM32F4xx_StdPeriph_Driver/src/stm32f4xx_cryp.c ****   *          ===================================================================      
  18:/home/jonas/warwick/3dProfilometer/xpcc/ext/stm32f4xx_lib/STM32F4xx_StdPeriph_Driver/src/stm32f4xx_cryp.c ****   *                                 How to use this driver
  19:/home/jonas/warwick/3dProfilometer/xpcc/ext/stm32f4xx_lib/STM32F4xx_StdPeriph_Driver/src/stm32f4xx_cryp.c ****   *          =================================================================== 
  20:/home/jonas/warwick/3dProfilometer/xpcc/ext/stm32f4xx_lib/STM32F4xx_StdPeriph_Driver/src/stm32f4xx_cryp.c ****   *          1. Enable the CRYP controller clock using 
  21:/home/jonas/warwick/3dProfilometer/xpcc/ext/stm32f4xx_lib/STM32F4xx_StdPeriph_Driver/src/stm32f4xx_cryp.c ****   *              RCC_AHB2PeriphClockCmd(RCC_AHB2Periph_CRYP, ENABLE); function.
  22:/home/jonas/warwick/3dProfilometer/xpcc/ext/stm32f4xx_lib/STM32F4xx_StdPeriph_Driver/src/stm32f4xx_cryp.c ****   *
  23:/home/jonas/warwick/3dProfilometer/xpcc/ext/stm32f4xx_lib/STM32F4xx_StdPeriph_Driver/src/stm32f4xx_cryp.c ****   *          2. Initialise the CRYP using CRYP_Init(), CRYP_KeyInit() and if 
  24:/home/jonas/warwick/3dProfilometer/xpcc/ext/stm32f4xx_lib/STM32F4xx_StdPeriph_Driver/src/stm32f4xx_cryp.c ****   *             needed CRYP_IVInit(). 
  25:/home/jonas/warwick/3dProfilometer/xpcc/ext/stm32f4xx_lib/STM32F4xx_StdPeriph_Driver/src/stm32f4xx_cryp.c ****   *
  26:/home/jonas/warwick/3dProfilometer/xpcc/ext/stm32f4xx_lib/STM32F4xx_StdPeriph_Driver/src/stm32f4xx_cryp.c ****   *          3. Flush the IN and OUT FIFOs by using CRYP_FIFOFlush() function.
  27:/home/jonas/warwick/3dProfilometer/xpcc/ext/stm32f4xx_lib/STM32F4xx_StdPeriph_Driver/src/stm32f4xx_cryp.c ****   *
  28:/home/jonas/warwick/3dProfilometer/xpcc/ext/stm32f4xx_lib/STM32F4xx_StdPeriph_Driver/src/stm32f4xx_cryp.c ****   *          4. Enable the CRYP controller using the CRYP_Cmd() function. 
  29:/home/jonas/warwick/3dProfilometer/xpcc/ext/stm32f4xx_lib/STM32F4xx_StdPeriph_Driver/src/stm32f4xx_cryp.c ****   *
  30:/home/jonas/warwick/3dProfilometer/xpcc/ext/stm32f4xx_lib/STM32F4xx_StdPeriph_Driver/src/stm32f4xx_cryp.c ****   *          5. If using DMA for Data input and output transfer, 
  31:/home/jonas/warwick/3dProfilometer/xpcc/ext/stm32f4xx_lib/STM32F4xx_StdPeriph_Driver/src/stm32f4xx_cryp.c ****   *             Activate the needed DMA Requests using CRYP_DMACmd() function 
  32:/home/jonas/warwick/3dProfilometer/xpcc/ext/stm32f4xx_lib/STM32F4xx_StdPeriph_Driver/src/stm32f4xx_cryp.c ****   
  33:/home/jonas/warwick/3dProfilometer/xpcc/ext/stm32f4xx_lib/STM32F4xx_StdPeriph_Driver/src/stm32f4xx_cryp.c ****   *          6. If DMA is not used for data transfer, use CRYP_DataIn() and 
  34:/home/jonas/warwick/3dProfilometer/xpcc/ext/stm32f4xx_lib/STM32F4xx_StdPeriph_Driver/src/stm32f4xx_cryp.c ****   *             CRYP_DataOut() functions to enter data to IN FIFO and get result
  35:/home/jonas/warwick/3dProfilometer/xpcc/ext/stm32f4xx_lib/STM32F4xx_StdPeriph_Driver/src/stm32f4xx_cryp.c ****   *             from OUT FIFO.
  36:/home/jonas/warwick/3dProfilometer/xpcc/ext/stm32f4xx_lib/STM32F4xx_StdPeriph_Driver/src/stm32f4xx_cryp.c ****   *
  37:/home/jonas/warwick/3dProfilometer/xpcc/ext/stm32f4xx_lib/STM32F4xx_StdPeriph_Driver/src/stm32f4xx_cryp.c ****   *          7. To control CRYP events you can use one of the following 
  38:/home/jonas/warwick/3dProfilometer/xpcc/ext/stm32f4xx_lib/STM32F4xx_StdPeriph_Driver/src/stm32f4xx_cryp.c ****   *              two methods:
  39:/home/jonas/warwick/3dProfilometer/xpcc/ext/stm32f4xx_lib/STM32F4xx_StdPeriph_Driver/src/stm32f4xx_cryp.c ****   *               - Check on CRYP flags using the CRYP_GetFlagStatus() function.  
  40:/home/jonas/warwick/3dProfilometer/xpcc/ext/stm32f4xx_lib/STM32F4xx_StdPeriph_Driver/src/stm32f4xx_cryp.c ****   *               - Use CRYP interrupts through the function CRYP_ITConfig() at 
  41:/home/jonas/warwick/3dProfilometer/xpcc/ext/stm32f4xx_lib/STM32F4xx_StdPeriph_Driver/src/stm32f4xx_cryp.c ****   *                 initialization phase and CRYP_GetITStatus() function into 
  42:/home/jonas/warwick/3dProfilometer/xpcc/ext/stm32f4xx_lib/STM32F4xx_StdPeriph_Driver/src/stm32f4xx_cryp.c ****   *                 interrupt routines in processing phase.
  43:/home/jonas/warwick/3dProfilometer/xpcc/ext/stm32f4xx_lib/STM32F4xx_StdPeriph_Driver/src/stm32f4xx_cryp.c ****   *       
  44:/home/jonas/warwick/3dProfilometer/xpcc/ext/stm32f4xx_lib/STM32F4xx_StdPeriph_Driver/src/stm32f4xx_cryp.c ****   *          8. Save and restore Cryptographic processor context using  
  45:/home/jonas/warwick/3dProfilometer/xpcc/ext/stm32f4xx_lib/STM32F4xx_StdPeriph_Driver/src/stm32f4xx_cryp.c ****   *             CRYP_SaveContext() and CRYP_RestoreContext() functions.     
  46:/home/jonas/warwick/3dProfilometer/xpcc/ext/stm32f4xx_lib/STM32F4xx_StdPeriph_Driver/src/stm32f4xx_cryp.c ****   *
  47:/home/jonas/warwick/3dProfilometer/xpcc/ext/stm32f4xx_lib/STM32F4xx_StdPeriph_Driver/src/stm32f4xx_cryp.c ****   *
  48:/home/jonas/warwick/3dProfilometer/xpcc/ext/stm32f4xx_lib/STM32F4xx_StdPeriph_Driver/src/stm32f4xx_cryp.c ****   *          ===================================================================  
  49:/home/jonas/warwick/3dProfilometer/xpcc/ext/stm32f4xx_lib/STM32F4xx_StdPeriph_Driver/src/stm32f4xx_cryp.c ****   *                Procedure to perform an encryption or a decryption
  50:/home/jonas/warwick/3dProfilometer/xpcc/ext/stm32f4xx_lib/STM32F4xx_StdPeriph_Driver/src/stm32f4xx_cryp.c ****   *          ===================================================================  
  51:/home/jonas/warwick/3dProfilometer/xpcc/ext/stm32f4xx_lib/STM32F4xx_StdPeriph_Driver/src/stm32f4xx_cryp.c ****   *
  52:/home/jonas/warwick/3dProfilometer/xpcc/ext/stm32f4xx_lib/STM32F4xx_StdPeriph_Driver/src/stm32f4xx_cryp.c ****   *      Initialization
  53:/home/jonas/warwick/3dProfilometer/xpcc/ext/stm32f4xx_lib/STM32F4xx_StdPeriph_Driver/src/stm32f4xx_cryp.c ****   *      ===============  
  54:/home/jonas/warwick/3dProfilometer/xpcc/ext/stm32f4xx_lib/STM32F4xx_StdPeriph_Driver/src/stm32f4xx_cryp.c ****   *     1. Initialize the peripheral using CRYP_Init(), CRYP_KeyInit() and 
  55:/home/jonas/warwick/3dProfilometer/xpcc/ext/stm32f4xx_lib/STM32F4xx_StdPeriph_Driver/src/stm32f4xx_cryp.c ****   *        CRYP_IVInit functions:
  56:/home/jonas/warwick/3dProfilometer/xpcc/ext/stm32f4xx_lib/STM32F4xx_StdPeriph_Driver/src/stm32f4xx_cryp.c ****   *        - Configure the key size (128-, 192- or 256-bit, in the AES only) 
  57:/home/jonas/warwick/3dProfilometer/xpcc/ext/stm32f4xx_lib/STM32F4xx_StdPeriph_Driver/src/stm32f4xx_cryp.c ****   *        - Enter the symmetric key 
  58:/home/jonas/warwick/3dProfilometer/xpcc/ext/stm32f4xx_lib/STM32F4xx_StdPeriph_Driver/src/stm32f4xx_cryp.c ****   *        - Configure the data type
  59:/home/jonas/warwick/3dProfilometer/xpcc/ext/stm32f4xx_lib/STM32F4xx_StdPeriph_Driver/src/stm32f4xx_cryp.c ****   *        - In case of decryption in AES-ECB or AES-CBC, you must prepare 
  60:/home/jonas/warwick/3dProfilometer/xpcc/ext/stm32f4xx_lib/STM32F4xx_StdPeriph_Driver/src/stm32f4xx_cryp.c ****   *          the key: configure the key preparation mode. Then Enable the CRYP 
  61:/home/jonas/warwick/3dProfilometer/xpcc/ext/stm32f4xx_lib/STM32F4xx_StdPeriph_Driver/src/stm32f4xx_cryp.c ****   *          peripheral using CRYP_Cmd() function: the BUSY flag is set. 
  62:/home/jonas/warwick/3dProfilometer/xpcc/ext/stm32f4xx_lib/STM32F4xx_StdPeriph_Driver/src/stm32f4xx_cryp.c ****   *          Wait until BUSY flag is reset : the key is prepared for decryption
  63:/home/jonas/warwick/3dProfilometer/xpcc/ext/stm32f4xx_lib/STM32F4xx_StdPeriph_Driver/src/stm32f4xx_cryp.c ****   *       - Configure the algorithm and chaining (the DES/TDES in ECB/CBC, the 
  64:/home/jonas/warwick/3dProfilometer/xpcc/ext/stm32f4xx_lib/STM32F4xx_StdPeriph_Driver/src/stm32f4xx_cryp.c ****   *          AES in ECB/CBC/CTR) 
  65:/home/jonas/warwick/3dProfilometer/xpcc/ext/stm32f4xx_lib/STM32F4xx_StdPeriph_Driver/src/stm32f4xx_cryp.c ****   *       - Configure the direction (encryption/decryption).
  66:/home/jonas/warwick/3dProfilometer/xpcc/ext/stm32f4xx_lib/STM32F4xx_StdPeriph_Driver/src/stm32f4xx_cryp.c ****   *       - Write the initialization vectors (in CBC or CTR modes only)
  67:/home/jonas/warwick/3dProfilometer/xpcc/ext/stm32f4xx_lib/STM32F4xx_StdPeriph_Driver/src/stm32f4xx_cryp.c ****   *
  68:/home/jonas/warwick/3dProfilometer/xpcc/ext/stm32f4xx_lib/STM32F4xx_StdPeriph_Driver/src/stm32f4xx_cryp.c ****   *    2. Flush the IN and OUT FIFOs using the CRYP_FIFOFlush() function
  69:/home/jonas/warwick/3dProfilometer/xpcc/ext/stm32f4xx_lib/STM32F4xx_StdPeriph_Driver/src/stm32f4xx_cryp.c ****   *
  70:/home/jonas/warwick/3dProfilometer/xpcc/ext/stm32f4xx_lib/STM32F4xx_StdPeriph_Driver/src/stm32f4xx_cryp.c ****   *
  71:/home/jonas/warwick/3dProfilometer/xpcc/ext/stm32f4xx_lib/STM32F4xx_StdPeriph_Driver/src/stm32f4xx_cryp.c ****   *    Basic Processing mode (polling mode) 
  72:/home/jonas/warwick/3dProfilometer/xpcc/ext/stm32f4xx_lib/STM32F4xx_StdPeriph_Driver/src/stm32f4xx_cryp.c ****   *    ====================================  
  73:/home/jonas/warwick/3dProfilometer/xpcc/ext/stm32f4xx_lib/STM32F4xx_StdPeriph_Driver/src/stm32f4xx_cryp.c ****   *    1. Enable the cryptographic processor using CRYP_Cmd() function.
  74:/home/jonas/warwick/3dProfilometer/xpcc/ext/stm32f4xx_lib/STM32F4xx_StdPeriph_Driver/src/stm32f4xx_cryp.c ****   *
  75:/home/jonas/warwick/3dProfilometer/xpcc/ext/stm32f4xx_lib/STM32F4xx_StdPeriph_Driver/src/stm32f4xx_cryp.c ****   *    2. Write the first blocks in the input FIFO (2 to 8 words) using 
  76:/home/jonas/warwick/3dProfilometer/xpcc/ext/stm32f4xx_lib/STM32F4xx_StdPeriph_Driver/src/stm32f4xx_cryp.c ****   *       CRYP_DataIn() function.
  77:/home/jonas/warwick/3dProfilometer/xpcc/ext/stm32f4xx_lib/STM32F4xx_StdPeriph_Driver/src/stm32f4xx_cryp.c ****   *
  78:/home/jonas/warwick/3dProfilometer/xpcc/ext/stm32f4xx_lib/STM32F4xx_StdPeriph_Driver/src/stm32f4xx_cryp.c ****   *    3. Repeat the following sequence until the complete message has been 
  79:/home/jonas/warwick/3dProfilometer/xpcc/ext/stm32f4xx_lib/STM32F4xx_StdPeriph_Driver/src/stm32f4xx_cryp.c ****   *       processed:
  80:/home/jonas/warwick/3dProfilometer/xpcc/ext/stm32f4xx_lib/STM32F4xx_StdPeriph_Driver/src/stm32f4xx_cryp.c ****   *
  81:/home/jonas/warwick/3dProfilometer/xpcc/ext/stm32f4xx_lib/STM32F4xx_StdPeriph_Driver/src/stm32f4xx_cryp.c ****   *       a) Wait for flag CRYP_FLAG_OFNE occurs (using CRYP_GetFlagStatus() 
  82:/home/jonas/warwick/3dProfilometer/xpcc/ext/stm32f4xx_lib/STM32F4xx_StdPeriph_Driver/src/stm32f4xx_cryp.c ****   *          function), then read the OUT-FIFO using CRYP_DataOut() function
  83:/home/jonas/warwick/3dProfilometer/xpcc/ext/stm32f4xx_lib/STM32F4xx_StdPeriph_Driver/src/stm32f4xx_cryp.c ****   *          (1 block or until the FIFO is empty)
  84:/home/jonas/warwick/3dProfilometer/xpcc/ext/stm32f4xx_lib/STM32F4xx_StdPeriph_Driver/src/stm32f4xx_cryp.c ****   *
  85:/home/jonas/warwick/3dProfilometer/xpcc/ext/stm32f4xx_lib/STM32F4xx_StdPeriph_Driver/src/stm32f4xx_cryp.c ****   *       b) Wait for flag CRYP_FLAG_IFNF occurs, (using CRYP_GetFlagStatus() 
  86:/home/jonas/warwick/3dProfilometer/xpcc/ext/stm32f4xx_lib/STM32F4xx_StdPeriph_Driver/src/stm32f4xx_cryp.c ****   *          function then write the IN FIFO using CRYP_DataIn() function 
  87:/home/jonas/warwick/3dProfilometer/xpcc/ext/stm32f4xx_lib/STM32F4xx_StdPeriph_Driver/src/stm32f4xx_cryp.c ****   *          (1 block or until the FIFO is full)
  88:/home/jonas/warwick/3dProfilometer/xpcc/ext/stm32f4xx_lib/STM32F4xx_StdPeriph_Driver/src/stm32f4xx_cryp.c ****   *
  89:/home/jonas/warwick/3dProfilometer/xpcc/ext/stm32f4xx_lib/STM32F4xx_StdPeriph_Driver/src/stm32f4xx_cryp.c ****   *    4. At the end of the processing, CRYP_FLAG_BUSY flag will be reset and 
  90:/home/jonas/warwick/3dProfilometer/xpcc/ext/stm32f4xx_lib/STM32F4xx_StdPeriph_Driver/src/stm32f4xx_cryp.c ****   *        both FIFOs are empty (CRYP_FLAG_IFEM is set and CRYP_FLAG_OFNE is 
  91:/home/jonas/warwick/3dProfilometer/xpcc/ext/stm32f4xx_lib/STM32F4xx_StdPeriph_Driver/src/stm32f4xx_cryp.c ****   *        reset). You can disable the peripheral using CRYP_Cmd() function.
  92:/home/jonas/warwick/3dProfilometer/xpcc/ext/stm32f4xx_lib/STM32F4xx_StdPeriph_Driver/src/stm32f4xx_cryp.c ****   *
  93:/home/jonas/warwick/3dProfilometer/xpcc/ext/stm32f4xx_lib/STM32F4xx_StdPeriph_Driver/src/stm32f4xx_cryp.c ****   *    Interrupts Processing mode 
  94:/home/jonas/warwick/3dProfilometer/xpcc/ext/stm32f4xx_lib/STM32F4xx_StdPeriph_Driver/src/stm32f4xx_cryp.c ****   *    ===========================
  95:/home/jonas/warwick/3dProfilometer/xpcc/ext/stm32f4xx_lib/STM32F4xx_StdPeriph_Driver/src/stm32f4xx_cryp.c ****   *    In this mode, Processing is done when the data are transferred by the 
  96:/home/jonas/warwick/3dProfilometer/xpcc/ext/stm32f4xx_lib/STM32F4xx_StdPeriph_Driver/src/stm32f4xx_cryp.c ****   *    CPU during interrupts.
  97:/home/jonas/warwick/3dProfilometer/xpcc/ext/stm32f4xx_lib/STM32F4xx_StdPeriph_Driver/src/stm32f4xx_cryp.c ****   *
  98:/home/jonas/warwick/3dProfilometer/xpcc/ext/stm32f4xx_lib/STM32F4xx_StdPeriph_Driver/src/stm32f4xx_cryp.c ****   *    1. Enable the interrupts CRYP_IT_INI and CRYP_IT_OUTI using 
  99:/home/jonas/warwick/3dProfilometer/xpcc/ext/stm32f4xx_lib/STM32F4xx_StdPeriph_Driver/src/stm32f4xx_cryp.c ****   *       CRYP_ITConfig() function.
 100:/home/jonas/warwick/3dProfilometer/xpcc/ext/stm32f4xx_lib/STM32F4xx_StdPeriph_Driver/src/stm32f4xx_cryp.c ****   *
 101:/home/jonas/warwick/3dProfilometer/xpcc/ext/stm32f4xx_lib/STM32F4xx_StdPeriph_Driver/src/stm32f4xx_cryp.c ****   *    2. Enable the cryptographic processor using CRYP_Cmd() function.
 102:/home/jonas/warwick/3dProfilometer/xpcc/ext/stm32f4xx_lib/STM32F4xx_StdPeriph_Driver/src/stm32f4xx_cryp.c ****   *
 103:/home/jonas/warwick/3dProfilometer/xpcc/ext/stm32f4xx_lib/STM32F4xx_StdPeriph_Driver/src/stm32f4xx_cryp.c ****   *    3. In the CRYP_IT_INI interrupt handler : load the input message into the 
 104:/home/jonas/warwick/3dProfilometer/xpcc/ext/stm32f4xx_lib/STM32F4xx_StdPeriph_Driver/src/stm32f4xx_cryp.c ****   *       IN FIFO using CRYP_DataIn() function . You can load 2 or 4 words at a 
 105:/home/jonas/warwick/3dProfilometer/xpcc/ext/stm32f4xx_lib/STM32F4xx_StdPeriph_Driver/src/stm32f4xx_cryp.c ****   *       time, or load data until the IN FIFO is full. When the last word of
 106:/home/jonas/warwick/3dProfilometer/xpcc/ext/stm32f4xx_lib/STM32F4xx_StdPeriph_Driver/src/stm32f4xx_cryp.c ****   *       the message has been entered into the IN FIFO, disable the CRYP_IT_INI 
 107:/home/jonas/warwick/3dProfilometer/xpcc/ext/stm32f4xx_lib/STM32F4xx_StdPeriph_Driver/src/stm32f4xx_cryp.c ****   *       interrupt (using CRYP_ITConfig() function).
 108:/home/jonas/warwick/3dProfilometer/xpcc/ext/stm32f4xx_lib/STM32F4xx_StdPeriph_Driver/src/stm32f4xx_cryp.c ****   *
 109:/home/jonas/warwick/3dProfilometer/xpcc/ext/stm32f4xx_lib/STM32F4xx_StdPeriph_Driver/src/stm32f4xx_cryp.c ****   *    4. In the CRYP_IT_OUTI interrupt handler : read the output message from 
 110:/home/jonas/warwick/3dProfilometer/xpcc/ext/stm32f4xx_lib/STM32F4xx_StdPeriph_Driver/src/stm32f4xx_cryp.c ****   *       the OUT FIFO using CRYP_DataOut() function. You can read 1 block (2 or 
 111:/home/jonas/warwick/3dProfilometer/xpcc/ext/stm32f4xx_lib/STM32F4xx_StdPeriph_Driver/src/stm32f4xx_cryp.c ****   *       4 words) at a time or read data until the FIFO is empty.
 112:/home/jonas/warwick/3dProfilometer/xpcc/ext/stm32f4xx_lib/STM32F4xx_StdPeriph_Driver/src/stm32f4xx_cryp.c ****   *       When the last word has been read, INIM=0, BUSY=0 and both FIFOs are 
 113:/home/jonas/warwick/3dProfilometer/xpcc/ext/stm32f4xx_lib/STM32F4xx_StdPeriph_Driver/src/stm32f4xx_cryp.c ****   *       empty (CRYP_FLAG_IFEM is set and CRYP_FLAG_OFNE is reset). 
 114:/home/jonas/warwick/3dProfilometer/xpcc/ext/stm32f4xx_lib/STM32F4xx_StdPeriph_Driver/src/stm32f4xx_cryp.c ****   *       You can disable the CRYP_IT_OUTI interrupt (using CRYP_ITConfig() 
 115:/home/jonas/warwick/3dProfilometer/xpcc/ext/stm32f4xx_lib/STM32F4xx_StdPeriph_Driver/src/stm32f4xx_cryp.c ****   *       function) and you can disable the peripheral using CRYP_Cmd() function.
 116:/home/jonas/warwick/3dProfilometer/xpcc/ext/stm32f4xx_lib/STM32F4xx_StdPeriph_Driver/src/stm32f4xx_cryp.c ****   *
 117:/home/jonas/warwick/3dProfilometer/xpcc/ext/stm32f4xx_lib/STM32F4xx_StdPeriph_Driver/src/stm32f4xx_cryp.c ****   *    DMA Processing mode 
 118:/home/jonas/warwick/3dProfilometer/xpcc/ext/stm32f4xx_lib/STM32F4xx_StdPeriph_Driver/src/stm32f4xx_cryp.c ****   *    ====================
 119:/home/jonas/warwick/3dProfilometer/xpcc/ext/stm32f4xx_lib/STM32F4xx_StdPeriph_Driver/src/stm32f4xx_cryp.c ****   *    In this mode, Processing is done when the DMA is used to transfer the 
 120:/home/jonas/warwick/3dProfilometer/xpcc/ext/stm32f4xx_lib/STM32F4xx_StdPeriph_Driver/src/stm32f4xx_cryp.c ****   *    data from/to the memory.
 121:/home/jonas/warwick/3dProfilometer/xpcc/ext/stm32f4xx_lib/STM32F4xx_StdPeriph_Driver/src/stm32f4xx_cryp.c ****   *
 122:/home/jonas/warwick/3dProfilometer/xpcc/ext/stm32f4xx_lib/STM32F4xx_StdPeriph_Driver/src/stm32f4xx_cryp.c ****   *    1. Configure the DMA controller to transfer the input data from the 
 123:/home/jonas/warwick/3dProfilometer/xpcc/ext/stm32f4xx_lib/STM32F4xx_StdPeriph_Driver/src/stm32f4xx_cryp.c ****   *       memory using DMA_Init() function. 
 124:/home/jonas/warwick/3dProfilometer/xpcc/ext/stm32f4xx_lib/STM32F4xx_StdPeriph_Driver/src/stm32f4xx_cryp.c ****   *       The transfer length is the length of the message. 
 125:/home/jonas/warwick/3dProfilometer/xpcc/ext/stm32f4xx_lib/STM32F4xx_StdPeriph_Driver/src/stm32f4xx_cryp.c ****   *       As message padding is not managed by the peripheral, the message 
 126:/home/jonas/warwick/3dProfilometer/xpcc/ext/stm32f4xx_lib/STM32F4xx_StdPeriph_Driver/src/stm32f4xx_cryp.c ****   *       length must be an entire number of blocks. The data are transferred 
 127:/home/jonas/warwick/3dProfilometer/xpcc/ext/stm32f4xx_lib/STM32F4xx_StdPeriph_Driver/src/stm32f4xx_cryp.c ****   *       in burst mode. The burst length is 4 words in the AES and 2 or 4 
 128:/home/jonas/warwick/3dProfilometer/xpcc/ext/stm32f4xx_lib/STM32F4xx_StdPeriph_Driver/src/stm32f4xx_cryp.c ****   *       words in the DES/TDES. The DMA should be configured to set an 
 129:/home/jonas/warwick/3dProfilometer/xpcc/ext/stm32f4xx_lib/STM32F4xx_StdPeriph_Driver/src/stm32f4xx_cryp.c ****   *       interrupt on transfer completion of the output data to indicate that 
 130:/home/jonas/warwick/3dProfilometer/xpcc/ext/stm32f4xx_lib/STM32F4xx_StdPeriph_Driver/src/stm32f4xx_cryp.c ****   *       the processing is finished. 
 131:/home/jonas/warwick/3dProfilometer/xpcc/ext/stm32f4xx_lib/STM32F4xx_StdPeriph_Driver/src/stm32f4xx_cryp.c ****   *       Refer to DMA peripheral driver for more details.  
 132:/home/jonas/warwick/3dProfilometer/xpcc/ext/stm32f4xx_lib/STM32F4xx_StdPeriph_Driver/src/stm32f4xx_cryp.c ****   *
 133:/home/jonas/warwick/3dProfilometer/xpcc/ext/stm32f4xx_lib/STM32F4xx_StdPeriph_Driver/src/stm32f4xx_cryp.c ****   *    2. Enable the cryptographic processor using CRYP_Cmd() function. 
 134:/home/jonas/warwick/3dProfilometer/xpcc/ext/stm32f4xx_lib/STM32F4xx_StdPeriph_Driver/src/stm32f4xx_cryp.c ****   *       Enable the DMA requests CRYP_DMAReq_DataIN and CRYP_DMAReq_DataOUT 
 135:/home/jonas/warwick/3dProfilometer/xpcc/ext/stm32f4xx_lib/STM32F4xx_StdPeriph_Driver/src/stm32f4xx_cryp.c ****   *       using CRYP_DMACmd() function.
 136:/home/jonas/warwick/3dProfilometer/xpcc/ext/stm32f4xx_lib/STM32F4xx_StdPeriph_Driver/src/stm32f4xx_cryp.c ****   *
 137:/home/jonas/warwick/3dProfilometer/xpcc/ext/stm32f4xx_lib/STM32F4xx_StdPeriph_Driver/src/stm32f4xx_cryp.c ****   *    3. All the transfers and processing are managed by the DMA and the 
 138:/home/jonas/warwick/3dProfilometer/xpcc/ext/stm32f4xx_lib/STM32F4xx_StdPeriph_Driver/src/stm32f4xx_cryp.c ****   *       cryptographic processor. The DMA transfer complete interrupt indicates 
 139:/home/jonas/warwick/3dProfilometer/xpcc/ext/stm32f4xx_lib/STM32F4xx_StdPeriph_Driver/src/stm32f4xx_cryp.c ****   *       that the processing is complete. Both FIFOs are normally empty and 
 140:/home/jonas/warwick/3dProfilometer/xpcc/ext/stm32f4xx_lib/STM32F4xx_StdPeriph_Driver/src/stm32f4xx_cryp.c ****   *       CRYP_FLAG_BUSY flag is reset.
 141:/home/jonas/warwick/3dProfilometer/xpcc/ext/stm32f4xx_lib/STM32F4xx_StdPeriph_Driver/src/stm32f4xx_cryp.c ****   *
 142:/home/jonas/warwick/3dProfilometer/xpcc/ext/stm32f4xx_lib/STM32F4xx_StdPeriph_Driver/src/stm32f4xx_cryp.c ****   *  @endverbatim
 143:/home/jonas/warwick/3dProfilometer/xpcc/ext/stm32f4xx_lib/STM32F4xx_StdPeriph_Driver/src/stm32f4xx_cryp.c ****   *
 144:/home/jonas/warwick/3dProfilometer/xpcc/ext/stm32f4xx_lib/STM32F4xx_StdPeriph_Driver/src/stm32f4xx_cryp.c ****   ******************************************************************************
 145:/home/jonas/warwick/3dProfilometer/xpcc/ext/stm32f4xx_lib/STM32F4xx_StdPeriph_Driver/src/stm32f4xx_cryp.c ****   * @attention
 146:/home/jonas/warwick/3dProfilometer/xpcc/ext/stm32f4xx_lib/STM32F4xx_StdPeriph_Driver/src/stm32f4xx_cryp.c ****   *
 147:/home/jonas/warwick/3dProfilometer/xpcc/ext/stm32f4xx_lib/STM32F4xx_StdPeriph_Driver/src/stm32f4xx_cryp.c ****   * THE PRESENT FIRMWARE WHICH IS FOR GUIDANCE ONLY AIMS AT PROVIDING CUSTOMERS
 148:/home/jonas/warwick/3dProfilometer/xpcc/ext/stm32f4xx_lib/STM32F4xx_StdPeriph_Driver/src/stm32f4xx_cryp.c ****   * WITH CODING INFORMATION REGARDING THEIR PRODUCTS IN ORDER FOR THEM TO SAVE
 149:/home/jonas/warwick/3dProfilometer/xpcc/ext/stm32f4xx_lib/STM32F4xx_StdPeriph_Driver/src/stm32f4xx_cryp.c ****   * TIME. AS A RESULT, STMICROELECTRONICS SHALL NOT BE HELD LIABLE FOR ANY
 150:/home/jonas/warwick/3dProfilometer/xpcc/ext/stm32f4xx_lib/STM32F4xx_StdPeriph_Driver/src/stm32f4xx_cryp.c ****   * DIRECT, INDIRECT OR CONSEQUENTIAL DAMAGES WITH RESPECT TO ANY CLAIMS ARISING
 151:/home/jonas/warwick/3dProfilometer/xpcc/ext/stm32f4xx_lib/STM32F4xx_StdPeriph_Driver/src/stm32f4xx_cryp.c ****   * FROM THE CONTENT OF SUCH FIRMWARE AND/OR THE USE MADE BY CUSTOMERS OF THE
 152:/home/jonas/warwick/3dProfilometer/xpcc/ext/stm32f4xx_lib/STM32F4xx_StdPeriph_Driver/src/stm32f4xx_cryp.c ****   * CODING INFORMATION CONTAINED HEREIN IN CONNECTION WITH THEIR PRODUCTS.
 153:/home/jonas/warwick/3dProfilometer/xpcc/ext/stm32f4xx_lib/STM32F4xx_StdPeriph_Driver/src/stm32f4xx_cryp.c ****   *
 154:/home/jonas/warwick/3dProfilometer/xpcc/ext/stm32f4xx_lib/STM32F4xx_StdPeriph_Driver/src/stm32f4xx_cryp.c ****   * <h2><center>&copy; COPYRIGHT 2011 STMicroelectronics</center></h2>
 155:/home/jonas/warwick/3dProfilometer/xpcc/ext/stm32f4xx_lib/STM32F4xx_StdPeriph_Driver/src/stm32f4xx_cryp.c ****   ******************************************************************************  
 156:/home/jonas/warwick/3dProfilometer/xpcc/ext/stm32f4xx_lib/STM32F4xx_StdPeriph_Driver/src/stm32f4xx_cryp.c ****   */
 157:/home/jonas/warwick/3dProfilometer/xpcc/ext/stm32f4xx_lib/STM32F4xx_StdPeriph_Driver/src/stm32f4xx_cryp.c **** 
 158:/home/jonas/warwick/3dProfilometer/xpcc/ext/stm32f4xx_lib/STM32F4xx_StdPeriph_Driver/src/stm32f4xx_cryp.c **** /* Includes ------------------------------------------------------------------*/
 159:/home/jonas/warwick/3dProfilometer/xpcc/ext/stm32f4xx_lib/STM32F4xx_StdPeriph_Driver/src/stm32f4xx_cryp.c **** #include "stm32f4xx_cryp.h"
 160:/home/jonas/warwick/3dProfilometer/xpcc/ext/stm32f4xx_lib/STM32F4xx_StdPeriph_Driver/src/stm32f4xx_cryp.c **** #include "stm32f4xx_rcc.h"
 161:/home/jonas/warwick/3dProfilometer/xpcc/ext/stm32f4xx_lib/STM32F4xx_StdPeriph_Driver/src/stm32f4xx_cryp.c **** 
 162:/home/jonas/warwick/3dProfilometer/xpcc/ext/stm32f4xx_lib/STM32F4xx_StdPeriph_Driver/src/stm32f4xx_cryp.c **** /** @addtogroup STM32F4xx_StdPeriph_Driver
 163:/home/jonas/warwick/3dProfilometer/xpcc/ext/stm32f4xx_lib/STM32F4xx_StdPeriph_Driver/src/stm32f4xx_cryp.c ****   * @{
 164:/home/jonas/warwick/3dProfilometer/xpcc/ext/stm32f4xx_lib/STM32F4xx_StdPeriph_Driver/src/stm32f4xx_cryp.c ****   */
 165:/home/jonas/warwick/3dProfilometer/xpcc/ext/stm32f4xx_lib/STM32F4xx_StdPeriph_Driver/src/stm32f4xx_cryp.c **** 
 166:/home/jonas/warwick/3dProfilometer/xpcc/ext/stm32f4xx_lib/STM32F4xx_StdPeriph_Driver/src/stm32f4xx_cryp.c **** /** @defgroup CRYP 
 167:/home/jonas/warwick/3dProfilometer/xpcc/ext/stm32f4xx_lib/STM32F4xx_StdPeriph_Driver/src/stm32f4xx_cryp.c ****   * @brief CRYP driver modules
 168:/home/jonas/warwick/3dProfilometer/xpcc/ext/stm32f4xx_lib/STM32F4xx_StdPeriph_Driver/src/stm32f4xx_cryp.c ****   * @{
 169:/home/jonas/warwick/3dProfilometer/xpcc/ext/stm32f4xx_lib/STM32F4xx_StdPeriph_Driver/src/stm32f4xx_cryp.c ****   */ 
 170:/home/jonas/warwick/3dProfilometer/xpcc/ext/stm32f4xx_lib/STM32F4xx_StdPeriph_Driver/src/stm32f4xx_cryp.c **** 
 171:/home/jonas/warwick/3dProfilometer/xpcc/ext/stm32f4xx_lib/STM32F4xx_StdPeriph_Driver/src/stm32f4xx_cryp.c **** /* Private typedef -----------------------------------------------------------*/
 172:/home/jonas/warwick/3dProfilometer/xpcc/ext/stm32f4xx_lib/STM32F4xx_StdPeriph_Driver/src/stm32f4xx_cryp.c **** /* Private define ------------------------------------------------------------*/
 173:/home/jonas/warwick/3dProfilometer/xpcc/ext/stm32f4xx_lib/STM32F4xx_StdPeriph_Driver/src/stm32f4xx_cryp.c **** #define FLAG_MASK     ((uint8_t)0x20)
 174:/home/jonas/warwick/3dProfilometer/xpcc/ext/stm32f4xx_lib/STM32F4xx_StdPeriph_Driver/src/stm32f4xx_cryp.c **** #define MAX_TIMEOUT   ((uint16_t)0xFFFF)
 175:/home/jonas/warwick/3dProfilometer/xpcc/ext/stm32f4xx_lib/STM32F4xx_StdPeriph_Driver/src/stm32f4xx_cryp.c **** 
 176:/home/jonas/warwick/3dProfilometer/xpcc/ext/stm32f4xx_lib/STM32F4xx_StdPeriph_Driver/src/stm32f4xx_cryp.c **** /* Private macro -------------------------------------------------------------*/
 177:/home/jonas/warwick/3dProfilometer/xpcc/ext/stm32f4xx_lib/STM32F4xx_StdPeriph_Driver/src/stm32f4xx_cryp.c **** /* Private variables ---------------------------------------------------------*/
 178:/home/jonas/warwick/3dProfilometer/xpcc/ext/stm32f4xx_lib/STM32F4xx_StdPeriph_Driver/src/stm32f4xx_cryp.c **** /* Private function prototypes -----------------------------------------------*/
 179:/home/jonas/warwick/3dProfilometer/xpcc/ext/stm32f4xx_lib/STM32F4xx_StdPeriph_Driver/src/stm32f4xx_cryp.c **** /* Private functions ---------------------------------------------------------*/
 180:/home/jonas/warwick/3dProfilometer/xpcc/ext/stm32f4xx_lib/STM32F4xx_StdPeriph_Driver/src/stm32f4xx_cryp.c **** 
 181:/home/jonas/warwick/3dProfilometer/xpcc/ext/stm32f4xx_lib/STM32F4xx_StdPeriph_Driver/src/stm32f4xx_cryp.c **** /** @defgroup CRYP_Private_Functions
 182:/home/jonas/warwick/3dProfilometer/xpcc/ext/stm32f4xx_lib/STM32F4xx_StdPeriph_Driver/src/stm32f4xx_cryp.c ****   * @{
 183:/home/jonas/warwick/3dProfilometer/xpcc/ext/stm32f4xx_lib/STM32F4xx_StdPeriph_Driver/src/stm32f4xx_cryp.c ****   */ 
 184:/home/jonas/warwick/3dProfilometer/xpcc/ext/stm32f4xx_lib/STM32F4xx_StdPeriph_Driver/src/stm32f4xx_cryp.c **** 
 185:/home/jonas/warwick/3dProfilometer/xpcc/ext/stm32f4xx_lib/STM32F4xx_StdPeriph_Driver/src/stm32f4xx_cryp.c **** /** @defgroup CRYP_Group1 Initialization and Configuration functions
 186:/home/jonas/warwick/3dProfilometer/xpcc/ext/stm32f4xx_lib/STM32F4xx_StdPeriph_Driver/src/stm32f4xx_cryp.c ****  *  @brief    Initialization and Configuration functions 
 187:/home/jonas/warwick/3dProfilometer/xpcc/ext/stm32f4xx_lib/STM32F4xx_StdPeriph_Driver/src/stm32f4xx_cryp.c ****  *
 188:/home/jonas/warwick/3dProfilometer/xpcc/ext/stm32f4xx_lib/STM32F4xx_StdPeriph_Driver/src/stm32f4xx_cryp.c **** @verbatim    
 189:/home/jonas/warwick/3dProfilometer/xpcc/ext/stm32f4xx_lib/STM32F4xx_StdPeriph_Driver/src/stm32f4xx_cryp.c ****  ===============================================================================
 190:/home/jonas/warwick/3dProfilometer/xpcc/ext/stm32f4xx_lib/STM32F4xx_StdPeriph_Driver/src/stm32f4xx_cryp.c ****                       Initialization and Configuration functions
 191:/home/jonas/warwick/3dProfilometer/xpcc/ext/stm32f4xx_lib/STM32F4xx_StdPeriph_Driver/src/stm32f4xx_cryp.c ****  ===============================================================================  
 192:/home/jonas/warwick/3dProfilometer/xpcc/ext/stm32f4xx_lib/STM32F4xx_StdPeriph_Driver/src/stm32f4xx_cryp.c ****   This section provides functions allowing to 
 193:/home/jonas/warwick/3dProfilometer/xpcc/ext/stm32f4xx_lib/STM32F4xx_StdPeriph_Driver/src/stm32f4xx_cryp.c ****    - Initialize the cryptographic Processor using CRYP_Init() function 
 194:/home/jonas/warwick/3dProfilometer/xpcc/ext/stm32f4xx_lib/STM32F4xx_StdPeriph_Driver/src/stm32f4xx_cryp.c ****       -  Encrypt or Decrypt 
 195:/home/jonas/warwick/3dProfilometer/xpcc/ext/stm32f4xx_lib/STM32F4xx_StdPeriph_Driver/src/stm32f4xx_cryp.c ****       -  mode : TDES-ECB, TDES-CBC, 
 196:/home/jonas/warwick/3dProfilometer/xpcc/ext/stm32f4xx_lib/STM32F4xx_StdPeriph_Driver/src/stm32f4xx_cryp.c ****                 DES-ECB, DES-CBC, 
 197:/home/jonas/warwick/3dProfilometer/xpcc/ext/stm32f4xx_lib/STM32F4xx_StdPeriph_Driver/src/stm32f4xx_cryp.c ****                 AES-ECB, AES-CBC, AES-CTR, AES-Key 
 198:/home/jonas/warwick/3dProfilometer/xpcc/ext/stm32f4xx_lib/STM32F4xx_StdPeriph_Driver/src/stm32f4xx_cryp.c ****       - DataType :  32-bit data, 16-bit data, bit data or bit-string
 199:/home/jonas/warwick/3dProfilometer/xpcc/ext/stm32f4xx_lib/STM32F4xx_StdPeriph_Driver/src/stm32f4xx_cryp.c ****       - Key Size (only in AES modes)
 200:/home/jonas/warwick/3dProfilometer/xpcc/ext/stm32f4xx_lib/STM32F4xx_StdPeriph_Driver/src/stm32f4xx_cryp.c ****    - Configure the Encrypt or Decrypt Key using CRYP_KeyInit() function 
 201:/home/jonas/warwick/3dProfilometer/xpcc/ext/stm32f4xx_lib/STM32F4xx_StdPeriph_Driver/src/stm32f4xx_cryp.c ****    - Configure the Initialization Vectors(IV) for CBC and CTR modes using 
 202:/home/jonas/warwick/3dProfilometer/xpcc/ext/stm32f4xx_lib/STM32F4xx_StdPeriph_Driver/src/stm32f4xx_cryp.c ****      CRYP_IVInit() function.  
 203:/home/jonas/warwick/3dProfilometer/xpcc/ext/stm32f4xx_lib/STM32F4xx_StdPeriph_Driver/src/stm32f4xx_cryp.c ****    - Flushes the IN and OUT FIFOs : using CRYP_FIFOFlush() function.                         
 204:/home/jonas/warwick/3dProfilometer/xpcc/ext/stm32f4xx_lib/STM32F4xx_StdPeriph_Driver/src/stm32f4xx_cryp.c ****    - Enable or disable the CRYP Processor using CRYP_Cmd() function 
 205:/home/jonas/warwick/3dProfilometer/xpcc/ext/stm32f4xx_lib/STM32F4xx_StdPeriph_Driver/src/stm32f4xx_cryp.c ****     
 206:/home/jonas/warwick/3dProfilometer/xpcc/ext/stm32f4xx_lib/STM32F4xx_StdPeriph_Driver/src/stm32f4xx_cryp.c ****    
 207:/home/jonas/warwick/3dProfilometer/xpcc/ext/stm32f4xx_lib/STM32F4xx_StdPeriph_Driver/src/stm32f4xx_cryp.c **** @endverbatim
 208:/home/jonas/warwick/3dProfilometer/xpcc/ext/stm32f4xx_lib/STM32F4xx_StdPeriph_Driver/src/stm32f4xx_cryp.c ****   * @{
 209:/home/jonas/warwick/3dProfilometer/xpcc/ext/stm32f4xx_lib/STM32F4xx_StdPeriph_Driver/src/stm32f4xx_cryp.c ****   */
 210:/home/jonas/warwick/3dProfilometer/xpcc/ext/stm32f4xx_lib/STM32F4xx_StdPeriph_Driver/src/stm32f4xx_cryp.c **** /**
 211:/home/jonas/warwick/3dProfilometer/xpcc/ext/stm32f4xx_lib/STM32F4xx_StdPeriph_Driver/src/stm32f4xx_cryp.c ****   * @brief  Deinitializes the CRYP peripheral registers to their default reset values
 212:/home/jonas/warwick/3dProfilometer/xpcc/ext/stm32f4xx_lib/STM32F4xx_StdPeriph_Driver/src/stm32f4xx_cryp.c ****   * @param  None
 213:/home/jonas/warwick/3dProfilometer/xpcc/ext/stm32f4xx_lib/STM32F4xx_StdPeriph_Driver/src/stm32f4xx_cryp.c ****   * @retval None
 214:/home/jonas/warwick/3dProfilometer/xpcc/ext/stm32f4xx_lib/STM32F4xx_StdPeriph_Driver/src/stm32f4xx_cryp.c ****   */
 215:/home/jonas/warwick/3dProfilometer/xpcc/ext/stm32f4xx_lib/STM32F4xx_StdPeriph_Driver/src/stm32f4xx_cryp.c **** void CRYP_DeInit(void)
 216:/home/jonas/warwick/3dProfilometer/xpcc/ext/stm32f4xx_lib/STM32F4xx_StdPeriph_Driver/src/stm32f4xx_cryp.c **** {
  28              		.loc 1 216 0
  29              		.cfi_startproc
  30              		@ args = 0, pretend = 0, frame = 0
  31              		@ frame_needed = 0, uses_anonymous_args = 0
  32 0000 10B5     		push	{r4, lr}
  33              	.LCFI0:
  34              		.cfi_def_cfa_offset 8
  35              		.cfi_offset 4, -8
  36              		.cfi_offset 14, -4
 217:/home/jonas/warwick/3dProfilometer/xpcc/ext/stm32f4xx_lib/STM32F4xx_StdPeriph_Driver/src/stm32f4xx_cryp.c ****   /* Enable CRYP reset state */
 218:/home/jonas/warwick/3dProfilometer/xpcc/ext/stm32f4xx_lib/STM32F4xx_StdPeriph_Driver/src/stm32f4xx_cryp.c ****   RCC_AHB2PeriphResetCmd(RCC_AHB2Periph_CRYP, ENABLE);
  37              		.loc 1 218 0
  38 0002 1020     		movs	r0, #16
  39 0004 0121     		movs	r1, #1
  40 0006 034C     		ldr	r4, .L2
  41 0008 A047     		blx	r4
  42              	.LVL0:
 219:/home/jonas/warwick/3dProfilometer/xpcc/ext/stm32f4xx_lib/STM32F4xx_StdPeriph_Driver/src/stm32f4xx_cryp.c **** 
 220:/home/jonas/warwick/3dProfilometer/xpcc/ext/stm32f4xx_lib/STM32F4xx_StdPeriph_Driver/src/stm32f4xx_cryp.c ****   /* Release CRYP from reset state */
 221:/home/jonas/warwick/3dProfilometer/xpcc/ext/stm32f4xx_lib/STM32F4xx_StdPeriph_Driver/src/stm32f4xx_cryp.c ****   RCC_AHB2PeriphResetCmd(RCC_AHB2Periph_CRYP, DISABLE);
  43              		.loc 1 221 0
  44 000a 1020     		movs	r0, #16
  45 000c 0021     		movs	r1, #0
  46 000e A047     		blx	r4
  47              	.LVL1:
  48 0010 10BD     		pop	{r4, pc}
  49              	.L3:
  50 0012 00BF     		.align	2
  51              	.L2:
  52 0014 00000000 		.word	RCC_AHB2PeriphResetCmd
  53              		.cfi_endproc
  54              	.LFE110:
  56              		.section	.text.CRYP_Init,"ax",%progbits
  57              		.align	2
  58              		.global	CRYP_Init
  59              		.thumb
  60              		.thumb_func
  62              	CRYP_Init:
  63              	.LFB111:
 222:/home/jonas/warwick/3dProfilometer/xpcc/ext/stm32f4xx_lib/STM32F4xx_StdPeriph_Driver/src/stm32f4xx_cryp.c **** }
 223:/home/jonas/warwick/3dProfilometer/xpcc/ext/stm32f4xx_lib/STM32F4xx_StdPeriph_Driver/src/stm32f4xx_cryp.c **** 
 224:/home/jonas/warwick/3dProfilometer/xpcc/ext/stm32f4xx_lib/STM32F4xx_StdPeriph_Driver/src/stm32f4xx_cryp.c **** /**
 225:/home/jonas/warwick/3dProfilometer/xpcc/ext/stm32f4xx_lib/STM32F4xx_StdPeriph_Driver/src/stm32f4xx_cryp.c ****   * @brief  Initializes the CRYP peripheral according to the specified parameters
 226:/home/jonas/warwick/3dProfilometer/xpcc/ext/stm32f4xx_lib/STM32F4xx_StdPeriph_Driver/src/stm32f4xx_cryp.c ****   *         in the CRYP_InitStruct.
 227:/home/jonas/warwick/3dProfilometer/xpcc/ext/stm32f4xx_lib/STM32F4xx_StdPeriph_Driver/src/stm32f4xx_cryp.c ****   * @param  CRYP_InitStruct: pointer to a CRYP_InitTypeDef structure that contains
 228:/home/jonas/warwick/3dProfilometer/xpcc/ext/stm32f4xx_lib/STM32F4xx_StdPeriph_Driver/src/stm32f4xx_cryp.c ****   *         the configuration information for the CRYP peripheral.
 229:/home/jonas/warwick/3dProfilometer/xpcc/ext/stm32f4xx_lib/STM32F4xx_StdPeriph_Driver/src/stm32f4xx_cryp.c ****   * @retval None
 230:/home/jonas/warwick/3dProfilometer/xpcc/ext/stm32f4xx_lib/STM32F4xx_StdPeriph_Driver/src/stm32f4xx_cryp.c ****   */
 231:/home/jonas/warwick/3dProfilometer/xpcc/ext/stm32f4xx_lib/STM32F4xx_StdPeriph_Driver/src/stm32f4xx_cryp.c **** void CRYP_Init(CRYP_InitTypeDef* CRYP_InitStruct)
 232:/home/jonas/warwick/3dProfilometer/xpcc/ext/stm32f4xx_lib/STM32F4xx_StdPeriph_Driver/src/stm32f4xx_cryp.c **** {
  64              		.loc 1 232 0
  65              		.cfi_startproc
  66              		@ args = 0, pretend = 0, frame = 0
  67              		@ frame_needed = 0, uses_anonymous_args = 0
  68              		@ link register save eliminated.
  69              	.LVL2:
 233:/home/jonas/warwick/3dProfilometer/xpcc/ext/stm32f4xx_lib/STM32F4xx_StdPeriph_Driver/src/stm32f4xx_cryp.c ****   /* Check the parameters */
 234:/home/jonas/warwick/3dProfilometer/xpcc/ext/stm32f4xx_lib/STM32F4xx_StdPeriph_Driver/src/stm32f4xx_cryp.c ****   assert_param(IS_CRYP_ALGOMODE(CRYP_InitStruct->CRYP_AlgoMode));
 235:/home/jonas/warwick/3dProfilometer/xpcc/ext/stm32f4xx_lib/STM32F4xx_StdPeriph_Driver/src/stm32f4xx_cryp.c ****   assert_param(IS_CRYP_DATATYPE(CRYP_InitStruct->CRYP_DataType));
 236:/home/jonas/warwick/3dProfilometer/xpcc/ext/stm32f4xx_lib/STM32F4xx_StdPeriph_Driver/src/stm32f4xx_cryp.c ****   assert_param(IS_CRYP_ALGODIR(CRYP_InitStruct->CRYP_AlgoDir));
 237:/home/jonas/warwick/3dProfilometer/xpcc/ext/stm32f4xx_lib/STM32F4xx_StdPeriph_Driver/src/stm32f4xx_cryp.c **** 
 238:/home/jonas/warwick/3dProfilometer/xpcc/ext/stm32f4xx_lib/STM32F4xx_StdPeriph_Driver/src/stm32f4xx_cryp.c ****   /* Select Algorithm mode*/  
 239:/home/jonas/warwick/3dProfilometer/xpcc/ext/stm32f4xx_lib/STM32F4xx_StdPeriph_Driver/src/stm32f4xx_cryp.c ****   CRYP->CR &= ~CRYP_CR_ALGOMODE;
  70              		.loc 1 239 0
  71 0000 164B     		ldr	r3, .L8
  72 0002 1A68     		ldr	r2, [r3, #0]
  73 0004 22F03802 		bic	r2, r2, #56
 232:/home/jonas/warwick/3dProfilometer/xpcc/ext/stm32f4xx_lib/STM32F4xx_StdPeriph_Driver/src/stm32f4xx_cryp.c **** {
  74              		.loc 1 232 0
  75 0008 10B4     		push	{r4}
  76              	.LCFI1:
  77              		.cfi_def_cfa_offset 4
  78              		.cfi_offset 4, -4
  79              		.loc 1 239 0
  80 000a 1A60     		str	r2, [r3, #0]
 240:/home/jonas/warwick/3dProfilometer/xpcc/ext/stm32f4xx_lib/STM32F4xx_StdPeriph_Driver/src/stm32f4xx_cryp.c ****   CRYP->CR |= CRYP_InitStruct->CRYP_AlgoMode;
  81              		.loc 1 240 0
  82 000c 1968     		ldr	r1, [r3, #0]
  83 000e 4288     		ldrh	r2, [r0, #2]
 241:/home/jonas/warwick/3dProfilometer/xpcc/ext/stm32f4xx_lib/STM32F4xx_StdPeriph_Driver/src/stm32f4xx_cryp.c **** 
 242:/home/jonas/warwick/3dProfilometer/xpcc/ext/stm32f4xx_lib/STM32F4xx_StdPeriph_Driver/src/stm32f4xx_cryp.c ****   /* Select dataType */ 
 243:/home/jonas/warwick/3dProfilometer/xpcc/ext/stm32f4xx_lib/STM32F4xx_StdPeriph_Driver/src/stm32f4xx_cryp.c ****   CRYP->CR &= ~CRYP_CR_DATATYPE;
 244:/home/jonas/warwick/3dProfilometer/xpcc/ext/stm32f4xx_lib/STM32F4xx_StdPeriph_Driver/src/stm32f4xx_cryp.c ****   CRYP->CR |= CRYP_InitStruct->CRYP_DataType;
  84              		.loc 1 244 0
  85 0010 8488     		ldrh	r4, [r0, #4]
 240:/home/jonas/warwick/3dProfilometer/xpcc/ext/stm32f4xx_lib/STM32F4xx_StdPeriph_Driver/src/stm32f4xx_cryp.c ****   CRYP->CR |= CRYP_InitStruct->CRYP_AlgoMode;
  86              		.loc 1 240 0
  87 0012 1143     		orrs	r1, r1, r2
  88 0014 1960     		str	r1, [r3, #0]
 243:/home/jonas/warwick/3dProfilometer/xpcc/ext/stm32f4xx_lib/STM32F4xx_StdPeriph_Driver/src/stm32f4xx_cryp.c ****   CRYP->CR &= ~CRYP_CR_DATATYPE;
  89              		.loc 1 243 0
  90 0016 1968     		ldr	r1, [r3, #0]
  91 0018 21F0C001 		bic	r1, r1, #192
  92 001c 1960     		str	r1, [r3, #0]
  93              		.loc 1 244 0
  94 001e 1968     		ldr	r1, [r3, #0]
  95 0020 203A     		subs	r2, r2, #32
  96 0022 0C43     		orrs	r4, r4, r1
  97 0024 91B2     		uxth	r1, r2
  98 0026 1829     		cmp	r1, #24
  99 0028 1C60     		str	r4, [r3, #0]
 100 002a 0CD8     		bhi	.L5
 101 002c 12B2     		sxth	r2, r2
 102 002e 4FF08031 		mov	r1, #-2139062144
 103 0032 9140     		lsls	r1, r1, r2
 104 0034 07D5     		bpl	.L5
 245:/home/jonas/warwick/3dProfilometer/xpcc/ext/stm32f4xx_lib/STM32F4xx_StdPeriph_Driver/src/stm32f4xx_cryp.c **** 
 246:/home/jonas/warwick/3dProfilometer/xpcc/ext/stm32f4xx_lib/STM32F4xx_StdPeriph_Driver/src/stm32f4xx_cryp.c ****   /* select Key size (used only with AES algorithm) */
 247:/home/jonas/warwick/3dProfilometer/xpcc/ext/stm32f4xx_lib/STM32F4xx_StdPeriph_Driver/src/stm32f4xx_cryp.c ****   if ((CRYP_InitStruct->CRYP_AlgoMode == CRYP_AlgoMode_AES_ECB) ||
 248:/home/jonas/warwick/3dProfilometer/xpcc/ext/stm32f4xx_lib/STM32F4xx_StdPeriph_Driver/src/stm32f4xx_cryp.c ****       (CRYP_InitStruct->CRYP_AlgoMode == CRYP_AlgoMode_AES_CBC) ||
 249:/home/jonas/warwick/3dProfilometer/xpcc/ext/stm32f4xx_lib/STM32F4xx_StdPeriph_Driver/src/stm32f4xx_cryp.c ****       (CRYP_InitStruct->CRYP_AlgoMode == CRYP_AlgoMode_AES_CTR) ||
 250:/home/jonas/warwick/3dProfilometer/xpcc/ext/stm32f4xx_lib/STM32F4xx_StdPeriph_Driver/src/stm32f4xx_cryp.c ****       (CRYP_InitStruct->CRYP_AlgoMode == CRYP_AlgoMode_AES_Key))
 251:/home/jonas/warwick/3dProfilometer/xpcc/ext/stm32f4xx_lib/STM32F4xx_StdPeriph_Driver/src/stm32f4xx_cryp.c ****   {
 252:/home/jonas/warwick/3dProfilometer/xpcc/ext/stm32f4xx_lib/STM32F4xx_StdPeriph_Driver/src/stm32f4xx_cryp.c ****     assert_param(IS_CRYP_KEYSIZE(CRYP_InitStruct->CRYP_KeySize));
 253:/home/jonas/warwick/3dProfilometer/xpcc/ext/stm32f4xx_lib/STM32F4xx_StdPeriph_Driver/src/stm32f4xx_cryp.c ****     CRYP->CR &= ~CRYP_CR_KEYSIZE;
 105              		.loc 1 253 0
 106 0036 1A68     		ldr	r2, [r3, #0]
 254:/home/jonas/warwick/3dProfilometer/xpcc/ext/stm32f4xx_lib/STM32F4xx_StdPeriph_Driver/src/stm32f4xx_cryp.c ****     CRYP->CR |= CRYP_InitStruct->CRYP_KeySize; /* Key size and value must be 
 107              		.loc 1 254 0
 108 0038 C188     		ldrh	r1, [r0, #6]
 253:/home/jonas/warwick/3dProfilometer/xpcc/ext/stm32f4xx_lib/STM32F4xx_StdPeriph_Driver/src/stm32f4xx_cryp.c ****     CRYP->CR &= ~CRYP_CR_KEYSIZE;
 109              		.loc 1 253 0
 110 003a 22F44072 		bic	r2, r2, #768
 111 003e 1A60     		str	r2, [r3, #0]
 112              		.loc 1 254 0
 113 0040 1A68     		ldr	r2, [r3, #0]
 114 0042 0A43     		orrs	r2, r2, r1
 115 0044 1A60     		str	r2, [r3, #0]
 116              	.L5:
 255:/home/jonas/warwick/3dProfilometer/xpcc/ext/stm32f4xx_lib/STM32F4xx_StdPeriph_Driver/src/stm32f4xx_cryp.c ****                                                   configured once the key has 
 256:/home/jonas/warwick/3dProfilometer/xpcc/ext/stm32f4xx_lib/STM32F4xx_StdPeriph_Driver/src/stm32f4xx_cryp.c ****                                                   been prepared */
 257:/home/jonas/warwick/3dProfilometer/xpcc/ext/stm32f4xx_lib/STM32F4xx_StdPeriph_Driver/src/stm32f4xx_cryp.c ****   }
 258:/home/jonas/warwick/3dProfilometer/xpcc/ext/stm32f4xx_lib/STM32F4xx_StdPeriph_Driver/src/stm32f4xx_cryp.c **** 
 259:/home/jonas/warwick/3dProfilometer/xpcc/ext/stm32f4xx_lib/STM32F4xx_StdPeriph_Driver/src/stm32f4xx_cryp.c ****   /* Select data Direction */ 
 260:/home/jonas/warwick/3dProfilometer/xpcc/ext/stm32f4xx_lib/STM32F4xx_StdPeriph_Driver/src/stm32f4xx_cryp.c ****   CRYP->CR &= ~CRYP_CR_ALGODIR;
 117              		.loc 1 260 0
 118 0046 054B     		ldr	r3, .L8
 261:/home/jonas/warwick/3dProfilometer/xpcc/ext/stm32f4xx_lib/STM32F4xx_StdPeriph_Driver/src/stm32f4xx_cryp.c ****   CRYP->CR |= CRYP_InitStruct->CRYP_AlgoDir;
 119              		.loc 1 261 0
 120 0048 0188     		ldrh	r1, [r0, #0]
 260:/home/jonas/warwick/3dProfilometer/xpcc/ext/stm32f4xx_lib/STM32F4xx_StdPeriph_Driver/src/stm32f4xx_cryp.c ****   CRYP->CR &= ~CRYP_CR_ALGODIR;
 121              		.loc 1 260 0
 122 004a 1A68     		ldr	r2, [r3, #0]
 123 004c 22F00402 		bic	r2, r2, #4
 124 0050 1A60     		str	r2, [r3, #0]
 125              		.loc 1 261 0
 126 0052 1A68     		ldr	r2, [r3, #0]
 127 0054 0A43     		orrs	r2, r2, r1
 128 0056 1A60     		str	r2, [r3, #0]
 262:/home/jonas/warwick/3dProfilometer/xpcc/ext/stm32f4xx_lib/STM32F4xx_StdPeriph_Driver/src/stm32f4xx_cryp.c **** }
 129              		.loc 1 262 0
 130 0058 10BC     		pop	{r4}
 131 005a 7047     		bx	lr
 132              	.L9:
 133              		.align	2
 134              	.L8:
 135 005c 00000650 		.word	1342570496
 136              		.cfi_endproc
 137              	.LFE111:
 139              		.section	.text.CRYP_StructInit,"ax",%progbits
 140              		.align	2
 141              		.global	CRYP_StructInit
 142              		.thumb
 143              		.thumb_func
 145              	CRYP_StructInit:
 146              	.LFB112:
 263:/home/jonas/warwick/3dProfilometer/xpcc/ext/stm32f4xx_lib/STM32F4xx_StdPeriph_Driver/src/stm32f4xx_cryp.c **** 
 264:/home/jonas/warwick/3dProfilometer/xpcc/ext/stm32f4xx_lib/STM32F4xx_StdPeriph_Driver/src/stm32f4xx_cryp.c **** /**
 265:/home/jonas/warwick/3dProfilometer/xpcc/ext/stm32f4xx_lib/STM32F4xx_StdPeriph_Driver/src/stm32f4xx_cryp.c ****   * @brief  Fills each CRYP_InitStruct member with its default value.
 266:/home/jonas/warwick/3dProfilometer/xpcc/ext/stm32f4xx_lib/STM32F4xx_StdPeriph_Driver/src/stm32f4xx_cryp.c ****   * @param  CRYP_InitStruct: pointer to a CRYP_InitTypeDef structure which will
 267:/home/jonas/warwick/3dProfilometer/xpcc/ext/stm32f4xx_lib/STM32F4xx_StdPeriph_Driver/src/stm32f4xx_cryp.c ****   *         be initialized.
 268:/home/jonas/warwick/3dProfilometer/xpcc/ext/stm32f4xx_lib/STM32F4xx_StdPeriph_Driver/src/stm32f4xx_cryp.c ****   * @retval None
 269:/home/jonas/warwick/3dProfilometer/xpcc/ext/stm32f4xx_lib/STM32F4xx_StdPeriph_Driver/src/stm32f4xx_cryp.c ****   */
 270:/home/jonas/warwick/3dProfilometer/xpcc/ext/stm32f4xx_lib/STM32F4xx_StdPeriph_Driver/src/stm32f4xx_cryp.c **** void CRYP_StructInit(CRYP_InitTypeDef* CRYP_InitStruct)
 271:/home/jonas/warwick/3dProfilometer/xpcc/ext/stm32f4xx_lib/STM32F4xx_StdPeriph_Driver/src/stm32f4xx_cryp.c **** {
 147              		.loc 1 271 0
 148              		.cfi_startproc
 149              		@ args = 0, pretend = 0, frame = 0
 150              		@ frame_needed = 0, uses_anonymous_args = 0
 151              		@ link register save eliminated.
 152              	.LVL3:
 272:/home/jonas/warwick/3dProfilometer/xpcc/ext/stm32f4xx_lib/STM32F4xx_StdPeriph_Driver/src/stm32f4xx_cryp.c ****   /* Initialize the CRYP_AlgoDir member */
 273:/home/jonas/warwick/3dProfilometer/xpcc/ext/stm32f4xx_lib/STM32F4xx_StdPeriph_Driver/src/stm32f4xx_cryp.c ****   CRYP_InitStruct->CRYP_AlgoDir = CRYP_AlgoDir_Encrypt;
 153              		.loc 1 273 0
 154 0000 0023     		movs	r3, #0
 155 0002 0380     		strh	r3, [r0, #0]	@ movhi
 274:/home/jonas/warwick/3dProfilometer/xpcc/ext/stm32f4xx_lib/STM32F4xx_StdPeriph_Driver/src/stm32f4xx_cryp.c **** 
 275:/home/jonas/warwick/3dProfilometer/xpcc/ext/stm32f4xx_lib/STM32F4xx_StdPeriph_Driver/src/stm32f4xx_cryp.c ****   /* initialize the CRYP_AlgoMode member */
 276:/home/jonas/warwick/3dProfilometer/xpcc/ext/stm32f4xx_lib/STM32F4xx_StdPeriph_Driver/src/stm32f4xx_cryp.c ****   CRYP_InitStruct->CRYP_AlgoMode = CRYP_AlgoMode_TDES_ECB;
 156              		.loc 1 276 0
 157 0004 4380     		strh	r3, [r0, #2]	@ movhi
 277:/home/jonas/warwick/3dProfilometer/xpcc/ext/stm32f4xx_lib/STM32F4xx_StdPeriph_Driver/src/stm32f4xx_cryp.c **** 
 278:/home/jonas/warwick/3dProfilometer/xpcc/ext/stm32f4xx_lib/STM32F4xx_StdPeriph_Driver/src/stm32f4xx_cryp.c ****   /* initialize the CRYP_DataType member */
 279:/home/jonas/warwick/3dProfilometer/xpcc/ext/stm32f4xx_lib/STM32F4xx_StdPeriph_Driver/src/stm32f4xx_cryp.c ****   CRYP_InitStruct->CRYP_DataType = CRYP_DataType_32b;
 158              		.loc 1 279 0
 159 0006 8380     		strh	r3, [r0, #4]	@ movhi
 280:/home/jonas/warwick/3dProfilometer/xpcc/ext/stm32f4xx_lib/STM32F4xx_StdPeriph_Driver/src/stm32f4xx_cryp.c ****   
 281:/home/jonas/warwick/3dProfilometer/xpcc/ext/stm32f4xx_lib/STM32F4xx_StdPeriph_Driver/src/stm32f4xx_cryp.c ****   /* Initialize the CRYP_KeySize member */
 282:/home/jonas/warwick/3dProfilometer/xpcc/ext/stm32f4xx_lib/STM32F4xx_StdPeriph_Driver/src/stm32f4xx_cryp.c ****   CRYP_InitStruct->CRYP_KeySize = CRYP_KeySize_128b;
 160              		.loc 1 282 0
 161 0008 C380     		strh	r3, [r0, #6]	@ movhi
 162 000a 7047     		bx	lr
 163              		.cfi_endproc
 164              	.LFE112:
 166              		.section	.text.CRYP_KeyInit,"ax",%progbits
 167              		.align	2
 168              		.global	CRYP_KeyInit
 169              		.thumb
 170              		.thumb_func
 172              	CRYP_KeyInit:
 173              	.LFB113:
 283:/home/jonas/warwick/3dProfilometer/xpcc/ext/stm32f4xx_lib/STM32F4xx_StdPeriph_Driver/src/stm32f4xx_cryp.c **** }
 284:/home/jonas/warwick/3dProfilometer/xpcc/ext/stm32f4xx_lib/STM32F4xx_StdPeriph_Driver/src/stm32f4xx_cryp.c **** 
 285:/home/jonas/warwick/3dProfilometer/xpcc/ext/stm32f4xx_lib/STM32F4xx_StdPeriph_Driver/src/stm32f4xx_cryp.c **** /**
 286:/home/jonas/warwick/3dProfilometer/xpcc/ext/stm32f4xx_lib/STM32F4xx_StdPeriph_Driver/src/stm32f4xx_cryp.c ****   * @brief  Initializes the CRYP Keys according to the specified parameters in
 287:/home/jonas/warwick/3dProfilometer/xpcc/ext/stm32f4xx_lib/STM32F4xx_StdPeriph_Driver/src/stm32f4xx_cryp.c ****   *         the CRYP_KeyInitStruct.
 288:/home/jonas/warwick/3dProfilometer/xpcc/ext/stm32f4xx_lib/STM32F4xx_StdPeriph_Driver/src/stm32f4xx_cryp.c ****   * @param  CRYP_KeyInitStruct: pointer to a CRYP_KeyInitTypeDef structure that
 289:/home/jonas/warwick/3dProfilometer/xpcc/ext/stm32f4xx_lib/STM32F4xx_StdPeriph_Driver/src/stm32f4xx_cryp.c ****   *         contains the configuration information for the CRYP Keys.
 290:/home/jonas/warwick/3dProfilometer/xpcc/ext/stm32f4xx_lib/STM32F4xx_StdPeriph_Driver/src/stm32f4xx_cryp.c ****   * @retval None
 291:/home/jonas/warwick/3dProfilometer/xpcc/ext/stm32f4xx_lib/STM32F4xx_StdPeriph_Driver/src/stm32f4xx_cryp.c ****   */
 292:/home/jonas/warwick/3dProfilometer/xpcc/ext/stm32f4xx_lib/STM32F4xx_StdPeriph_Driver/src/stm32f4xx_cryp.c **** void CRYP_KeyInit(CRYP_KeyInitTypeDef* CRYP_KeyInitStruct)
 293:/home/jonas/warwick/3dProfilometer/xpcc/ext/stm32f4xx_lib/STM32F4xx_StdPeriph_Driver/src/stm32f4xx_cryp.c **** {
 174              		.loc 1 293 0
 175              		.cfi_startproc
 176              		@ args = 0, pretend = 0, frame = 0
 177              		@ frame_needed = 0, uses_anonymous_args = 0
 178              		@ link register save eliminated.
 179              	.LVL4:
 294:/home/jonas/warwick/3dProfilometer/xpcc/ext/stm32f4xx_lib/STM32F4xx_StdPeriph_Driver/src/stm32f4xx_cryp.c ****   /* Key Initialisation */
 295:/home/jonas/warwick/3dProfilometer/xpcc/ext/stm32f4xx_lib/STM32F4xx_StdPeriph_Driver/src/stm32f4xx_cryp.c ****   CRYP->K0LR = CRYP_KeyInitStruct->CRYP_Key0Left;
 180              		.loc 1 295 0
 181 0000 0268     		ldr	r2, [r0, #0]
 182 0002 084B     		ldr	r3, .L12
 183 0004 1A62     		str	r2, [r3, #32]
 296:/home/jonas/warwick/3dProfilometer/xpcc/ext/stm32f4xx_lib/STM32F4xx_StdPeriph_Driver/src/stm32f4xx_cryp.c ****   CRYP->K0RR = CRYP_KeyInitStruct->CRYP_Key0Right;
 184              		.loc 1 296 0
 185 0006 4268     		ldr	r2, [r0, #4]
 186 0008 5A62     		str	r2, [r3, #36]
 297:/home/jonas/warwick/3dProfilometer/xpcc/ext/stm32f4xx_lib/STM32F4xx_StdPeriph_Driver/src/stm32f4xx_cryp.c ****   CRYP->K1LR = CRYP_KeyInitStruct->CRYP_Key1Left;
 187              		.loc 1 297 0
 188 000a 8268     		ldr	r2, [r0, #8]
 189 000c 9A62     		str	r2, [r3, #40]
 298:/home/jonas/warwick/3dProfilometer/xpcc/ext/stm32f4xx_lib/STM32F4xx_StdPeriph_Driver/src/stm32f4xx_cryp.c ****   CRYP->K1RR = CRYP_KeyInitStruct->CRYP_Key1Right;
 190              		.loc 1 298 0
 191 000e C268     		ldr	r2, [r0, #12]
 192 0010 DA62     		str	r2, [r3, #44]
 299:/home/jonas/warwick/3dProfilometer/xpcc/ext/stm32f4xx_lib/STM32F4xx_StdPeriph_Driver/src/stm32f4xx_cryp.c ****   CRYP->K2LR = CRYP_KeyInitStruct->CRYP_Key2Left;
 193              		.loc 1 299 0
 194 0012 0269     		ldr	r2, [r0, #16]
 195 0014 1A63     		str	r2, [r3, #48]
 300:/home/jonas/warwick/3dProfilometer/xpcc/ext/stm32f4xx_lib/STM32F4xx_StdPeriph_Driver/src/stm32f4xx_cryp.c ****   CRYP->K2RR = CRYP_KeyInitStruct->CRYP_Key2Right;
 196              		.loc 1 300 0
 197 0016 4269     		ldr	r2, [r0, #20]
 198 0018 5A63     		str	r2, [r3, #52]
 301:/home/jonas/warwick/3dProfilometer/xpcc/ext/stm32f4xx_lib/STM32F4xx_StdPeriph_Driver/src/stm32f4xx_cryp.c ****   CRYP->K3LR = CRYP_KeyInitStruct->CRYP_Key3Left;
 199              		.loc 1 301 0
 200 001a 8269     		ldr	r2, [r0, #24]
 201 001c 9A63     		str	r2, [r3, #56]
 302:/home/jonas/warwick/3dProfilometer/xpcc/ext/stm32f4xx_lib/STM32F4xx_StdPeriph_Driver/src/stm32f4xx_cryp.c ****   CRYP->K3RR = CRYP_KeyInitStruct->CRYP_Key3Right;
 202              		.loc 1 302 0
 203 001e C269     		ldr	r2, [r0, #28]
 204 0020 DA63     		str	r2, [r3, #60]
 205 0022 7047     		bx	lr
 206              	.L13:
 207              		.align	2
 208              	.L12:
 209 0024 00000650 		.word	1342570496
 210              		.cfi_endproc
 211              	.LFE113:
 213              		.section	.text.CRYP_KeyStructInit,"ax",%progbits
 214              		.align	2
 215              		.global	CRYP_KeyStructInit
 216              		.thumb
 217              		.thumb_func
 219              	CRYP_KeyStructInit:
 220              	.LFB114:
 303:/home/jonas/warwick/3dProfilometer/xpcc/ext/stm32f4xx_lib/STM32F4xx_StdPeriph_Driver/src/stm32f4xx_cryp.c **** }
 304:/home/jonas/warwick/3dProfilometer/xpcc/ext/stm32f4xx_lib/STM32F4xx_StdPeriph_Driver/src/stm32f4xx_cryp.c **** 
 305:/home/jonas/warwick/3dProfilometer/xpcc/ext/stm32f4xx_lib/STM32F4xx_StdPeriph_Driver/src/stm32f4xx_cryp.c **** /**
 306:/home/jonas/warwick/3dProfilometer/xpcc/ext/stm32f4xx_lib/STM32F4xx_StdPeriph_Driver/src/stm32f4xx_cryp.c ****   * @brief  Fills each CRYP_KeyInitStruct member with its default value.
 307:/home/jonas/warwick/3dProfilometer/xpcc/ext/stm32f4xx_lib/STM32F4xx_StdPeriph_Driver/src/stm32f4xx_cryp.c ****   * @param  CRYP_KeyInitStruct: pointer to a CRYP_KeyInitTypeDef structure 
 308:/home/jonas/warwick/3dProfilometer/xpcc/ext/stm32f4xx_lib/STM32F4xx_StdPeriph_Driver/src/stm32f4xx_cryp.c ****   *         which will be initialized.
 309:/home/jonas/warwick/3dProfilometer/xpcc/ext/stm32f4xx_lib/STM32F4xx_StdPeriph_Driver/src/stm32f4xx_cryp.c ****   * @retval None
 310:/home/jonas/warwick/3dProfilometer/xpcc/ext/stm32f4xx_lib/STM32F4xx_StdPeriph_Driver/src/stm32f4xx_cryp.c ****   */
 311:/home/jonas/warwick/3dProfilometer/xpcc/ext/stm32f4xx_lib/STM32F4xx_StdPeriph_Driver/src/stm32f4xx_cryp.c **** void CRYP_KeyStructInit(CRYP_KeyInitTypeDef* CRYP_KeyInitStruct)
 312:/home/jonas/warwick/3dProfilometer/xpcc/ext/stm32f4xx_lib/STM32F4xx_StdPeriph_Driver/src/stm32f4xx_cryp.c **** {
 221              		.loc 1 312 0
 222              		.cfi_startproc
 223              		@ args = 0, pretend = 0, frame = 0
 224              		@ frame_needed = 0, uses_anonymous_args = 0
 225              		@ link register save eliminated.
 226              	.LVL5:
 313:/home/jonas/warwick/3dProfilometer/xpcc/ext/stm32f4xx_lib/STM32F4xx_StdPeriph_Driver/src/stm32f4xx_cryp.c ****   CRYP_KeyInitStruct->CRYP_Key0Left  = 0;
 227              		.loc 1 313 0
 228 0000 0023     		movs	r3, #0
 229 0002 0360     		str	r3, [r0, #0]
 314:/home/jonas/warwick/3dProfilometer/xpcc/ext/stm32f4xx_lib/STM32F4xx_StdPeriph_Driver/src/stm32f4xx_cryp.c ****   CRYP_KeyInitStruct->CRYP_Key0Right = 0;
 230              		.loc 1 314 0
 231 0004 4360     		str	r3, [r0, #4]
 315:/home/jonas/warwick/3dProfilometer/xpcc/ext/stm32f4xx_lib/STM32F4xx_StdPeriph_Driver/src/stm32f4xx_cryp.c ****   CRYP_KeyInitStruct->CRYP_Key1Left  = 0;
 232              		.loc 1 315 0
 233 0006 8360     		str	r3, [r0, #8]
 316:/home/jonas/warwick/3dProfilometer/xpcc/ext/stm32f4xx_lib/STM32F4xx_StdPeriph_Driver/src/stm32f4xx_cryp.c ****   CRYP_KeyInitStruct->CRYP_Key1Right = 0;
 234              		.loc 1 316 0
 235 0008 C360     		str	r3, [r0, #12]
 317:/home/jonas/warwick/3dProfilometer/xpcc/ext/stm32f4xx_lib/STM32F4xx_StdPeriph_Driver/src/stm32f4xx_cryp.c ****   CRYP_KeyInitStruct->CRYP_Key2Left  = 0;
 236              		.loc 1 317 0
 237 000a 0361     		str	r3, [r0, #16]
 318:/home/jonas/warwick/3dProfilometer/xpcc/ext/stm32f4xx_lib/STM32F4xx_StdPeriph_Driver/src/stm32f4xx_cryp.c ****   CRYP_KeyInitStruct->CRYP_Key2Right = 0;
 238              		.loc 1 318 0
 239 000c 4361     		str	r3, [r0, #20]
 319:/home/jonas/warwick/3dProfilometer/xpcc/ext/stm32f4xx_lib/STM32F4xx_StdPeriph_Driver/src/stm32f4xx_cryp.c ****   CRYP_KeyInitStruct->CRYP_Key3Left  = 0;
 240              		.loc 1 319 0
 241 000e 8361     		str	r3, [r0, #24]
 320:/home/jonas/warwick/3dProfilometer/xpcc/ext/stm32f4xx_lib/STM32F4xx_StdPeriph_Driver/src/stm32f4xx_cryp.c ****   CRYP_KeyInitStruct->CRYP_Key3Right = 0;
 242              		.loc 1 320 0
 243 0010 C361     		str	r3, [r0, #28]
 244 0012 7047     		bx	lr
 245              		.cfi_endproc
 246              	.LFE114:
 248              		.section	.text.CRYP_IVInit,"ax",%progbits
 249              		.align	2
 250              		.global	CRYP_IVInit
 251              		.thumb
 252              		.thumb_func
 254              	CRYP_IVInit:
 255              	.LFB115:
 321:/home/jonas/warwick/3dProfilometer/xpcc/ext/stm32f4xx_lib/STM32F4xx_StdPeriph_Driver/src/stm32f4xx_cryp.c **** }
 322:/home/jonas/warwick/3dProfilometer/xpcc/ext/stm32f4xx_lib/STM32F4xx_StdPeriph_Driver/src/stm32f4xx_cryp.c **** /**
 323:/home/jonas/warwick/3dProfilometer/xpcc/ext/stm32f4xx_lib/STM32F4xx_StdPeriph_Driver/src/stm32f4xx_cryp.c ****   * @brief  Initializes the CRYP Initialization Vectors(IV) according to the
 324:/home/jonas/warwick/3dProfilometer/xpcc/ext/stm32f4xx_lib/STM32F4xx_StdPeriph_Driver/src/stm32f4xx_cryp.c ****   *         specified parameters in the CRYP_IVInitStruct.
 325:/home/jonas/warwick/3dProfilometer/xpcc/ext/stm32f4xx_lib/STM32F4xx_StdPeriph_Driver/src/stm32f4xx_cryp.c ****   * @param  CRYP_IVInitStruct: pointer to a CRYP_IVInitTypeDef structure that contains
 326:/home/jonas/warwick/3dProfilometer/xpcc/ext/stm32f4xx_lib/STM32F4xx_StdPeriph_Driver/src/stm32f4xx_cryp.c ****   *         the configuration information for the CRYP Initialization Vectors(IV).
 327:/home/jonas/warwick/3dProfilometer/xpcc/ext/stm32f4xx_lib/STM32F4xx_StdPeriph_Driver/src/stm32f4xx_cryp.c ****   * @retval None
 328:/home/jonas/warwick/3dProfilometer/xpcc/ext/stm32f4xx_lib/STM32F4xx_StdPeriph_Driver/src/stm32f4xx_cryp.c ****   */
 329:/home/jonas/warwick/3dProfilometer/xpcc/ext/stm32f4xx_lib/STM32F4xx_StdPeriph_Driver/src/stm32f4xx_cryp.c **** void CRYP_IVInit(CRYP_IVInitTypeDef* CRYP_IVInitStruct)
 330:/home/jonas/warwick/3dProfilometer/xpcc/ext/stm32f4xx_lib/STM32F4xx_StdPeriph_Driver/src/stm32f4xx_cryp.c **** {
 256              		.loc 1 330 0
 257              		.cfi_startproc
 258              		@ args = 0, pretend = 0, frame = 0
 259              		@ frame_needed = 0, uses_anonymous_args = 0
 260              		@ link register save eliminated.
 261              	.LVL6:
 331:/home/jonas/warwick/3dProfilometer/xpcc/ext/stm32f4xx_lib/STM32F4xx_StdPeriph_Driver/src/stm32f4xx_cryp.c ****   CRYP->IV0LR = CRYP_IVInitStruct->CRYP_IV0Left;
 262              		.loc 1 331 0
 263 0000 0268     		ldr	r2, [r0, #0]
 264 0002 044B     		ldr	r3, .L16
 265 0004 1A64     		str	r2, [r3, #64]
 332:/home/jonas/warwick/3dProfilometer/xpcc/ext/stm32f4xx_lib/STM32F4xx_StdPeriph_Driver/src/stm32f4xx_cryp.c ****   CRYP->IV0RR = CRYP_IVInitStruct->CRYP_IV0Right;
 266              		.loc 1 332 0
 267 0006 4268     		ldr	r2, [r0, #4]
 268 0008 5A64     		str	r2, [r3, #68]
 333:/home/jonas/warwick/3dProfilometer/xpcc/ext/stm32f4xx_lib/STM32F4xx_StdPeriph_Driver/src/stm32f4xx_cryp.c ****   CRYP->IV1LR = CRYP_IVInitStruct->CRYP_IV1Left;
 269              		.loc 1 333 0
 270 000a 8268     		ldr	r2, [r0, #8]
 271 000c 9A64     		str	r2, [r3, #72]
 334:/home/jonas/warwick/3dProfilometer/xpcc/ext/stm32f4xx_lib/STM32F4xx_StdPeriph_Driver/src/stm32f4xx_cryp.c ****   CRYP->IV1RR = CRYP_IVInitStruct->CRYP_IV1Right;
 272              		.loc 1 334 0
 273 000e C268     		ldr	r2, [r0, #12]
 274 0010 DA64     		str	r2, [r3, #76]
 275 0012 7047     		bx	lr
 276              	.L17:
 277              		.align	2
 278              	.L16:
 279 0014 00000650 		.word	1342570496
 280              		.cfi_endproc
 281              	.LFE115:
 283              		.section	.text.CRYP_IVStructInit,"ax",%progbits
 284              		.align	2
 285              		.global	CRYP_IVStructInit
 286              		.thumb
 287              		.thumb_func
 289              	CRYP_IVStructInit:
 290              	.LFB116:
 335:/home/jonas/warwick/3dProfilometer/xpcc/ext/stm32f4xx_lib/STM32F4xx_StdPeriph_Driver/src/stm32f4xx_cryp.c **** }
 336:/home/jonas/warwick/3dProfilometer/xpcc/ext/stm32f4xx_lib/STM32F4xx_StdPeriph_Driver/src/stm32f4xx_cryp.c **** 
 337:/home/jonas/warwick/3dProfilometer/xpcc/ext/stm32f4xx_lib/STM32F4xx_StdPeriph_Driver/src/stm32f4xx_cryp.c **** /**
 338:/home/jonas/warwick/3dProfilometer/xpcc/ext/stm32f4xx_lib/STM32F4xx_StdPeriph_Driver/src/stm32f4xx_cryp.c ****   * @brief  Fills each CRYP_IVInitStruct member with its default value.
 339:/home/jonas/warwick/3dProfilometer/xpcc/ext/stm32f4xx_lib/STM32F4xx_StdPeriph_Driver/src/stm32f4xx_cryp.c ****   * @param  CRYP_IVInitStruct: pointer to a CRYP_IVInitTypeDef Initialization 
 340:/home/jonas/warwick/3dProfilometer/xpcc/ext/stm32f4xx_lib/STM32F4xx_StdPeriph_Driver/src/stm32f4xx_cryp.c ****   *         Vectors(IV) structure which will be initialized.
 341:/home/jonas/warwick/3dProfilometer/xpcc/ext/stm32f4xx_lib/STM32F4xx_StdPeriph_Driver/src/stm32f4xx_cryp.c ****   * @retval None
 342:/home/jonas/warwick/3dProfilometer/xpcc/ext/stm32f4xx_lib/STM32F4xx_StdPeriph_Driver/src/stm32f4xx_cryp.c ****   */
 343:/home/jonas/warwick/3dProfilometer/xpcc/ext/stm32f4xx_lib/STM32F4xx_StdPeriph_Driver/src/stm32f4xx_cryp.c **** void CRYP_IVStructInit(CRYP_IVInitTypeDef* CRYP_IVInitStruct)
 344:/home/jonas/warwick/3dProfilometer/xpcc/ext/stm32f4xx_lib/STM32F4xx_StdPeriph_Driver/src/stm32f4xx_cryp.c **** {
 291              		.loc 1 344 0
 292              		.cfi_startproc
 293              		@ args = 0, pretend = 0, frame = 0
 294              		@ frame_needed = 0, uses_anonymous_args = 0
 295              		@ link register save eliminated.
 296              	.LVL7:
 345:/home/jonas/warwick/3dProfilometer/xpcc/ext/stm32f4xx_lib/STM32F4xx_StdPeriph_Driver/src/stm32f4xx_cryp.c ****   CRYP_IVInitStruct->CRYP_IV0Left  = 0;
 297              		.loc 1 345 0
 298 0000 0023     		movs	r3, #0
 299 0002 0360     		str	r3, [r0, #0]
 346:/home/jonas/warwick/3dProfilometer/xpcc/ext/stm32f4xx_lib/STM32F4xx_StdPeriph_Driver/src/stm32f4xx_cryp.c ****   CRYP_IVInitStruct->CRYP_IV0Right = 0;
 300              		.loc 1 346 0
 301 0004 4360     		str	r3, [r0, #4]
 347:/home/jonas/warwick/3dProfilometer/xpcc/ext/stm32f4xx_lib/STM32F4xx_StdPeriph_Driver/src/stm32f4xx_cryp.c ****   CRYP_IVInitStruct->CRYP_IV1Left  = 0;
 302              		.loc 1 347 0
 303 0006 8360     		str	r3, [r0, #8]
 348:/home/jonas/warwick/3dProfilometer/xpcc/ext/stm32f4xx_lib/STM32F4xx_StdPeriph_Driver/src/stm32f4xx_cryp.c ****   CRYP_IVInitStruct->CRYP_IV1Right = 0;
 304              		.loc 1 348 0
 305 0008 C360     		str	r3, [r0, #12]
 306 000a 7047     		bx	lr
 307              		.cfi_endproc
 308              	.LFE116:
 310              		.section	.text.CRYP_FIFOFlush,"ax",%progbits
 311              		.align	2
 312              		.global	CRYP_FIFOFlush
 313              		.thumb
 314              		.thumb_func
 316              	CRYP_FIFOFlush:
 317              	.LFB117:
 349:/home/jonas/warwick/3dProfilometer/xpcc/ext/stm32f4xx_lib/STM32F4xx_StdPeriph_Driver/src/stm32f4xx_cryp.c **** }
 350:/home/jonas/warwick/3dProfilometer/xpcc/ext/stm32f4xx_lib/STM32F4xx_StdPeriph_Driver/src/stm32f4xx_cryp.c **** 
 351:/home/jonas/warwick/3dProfilometer/xpcc/ext/stm32f4xx_lib/STM32F4xx_StdPeriph_Driver/src/stm32f4xx_cryp.c **** /**
 352:/home/jonas/warwick/3dProfilometer/xpcc/ext/stm32f4xx_lib/STM32F4xx_StdPeriph_Driver/src/stm32f4xx_cryp.c ****   * @brief  Flushes the IN and OUT FIFOs (that is read and write pointers of the 
 353:/home/jonas/warwick/3dProfilometer/xpcc/ext/stm32f4xx_lib/STM32F4xx_StdPeriph_Driver/src/stm32f4xx_cryp.c ****   *         FIFOs are reset)
 354:/home/jonas/warwick/3dProfilometer/xpcc/ext/stm32f4xx_lib/STM32F4xx_StdPeriph_Driver/src/stm32f4xx_cryp.c ****   * @note   The FIFOs must be flushed only when BUSY flag is reset.  
 355:/home/jonas/warwick/3dProfilometer/xpcc/ext/stm32f4xx_lib/STM32F4xx_StdPeriph_Driver/src/stm32f4xx_cryp.c ****   * @param  None
 356:/home/jonas/warwick/3dProfilometer/xpcc/ext/stm32f4xx_lib/STM32F4xx_StdPeriph_Driver/src/stm32f4xx_cryp.c ****   * @retval None
 357:/home/jonas/warwick/3dProfilometer/xpcc/ext/stm32f4xx_lib/STM32F4xx_StdPeriph_Driver/src/stm32f4xx_cryp.c ****   */
 358:/home/jonas/warwick/3dProfilometer/xpcc/ext/stm32f4xx_lib/STM32F4xx_StdPeriph_Driver/src/stm32f4xx_cryp.c **** void CRYP_FIFOFlush(void)
 359:/home/jonas/warwick/3dProfilometer/xpcc/ext/stm32f4xx_lib/STM32F4xx_StdPeriph_Driver/src/stm32f4xx_cryp.c **** {
 318              		.loc 1 359 0
 319              		.cfi_startproc
 320              		@ args = 0, pretend = 0, frame = 0
 321              		@ frame_needed = 0, uses_anonymous_args = 0
 322              		@ link register save eliminated.
 360:/home/jonas/warwick/3dProfilometer/xpcc/ext/stm32f4xx_lib/STM32F4xx_StdPeriph_Driver/src/stm32f4xx_cryp.c ****   /* Reset the read and write pointers of the FIFOs */
 361:/home/jonas/warwick/3dProfilometer/xpcc/ext/stm32f4xx_lib/STM32F4xx_StdPeriph_Driver/src/stm32f4xx_cryp.c ****   CRYP->CR |= CRYP_CR_FFLUSH;
 323              		.loc 1 361 0
 324 0000 024B     		ldr	r3, .L20
 325 0002 1A68     		ldr	r2, [r3, #0]
 326 0004 42F48042 		orr	r2, r2, #16384
 327 0008 1A60     		str	r2, [r3, #0]
 328 000a 7047     		bx	lr
 329              	.L21:
 330              		.align	2
 331              	.L20:
 332 000c 00000650 		.word	1342570496
 333              		.cfi_endproc
 334              	.LFE117:
 336              		.section	.text.CRYP_Cmd,"ax",%progbits
 337              		.align	2
 338              		.global	CRYP_Cmd
 339              		.thumb
 340              		.thumb_func
 342              	CRYP_Cmd:
 343              	.LFB118:
 362:/home/jonas/warwick/3dProfilometer/xpcc/ext/stm32f4xx_lib/STM32F4xx_StdPeriph_Driver/src/stm32f4xx_cryp.c **** }
 363:/home/jonas/warwick/3dProfilometer/xpcc/ext/stm32f4xx_lib/STM32F4xx_StdPeriph_Driver/src/stm32f4xx_cryp.c **** 
 364:/home/jonas/warwick/3dProfilometer/xpcc/ext/stm32f4xx_lib/STM32F4xx_StdPeriph_Driver/src/stm32f4xx_cryp.c **** /**
 365:/home/jonas/warwick/3dProfilometer/xpcc/ext/stm32f4xx_lib/STM32F4xx_StdPeriph_Driver/src/stm32f4xx_cryp.c ****   * @brief  Enables or disables the CRYP peripheral.
 366:/home/jonas/warwick/3dProfilometer/xpcc/ext/stm32f4xx_lib/STM32F4xx_StdPeriph_Driver/src/stm32f4xx_cryp.c ****   * @param  NewState: new state of the CRYP peripheral.
 367:/home/jonas/warwick/3dProfilometer/xpcc/ext/stm32f4xx_lib/STM32F4xx_StdPeriph_Driver/src/stm32f4xx_cryp.c ****   *          This parameter can be: ENABLE or DISABLE.
 368:/home/jonas/warwick/3dProfilometer/xpcc/ext/stm32f4xx_lib/STM32F4xx_StdPeriph_Driver/src/stm32f4xx_cryp.c ****   * @retval None
 369:/home/jonas/warwick/3dProfilometer/xpcc/ext/stm32f4xx_lib/STM32F4xx_StdPeriph_Driver/src/stm32f4xx_cryp.c ****   */
 370:/home/jonas/warwick/3dProfilometer/xpcc/ext/stm32f4xx_lib/STM32F4xx_StdPeriph_Driver/src/stm32f4xx_cryp.c **** void CRYP_Cmd(FunctionalState NewState)
 371:/home/jonas/warwick/3dProfilometer/xpcc/ext/stm32f4xx_lib/STM32F4xx_StdPeriph_Driver/src/stm32f4xx_cryp.c **** {
 344              		.loc 1 371 0
 345              		.cfi_startproc
 346              		@ args = 0, pretend = 0, frame = 0
 347              		@ frame_needed = 0, uses_anonymous_args = 0
 348              		@ link register save eliminated.
 349              	.LVL8:
 372:/home/jonas/warwick/3dProfilometer/xpcc/ext/stm32f4xx_lib/STM32F4xx_StdPeriph_Driver/src/stm32f4xx_cryp.c ****   /* Check the parameters */
 373:/home/jonas/warwick/3dProfilometer/xpcc/ext/stm32f4xx_lib/STM32F4xx_StdPeriph_Driver/src/stm32f4xx_cryp.c ****   assert_param(IS_FUNCTIONAL_STATE(NewState));
 374:/home/jonas/warwick/3dProfilometer/xpcc/ext/stm32f4xx_lib/STM32F4xx_StdPeriph_Driver/src/stm32f4xx_cryp.c **** 
 375:/home/jonas/warwick/3dProfilometer/xpcc/ext/stm32f4xx_lib/STM32F4xx_StdPeriph_Driver/src/stm32f4xx_cryp.c ****   if (NewState != DISABLE)
 376:/home/jonas/warwick/3dProfilometer/xpcc/ext/stm32f4xx_lib/STM32F4xx_StdPeriph_Driver/src/stm32f4xx_cryp.c ****   {
 377:/home/jonas/warwick/3dProfilometer/xpcc/ext/stm32f4xx_lib/STM32F4xx_StdPeriph_Driver/src/stm32f4xx_cryp.c ****     /* Enable the Cryptographic processor */
 378:/home/jonas/warwick/3dProfilometer/xpcc/ext/stm32f4xx_lib/STM32F4xx_StdPeriph_Driver/src/stm32f4xx_cryp.c ****     CRYP->CR |= CRYP_CR_CRYPEN;
 350              		.loc 1 378 0
 351 0000 054B     		ldr	r3, .L26
 352 0002 1A68     		ldr	r2, [r3, #0]
 375:/home/jonas/warwick/3dProfilometer/xpcc/ext/stm32f4xx_lib/STM32F4xx_StdPeriph_Driver/src/stm32f4xx_cryp.c ****   if (NewState != DISABLE)
 353              		.loc 1 375 0
 354 0004 18B9     		cbnz	r0, .L25
 379:/home/jonas/warwick/3dProfilometer/xpcc/ext/stm32f4xx_lib/STM32F4xx_StdPeriph_Driver/src/stm32f4xx_cryp.c ****   }
 380:/home/jonas/warwick/3dProfilometer/xpcc/ext/stm32f4xx_lib/STM32F4xx_StdPeriph_Driver/src/stm32f4xx_cryp.c ****   else
 381:/home/jonas/warwick/3dProfilometer/xpcc/ext/stm32f4xx_lib/STM32F4xx_StdPeriph_Driver/src/stm32f4xx_cryp.c ****   {
 382:/home/jonas/warwick/3dProfilometer/xpcc/ext/stm32f4xx_lib/STM32F4xx_StdPeriph_Driver/src/stm32f4xx_cryp.c ****     /* Disable the Cryptographic processor */
 383:/home/jonas/warwick/3dProfilometer/xpcc/ext/stm32f4xx_lib/STM32F4xx_StdPeriph_Driver/src/stm32f4xx_cryp.c ****     CRYP->CR &= ~CRYP_CR_CRYPEN;
 355              		.loc 1 383 0
 356 0006 22F40042 		bic	r2, r2, #32768
 357 000a 1A60     		str	r2, [r3, #0]
 358 000c 7047     		bx	lr
 359              	.L25:
 378:/home/jonas/warwick/3dProfilometer/xpcc/ext/stm32f4xx_lib/STM32F4xx_StdPeriph_Driver/src/stm32f4xx_cryp.c ****     CRYP->CR |= CRYP_CR_CRYPEN;
 360              		.loc 1 378 0
 361 000e 42F40042 		orr	r2, r2, #32768
 362 0012 1A60     		str	r2, [r3, #0]
 363 0014 7047     		bx	lr
 364              	.L27:
 365 0016 00BF     		.align	2
 366              	.L26:
 367 0018 00000650 		.word	1342570496
 368              		.cfi_endproc
 369              	.LFE118:
 371              		.section	.text.CRYP_DataIn,"ax",%progbits
 372              		.align	2
 373              		.global	CRYP_DataIn
 374              		.thumb
 375              		.thumb_func
 377              	CRYP_DataIn:
 378              	.LFB119:
 384:/home/jonas/warwick/3dProfilometer/xpcc/ext/stm32f4xx_lib/STM32F4xx_StdPeriph_Driver/src/stm32f4xx_cryp.c ****   }
 385:/home/jonas/warwick/3dProfilometer/xpcc/ext/stm32f4xx_lib/STM32F4xx_StdPeriph_Driver/src/stm32f4xx_cryp.c **** }
 386:/home/jonas/warwick/3dProfilometer/xpcc/ext/stm32f4xx_lib/STM32F4xx_StdPeriph_Driver/src/stm32f4xx_cryp.c **** /**
 387:/home/jonas/warwick/3dProfilometer/xpcc/ext/stm32f4xx_lib/STM32F4xx_StdPeriph_Driver/src/stm32f4xx_cryp.c ****   * @}
 388:/home/jonas/warwick/3dProfilometer/xpcc/ext/stm32f4xx_lib/STM32F4xx_StdPeriph_Driver/src/stm32f4xx_cryp.c ****   */
 389:/home/jonas/warwick/3dProfilometer/xpcc/ext/stm32f4xx_lib/STM32F4xx_StdPeriph_Driver/src/stm32f4xx_cryp.c ****   
 390:/home/jonas/warwick/3dProfilometer/xpcc/ext/stm32f4xx_lib/STM32F4xx_StdPeriph_Driver/src/stm32f4xx_cryp.c **** /** @defgroup CRYP_Group2 CRYP Data processing functions
 391:/home/jonas/warwick/3dProfilometer/xpcc/ext/stm32f4xx_lib/STM32F4xx_StdPeriph_Driver/src/stm32f4xx_cryp.c ****  *  @brief    CRYP Data processing functions
 392:/home/jonas/warwick/3dProfilometer/xpcc/ext/stm32f4xx_lib/STM32F4xx_StdPeriph_Driver/src/stm32f4xx_cryp.c ****  *
 393:/home/jonas/warwick/3dProfilometer/xpcc/ext/stm32f4xx_lib/STM32F4xx_StdPeriph_Driver/src/stm32f4xx_cryp.c **** @verbatim    
 394:/home/jonas/warwick/3dProfilometer/xpcc/ext/stm32f4xx_lib/STM32F4xx_StdPeriph_Driver/src/stm32f4xx_cryp.c ****  ===============================================================================
 395:/home/jonas/warwick/3dProfilometer/xpcc/ext/stm32f4xx_lib/STM32F4xx_StdPeriph_Driver/src/stm32f4xx_cryp.c ****                       CRYP Data processing functions
 396:/home/jonas/warwick/3dProfilometer/xpcc/ext/stm32f4xx_lib/STM32F4xx_StdPeriph_Driver/src/stm32f4xx_cryp.c ****  ===============================================================================  
 397:/home/jonas/warwick/3dProfilometer/xpcc/ext/stm32f4xx_lib/STM32F4xx_StdPeriph_Driver/src/stm32f4xx_cryp.c ****   This section provides functions allowing the encryption and decryption 
 398:/home/jonas/warwick/3dProfilometer/xpcc/ext/stm32f4xx_lib/STM32F4xx_StdPeriph_Driver/src/stm32f4xx_cryp.c ****   operations: 
 399:/home/jonas/warwick/3dProfilometer/xpcc/ext/stm32f4xx_lib/STM32F4xx_StdPeriph_Driver/src/stm32f4xx_cryp.c ****   - Enter data to be treated in the IN FIFO : using CRYP_DataIn() function.
 400:/home/jonas/warwick/3dProfilometer/xpcc/ext/stm32f4xx_lib/STM32F4xx_StdPeriph_Driver/src/stm32f4xx_cryp.c ****   - Get the data result from the OUT FIFO : using CRYP_DataOut() function.
 401:/home/jonas/warwick/3dProfilometer/xpcc/ext/stm32f4xx_lib/STM32F4xx_StdPeriph_Driver/src/stm32f4xx_cryp.c **** 
 402:/home/jonas/warwick/3dProfilometer/xpcc/ext/stm32f4xx_lib/STM32F4xx_StdPeriph_Driver/src/stm32f4xx_cryp.c **** @endverbatim
 403:/home/jonas/warwick/3dProfilometer/xpcc/ext/stm32f4xx_lib/STM32F4xx_StdPeriph_Driver/src/stm32f4xx_cryp.c ****   * @{
 404:/home/jonas/warwick/3dProfilometer/xpcc/ext/stm32f4xx_lib/STM32F4xx_StdPeriph_Driver/src/stm32f4xx_cryp.c ****   */
 405:/home/jonas/warwick/3dProfilometer/xpcc/ext/stm32f4xx_lib/STM32F4xx_StdPeriph_Driver/src/stm32f4xx_cryp.c **** 
 406:/home/jonas/warwick/3dProfilometer/xpcc/ext/stm32f4xx_lib/STM32F4xx_StdPeriph_Driver/src/stm32f4xx_cryp.c **** /**
 407:/home/jonas/warwick/3dProfilometer/xpcc/ext/stm32f4xx_lib/STM32F4xx_StdPeriph_Driver/src/stm32f4xx_cryp.c ****   * @brief  Writes data in the Data Input register (DIN).
 408:/home/jonas/warwick/3dProfilometer/xpcc/ext/stm32f4xx_lib/STM32F4xx_StdPeriph_Driver/src/stm32f4xx_cryp.c ****   * @note   After the DIN register has been read once or several times, 
 409:/home/jonas/warwick/3dProfilometer/xpcc/ext/stm32f4xx_lib/STM32F4xx_StdPeriph_Driver/src/stm32f4xx_cryp.c ****   *         the FIFO must be flushed (using CRYP_FIFOFlush() function).  
 410:/home/jonas/warwick/3dProfilometer/xpcc/ext/stm32f4xx_lib/STM32F4xx_StdPeriph_Driver/src/stm32f4xx_cryp.c ****   * @param  Data: data to write in Data Input register
 411:/home/jonas/warwick/3dProfilometer/xpcc/ext/stm32f4xx_lib/STM32F4xx_StdPeriph_Driver/src/stm32f4xx_cryp.c ****   * @retval None
 412:/home/jonas/warwick/3dProfilometer/xpcc/ext/stm32f4xx_lib/STM32F4xx_StdPeriph_Driver/src/stm32f4xx_cryp.c ****   */
 413:/home/jonas/warwick/3dProfilometer/xpcc/ext/stm32f4xx_lib/STM32F4xx_StdPeriph_Driver/src/stm32f4xx_cryp.c **** void CRYP_DataIn(uint32_t Data)
 414:/home/jonas/warwick/3dProfilometer/xpcc/ext/stm32f4xx_lib/STM32F4xx_StdPeriph_Driver/src/stm32f4xx_cryp.c **** {
 379              		.loc 1 414 0
 380              		.cfi_startproc
 381              		@ args = 0, pretend = 0, frame = 0
 382              		@ frame_needed = 0, uses_anonymous_args = 0
 383              		@ link register save eliminated.
 384              	.LVL9:
 415:/home/jonas/warwick/3dProfilometer/xpcc/ext/stm32f4xx_lib/STM32F4xx_StdPeriph_Driver/src/stm32f4xx_cryp.c ****   CRYP->DR = Data;
 385              		.loc 1 415 0
 386 0000 014B     		ldr	r3, .L29
 387 0002 9860     		str	r0, [r3, #8]
 388 0004 7047     		bx	lr
 389              	.L30:
 390 0006 00BF     		.align	2
 391              	.L29:
 392 0008 00000650 		.word	1342570496
 393              		.cfi_endproc
 394              	.LFE119:
 396              		.section	.text.CRYP_DataOut,"ax",%progbits
 397              		.align	2
 398              		.global	CRYP_DataOut
 399              		.thumb
 400              		.thumb_func
 402              	CRYP_DataOut:
 403              	.LFB120:
 416:/home/jonas/warwick/3dProfilometer/xpcc/ext/stm32f4xx_lib/STM32F4xx_StdPeriph_Driver/src/stm32f4xx_cryp.c **** }
 417:/home/jonas/warwick/3dProfilometer/xpcc/ext/stm32f4xx_lib/STM32F4xx_StdPeriph_Driver/src/stm32f4xx_cryp.c **** 
 418:/home/jonas/warwick/3dProfilometer/xpcc/ext/stm32f4xx_lib/STM32F4xx_StdPeriph_Driver/src/stm32f4xx_cryp.c **** /**
 419:/home/jonas/warwick/3dProfilometer/xpcc/ext/stm32f4xx_lib/STM32F4xx_StdPeriph_Driver/src/stm32f4xx_cryp.c ****   * @brief  Returns the last data entered into the output FIFO.
 420:/home/jonas/warwick/3dProfilometer/xpcc/ext/stm32f4xx_lib/STM32F4xx_StdPeriph_Driver/src/stm32f4xx_cryp.c ****   * @param  None
 421:/home/jonas/warwick/3dProfilometer/xpcc/ext/stm32f4xx_lib/STM32F4xx_StdPeriph_Driver/src/stm32f4xx_cryp.c ****   * @retval Last data entered into the output FIFO.
 422:/home/jonas/warwick/3dProfilometer/xpcc/ext/stm32f4xx_lib/STM32F4xx_StdPeriph_Driver/src/stm32f4xx_cryp.c ****   */
 423:/home/jonas/warwick/3dProfilometer/xpcc/ext/stm32f4xx_lib/STM32F4xx_StdPeriph_Driver/src/stm32f4xx_cryp.c **** uint32_t CRYP_DataOut(void)
 424:/home/jonas/warwick/3dProfilometer/xpcc/ext/stm32f4xx_lib/STM32F4xx_StdPeriph_Driver/src/stm32f4xx_cryp.c **** {
 404              		.loc 1 424 0
 405              		.cfi_startproc
 406              		@ args = 0, pretend = 0, frame = 0
 407              		@ frame_needed = 0, uses_anonymous_args = 0
 408              		@ link register save eliminated.
 425:/home/jonas/warwick/3dProfilometer/xpcc/ext/stm32f4xx_lib/STM32F4xx_StdPeriph_Driver/src/stm32f4xx_cryp.c ****   return CRYP->DOUT;
 409              		.loc 1 425 0
 410 0000 014B     		ldr	r3, .L32
 411 0002 D868     		ldr	r0, [r3, #12]
 426:/home/jonas/warwick/3dProfilometer/xpcc/ext/stm32f4xx_lib/STM32F4xx_StdPeriph_Driver/src/stm32f4xx_cryp.c **** }
 412              		.loc 1 426 0
 413 0004 7047     		bx	lr
 414              	.L33:
 415 0006 00BF     		.align	2
 416              	.L32:
 417 0008 00000650 		.word	1342570496
 418              		.cfi_endproc
 419              	.LFE120:
 421              		.section	.text.CRYP_SaveContext,"ax",%progbits
 422              		.align	2
 423              		.global	CRYP_SaveContext
 424              		.thumb
 425              		.thumb_func
 427              	CRYP_SaveContext:
 428              	.LFB121:
 427:/home/jonas/warwick/3dProfilometer/xpcc/ext/stm32f4xx_lib/STM32F4xx_StdPeriph_Driver/src/stm32f4xx_cryp.c **** /**
 428:/home/jonas/warwick/3dProfilometer/xpcc/ext/stm32f4xx_lib/STM32F4xx_StdPeriph_Driver/src/stm32f4xx_cryp.c ****   * @}
 429:/home/jonas/warwick/3dProfilometer/xpcc/ext/stm32f4xx_lib/STM32F4xx_StdPeriph_Driver/src/stm32f4xx_cryp.c ****   */
 430:/home/jonas/warwick/3dProfilometer/xpcc/ext/stm32f4xx_lib/STM32F4xx_StdPeriph_Driver/src/stm32f4xx_cryp.c ****   
 431:/home/jonas/warwick/3dProfilometer/xpcc/ext/stm32f4xx_lib/STM32F4xx_StdPeriph_Driver/src/stm32f4xx_cryp.c **** /** @defgroup CRYP_Group3 Context swapping functions
 432:/home/jonas/warwick/3dProfilometer/xpcc/ext/stm32f4xx_lib/STM32F4xx_StdPeriph_Driver/src/stm32f4xx_cryp.c ****  *  @brief   Context swapping functions
 433:/home/jonas/warwick/3dProfilometer/xpcc/ext/stm32f4xx_lib/STM32F4xx_StdPeriph_Driver/src/stm32f4xx_cryp.c ****  *
 434:/home/jonas/warwick/3dProfilometer/xpcc/ext/stm32f4xx_lib/STM32F4xx_StdPeriph_Driver/src/stm32f4xx_cryp.c **** @verbatim   
 435:/home/jonas/warwick/3dProfilometer/xpcc/ext/stm32f4xx_lib/STM32F4xx_StdPeriph_Driver/src/stm32f4xx_cryp.c ****  ===============================================================================
 436:/home/jonas/warwick/3dProfilometer/xpcc/ext/stm32f4xx_lib/STM32F4xx_StdPeriph_Driver/src/stm32f4xx_cryp.c ****                              Context swapping functions
 437:/home/jonas/warwick/3dProfilometer/xpcc/ext/stm32f4xx_lib/STM32F4xx_StdPeriph_Driver/src/stm32f4xx_cryp.c ****  ===============================================================================  
 438:/home/jonas/warwick/3dProfilometer/xpcc/ext/stm32f4xx_lib/STM32F4xx_StdPeriph_Driver/src/stm32f4xx_cryp.c **** 
 439:/home/jonas/warwick/3dProfilometer/xpcc/ext/stm32f4xx_lib/STM32F4xx_StdPeriph_Driver/src/stm32f4xx_cryp.c ****   This section provides functions allowing to save and store CRYP Context
 440:/home/jonas/warwick/3dProfilometer/xpcc/ext/stm32f4xx_lib/STM32F4xx_StdPeriph_Driver/src/stm32f4xx_cryp.c **** 
 441:/home/jonas/warwick/3dProfilometer/xpcc/ext/stm32f4xx_lib/STM32F4xx_StdPeriph_Driver/src/stm32f4xx_cryp.c ****   It is possible to interrupt an encryption/ decryption/ key generation process 
 442:/home/jonas/warwick/3dProfilometer/xpcc/ext/stm32f4xx_lib/STM32F4xx_StdPeriph_Driver/src/stm32f4xx_cryp.c ****   to perform another processing with a higher priority, and to complete the 
 443:/home/jonas/warwick/3dProfilometer/xpcc/ext/stm32f4xx_lib/STM32F4xx_StdPeriph_Driver/src/stm32f4xx_cryp.c ****   interrupted process later on, when the higher-priority task is complete. To do 
 444:/home/jonas/warwick/3dProfilometer/xpcc/ext/stm32f4xx_lib/STM32F4xx_StdPeriph_Driver/src/stm32f4xx_cryp.c ****   so, the context of the interrupted task must be saved from the CRYP registers 
 445:/home/jonas/warwick/3dProfilometer/xpcc/ext/stm32f4xx_lib/STM32F4xx_StdPeriph_Driver/src/stm32f4xx_cryp.c ****   to memory, and then be restored from memory to the CRYP registers.
 446:/home/jonas/warwick/3dProfilometer/xpcc/ext/stm32f4xx_lib/STM32F4xx_StdPeriph_Driver/src/stm32f4xx_cryp.c ****    
 447:/home/jonas/warwick/3dProfilometer/xpcc/ext/stm32f4xx_lib/STM32F4xx_StdPeriph_Driver/src/stm32f4xx_cryp.c ****   1. To save the current context, use CRYP_SaveContext() function
 448:/home/jonas/warwick/3dProfilometer/xpcc/ext/stm32f4xx_lib/STM32F4xx_StdPeriph_Driver/src/stm32f4xx_cryp.c ****   2. To restore the saved context, use CRYP_RestoreContext() function 
 449:/home/jonas/warwick/3dProfilometer/xpcc/ext/stm32f4xx_lib/STM32F4xx_StdPeriph_Driver/src/stm32f4xx_cryp.c **** 
 450:/home/jonas/warwick/3dProfilometer/xpcc/ext/stm32f4xx_lib/STM32F4xx_StdPeriph_Driver/src/stm32f4xx_cryp.c **** 
 451:/home/jonas/warwick/3dProfilometer/xpcc/ext/stm32f4xx_lib/STM32F4xx_StdPeriph_Driver/src/stm32f4xx_cryp.c **** @endverbatim
 452:/home/jonas/warwick/3dProfilometer/xpcc/ext/stm32f4xx_lib/STM32F4xx_StdPeriph_Driver/src/stm32f4xx_cryp.c ****   * @{
 453:/home/jonas/warwick/3dProfilometer/xpcc/ext/stm32f4xx_lib/STM32F4xx_StdPeriph_Driver/src/stm32f4xx_cryp.c ****   */
 454:/home/jonas/warwick/3dProfilometer/xpcc/ext/stm32f4xx_lib/STM32F4xx_StdPeriph_Driver/src/stm32f4xx_cryp.c ****   
 455:/home/jonas/warwick/3dProfilometer/xpcc/ext/stm32f4xx_lib/STM32F4xx_StdPeriph_Driver/src/stm32f4xx_cryp.c **** /**
 456:/home/jonas/warwick/3dProfilometer/xpcc/ext/stm32f4xx_lib/STM32F4xx_StdPeriph_Driver/src/stm32f4xx_cryp.c ****   * @brief  Saves the CRYP peripheral Context. 
 457:/home/jonas/warwick/3dProfilometer/xpcc/ext/stm32f4xx_lib/STM32F4xx_StdPeriph_Driver/src/stm32f4xx_cryp.c ****   * @note   This function stops DMA transfer before to save the context. After 
 458:/home/jonas/warwick/3dProfilometer/xpcc/ext/stm32f4xx_lib/STM32F4xx_StdPeriph_Driver/src/stm32f4xx_cryp.c ****   *         restoring the context, you have to enable the DMA again (if the DMA
 459:/home/jonas/warwick/3dProfilometer/xpcc/ext/stm32f4xx_lib/STM32F4xx_StdPeriph_Driver/src/stm32f4xx_cryp.c ****   *         was previously used).
 460:/home/jonas/warwick/3dProfilometer/xpcc/ext/stm32f4xx_lib/STM32F4xx_StdPeriph_Driver/src/stm32f4xx_cryp.c ****   * @param  CRYP_ContextSave: pointer to a CRYP_Context structure that contains
 461:/home/jonas/warwick/3dProfilometer/xpcc/ext/stm32f4xx_lib/STM32F4xx_StdPeriph_Driver/src/stm32f4xx_cryp.c ****   *         the repository for current context.
 462:/home/jonas/warwick/3dProfilometer/xpcc/ext/stm32f4xx_lib/STM32F4xx_StdPeriph_Driver/src/stm32f4xx_cryp.c ****   * @param  CRYP_KeyInitStruct: pointer to a CRYP_KeyInitTypeDef structure that 
 463:/home/jonas/warwick/3dProfilometer/xpcc/ext/stm32f4xx_lib/STM32F4xx_StdPeriph_Driver/src/stm32f4xx_cryp.c ****   *         contains the configuration information for the CRYP Keys.  
 464:/home/jonas/warwick/3dProfilometer/xpcc/ext/stm32f4xx_lib/STM32F4xx_StdPeriph_Driver/src/stm32f4xx_cryp.c ****   * @retval None
 465:/home/jonas/warwick/3dProfilometer/xpcc/ext/stm32f4xx_lib/STM32F4xx_StdPeriph_Driver/src/stm32f4xx_cryp.c ****   */
 466:/home/jonas/warwick/3dProfilometer/xpcc/ext/stm32f4xx_lib/STM32F4xx_StdPeriph_Driver/src/stm32f4xx_cryp.c **** ErrorStatus CRYP_SaveContext(CRYP_Context* CRYP_ContextSave,
 467:/home/jonas/warwick/3dProfilometer/xpcc/ext/stm32f4xx_lib/STM32F4xx_StdPeriph_Driver/src/stm32f4xx_cryp.c ****                              CRYP_KeyInitTypeDef* CRYP_KeyInitStruct)
 468:/home/jonas/warwick/3dProfilometer/xpcc/ext/stm32f4xx_lib/STM32F4xx_StdPeriph_Driver/src/stm32f4xx_cryp.c **** {
 429              		.loc 1 468 0
 430              		.cfi_startproc
 431              		@ args = 0, pretend = 0, frame = 8
 432              		@ frame_needed = 0, uses_anonymous_args = 0
 433              		@ link register save eliminated.
 434              	.LVL10:
 435 0000 2DE9F00F 		push	{r4, r5, r6, r7, r8, r9, sl, fp}
 436              	.LCFI2:
 437              		.cfi_def_cfa_offset 32
 438              		.cfi_offset 4, -32
 439              		.cfi_offset 5, -28
 440              		.cfi_offset 6, -24
 441              		.cfi_offset 7, -20
 442              		.cfi_offset 8, -16
 443              		.cfi_offset 9, -12
 444              		.cfi_offset 10, -8
 445              		.cfi_offset 11, -4
 446 0004 82B0     		sub	sp, sp, #8
 447              	.LCFI3:
 448              		.cfi_def_cfa_offset 40
 469:/home/jonas/warwick/3dProfilometer/xpcc/ext/stm32f4xx_lib/STM32F4xx_StdPeriph_Driver/src/stm32f4xx_cryp.c ****   __IO uint32_t timeout = 0;
 470:/home/jonas/warwick/3dProfilometer/xpcc/ext/stm32f4xx_lib/STM32F4xx_StdPeriph_Driver/src/stm32f4xx_cryp.c ****   uint32_t ckeckmask = 0, bitstatus;    
 471:/home/jonas/warwick/3dProfilometer/xpcc/ext/stm32f4xx_lib/STM32F4xx_StdPeriph_Driver/src/stm32f4xx_cryp.c ****   ErrorStatus status = ERROR;
 472:/home/jonas/warwick/3dProfilometer/xpcc/ext/stm32f4xx_lib/STM32F4xx_StdPeriph_Driver/src/stm32f4xx_cryp.c **** 
 473:/home/jonas/warwick/3dProfilometer/xpcc/ext/stm32f4xx_lib/STM32F4xx_StdPeriph_Driver/src/stm32f4xx_cryp.c ****   /* Stop DMA transfers on the IN FIFO by clearing the DIEN bit in the CRYP_DMACR */
 474:/home/jonas/warwick/3dProfilometer/xpcc/ext/stm32f4xx_lib/STM32F4xx_StdPeriph_Driver/src/stm32f4xx_cryp.c ****   CRYP->DMACR &= ~(uint32_t)CRYP_DMACR_DIEN;
 449              		.loc 1 474 0
 450 0006 2A4B     		ldr	r3, .L43
 469:/home/jonas/warwick/3dProfilometer/xpcc/ext/stm32f4xx_lib/STM32F4xx_StdPeriph_Driver/src/stm32f4xx_cryp.c ****   __IO uint32_t timeout = 0;
 451              		.loc 1 469 0
 452 0008 0022     		movs	r2, #0
 453 000a 0192     		str	r2, [sp, #4]
 454              	.LVL11:
 455              		.loc 1 474 0
 456 000c 1A69     		ldr	r2, [r3, #16]
 457 000e 22F00102 		bic	r2, r2, #1
 458 0012 1A61     		str	r2, [r3, #16]
 475:/home/jonas/warwick/3dProfilometer/xpcc/ext/stm32f4xx_lib/STM32F4xx_StdPeriph_Driver/src/stm32f4xx_cryp.c ****     
 476:/home/jonas/warwick/3dProfilometer/xpcc/ext/stm32f4xx_lib/STM32F4xx_StdPeriph_Driver/src/stm32f4xx_cryp.c ****   /* Wait until both the IN and OUT FIFOs are empty  
 477:/home/jonas/warwick/3dProfilometer/xpcc/ext/stm32f4xx_lib/STM32F4xx_StdPeriph_Driver/src/stm32f4xx_cryp.c ****     (IFEM=1 and OFNE=0 in the CRYP_SR register) and the 
 478:/home/jonas/warwick/3dProfilometer/xpcc/ext/stm32f4xx_lib/STM32F4xx_StdPeriph_Driver/src/stm32f4xx_cryp.c ****      BUSY bit is cleared. */
 479:/home/jonas/warwick/3dProfilometer/xpcc/ext/stm32f4xx_lib/STM32F4xx_StdPeriph_Driver/src/stm32f4xx_cryp.c **** 
 480:/home/jonas/warwick/3dProfilometer/xpcc/ext/stm32f4xx_lib/STM32F4xx_StdPeriph_Driver/src/stm32f4xx_cryp.c ****   if ((CRYP->CR & (uint32_t)(CRYP_CR_ALGOMODE_TDES_ECB | CRYP_CR_ALGOMODE_TDES_CBC)) != (uint32_t)0
 459              		.loc 1 480 0
 460 0014 1B68     		ldr	r3, [r3, #0]
 481:/home/jonas/warwick/3dProfilometer/xpcc/ext/stm32f4xx_lib/STM32F4xx_StdPeriph_Driver/src/stm32f4xx_cryp.c ****   { 
 482:/home/jonas/warwick/3dProfilometer/xpcc/ext/stm32f4xx_lib/STM32F4xx_StdPeriph_Driver/src/stm32f4xx_cryp.c ****     ckeckmask =  CRYP_SR_IFEM | CRYP_SR_BUSY ;
 461              		.loc 1 482 0
 462 0016 13F0080F 		tst	r3, #8
 463 001a 0CBF     		ite	eq
 464 001c 1522     		moveq	r2, #21
 465 001e 1122     		movne	r2, #17
 466              	.LVL12:
 467              	.L37:
 483:/home/jonas/warwick/3dProfilometer/xpcc/ext/stm32f4xx_lib/STM32F4xx_StdPeriph_Driver/src/stm32f4xx_cryp.c ****   }
 484:/home/jonas/warwick/3dProfilometer/xpcc/ext/stm32f4xx_lib/STM32F4xx_StdPeriph_Driver/src/stm32f4xx_cryp.c ****   else /* AES or DES */
 485:/home/jonas/warwick/3dProfilometer/xpcc/ext/stm32f4xx_lib/STM32F4xx_StdPeriph_Driver/src/stm32f4xx_cryp.c ****   {
 486:/home/jonas/warwick/3dProfilometer/xpcc/ext/stm32f4xx_lib/STM32F4xx_StdPeriph_Driver/src/stm32f4xx_cryp.c ****     ckeckmask =  CRYP_SR_IFEM | CRYP_SR_BUSY | CRYP_SR_OFNE;
 487:/home/jonas/warwick/3dProfilometer/xpcc/ext/stm32f4xx_lib/STM32F4xx_StdPeriph_Driver/src/stm32f4xx_cryp.c ****   }           
 488:/home/jonas/warwick/3dProfilometer/xpcc/ext/stm32f4xx_lib/STM32F4xx_StdPeriph_Driver/src/stm32f4xx_cryp.c ****    
 489:/home/jonas/warwick/3dProfilometer/xpcc/ext/stm32f4xx_lib/STM32F4xx_StdPeriph_Driver/src/stm32f4xx_cryp.c ****   do 
 490:/home/jonas/warwick/3dProfilometer/xpcc/ext/stm32f4xx_lib/STM32F4xx_StdPeriph_Driver/src/stm32f4xx_cryp.c ****   {
 491:/home/jonas/warwick/3dProfilometer/xpcc/ext/stm32f4xx_lib/STM32F4xx_StdPeriph_Driver/src/stm32f4xx_cryp.c ****     bitstatus = CRYP->SR & ckeckmask;
 468              		.loc 1 491 0 discriminator 1
 469 0020 234B     		ldr	r3, .L43
 470 0022 5B68     		ldr	r3, [r3, #4]
 492:/home/jonas/warwick/3dProfilometer/xpcc/ext/stm32f4xx_lib/STM32F4xx_StdPeriph_Driver/src/stm32f4xx_cryp.c ****     timeout++;
 471              		.loc 1 492 0 discriminator 1
 472 0024 019C     		ldr	r4, [sp, #4]
 473 0026 0134     		adds	r4, r4, #1
 474              	.LVL13:
 475 0028 0194     		str	r4, [sp, #4]
 476              	.LVL14:
 493:/home/jonas/warwick/3dProfilometer/xpcc/ext/stm32f4xx_lib/STM32F4xx_StdPeriph_Driver/src/stm32f4xx_cryp.c ****   }
 494:/home/jonas/warwick/3dProfilometer/xpcc/ext/stm32f4xx_lib/STM32F4xx_StdPeriph_Driver/src/stm32f4xx_cryp.c ****   while ((timeout != MAX_TIMEOUT) && (bitstatus != CRYP_SR_IFEM));
 477              		.loc 1 494 0 discriminator 1
 478 002a 019C     		ldr	r4, [sp, #4]
 479              	.LVL15:
 491:/home/jonas/warwick/3dProfilometer/xpcc/ext/stm32f4xx_lib/STM32F4xx_StdPeriph_Driver/src/stm32f4xx_cryp.c ****     bitstatus = CRYP->SR & ckeckmask;
 480              		.loc 1 491 0 discriminator 1
 481 002c 02EA0305 		and	r5, r2, r3
 482              	.LVL16:
 483              		.loc 1 494 0 discriminator 1
 484 0030 4FF6FF73 		movw	r3, #65535
 485 0034 9C42     		cmp	r4, r3
 486 0036 01D0     		beq	.L36
 487 0038 012D     		cmp	r5, #1
 488 003a F1D1     		bne	.L37
 489              	.L36:
 495:/home/jonas/warwick/3dProfilometer/xpcc/ext/stm32f4xx_lib/STM32F4xx_StdPeriph_Driver/src/stm32f4xx_cryp.c ****      
 496:/home/jonas/warwick/3dProfilometer/xpcc/ext/stm32f4xx_lib/STM32F4xx_StdPeriph_Driver/src/stm32f4xx_cryp.c ****   if ((CRYP->SR & ckeckmask) != CRYP_SR_IFEM)
 490              		.loc 1 496 0
 491 003c 1C4B     		ldr	r3, .L43
 492 003e 5C68     		ldr	r4, [r3, #4]
 493 0040 2240     		ands	r2, r2, r4
 494              	.LVL17:
 495 0042 012A     		cmp	r2, #1
 496 0044 04D0     		beq	.L42
 497:/home/jonas/warwick/3dProfilometer/xpcc/ext/stm32f4xx_lib/STM32F4xx_StdPeriph_Driver/src/stm32f4xx_cryp.c ****   {
 498:/home/jonas/warwick/3dProfilometer/xpcc/ext/stm32f4xx_lib/STM32F4xx_StdPeriph_Driver/src/stm32f4xx_cryp.c ****     status = ERROR;
 497              		.loc 1 498 0
 498 0046 0020     		movs	r0, #0
 499              	.LVL18:
 500              	.L38:
 499:/home/jonas/warwick/3dProfilometer/xpcc/ext/stm32f4xx_lib/STM32F4xx_StdPeriph_Driver/src/stm32f4xx_cryp.c ****   }
 500:/home/jonas/warwick/3dProfilometer/xpcc/ext/stm32f4xx_lib/STM32F4xx_StdPeriph_Driver/src/stm32f4xx_cryp.c ****   else
 501:/home/jonas/warwick/3dProfilometer/xpcc/ext/stm32f4xx_lib/STM32F4xx_StdPeriph_Driver/src/stm32f4xx_cryp.c ****   {      
 502:/home/jonas/warwick/3dProfilometer/xpcc/ext/stm32f4xx_lib/STM32F4xx_StdPeriph_Driver/src/stm32f4xx_cryp.c ****     /* Stop DMA transfers on the OUT FIFO by 
 503:/home/jonas/warwick/3dProfilometer/xpcc/ext/stm32f4xx_lib/STM32F4xx_StdPeriph_Driver/src/stm32f4xx_cryp.c ****        - writing the DOEN bit to 0 in the CRYP_DMACR register 
 504:/home/jonas/warwick/3dProfilometer/xpcc/ext/stm32f4xx_lib/STM32F4xx_StdPeriph_Driver/src/stm32f4xx_cryp.c ****        - and clear the CRYPEN bit. */
 505:/home/jonas/warwick/3dProfilometer/xpcc/ext/stm32f4xx_lib/STM32F4xx_StdPeriph_Driver/src/stm32f4xx_cryp.c **** 
 506:/home/jonas/warwick/3dProfilometer/xpcc/ext/stm32f4xx_lib/STM32F4xx_StdPeriph_Driver/src/stm32f4xx_cryp.c ****     CRYP->DMACR &= ~(uint32_t)CRYP_DMACR_DOEN;
 507:/home/jonas/warwick/3dProfilometer/xpcc/ext/stm32f4xx_lib/STM32F4xx_StdPeriph_Driver/src/stm32f4xx_cryp.c ****     CRYP->CR &= ~(uint32_t)CRYP_CR_CRYPEN;
 508:/home/jonas/warwick/3dProfilometer/xpcc/ext/stm32f4xx_lib/STM32F4xx_StdPeriph_Driver/src/stm32f4xx_cryp.c **** 
 509:/home/jonas/warwick/3dProfilometer/xpcc/ext/stm32f4xx_lib/STM32F4xx_StdPeriph_Driver/src/stm32f4xx_cryp.c ****     /* Save the current configuration (bits [9:2] in the CRYP_CR register) */
 510:/home/jonas/warwick/3dProfilometer/xpcc/ext/stm32f4xx_lib/STM32F4xx_StdPeriph_Driver/src/stm32f4xx_cryp.c ****     CRYP_ContextSave->CR_bits9to2  = CRYP->CR & (CRYP_CR_KEYSIZE  | 
 511:/home/jonas/warwick/3dProfilometer/xpcc/ext/stm32f4xx_lib/STM32F4xx_StdPeriph_Driver/src/stm32f4xx_cryp.c ****                                                  CRYP_CR_DATATYPE | 
 512:/home/jonas/warwick/3dProfilometer/xpcc/ext/stm32f4xx_lib/STM32F4xx_StdPeriph_Driver/src/stm32f4xx_cryp.c ****                                                  CRYP_CR_ALGOMODE |
 513:/home/jonas/warwick/3dProfilometer/xpcc/ext/stm32f4xx_lib/STM32F4xx_StdPeriph_Driver/src/stm32f4xx_cryp.c ****                                                  CRYP_CR_ALGODIR); 
 514:/home/jonas/warwick/3dProfilometer/xpcc/ext/stm32f4xx_lib/STM32F4xx_StdPeriph_Driver/src/stm32f4xx_cryp.c **** 
 515:/home/jonas/warwick/3dProfilometer/xpcc/ext/stm32f4xx_lib/STM32F4xx_StdPeriph_Driver/src/stm32f4xx_cryp.c ****     /* and, if not in ECB mode, the initialization vectors. */
 516:/home/jonas/warwick/3dProfilometer/xpcc/ext/stm32f4xx_lib/STM32F4xx_StdPeriph_Driver/src/stm32f4xx_cryp.c ****     CRYP_ContextSave->CRYP_IV0LR = CRYP->IV0LR;
 517:/home/jonas/warwick/3dProfilometer/xpcc/ext/stm32f4xx_lib/STM32F4xx_StdPeriph_Driver/src/stm32f4xx_cryp.c ****     CRYP_ContextSave->CRYP_IV0RR = CRYP->IV0RR;
 518:/home/jonas/warwick/3dProfilometer/xpcc/ext/stm32f4xx_lib/STM32F4xx_StdPeriph_Driver/src/stm32f4xx_cryp.c ****     CRYP_ContextSave->CRYP_IV1LR = CRYP->IV1LR;
 519:/home/jonas/warwick/3dProfilometer/xpcc/ext/stm32f4xx_lib/STM32F4xx_StdPeriph_Driver/src/stm32f4xx_cryp.c ****     CRYP_ContextSave->CRYP_IV1RR = CRYP->IV1RR;
 520:/home/jonas/warwick/3dProfilometer/xpcc/ext/stm32f4xx_lib/STM32F4xx_StdPeriph_Driver/src/stm32f4xx_cryp.c **** 
 521:/home/jonas/warwick/3dProfilometer/xpcc/ext/stm32f4xx_lib/STM32F4xx_StdPeriph_Driver/src/stm32f4xx_cryp.c ****     /* save The key value */
 522:/home/jonas/warwick/3dProfilometer/xpcc/ext/stm32f4xx_lib/STM32F4xx_StdPeriph_Driver/src/stm32f4xx_cryp.c ****     CRYP_ContextSave->CRYP_K0LR = CRYP_KeyInitStruct->CRYP_Key0Left; 
 523:/home/jonas/warwick/3dProfilometer/xpcc/ext/stm32f4xx_lib/STM32F4xx_StdPeriph_Driver/src/stm32f4xx_cryp.c ****     CRYP_ContextSave->CRYP_K0RR = CRYP_KeyInitStruct->CRYP_Key0Right; 
 524:/home/jonas/warwick/3dProfilometer/xpcc/ext/stm32f4xx_lib/STM32F4xx_StdPeriph_Driver/src/stm32f4xx_cryp.c ****     CRYP_ContextSave->CRYP_K1LR = CRYP_KeyInitStruct->CRYP_Key1Left; 
 525:/home/jonas/warwick/3dProfilometer/xpcc/ext/stm32f4xx_lib/STM32F4xx_StdPeriph_Driver/src/stm32f4xx_cryp.c ****     CRYP_ContextSave->CRYP_K1RR = CRYP_KeyInitStruct->CRYP_Key1Right; 
 526:/home/jonas/warwick/3dProfilometer/xpcc/ext/stm32f4xx_lib/STM32F4xx_StdPeriph_Driver/src/stm32f4xx_cryp.c ****     CRYP_ContextSave->CRYP_K2LR = CRYP_KeyInitStruct->CRYP_Key2Left; 
 527:/home/jonas/warwick/3dProfilometer/xpcc/ext/stm32f4xx_lib/STM32F4xx_StdPeriph_Driver/src/stm32f4xx_cryp.c ****     CRYP_ContextSave->CRYP_K2RR = CRYP_KeyInitStruct->CRYP_Key2Right; 
 528:/home/jonas/warwick/3dProfilometer/xpcc/ext/stm32f4xx_lib/STM32F4xx_StdPeriph_Driver/src/stm32f4xx_cryp.c ****     CRYP_ContextSave->CRYP_K3LR = CRYP_KeyInitStruct->CRYP_Key3Left; 
 529:/home/jonas/warwick/3dProfilometer/xpcc/ext/stm32f4xx_lib/STM32F4xx_StdPeriph_Driver/src/stm32f4xx_cryp.c ****     CRYP_ContextSave->CRYP_K3RR = CRYP_KeyInitStruct->CRYP_Key3Right; 
 530:/home/jonas/warwick/3dProfilometer/xpcc/ext/stm32f4xx_lib/STM32F4xx_StdPeriph_Driver/src/stm32f4xx_cryp.c **** 
 531:/home/jonas/warwick/3dProfilometer/xpcc/ext/stm32f4xx_lib/STM32F4xx_StdPeriph_Driver/src/stm32f4xx_cryp.c ****    /* When needed, save the DMA status (pointers for IN and OUT messages, 
 532:/home/jonas/warwick/3dProfilometer/xpcc/ext/stm32f4xx_lib/STM32F4xx_StdPeriph_Driver/src/stm32f4xx_cryp.c ****       number of remaining bytes, etc.) */
 533:/home/jonas/warwick/3dProfilometer/xpcc/ext/stm32f4xx_lib/STM32F4xx_StdPeriph_Driver/src/stm32f4xx_cryp.c ****      
 534:/home/jonas/warwick/3dProfilometer/xpcc/ext/stm32f4xx_lib/STM32F4xx_StdPeriph_Driver/src/stm32f4xx_cryp.c ****     status = SUCCESS;
 535:/home/jonas/warwick/3dProfilometer/xpcc/ext/stm32f4xx_lib/STM32F4xx_StdPeriph_Driver/src/stm32f4xx_cryp.c ****   }
 536:/home/jonas/warwick/3dProfilometer/xpcc/ext/stm32f4xx_lib/STM32F4xx_StdPeriph_Driver/src/stm32f4xx_cryp.c **** 
 537:/home/jonas/warwick/3dProfilometer/xpcc/ext/stm32f4xx_lib/STM32F4xx_StdPeriph_Driver/src/stm32f4xx_cryp.c ****    return status;
 538:/home/jonas/warwick/3dProfilometer/xpcc/ext/stm32f4xx_lib/STM32F4xx_StdPeriph_Driver/src/stm32f4xx_cryp.c **** }
 501              		.loc 1 538 0
 502 0048 02B0     		add	sp, sp, #8
 503 004a BDE8F00F 		pop	{r4, r5, r6, r7, r8, r9, sl, fp}
 504 004e 7047     		bx	lr
 505              	.LVL19:
 506              	.L42:
 506:/home/jonas/warwick/3dProfilometer/xpcc/ext/stm32f4xx_lib/STM32F4xx_StdPeriph_Driver/src/stm32f4xx_cryp.c ****     CRYP->DMACR &= ~(uint32_t)CRYP_DMACR_DOEN;
 507              		.loc 1 506 0
 508 0050 1C69     		ldr	r4, [r3, #16]
 509 0052 24F00204 		bic	r4, r4, #2
 510 0056 1C61     		str	r4, [r3, #16]
 507:/home/jonas/warwick/3dProfilometer/xpcc/ext/stm32f4xx_lib/STM32F4xx_StdPeriph_Driver/src/stm32f4xx_cryp.c ****     CRYP->CR &= ~(uint32_t)CRYP_CR_CRYPEN;
 511              		.loc 1 507 0
 512 0058 1C68     		ldr	r4, [r3, #0]
 513 005a 24F40044 		bic	r4, r4, #32768
 514 005e 1C60     		str	r4, [r3, #0]
 510:/home/jonas/warwick/3dProfilometer/xpcc/ext/stm32f4xx_lib/STM32F4xx_StdPeriph_Driver/src/stm32f4xx_cryp.c ****     CRYP_ContextSave->CR_bits9to2  = CRYP->CR & (CRYP_CR_KEYSIZE  | 
 515              		.loc 1 510 0
 516 0060 D3F800B0 		ldr	fp, [r3, #0]
 522:/home/jonas/warwick/3dProfilometer/xpcc/ext/stm32f4xx_lib/STM32F4xx_StdPeriph_Driver/src/stm32f4xx_cryp.c ****     CRYP_ContextSave->CRYP_K0LR = CRYP_KeyInitStruct->CRYP_Key0Left; 
 517              		.loc 1 522 0
 518 0064 D1F800A0 		ldr	sl, [r1, #0]
 523:/home/jonas/warwick/3dProfilometer/xpcc/ext/stm32f4xx_lib/STM32F4xx_StdPeriph_Driver/src/stm32f4xx_cryp.c ****     CRYP_ContextSave->CRYP_K0RR = CRYP_KeyInitStruct->CRYP_Key0Right; 
 519              		.loc 1 523 0
 520 0068 D1F80490 		ldr	r9, [r1, #4]
 524:/home/jonas/warwick/3dProfilometer/xpcc/ext/stm32f4xx_lib/STM32F4xx_StdPeriph_Driver/src/stm32f4xx_cryp.c ****     CRYP_ContextSave->CRYP_K1LR = CRYP_KeyInitStruct->CRYP_Key1Left; 
 521              		.loc 1 524 0
 522 006c D1F80880 		ldr	r8, [r1, #8]
 525:/home/jonas/warwick/3dProfilometer/xpcc/ext/stm32f4xx_lib/STM32F4xx_StdPeriph_Driver/src/stm32f4xx_cryp.c ****     CRYP_ContextSave->CRYP_K1RR = CRYP_KeyInitStruct->CRYP_Key1Right; 
 523              		.loc 1 525 0
 524 0070 D1F80CC0 		ldr	ip, [r1, #12]
 526:/home/jonas/warwick/3dProfilometer/xpcc/ext/stm32f4xx_lib/STM32F4xx_StdPeriph_Driver/src/stm32f4xx_cryp.c ****     CRYP_ContextSave->CRYP_K2LR = CRYP_KeyInitStruct->CRYP_Key2Left; 
 525              		.loc 1 526 0
 526 0074 0F69     		ldr	r7, [r1, #16]
 527:/home/jonas/warwick/3dProfilometer/xpcc/ext/stm32f4xx_lib/STM32F4xx_StdPeriph_Driver/src/stm32f4xx_cryp.c ****     CRYP_ContextSave->CRYP_K2RR = CRYP_KeyInitStruct->CRYP_Key2Right; 
 527              		.loc 1 527 0
 528 0076 4E69     		ldr	r6, [r1, #20]
 528:/home/jonas/warwick/3dProfilometer/xpcc/ext/stm32f4xx_lib/STM32F4xx_StdPeriph_Driver/src/stm32f4xx_cryp.c ****     CRYP_ContextSave->CRYP_K3LR = CRYP_KeyInitStruct->CRYP_Key3Left; 
 529              		.loc 1 528 0
 530 0078 8D69     		ldr	r5, [r1, #24]
 531              	.LVL20:
 529:/home/jonas/warwick/3dProfilometer/xpcc/ext/stm32f4xx_lib/STM32F4xx_StdPeriph_Driver/src/stm32f4xx_cryp.c ****     CRYP_ContextSave->CRYP_K3RR = CRYP_KeyInitStruct->CRYP_Key3Right; 
 532              		.loc 1 529 0
 533 007a CC69     		ldr	r4, [r1, #28]
 510:/home/jonas/warwick/3dProfilometer/xpcc/ext/stm32f4xx_lib/STM32F4xx_StdPeriph_Driver/src/stm32f4xx_cryp.c ****     CRYP_ContextSave->CR_bits9to2  = CRYP->CR & (CRYP_CR_KEYSIZE  | 
 534              		.loc 1 510 0
 535 007c 0BF47F71 		and	r1, fp, #1020
 536              	.LVL21:
 537 0080 0160     		str	r1, [r0, #0]
 516:/home/jonas/warwick/3dProfilometer/xpcc/ext/stm32f4xx_lib/STM32F4xx_StdPeriph_Driver/src/stm32f4xx_cryp.c ****     CRYP_ContextSave->CRYP_IV0LR = CRYP->IV0LR;
 538              		.loc 1 516 0
 539 0082 196C     		ldr	r1, [r3, #64]
 540 0084 4160     		str	r1, [r0, #4]
 517:/home/jonas/warwick/3dProfilometer/xpcc/ext/stm32f4xx_lib/STM32F4xx_StdPeriph_Driver/src/stm32f4xx_cryp.c ****     CRYP_ContextSave->CRYP_IV0RR = CRYP->IV0RR;
 541              		.loc 1 517 0
 542 0086 596C     		ldr	r1, [r3, #68]
 543 0088 8160     		str	r1, [r0, #8]
 518:/home/jonas/warwick/3dProfilometer/xpcc/ext/stm32f4xx_lib/STM32F4xx_StdPeriph_Driver/src/stm32f4xx_cryp.c ****     CRYP_ContextSave->CRYP_IV1LR = CRYP->IV1LR;
 544              		.loc 1 518 0
 545 008a 996C     		ldr	r1, [r3, #72]
 546 008c C160     		str	r1, [r0, #12]
 519:/home/jonas/warwick/3dProfilometer/xpcc/ext/stm32f4xx_lib/STM32F4xx_StdPeriph_Driver/src/stm32f4xx_cryp.c ****     CRYP_ContextSave->CRYP_IV1RR = CRYP->IV1RR;
 547              		.loc 1 519 0
 548 008e DB6C     		ldr	r3, [r3, #76]
 522:/home/jonas/warwick/3dProfilometer/xpcc/ext/stm32f4xx_lib/STM32F4xx_StdPeriph_Driver/src/stm32f4xx_cryp.c ****     CRYP_ContextSave->CRYP_K0LR = CRYP_KeyInitStruct->CRYP_Key0Left; 
 549              		.loc 1 522 0
 550 0090 C0F814A0 		str	sl, [r0, #20]
 519:/home/jonas/warwick/3dProfilometer/xpcc/ext/stm32f4xx_lib/STM32F4xx_StdPeriph_Driver/src/stm32f4xx_cryp.c ****     CRYP_ContextSave->CRYP_IV1RR = CRYP->IV1RR;
 551              		.loc 1 519 0
 552 0094 0361     		str	r3, [r0, #16]
 523:/home/jonas/warwick/3dProfilometer/xpcc/ext/stm32f4xx_lib/STM32F4xx_StdPeriph_Driver/src/stm32f4xx_cryp.c ****     CRYP_ContextSave->CRYP_K0RR = CRYP_KeyInitStruct->CRYP_Key0Right; 
 553              		.loc 1 523 0
 554 0096 C0F81890 		str	r9, [r0, #24]
 524:/home/jonas/warwick/3dProfilometer/xpcc/ext/stm32f4xx_lib/STM32F4xx_StdPeriph_Driver/src/stm32f4xx_cryp.c ****     CRYP_ContextSave->CRYP_K1LR = CRYP_KeyInitStruct->CRYP_Key1Left; 
 555              		.loc 1 524 0
 556 009a C0F81C80 		str	r8, [r0, #28]
 525:/home/jonas/warwick/3dProfilometer/xpcc/ext/stm32f4xx_lib/STM32F4xx_StdPeriph_Driver/src/stm32f4xx_cryp.c ****     CRYP_ContextSave->CRYP_K1RR = CRYP_KeyInitStruct->CRYP_Key1Right; 
 557              		.loc 1 525 0
 558 009e C0F820C0 		str	ip, [r0, #32]
 526:/home/jonas/warwick/3dProfilometer/xpcc/ext/stm32f4xx_lib/STM32F4xx_StdPeriph_Driver/src/stm32f4xx_cryp.c ****     CRYP_ContextSave->CRYP_K2LR = CRYP_KeyInitStruct->CRYP_Key2Left; 
 559              		.loc 1 526 0
 560 00a2 4762     		str	r7, [r0, #36]
 527:/home/jonas/warwick/3dProfilometer/xpcc/ext/stm32f4xx_lib/STM32F4xx_StdPeriph_Driver/src/stm32f4xx_cryp.c ****     CRYP_ContextSave->CRYP_K2RR = CRYP_KeyInitStruct->CRYP_Key2Right; 
 561              		.loc 1 527 0
 562 00a4 8662     		str	r6, [r0, #40]
 528:/home/jonas/warwick/3dProfilometer/xpcc/ext/stm32f4xx_lib/STM32F4xx_StdPeriph_Driver/src/stm32f4xx_cryp.c ****     CRYP_ContextSave->CRYP_K3LR = CRYP_KeyInitStruct->CRYP_Key3Left; 
 563              		.loc 1 528 0
 564 00a6 C562     		str	r5, [r0, #44]
 529:/home/jonas/warwick/3dProfilometer/xpcc/ext/stm32f4xx_lib/STM32F4xx_StdPeriph_Driver/src/stm32f4xx_cryp.c ****     CRYP_ContextSave->CRYP_K3RR = CRYP_KeyInitStruct->CRYP_Key3Right; 
 565              		.loc 1 529 0
 566 00a8 0463     		str	r4, [r0, #48]
 567              	.LVL22:
 534:/home/jonas/warwick/3dProfilometer/xpcc/ext/stm32f4xx_lib/STM32F4xx_StdPeriph_Driver/src/stm32f4xx_cryp.c ****     status = SUCCESS;
 568              		.loc 1 534 0
 569 00aa 1046     		mov	r0, r2
 570              	.LVL23:
 571 00ac CCE7     		b	.L38
 572              	.L44:
 573 00ae 00BF     		.align	2
 574              	.L43:
 575 00b0 00000650 		.word	1342570496
 576              		.cfi_endproc
 577              	.LFE121:
 579              		.section	.text.CRYP_RestoreContext,"ax",%progbits
 580              		.align	2
 581              		.global	CRYP_RestoreContext
 582              		.thumb
 583              		.thumb_func
 585              	CRYP_RestoreContext:
 586              	.LFB122:
 539:/home/jonas/warwick/3dProfilometer/xpcc/ext/stm32f4xx_lib/STM32F4xx_StdPeriph_Driver/src/stm32f4xx_cryp.c **** 
 540:/home/jonas/warwick/3dProfilometer/xpcc/ext/stm32f4xx_lib/STM32F4xx_StdPeriph_Driver/src/stm32f4xx_cryp.c **** /**
 541:/home/jonas/warwick/3dProfilometer/xpcc/ext/stm32f4xx_lib/STM32F4xx_StdPeriph_Driver/src/stm32f4xx_cryp.c ****   * @brief  Restores the CRYP peripheral Context.
 542:/home/jonas/warwick/3dProfilometer/xpcc/ext/stm32f4xx_lib/STM32F4xx_StdPeriph_Driver/src/stm32f4xx_cryp.c ****   * @note   Since teh DMA transfer is stopped in CRYP_SaveContext() function,
 543:/home/jonas/warwick/3dProfilometer/xpcc/ext/stm32f4xx_lib/STM32F4xx_StdPeriph_Driver/src/stm32f4xx_cryp.c ****   *         after restoring the context, you have to enable the DMA again (if the
 544:/home/jonas/warwick/3dProfilometer/xpcc/ext/stm32f4xx_lib/STM32F4xx_StdPeriph_Driver/src/stm32f4xx_cryp.c ****   *         DMA was previously used).  
 545:/home/jonas/warwick/3dProfilometer/xpcc/ext/stm32f4xx_lib/STM32F4xx_StdPeriph_Driver/src/stm32f4xx_cryp.c ****   * @param  CRYP_ContextRestore: pointer to a CRYP_Context structure that contains
 546:/home/jonas/warwick/3dProfilometer/xpcc/ext/stm32f4xx_lib/STM32F4xx_StdPeriph_Driver/src/stm32f4xx_cryp.c ****   *         the repository for saved context.
 547:/home/jonas/warwick/3dProfilometer/xpcc/ext/stm32f4xx_lib/STM32F4xx_StdPeriph_Driver/src/stm32f4xx_cryp.c ****   * @note   The data that were saved during context saving must be rewrited into
 548:/home/jonas/warwick/3dProfilometer/xpcc/ext/stm32f4xx_lib/STM32F4xx_StdPeriph_Driver/src/stm32f4xx_cryp.c ****   *         the IN FIFO.
 549:/home/jonas/warwick/3dProfilometer/xpcc/ext/stm32f4xx_lib/STM32F4xx_StdPeriph_Driver/src/stm32f4xx_cryp.c ****   * @retval None
 550:/home/jonas/warwick/3dProfilometer/xpcc/ext/stm32f4xx_lib/STM32F4xx_StdPeriph_Driver/src/stm32f4xx_cryp.c ****   */
 551:/home/jonas/warwick/3dProfilometer/xpcc/ext/stm32f4xx_lib/STM32F4xx_StdPeriph_Driver/src/stm32f4xx_cryp.c **** void CRYP_RestoreContext(CRYP_Context* CRYP_ContextRestore)  
 552:/home/jonas/warwick/3dProfilometer/xpcc/ext/stm32f4xx_lib/STM32F4xx_StdPeriph_Driver/src/stm32f4xx_cryp.c **** {
 587              		.loc 1 552 0
 588              		.cfi_startproc
 589              		@ args = 0, pretend = 0, frame = 0
 590              		@ frame_needed = 0, uses_anonymous_args = 0
 591              		@ link register save eliminated.
 592              	.LVL24:
 553:/home/jonas/warwick/3dProfilometer/xpcc/ext/stm32f4xx_lib/STM32F4xx_StdPeriph_Driver/src/stm32f4xx_cryp.c **** 
 554:/home/jonas/warwick/3dProfilometer/xpcc/ext/stm32f4xx_lib/STM32F4xx_StdPeriph_Driver/src/stm32f4xx_cryp.c ****   /* Configure the processor with the saved configuration */
 555:/home/jonas/warwick/3dProfilometer/xpcc/ext/stm32f4xx_lib/STM32F4xx_StdPeriph_Driver/src/stm32f4xx_cryp.c ****   CRYP->CR = CRYP_ContextRestore->CR_bits9to2;
 593              		.loc 1 555 0
 594 0000 0F4B     		ldr	r3, .L46
 595 0002 0268     		ldr	r2, [r0, #0]
 596 0004 1A60     		str	r2, [r3, #0]
 556:/home/jonas/warwick/3dProfilometer/xpcc/ext/stm32f4xx_lib/STM32F4xx_StdPeriph_Driver/src/stm32f4xx_cryp.c **** 
 557:/home/jonas/warwick/3dProfilometer/xpcc/ext/stm32f4xx_lib/STM32F4xx_StdPeriph_Driver/src/stm32f4xx_cryp.c ****   /* restore The key value */
 558:/home/jonas/warwick/3dProfilometer/xpcc/ext/stm32f4xx_lib/STM32F4xx_StdPeriph_Driver/src/stm32f4xx_cryp.c ****   CRYP->K0LR = CRYP_ContextRestore->CRYP_K0LR; 
 597              		.loc 1 558 0
 598 0006 4269     		ldr	r2, [r0, #20]
 599 0008 1A62     		str	r2, [r3, #32]
 559:/home/jonas/warwick/3dProfilometer/xpcc/ext/stm32f4xx_lib/STM32F4xx_StdPeriph_Driver/src/stm32f4xx_cryp.c ****   CRYP->K0RR = CRYP_ContextRestore->CRYP_K0RR;
 600              		.loc 1 559 0
 601 000a 8269     		ldr	r2, [r0, #24]
 602 000c 5A62     		str	r2, [r3, #36]
 560:/home/jonas/warwick/3dProfilometer/xpcc/ext/stm32f4xx_lib/STM32F4xx_StdPeriph_Driver/src/stm32f4xx_cryp.c ****   CRYP->K1LR = CRYP_ContextRestore->CRYP_K1LR;
 603              		.loc 1 560 0
 604 000e C269     		ldr	r2, [r0, #28]
 605 0010 9A62     		str	r2, [r3, #40]
 561:/home/jonas/warwick/3dProfilometer/xpcc/ext/stm32f4xx_lib/STM32F4xx_StdPeriph_Driver/src/stm32f4xx_cryp.c ****   CRYP->K1RR = CRYP_ContextRestore->CRYP_K1RR;
 606              		.loc 1 561 0
 607 0012 026A     		ldr	r2, [r0, #32]
 608 0014 DA62     		str	r2, [r3, #44]
 562:/home/jonas/warwick/3dProfilometer/xpcc/ext/stm32f4xx_lib/STM32F4xx_StdPeriph_Driver/src/stm32f4xx_cryp.c ****   CRYP->K2LR = CRYP_ContextRestore->CRYP_K2LR;
 609              		.loc 1 562 0
 610 0016 426A     		ldr	r2, [r0, #36]
 611 0018 1A63     		str	r2, [r3, #48]
 563:/home/jonas/warwick/3dProfilometer/xpcc/ext/stm32f4xx_lib/STM32F4xx_StdPeriph_Driver/src/stm32f4xx_cryp.c ****   CRYP->K2RR = CRYP_ContextRestore->CRYP_K2RR;
 612              		.loc 1 563 0
 613 001a 826A     		ldr	r2, [r0, #40]
 614 001c 5A63     		str	r2, [r3, #52]
 564:/home/jonas/warwick/3dProfilometer/xpcc/ext/stm32f4xx_lib/STM32F4xx_StdPeriph_Driver/src/stm32f4xx_cryp.c ****   CRYP->K3LR = CRYP_ContextRestore->CRYP_K3LR;
 615              		.loc 1 564 0
 616 001e C26A     		ldr	r2, [r0, #44]
 617 0020 9A63     		str	r2, [r3, #56]
 565:/home/jonas/warwick/3dProfilometer/xpcc/ext/stm32f4xx_lib/STM32F4xx_StdPeriph_Driver/src/stm32f4xx_cryp.c ****   CRYP->K3RR = CRYP_ContextRestore->CRYP_K3RR;
 618              		.loc 1 565 0
 619 0022 026B     		ldr	r2, [r0, #48]
 620 0024 DA63     		str	r2, [r3, #60]
 566:/home/jonas/warwick/3dProfilometer/xpcc/ext/stm32f4xx_lib/STM32F4xx_StdPeriph_Driver/src/stm32f4xx_cryp.c **** 
 567:/home/jonas/warwick/3dProfilometer/xpcc/ext/stm32f4xx_lib/STM32F4xx_StdPeriph_Driver/src/stm32f4xx_cryp.c ****   /* and the initialization vectors. */
 568:/home/jonas/warwick/3dProfilometer/xpcc/ext/stm32f4xx_lib/STM32F4xx_StdPeriph_Driver/src/stm32f4xx_cryp.c ****   CRYP->IV0LR = CRYP_ContextRestore->CRYP_IV0LR;
 621              		.loc 1 568 0
 622 0026 4268     		ldr	r2, [r0, #4]
 623 0028 1A64     		str	r2, [r3, #64]
 569:/home/jonas/warwick/3dProfilometer/xpcc/ext/stm32f4xx_lib/STM32F4xx_StdPeriph_Driver/src/stm32f4xx_cryp.c ****   CRYP->IV0RR = CRYP_ContextRestore->CRYP_IV0RR;
 624              		.loc 1 569 0
 625 002a 8268     		ldr	r2, [r0, #8]
 626 002c 5A64     		str	r2, [r3, #68]
 570:/home/jonas/warwick/3dProfilometer/xpcc/ext/stm32f4xx_lib/STM32F4xx_StdPeriph_Driver/src/stm32f4xx_cryp.c ****   CRYP->IV1LR = CRYP_ContextRestore->CRYP_IV1LR;
 627              		.loc 1 570 0
 628 002e C268     		ldr	r2, [r0, #12]
 629 0030 9A64     		str	r2, [r3, #72]
 571:/home/jonas/warwick/3dProfilometer/xpcc/ext/stm32f4xx_lib/STM32F4xx_StdPeriph_Driver/src/stm32f4xx_cryp.c ****   CRYP->IV1RR = CRYP_ContextRestore->CRYP_IV1RR;
 630              		.loc 1 571 0
 631 0032 0269     		ldr	r2, [r0, #16]
 632 0034 DA64     		str	r2, [r3, #76]
 572:/home/jonas/warwick/3dProfilometer/xpcc/ext/stm32f4xx_lib/STM32F4xx_StdPeriph_Driver/src/stm32f4xx_cryp.c **** 
 573:/home/jonas/warwick/3dProfilometer/xpcc/ext/stm32f4xx_lib/STM32F4xx_StdPeriph_Driver/src/stm32f4xx_cryp.c ****   /* Enable the cryptographic processor */
 574:/home/jonas/warwick/3dProfilometer/xpcc/ext/stm32f4xx_lib/STM32F4xx_StdPeriph_Driver/src/stm32f4xx_cryp.c ****   CRYP->CR |= CRYP_CR_CRYPEN;
 633              		.loc 1 574 0
 634 0036 1A68     		ldr	r2, [r3, #0]
 635 0038 42F40042 		orr	r2, r2, #32768
 636 003c 1A60     		str	r2, [r3, #0]
 637 003e 7047     		bx	lr
 638              	.L47:
 639              		.align	2
 640              	.L46:
 641 0040 00000650 		.word	1342570496
 642              		.cfi_endproc
 643              	.LFE122:
 645              		.section	.text.CRYP_DMACmd,"ax",%progbits
 646              		.align	2
 647              		.global	CRYP_DMACmd
 648              		.thumb
 649              		.thumb_func
 651              	CRYP_DMACmd:
 652              	.LFB123:
 575:/home/jonas/warwick/3dProfilometer/xpcc/ext/stm32f4xx_lib/STM32F4xx_StdPeriph_Driver/src/stm32f4xx_cryp.c **** }
 576:/home/jonas/warwick/3dProfilometer/xpcc/ext/stm32f4xx_lib/STM32F4xx_StdPeriph_Driver/src/stm32f4xx_cryp.c **** /**
 577:/home/jonas/warwick/3dProfilometer/xpcc/ext/stm32f4xx_lib/STM32F4xx_StdPeriph_Driver/src/stm32f4xx_cryp.c ****   * @}
 578:/home/jonas/warwick/3dProfilometer/xpcc/ext/stm32f4xx_lib/STM32F4xx_StdPeriph_Driver/src/stm32f4xx_cryp.c ****   */
 579:/home/jonas/warwick/3dProfilometer/xpcc/ext/stm32f4xx_lib/STM32F4xx_StdPeriph_Driver/src/stm32f4xx_cryp.c **** 
 580:/home/jonas/warwick/3dProfilometer/xpcc/ext/stm32f4xx_lib/STM32F4xx_StdPeriph_Driver/src/stm32f4xx_cryp.c **** /** @defgroup CRYP_Group4 CRYP's DMA interface Configuration function
 581:/home/jonas/warwick/3dProfilometer/xpcc/ext/stm32f4xx_lib/STM32F4xx_StdPeriph_Driver/src/stm32f4xx_cryp.c ****  *  @brief   CRYP's DMA interface Configuration function 
 582:/home/jonas/warwick/3dProfilometer/xpcc/ext/stm32f4xx_lib/STM32F4xx_StdPeriph_Driver/src/stm32f4xx_cryp.c ****  *
 583:/home/jonas/warwick/3dProfilometer/xpcc/ext/stm32f4xx_lib/STM32F4xx_StdPeriph_Driver/src/stm32f4xx_cryp.c **** @verbatim   
 584:/home/jonas/warwick/3dProfilometer/xpcc/ext/stm32f4xx_lib/STM32F4xx_StdPeriph_Driver/src/stm32f4xx_cryp.c ****  ===============================================================================
 585:/home/jonas/warwick/3dProfilometer/xpcc/ext/stm32f4xx_lib/STM32F4xx_StdPeriph_Driver/src/stm32f4xx_cryp.c ****                    CRYP's DMA interface Configuration function
 586:/home/jonas/warwick/3dProfilometer/xpcc/ext/stm32f4xx_lib/STM32F4xx_StdPeriph_Driver/src/stm32f4xx_cryp.c ****  ===============================================================================  
 587:/home/jonas/warwick/3dProfilometer/xpcc/ext/stm32f4xx_lib/STM32F4xx_StdPeriph_Driver/src/stm32f4xx_cryp.c **** 
 588:/home/jonas/warwick/3dProfilometer/xpcc/ext/stm32f4xx_lib/STM32F4xx_StdPeriph_Driver/src/stm32f4xx_cryp.c ****   This section provides functions allowing to configure the DMA interface for 
 589:/home/jonas/warwick/3dProfilometer/xpcc/ext/stm32f4xx_lib/STM32F4xx_StdPeriph_Driver/src/stm32f4xx_cryp.c ****   CRYP data input and output transfer.
 590:/home/jonas/warwick/3dProfilometer/xpcc/ext/stm32f4xx_lib/STM32F4xx_StdPeriph_Driver/src/stm32f4xx_cryp.c ****    
 591:/home/jonas/warwick/3dProfilometer/xpcc/ext/stm32f4xx_lib/STM32F4xx_StdPeriph_Driver/src/stm32f4xx_cryp.c ****   When the DMA mode is enabled (using the CRYP_DMACmd() function), data can be 
 592:/home/jonas/warwick/3dProfilometer/xpcc/ext/stm32f4xx_lib/STM32F4xx_StdPeriph_Driver/src/stm32f4xx_cryp.c ****   transferred:
 593:/home/jonas/warwick/3dProfilometer/xpcc/ext/stm32f4xx_lib/STM32F4xx_StdPeriph_Driver/src/stm32f4xx_cryp.c ****   - From memory to the CRYP IN FIFO using the DMA peripheral by enabling 
 594:/home/jonas/warwick/3dProfilometer/xpcc/ext/stm32f4xx_lib/STM32F4xx_StdPeriph_Driver/src/stm32f4xx_cryp.c ****     the CRYP_DMAReq_DataIN request.
 595:/home/jonas/warwick/3dProfilometer/xpcc/ext/stm32f4xx_lib/STM32F4xx_StdPeriph_Driver/src/stm32f4xx_cryp.c ****   - From the CRYP OUT FIFO to the memory using the DMA peripheral by enabling 
 596:/home/jonas/warwick/3dProfilometer/xpcc/ext/stm32f4xx_lib/STM32F4xx_StdPeriph_Driver/src/stm32f4xx_cryp.c ****     the CRYP_DMAReq_DataOUT request.
 597:/home/jonas/warwick/3dProfilometer/xpcc/ext/stm32f4xx_lib/STM32F4xx_StdPeriph_Driver/src/stm32f4xx_cryp.c **** 
 598:/home/jonas/warwick/3dProfilometer/xpcc/ext/stm32f4xx_lib/STM32F4xx_StdPeriph_Driver/src/stm32f4xx_cryp.c **** @endverbatim
 599:/home/jonas/warwick/3dProfilometer/xpcc/ext/stm32f4xx_lib/STM32F4xx_StdPeriph_Driver/src/stm32f4xx_cryp.c ****   * @{
 600:/home/jonas/warwick/3dProfilometer/xpcc/ext/stm32f4xx_lib/STM32F4xx_StdPeriph_Driver/src/stm32f4xx_cryp.c ****   */
 601:/home/jonas/warwick/3dProfilometer/xpcc/ext/stm32f4xx_lib/STM32F4xx_StdPeriph_Driver/src/stm32f4xx_cryp.c **** 
 602:/home/jonas/warwick/3dProfilometer/xpcc/ext/stm32f4xx_lib/STM32F4xx_StdPeriph_Driver/src/stm32f4xx_cryp.c **** /**
 603:/home/jonas/warwick/3dProfilometer/xpcc/ext/stm32f4xx_lib/STM32F4xx_StdPeriph_Driver/src/stm32f4xx_cryp.c ****   * @brief  Enables or disables the CRYP DMA interface.
 604:/home/jonas/warwick/3dProfilometer/xpcc/ext/stm32f4xx_lib/STM32F4xx_StdPeriph_Driver/src/stm32f4xx_cryp.c ****   * @param  CRYP_DMAReq: specifies the CRYP DMA transfer request to be enabled or disabled.
 605:/home/jonas/warwick/3dProfilometer/xpcc/ext/stm32f4xx_lib/STM32F4xx_StdPeriph_Driver/src/stm32f4xx_cryp.c ****   *           This parameter can be any combination of the following values:
 606:/home/jonas/warwick/3dProfilometer/xpcc/ext/stm32f4xx_lib/STM32F4xx_StdPeriph_Driver/src/stm32f4xx_cryp.c ****   *            @arg CRYP_DMAReq_DataOUT: DMA for outgoing(Tx) data transfer
 607:/home/jonas/warwick/3dProfilometer/xpcc/ext/stm32f4xx_lib/STM32F4xx_StdPeriph_Driver/src/stm32f4xx_cryp.c ****   *            @arg CRYP_DMAReq_DataIN: DMA for incoming(Rx) data transfer
 608:/home/jonas/warwick/3dProfilometer/xpcc/ext/stm32f4xx_lib/STM32F4xx_StdPeriph_Driver/src/stm32f4xx_cryp.c ****   * @param  NewState: new state of the selected CRYP DMA transfer request.
 609:/home/jonas/warwick/3dProfilometer/xpcc/ext/stm32f4xx_lib/STM32F4xx_StdPeriph_Driver/src/stm32f4xx_cryp.c ****   *          This parameter can be: ENABLE or DISABLE.
 610:/home/jonas/warwick/3dProfilometer/xpcc/ext/stm32f4xx_lib/STM32F4xx_StdPeriph_Driver/src/stm32f4xx_cryp.c ****   * @retval None
 611:/home/jonas/warwick/3dProfilometer/xpcc/ext/stm32f4xx_lib/STM32F4xx_StdPeriph_Driver/src/stm32f4xx_cryp.c ****   */
 612:/home/jonas/warwick/3dProfilometer/xpcc/ext/stm32f4xx_lib/STM32F4xx_StdPeriph_Driver/src/stm32f4xx_cryp.c **** void CRYP_DMACmd(uint8_t CRYP_DMAReq, FunctionalState NewState)
 613:/home/jonas/warwick/3dProfilometer/xpcc/ext/stm32f4xx_lib/STM32F4xx_StdPeriph_Driver/src/stm32f4xx_cryp.c **** {
 653              		.loc 1 613 0
 654              		.cfi_startproc
 655              		@ args = 0, pretend = 0, frame = 0
 656              		@ frame_needed = 0, uses_anonymous_args = 0
 657              		@ link register save eliminated.
 658              	.LVL25:
 614:/home/jonas/warwick/3dProfilometer/xpcc/ext/stm32f4xx_lib/STM32F4xx_StdPeriph_Driver/src/stm32f4xx_cryp.c ****   /* Check the parameters */
 615:/home/jonas/warwick/3dProfilometer/xpcc/ext/stm32f4xx_lib/STM32F4xx_StdPeriph_Driver/src/stm32f4xx_cryp.c ****   assert_param(IS_CRYP_DMAREQ(CRYP_DMAReq));
 616:/home/jonas/warwick/3dProfilometer/xpcc/ext/stm32f4xx_lib/STM32F4xx_StdPeriph_Driver/src/stm32f4xx_cryp.c ****   assert_param(IS_FUNCTIONAL_STATE(NewState));
 617:/home/jonas/warwick/3dProfilometer/xpcc/ext/stm32f4xx_lib/STM32F4xx_StdPeriph_Driver/src/stm32f4xx_cryp.c **** 
 618:/home/jonas/warwick/3dProfilometer/xpcc/ext/stm32f4xx_lib/STM32F4xx_StdPeriph_Driver/src/stm32f4xx_cryp.c ****   if (NewState != DISABLE)
 619:/home/jonas/warwick/3dProfilometer/xpcc/ext/stm32f4xx_lib/STM32F4xx_StdPeriph_Driver/src/stm32f4xx_cryp.c ****   {
 620:/home/jonas/warwick/3dProfilometer/xpcc/ext/stm32f4xx_lib/STM32F4xx_StdPeriph_Driver/src/stm32f4xx_cryp.c ****     /* Enable the selected CRYP DMA request */
 621:/home/jonas/warwick/3dProfilometer/xpcc/ext/stm32f4xx_lib/STM32F4xx_StdPeriph_Driver/src/stm32f4xx_cryp.c ****     CRYP->DMACR |= CRYP_DMAReq;
 659              		.loc 1 621 0
 660 0000 054B     		ldr	r3, .L52
 661 0002 1A69     		ldr	r2, [r3, #16]
 618:/home/jonas/warwick/3dProfilometer/xpcc/ext/stm32f4xx_lib/STM32F4xx_StdPeriph_Driver/src/stm32f4xx_cryp.c ****   if (NewState != DISABLE)
 662              		.loc 1 618 0
 663 0004 29B9     		cbnz	r1, .L51
 622:/home/jonas/warwick/3dProfilometer/xpcc/ext/stm32f4xx_lib/STM32F4xx_StdPeriph_Driver/src/stm32f4xx_cryp.c ****   }
 623:/home/jonas/warwick/3dProfilometer/xpcc/ext/stm32f4xx_lib/STM32F4xx_StdPeriph_Driver/src/stm32f4xx_cryp.c ****   else
 624:/home/jonas/warwick/3dProfilometer/xpcc/ext/stm32f4xx_lib/STM32F4xx_StdPeriph_Driver/src/stm32f4xx_cryp.c ****   {
 625:/home/jonas/warwick/3dProfilometer/xpcc/ext/stm32f4xx_lib/STM32F4xx_StdPeriph_Driver/src/stm32f4xx_cryp.c ****     /* Disable the selected CRYP DMA request */
 626:/home/jonas/warwick/3dProfilometer/xpcc/ext/stm32f4xx_lib/STM32F4xx_StdPeriph_Driver/src/stm32f4xx_cryp.c ****     CRYP->DMACR &= (uint8_t)~CRYP_DMAReq;
 664              		.loc 1 626 0
 665 0006 22EA0000 		bic	r0, r2, r0
 666              	.LVL26:
 667 000a 00F0FF00 		and	r0, r0, #255
 668 000e 1861     		str	r0, [r3, #16]
 669 0010 7047     		bx	lr
 670              	.LVL27:
 671              	.L51:
 621:/home/jonas/warwick/3dProfilometer/xpcc/ext/stm32f4xx_lib/STM32F4xx_StdPeriph_Driver/src/stm32f4xx_cryp.c ****     CRYP->DMACR |= CRYP_DMAReq;
 672              		.loc 1 621 0
 673 0012 1043     		orrs	r0, r0, r2
 674              	.LVL28:
 675 0014 1861     		str	r0, [r3, #16]
 676 0016 7047     		bx	lr
 677              	.L53:
 678              		.align	2
 679              	.L52:
 680 0018 00000650 		.word	1342570496
 681              		.cfi_endproc
 682              	.LFE123:
 684              		.section	.text.CRYP_ITConfig,"ax",%progbits
 685              		.align	2
 686              		.global	CRYP_ITConfig
 687              		.thumb
 688              		.thumb_func
 690              	CRYP_ITConfig:
 691              	.LFB124:
 627:/home/jonas/warwick/3dProfilometer/xpcc/ext/stm32f4xx_lib/STM32F4xx_StdPeriph_Driver/src/stm32f4xx_cryp.c ****   }
 628:/home/jonas/warwick/3dProfilometer/xpcc/ext/stm32f4xx_lib/STM32F4xx_StdPeriph_Driver/src/stm32f4xx_cryp.c **** }
 629:/home/jonas/warwick/3dProfilometer/xpcc/ext/stm32f4xx_lib/STM32F4xx_StdPeriph_Driver/src/stm32f4xx_cryp.c **** /**
 630:/home/jonas/warwick/3dProfilometer/xpcc/ext/stm32f4xx_lib/STM32F4xx_StdPeriph_Driver/src/stm32f4xx_cryp.c ****   * @}
 631:/home/jonas/warwick/3dProfilometer/xpcc/ext/stm32f4xx_lib/STM32F4xx_StdPeriph_Driver/src/stm32f4xx_cryp.c ****   */
 632:/home/jonas/warwick/3dProfilometer/xpcc/ext/stm32f4xx_lib/STM32F4xx_StdPeriph_Driver/src/stm32f4xx_cryp.c **** 
 633:/home/jonas/warwick/3dProfilometer/xpcc/ext/stm32f4xx_lib/STM32F4xx_StdPeriph_Driver/src/stm32f4xx_cryp.c **** /** @defgroup CRYP_Group5 Interrupts and flags management functions
 634:/home/jonas/warwick/3dProfilometer/xpcc/ext/stm32f4xx_lib/STM32F4xx_StdPeriph_Driver/src/stm32f4xx_cryp.c ****  *  @brief   Interrupts and flags management functions
 635:/home/jonas/warwick/3dProfilometer/xpcc/ext/stm32f4xx_lib/STM32F4xx_StdPeriph_Driver/src/stm32f4xx_cryp.c ****  *
 636:/home/jonas/warwick/3dProfilometer/xpcc/ext/stm32f4xx_lib/STM32F4xx_StdPeriph_Driver/src/stm32f4xx_cryp.c **** @verbatim   
 637:/home/jonas/warwick/3dProfilometer/xpcc/ext/stm32f4xx_lib/STM32F4xx_StdPeriph_Driver/src/stm32f4xx_cryp.c ****  ===============================================================================
 638:/home/jonas/warwick/3dProfilometer/xpcc/ext/stm32f4xx_lib/STM32F4xx_StdPeriph_Driver/src/stm32f4xx_cryp.c ****                    Interrupts and flags management functions
 639:/home/jonas/warwick/3dProfilometer/xpcc/ext/stm32f4xx_lib/STM32F4xx_StdPeriph_Driver/src/stm32f4xx_cryp.c ****  ===============================================================================  
 640:/home/jonas/warwick/3dProfilometer/xpcc/ext/stm32f4xx_lib/STM32F4xx_StdPeriph_Driver/src/stm32f4xx_cryp.c **** 
 641:/home/jonas/warwick/3dProfilometer/xpcc/ext/stm32f4xx_lib/STM32F4xx_StdPeriph_Driver/src/stm32f4xx_cryp.c ****   This section provides functions allowing to configure the CRYP Interrupts and 
 642:/home/jonas/warwick/3dProfilometer/xpcc/ext/stm32f4xx_lib/STM32F4xx_StdPeriph_Driver/src/stm32f4xx_cryp.c ****   to get the status and Interrupts pending bits.
 643:/home/jonas/warwick/3dProfilometer/xpcc/ext/stm32f4xx_lib/STM32F4xx_StdPeriph_Driver/src/stm32f4xx_cryp.c **** 
 644:/home/jonas/warwick/3dProfilometer/xpcc/ext/stm32f4xx_lib/STM32F4xx_StdPeriph_Driver/src/stm32f4xx_cryp.c ****   The CRYP provides 2 Interrupts sources and 7 Flags:
 645:/home/jonas/warwick/3dProfilometer/xpcc/ext/stm32f4xx_lib/STM32F4xx_StdPeriph_Driver/src/stm32f4xx_cryp.c **** 
 646:/home/jonas/warwick/3dProfilometer/xpcc/ext/stm32f4xx_lib/STM32F4xx_StdPeriph_Driver/src/stm32f4xx_cryp.c ****   Flags :
 647:/home/jonas/warwick/3dProfilometer/xpcc/ext/stm32f4xx_lib/STM32F4xx_StdPeriph_Driver/src/stm32f4xx_cryp.c ****   ------- 
 648:/home/jonas/warwick/3dProfilometer/xpcc/ext/stm32f4xx_lib/STM32F4xx_StdPeriph_Driver/src/stm32f4xx_cryp.c ****                           
 649:/home/jonas/warwick/3dProfilometer/xpcc/ext/stm32f4xx_lib/STM32F4xx_StdPeriph_Driver/src/stm32f4xx_cryp.c ****      1. CRYP_FLAG_IFEM :  Set when Input FIFO is empty.
 650:/home/jonas/warwick/3dProfilometer/xpcc/ext/stm32f4xx_lib/STM32F4xx_StdPeriph_Driver/src/stm32f4xx_cryp.c ****                           This Flag is cleared only by hardware.
 651:/home/jonas/warwick/3dProfilometer/xpcc/ext/stm32f4xx_lib/STM32F4xx_StdPeriph_Driver/src/stm32f4xx_cryp.c ****       
 652:/home/jonas/warwick/3dProfilometer/xpcc/ext/stm32f4xx_lib/STM32F4xx_StdPeriph_Driver/src/stm32f4xx_cryp.c ****      2. CRYP_FLAG_IFNF :  Set when Input FIFO is not full.
 653:/home/jonas/warwick/3dProfilometer/xpcc/ext/stm32f4xx_lib/STM32F4xx_StdPeriph_Driver/src/stm32f4xx_cryp.c ****                           This Flag is cleared only by hardware.
 654:/home/jonas/warwick/3dProfilometer/xpcc/ext/stm32f4xx_lib/STM32F4xx_StdPeriph_Driver/src/stm32f4xx_cryp.c **** 
 655:/home/jonas/warwick/3dProfilometer/xpcc/ext/stm32f4xx_lib/STM32F4xx_StdPeriph_Driver/src/stm32f4xx_cryp.c **** 
 656:/home/jonas/warwick/3dProfilometer/xpcc/ext/stm32f4xx_lib/STM32F4xx_StdPeriph_Driver/src/stm32f4xx_cryp.c ****      3. CRYP_FLAG_INRIS  : Set when Input FIFO Raw interrupt is pending 
 657:/home/jonas/warwick/3dProfilometer/xpcc/ext/stm32f4xx_lib/STM32F4xx_StdPeriph_Driver/src/stm32f4xx_cryp.c ****                            it gives the raw interrupt state prior to masking 
 658:/home/jonas/warwick/3dProfilometer/xpcc/ext/stm32f4xx_lib/STM32F4xx_StdPeriph_Driver/src/stm32f4xx_cryp.c ****                            of the input FIFO service interrupt.
 659:/home/jonas/warwick/3dProfilometer/xpcc/ext/stm32f4xx_lib/STM32F4xx_StdPeriph_Driver/src/stm32f4xx_cryp.c ****                            This Flag is cleared only by hardware.
 660:/home/jonas/warwick/3dProfilometer/xpcc/ext/stm32f4xx_lib/STM32F4xx_StdPeriph_Driver/src/stm32f4xx_cryp.c ****      
 661:/home/jonas/warwick/3dProfilometer/xpcc/ext/stm32f4xx_lib/STM32F4xx_StdPeriph_Driver/src/stm32f4xx_cryp.c ****      4. CRYP_FLAG_OFNE   : Set when Output FIFO not empty.
 662:/home/jonas/warwick/3dProfilometer/xpcc/ext/stm32f4xx_lib/STM32F4xx_StdPeriph_Driver/src/stm32f4xx_cryp.c ****                            This Flag is cleared only by hardware.
 663:/home/jonas/warwick/3dProfilometer/xpcc/ext/stm32f4xx_lib/STM32F4xx_StdPeriph_Driver/src/stm32f4xx_cryp.c ****         
 664:/home/jonas/warwick/3dProfilometer/xpcc/ext/stm32f4xx_lib/STM32F4xx_StdPeriph_Driver/src/stm32f4xx_cryp.c ****      5. CRYP_FLAG_OFFU   : Set when Output FIFO is full.
 665:/home/jonas/warwick/3dProfilometer/xpcc/ext/stm32f4xx_lib/STM32F4xx_StdPeriph_Driver/src/stm32f4xx_cryp.c ****                            This Flag is cleared only by hardware.
 666:/home/jonas/warwick/3dProfilometer/xpcc/ext/stm32f4xx_lib/STM32F4xx_StdPeriph_Driver/src/stm32f4xx_cryp.c ****                            
 667:/home/jonas/warwick/3dProfilometer/xpcc/ext/stm32f4xx_lib/STM32F4xx_StdPeriph_Driver/src/stm32f4xx_cryp.c ****      6. CRYP_FLAG_OUTRIS : Set when Output FIFO Raw interrupt is pending 
 668:/home/jonas/warwick/3dProfilometer/xpcc/ext/stm32f4xx_lib/STM32F4xx_StdPeriph_Driver/src/stm32f4xx_cryp.c ****                            it gives the raw interrupt state prior to masking 
 669:/home/jonas/warwick/3dProfilometer/xpcc/ext/stm32f4xx_lib/STM32F4xx_StdPeriph_Driver/src/stm32f4xx_cryp.c ****                            of the output FIFO service interrupt.
 670:/home/jonas/warwick/3dProfilometer/xpcc/ext/stm32f4xx_lib/STM32F4xx_StdPeriph_Driver/src/stm32f4xx_cryp.c ****                            This Flag is cleared only by hardware.
 671:/home/jonas/warwick/3dProfilometer/xpcc/ext/stm32f4xx_lib/STM32F4xx_StdPeriph_Driver/src/stm32f4xx_cryp.c ****                                
 672:/home/jonas/warwick/3dProfilometer/xpcc/ext/stm32f4xx_lib/STM32F4xx_StdPeriph_Driver/src/stm32f4xx_cryp.c ****      7. CRYP_FLAG_BUSY   : Set when the CRYP core is currently processing a 
 673:/home/jonas/warwick/3dProfilometer/xpcc/ext/stm32f4xx_lib/STM32F4xx_StdPeriph_Driver/src/stm32f4xx_cryp.c ****                            block of data or a key preparation (for AES 
 674:/home/jonas/warwick/3dProfilometer/xpcc/ext/stm32f4xx_lib/STM32F4xx_StdPeriph_Driver/src/stm32f4xx_cryp.c ****                            decryption).
 675:/home/jonas/warwick/3dProfilometer/xpcc/ext/stm32f4xx_lib/STM32F4xx_StdPeriph_Driver/src/stm32f4xx_cryp.c ****                            This Flag is cleared only by hardware.
 676:/home/jonas/warwick/3dProfilometer/xpcc/ext/stm32f4xx_lib/STM32F4xx_StdPeriph_Driver/src/stm32f4xx_cryp.c ****                            To clear it, the CRYP core must be disabled and the 
 677:/home/jonas/warwick/3dProfilometer/xpcc/ext/stm32f4xx_lib/STM32F4xx_StdPeriph_Driver/src/stm32f4xx_cryp.c ****                            last processing has completed. 
 678:/home/jonas/warwick/3dProfilometer/xpcc/ext/stm32f4xx_lib/STM32F4xx_StdPeriph_Driver/src/stm32f4xx_cryp.c **** 
 679:/home/jonas/warwick/3dProfilometer/xpcc/ext/stm32f4xx_lib/STM32F4xx_StdPeriph_Driver/src/stm32f4xx_cryp.c ****   Interrupts :
 680:/home/jonas/warwick/3dProfilometer/xpcc/ext/stm32f4xx_lib/STM32F4xx_StdPeriph_Driver/src/stm32f4xx_cryp.c ****   ------------
 681:/home/jonas/warwick/3dProfilometer/xpcc/ext/stm32f4xx_lib/STM32F4xx_StdPeriph_Driver/src/stm32f4xx_cryp.c **** 
 682:/home/jonas/warwick/3dProfilometer/xpcc/ext/stm32f4xx_lib/STM32F4xx_StdPeriph_Driver/src/stm32f4xx_cryp.c ****    1. CRYP_IT_INI   : The input FIFO service interrupt is asserted when there 
 683:/home/jonas/warwick/3dProfilometer/xpcc/ext/stm32f4xx_lib/STM32F4xx_StdPeriph_Driver/src/stm32f4xx_cryp.c ****                       are less than 4 words in the input FIFO.
 684:/home/jonas/warwick/3dProfilometer/xpcc/ext/stm32f4xx_lib/STM32F4xx_StdPeriph_Driver/src/stm32f4xx_cryp.c ****                       This interrupt is associated to CRYP_FLAG_INRIS flag.
 685:/home/jonas/warwick/3dProfilometer/xpcc/ext/stm32f4xx_lib/STM32F4xx_StdPeriph_Driver/src/stm32f4xx_cryp.c **** 
 686:/home/jonas/warwick/3dProfilometer/xpcc/ext/stm32f4xx_lib/STM32F4xx_StdPeriph_Driver/src/stm32f4xx_cryp.c ****                 @note This interrupt is cleared by performing write operations 
 687:/home/jonas/warwick/3dProfilometer/xpcc/ext/stm32f4xx_lib/STM32F4xx_StdPeriph_Driver/src/stm32f4xx_cryp.c ****                       to the input FIFO until it holds 4 or more words. The 
 688:/home/jonas/warwick/3dProfilometer/xpcc/ext/stm32f4xx_lib/STM32F4xx_StdPeriph_Driver/src/stm32f4xx_cryp.c ****                       input FIFO service interrupt INMIS is enabled with the 
 689:/home/jonas/warwick/3dProfilometer/xpcc/ext/stm32f4xx_lib/STM32F4xx_StdPeriph_Driver/src/stm32f4xx_cryp.c ****                       CRYP enable bit. Consequently, when CRYP is disabled, the 
 690:/home/jonas/warwick/3dProfilometer/xpcc/ext/stm32f4xx_lib/STM32F4xx_StdPeriph_Driver/src/stm32f4xx_cryp.c ****                       INMIS signal is low even if the input FIFO is empty.
 691:/home/jonas/warwick/3dProfilometer/xpcc/ext/stm32f4xx_lib/STM32F4xx_StdPeriph_Driver/src/stm32f4xx_cryp.c **** 
 692:/home/jonas/warwick/3dProfilometer/xpcc/ext/stm32f4xx_lib/STM32F4xx_StdPeriph_Driver/src/stm32f4xx_cryp.c **** 
 693:/home/jonas/warwick/3dProfilometer/xpcc/ext/stm32f4xx_lib/STM32F4xx_StdPeriph_Driver/src/stm32f4xx_cryp.c **** 
 694:/home/jonas/warwick/3dProfilometer/xpcc/ext/stm32f4xx_lib/STM32F4xx_StdPeriph_Driver/src/stm32f4xx_cryp.c ****    2. CRYP_IT_OUTI  : The output FIFO service interrupt is asserted when there 
 695:/home/jonas/warwick/3dProfilometer/xpcc/ext/stm32f4xx_lib/STM32F4xx_StdPeriph_Driver/src/stm32f4xx_cryp.c ****                       is one or more (32-bit word) data items in the output FIFO.
 696:/home/jonas/warwick/3dProfilometer/xpcc/ext/stm32f4xx_lib/STM32F4xx_StdPeriph_Driver/src/stm32f4xx_cryp.c ****                       This interrupt is associated to CRYP_FLAG_OUTRIS flag.
 697:/home/jonas/warwick/3dProfilometer/xpcc/ext/stm32f4xx_lib/STM32F4xx_StdPeriph_Driver/src/stm32f4xx_cryp.c **** 
 698:/home/jonas/warwick/3dProfilometer/xpcc/ext/stm32f4xx_lib/STM32F4xx_StdPeriph_Driver/src/stm32f4xx_cryp.c ****                 @note This interrupt is cleared by reading data from the output 
 699:/home/jonas/warwick/3dProfilometer/xpcc/ext/stm32f4xx_lib/STM32F4xx_StdPeriph_Driver/src/stm32f4xx_cryp.c ****                       FIFO until there is no valid (32-bit) word left (that is, 
 700:/home/jonas/warwick/3dProfilometer/xpcc/ext/stm32f4xx_lib/STM32F4xx_StdPeriph_Driver/src/stm32f4xx_cryp.c ****                       the interrupt follows the state of the OFNE (output FIFO 
 701:/home/jonas/warwick/3dProfilometer/xpcc/ext/stm32f4xx_lib/STM32F4xx_StdPeriph_Driver/src/stm32f4xx_cryp.c ****                       not empty) flag).
 702:/home/jonas/warwick/3dProfilometer/xpcc/ext/stm32f4xx_lib/STM32F4xx_StdPeriph_Driver/src/stm32f4xx_cryp.c **** 
 703:/home/jonas/warwick/3dProfilometer/xpcc/ext/stm32f4xx_lib/STM32F4xx_StdPeriph_Driver/src/stm32f4xx_cryp.c **** 
 704:/home/jonas/warwick/3dProfilometer/xpcc/ext/stm32f4xx_lib/STM32F4xx_StdPeriph_Driver/src/stm32f4xx_cryp.c ****   Managing the CRYP controller events :
 705:/home/jonas/warwick/3dProfilometer/xpcc/ext/stm32f4xx_lib/STM32F4xx_StdPeriph_Driver/src/stm32f4xx_cryp.c ****   ------------------------------------ 
 706:/home/jonas/warwick/3dProfilometer/xpcc/ext/stm32f4xx_lib/STM32F4xx_StdPeriph_Driver/src/stm32f4xx_cryp.c ****   The user should identify which mode will be used in his application to manage 
 707:/home/jonas/warwick/3dProfilometer/xpcc/ext/stm32f4xx_lib/STM32F4xx_StdPeriph_Driver/src/stm32f4xx_cryp.c ****   the CRYP controller events: Polling mode or Interrupt mode.
 708:/home/jonas/warwick/3dProfilometer/xpcc/ext/stm32f4xx_lib/STM32F4xx_StdPeriph_Driver/src/stm32f4xx_cryp.c **** 
 709:/home/jonas/warwick/3dProfilometer/xpcc/ext/stm32f4xx_lib/STM32F4xx_StdPeriph_Driver/src/stm32f4xx_cryp.c ****   1.  In the Polling Mode it is advised to use the following functions:
 710:/home/jonas/warwick/3dProfilometer/xpcc/ext/stm32f4xx_lib/STM32F4xx_StdPeriph_Driver/src/stm32f4xx_cryp.c ****       - CRYP_GetFlagStatus() : to check if flags events occur. 
 711:/home/jonas/warwick/3dProfilometer/xpcc/ext/stm32f4xx_lib/STM32F4xx_StdPeriph_Driver/src/stm32f4xx_cryp.c **** 
 712:/home/jonas/warwick/3dProfilometer/xpcc/ext/stm32f4xx_lib/STM32F4xx_StdPeriph_Driver/src/stm32f4xx_cryp.c ****   @note  The CRYPT flags do not need to be cleared since they are cleared as 
 713:/home/jonas/warwick/3dProfilometer/xpcc/ext/stm32f4xx_lib/STM32F4xx_StdPeriph_Driver/src/stm32f4xx_cryp.c ****          soon as the associated event are reset.   
 714:/home/jonas/warwick/3dProfilometer/xpcc/ext/stm32f4xx_lib/STM32F4xx_StdPeriph_Driver/src/stm32f4xx_cryp.c **** 
 715:/home/jonas/warwick/3dProfilometer/xpcc/ext/stm32f4xx_lib/STM32F4xx_StdPeriph_Driver/src/stm32f4xx_cryp.c **** 
 716:/home/jonas/warwick/3dProfilometer/xpcc/ext/stm32f4xx_lib/STM32F4xx_StdPeriph_Driver/src/stm32f4xx_cryp.c ****   2.  In the Interrupt Mode it is advised to use the following functions:
 717:/home/jonas/warwick/3dProfilometer/xpcc/ext/stm32f4xx_lib/STM32F4xx_StdPeriph_Driver/src/stm32f4xx_cryp.c ****       - CRYP_ITConfig()       : to enable or disable the interrupt source.
 718:/home/jonas/warwick/3dProfilometer/xpcc/ext/stm32f4xx_lib/STM32F4xx_StdPeriph_Driver/src/stm32f4xx_cryp.c ****       - CRYP_GetITStatus()    : to check if Interrupt occurs.
 719:/home/jonas/warwick/3dProfilometer/xpcc/ext/stm32f4xx_lib/STM32F4xx_StdPeriph_Driver/src/stm32f4xx_cryp.c **** 
 720:/home/jonas/warwick/3dProfilometer/xpcc/ext/stm32f4xx_lib/STM32F4xx_StdPeriph_Driver/src/stm32f4xx_cryp.c ****   @note  The CRYPT interrupts have no pending bits, the interrupt is cleared as 
 721:/home/jonas/warwick/3dProfilometer/xpcc/ext/stm32f4xx_lib/STM32F4xx_StdPeriph_Driver/src/stm32f4xx_cryp.c ****          soon as the associated event is reset. 
 722:/home/jonas/warwick/3dProfilometer/xpcc/ext/stm32f4xx_lib/STM32F4xx_StdPeriph_Driver/src/stm32f4xx_cryp.c **** 
 723:/home/jonas/warwick/3dProfilometer/xpcc/ext/stm32f4xx_lib/STM32F4xx_StdPeriph_Driver/src/stm32f4xx_cryp.c **** @endverbatim
 724:/home/jonas/warwick/3dProfilometer/xpcc/ext/stm32f4xx_lib/STM32F4xx_StdPeriph_Driver/src/stm32f4xx_cryp.c ****   * @{
 725:/home/jonas/warwick/3dProfilometer/xpcc/ext/stm32f4xx_lib/STM32F4xx_StdPeriph_Driver/src/stm32f4xx_cryp.c ****   */ 
 726:/home/jonas/warwick/3dProfilometer/xpcc/ext/stm32f4xx_lib/STM32F4xx_StdPeriph_Driver/src/stm32f4xx_cryp.c **** 
 727:/home/jonas/warwick/3dProfilometer/xpcc/ext/stm32f4xx_lib/STM32F4xx_StdPeriph_Driver/src/stm32f4xx_cryp.c **** /**
 728:/home/jonas/warwick/3dProfilometer/xpcc/ext/stm32f4xx_lib/STM32F4xx_StdPeriph_Driver/src/stm32f4xx_cryp.c ****   * @brief  Enables or disables the specified CRYP interrupts.
 729:/home/jonas/warwick/3dProfilometer/xpcc/ext/stm32f4xx_lib/STM32F4xx_StdPeriph_Driver/src/stm32f4xx_cryp.c ****   * @param  CRYP_IT: specifies the CRYP interrupt source to be enabled or disabled.
 730:/home/jonas/warwick/3dProfilometer/xpcc/ext/stm32f4xx_lib/STM32F4xx_StdPeriph_Driver/src/stm32f4xx_cryp.c ****   *          This parameter can be any combination of the following values:
 731:/home/jonas/warwick/3dProfilometer/xpcc/ext/stm32f4xx_lib/STM32F4xx_StdPeriph_Driver/src/stm32f4xx_cryp.c ****   *            @arg CRYP_IT_INI: Input FIFO interrupt
 732:/home/jonas/warwick/3dProfilometer/xpcc/ext/stm32f4xx_lib/STM32F4xx_StdPeriph_Driver/src/stm32f4xx_cryp.c ****   *            @arg CRYP_IT_OUTI: Output FIFO interrupt
 733:/home/jonas/warwick/3dProfilometer/xpcc/ext/stm32f4xx_lib/STM32F4xx_StdPeriph_Driver/src/stm32f4xx_cryp.c ****   * @param  NewState: new state of the specified CRYP interrupt.
 734:/home/jonas/warwick/3dProfilometer/xpcc/ext/stm32f4xx_lib/STM32F4xx_StdPeriph_Driver/src/stm32f4xx_cryp.c ****   *           This parameter can be: ENABLE or DISABLE.
 735:/home/jonas/warwick/3dProfilometer/xpcc/ext/stm32f4xx_lib/STM32F4xx_StdPeriph_Driver/src/stm32f4xx_cryp.c ****   * @retval None
 736:/home/jonas/warwick/3dProfilometer/xpcc/ext/stm32f4xx_lib/STM32F4xx_StdPeriph_Driver/src/stm32f4xx_cryp.c ****   */
 737:/home/jonas/warwick/3dProfilometer/xpcc/ext/stm32f4xx_lib/STM32F4xx_StdPeriph_Driver/src/stm32f4xx_cryp.c **** void CRYP_ITConfig(uint8_t CRYP_IT, FunctionalState NewState)
 738:/home/jonas/warwick/3dProfilometer/xpcc/ext/stm32f4xx_lib/STM32F4xx_StdPeriph_Driver/src/stm32f4xx_cryp.c **** {
 692              		.loc 1 738 0
 693              		.cfi_startproc
 694              		@ args = 0, pretend = 0, frame = 0
 695              		@ frame_needed = 0, uses_anonymous_args = 0
 696              		@ link register save eliminated.
 697              	.LVL29:
 739:/home/jonas/warwick/3dProfilometer/xpcc/ext/stm32f4xx_lib/STM32F4xx_StdPeriph_Driver/src/stm32f4xx_cryp.c ****   /* Check the parameters */
 740:/home/jonas/warwick/3dProfilometer/xpcc/ext/stm32f4xx_lib/STM32F4xx_StdPeriph_Driver/src/stm32f4xx_cryp.c ****   assert_param(IS_CRYP_CONFIG_IT(CRYP_IT));
 741:/home/jonas/warwick/3dProfilometer/xpcc/ext/stm32f4xx_lib/STM32F4xx_StdPeriph_Driver/src/stm32f4xx_cryp.c ****   assert_param(IS_FUNCTIONAL_STATE(NewState));
 742:/home/jonas/warwick/3dProfilometer/xpcc/ext/stm32f4xx_lib/STM32F4xx_StdPeriph_Driver/src/stm32f4xx_cryp.c **** 
 743:/home/jonas/warwick/3dProfilometer/xpcc/ext/stm32f4xx_lib/STM32F4xx_StdPeriph_Driver/src/stm32f4xx_cryp.c ****   if (NewState != DISABLE)
 744:/home/jonas/warwick/3dProfilometer/xpcc/ext/stm32f4xx_lib/STM32F4xx_StdPeriph_Driver/src/stm32f4xx_cryp.c ****   {
 745:/home/jonas/warwick/3dProfilometer/xpcc/ext/stm32f4xx_lib/STM32F4xx_StdPeriph_Driver/src/stm32f4xx_cryp.c ****     /* Enable the selected CRYP interrupt */
 746:/home/jonas/warwick/3dProfilometer/xpcc/ext/stm32f4xx_lib/STM32F4xx_StdPeriph_Driver/src/stm32f4xx_cryp.c ****     CRYP->IMSCR |= CRYP_IT;
 698              		.loc 1 746 0
 699 0000 054B     		ldr	r3, .L58
 700 0002 5A69     		ldr	r2, [r3, #20]
 743:/home/jonas/warwick/3dProfilometer/xpcc/ext/stm32f4xx_lib/STM32F4xx_StdPeriph_Driver/src/stm32f4xx_cryp.c ****   if (NewState != DISABLE)
 701              		.loc 1 743 0
 702 0004 29B9     		cbnz	r1, .L57
 747:/home/jonas/warwick/3dProfilometer/xpcc/ext/stm32f4xx_lib/STM32F4xx_StdPeriph_Driver/src/stm32f4xx_cryp.c ****   }
 748:/home/jonas/warwick/3dProfilometer/xpcc/ext/stm32f4xx_lib/STM32F4xx_StdPeriph_Driver/src/stm32f4xx_cryp.c ****   else
 749:/home/jonas/warwick/3dProfilometer/xpcc/ext/stm32f4xx_lib/STM32F4xx_StdPeriph_Driver/src/stm32f4xx_cryp.c ****   {
 750:/home/jonas/warwick/3dProfilometer/xpcc/ext/stm32f4xx_lib/STM32F4xx_StdPeriph_Driver/src/stm32f4xx_cryp.c ****     /* Disable the selected CRYP interrupt */
 751:/home/jonas/warwick/3dProfilometer/xpcc/ext/stm32f4xx_lib/STM32F4xx_StdPeriph_Driver/src/stm32f4xx_cryp.c ****     CRYP->IMSCR &= (uint8_t)~CRYP_IT;
 703              		.loc 1 751 0
 704 0006 22EA0000 		bic	r0, r2, r0
 705              	.LVL30:
 706 000a 00F0FF00 		and	r0, r0, #255
 707 000e 5861     		str	r0, [r3, #20]
 708 0010 7047     		bx	lr
 709              	.LVL31:
 710              	.L57:
 746:/home/jonas/warwick/3dProfilometer/xpcc/ext/stm32f4xx_lib/STM32F4xx_StdPeriph_Driver/src/stm32f4xx_cryp.c ****     CRYP->IMSCR |= CRYP_IT;
 711              		.loc 1 746 0
 712 0012 1043     		orrs	r0, r0, r2
 713              	.LVL32:
 714 0014 5861     		str	r0, [r3, #20]
 715 0016 7047     		bx	lr
 716              	.L59:
 717              		.align	2
 718              	.L58:
 719 0018 00000650 		.word	1342570496
 720              		.cfi_endproc
 721              	.LFE124:
 723              		.section	.text.CRYP_GetITStatus,"ax",%progbits
 724              		.align	2
 725              		.global	CRYP_GetITStatus
 726              		.thumb
 727              		.thumb_func
 729              	CRYP_GetITStatus:
 730              	.LFB125:
 752:/home/jonas/warwick/3dProfilometer/xpcc/ext/stm32f4xx_lib/STM32F4xx_StdPeriph_Driver/src/stm32f4xx_cryp.c ****   }
 753:/home/jonas/warwick/3dProfilometer/xpcc/ext/stm32f4xx_lib/STM32F4xx_StdPeriph_Driver/src/stm32f4xx_cryp.c **** }
 754:/home/jonas/warwick/3dProfilometer/xpcc/ext/stm32f4xx_lib/STM32F4xx_StdPeriph_Driver/src/stm32f4xx_cryp.c **** 
 755:/home/jonas/warwick/3dProfilometer/xpcc/ext/stm32f4xx_lib/STM32F4xx_StdPeriph_Driver/src/stm32f4xx_cryp.c **** /**
 756:/home/jonas/warwick/3dProfilometer/xpcc/ext/stm32f4xx_lib/STM32F4xx_StdPeriph_Driver/src/stm32f4xx_cryp.c ****   * @brief  Checks whether the specified CRYP interrupt has occurred or not.
 757:/home/jonas/warwick/3dProfilometer/xpcc/ext/stm32f4xx_lib/STM32F4xx_StdPeriph_Driver/src/stm32f4xx_cryp.c ****   * @note   This function checks the status of the masked interrupt (i.e the 
 758:/home/jonas/warwick/3dProfilometer/xpcc/ext/stm32f4xx_lib/STM32F4xx_StdPeriph_Driver/src/stm32f4xx_cryp.c ****   *         interrupt should be previously enabled).     
 759:/home/jonas/warwick/3dProfilometer/xpcc/ext/stm32f4xx_lib/STM32F4xx_StdPeriph_Driver/src/stm32f4xx_cryp.c ****   * @param  CRYP_IT: specifies the CRYP (masked) interrupt source to check.
 760:/home/jonas/warwick/3dProfilometer/xpcc/ext/stm32f4xx_lib/STM32F4xx_StdPeriph_Driver/src/stm32f4xx_cryp.c ****   *           This parameter can be one of the following values:
 761:/home/jonas/warwick/3dProfilometer/xpcc/ext/stm32f4xx_lib/STM32F4xx_StdPeriph_Driver/src/stm32f4xx_cryp.c ****   *            @arg CRYP_IT_INI: Input FIFO interrupt
 762:/home/jonas/warwick/3dProfilometer/xpcc/ext/stm32f4xx_lib/STM32F4xx_StdPeriph_Driver/src/stm32f4xx_cryp.c ****   *            @arg CRYP_IT_OUTI: Output FIFO interrupt
 763:/home/jonas/warwick/3dProfilometer/xpcc/ext/stm32f4xx_lib/STM32F4xx_StdPeriph_Driver/src/stm32f4xx_cryp.c ****   * @retval The new state of CRYP_IT (SET or RESET).
 764:/home/jonas/warwick/3dProfilometer/xpcc/ext/stm32f4xx_lib/STM32F4xx_StdPeriph_Driver/src/stm32f4xx_cryp.c ****   */
 765:/home/jonas/warwick/3dProfilometer/xpcc/ext/stm32f4xx_lib/STM32F4xx_StdPeriph_Driver/src/stm32f4xx_cryp.c **** ITStatus CRYP_GetITStatus(uint8_t CRYP_IT)
 766:/home/jonas/warwick/3dProfilometer/xpcc/ext/stm32f4xx_lib/STM32F4xx_StdPeriph_Driver/src/stm32f4xx_cryp.c **** {
 731              		.loc 1 766 0
 732              		.cfi_startproc
 733              		@ args = 0, pretend = 0, frame = 0
 734              		@ frame_needed = 0, uses_anonymous_args = 0
 735              		@ link register save eliminated.
 736              	.LVL33:
 767:/home/jonas/warwick/3dProfilometer/xpcc/ext/stm32f4xx_lib/STM32F4xx_StdPeriph_Driver/src/stm32f4xx_cryp.c ****   ITStatus bitstatus = RESET;
 768:/home/jonas/warwick/3dProfilometer/xpcc/ext/stm32f4xx_lib/STM32F4xx_StdPeriph_Driver/src/stm32f4xx_cryp.c ****   /* Check the parameters */
 769:/home/jonas/warwick/3dProfilometer/xpcc/ext/stm32f4xx_lib/STM32F4xx_StdPeriph_Driver/src/stm32f4xx_cryp.c ****   assert_param(IS_CRYP_GET_IT(CRYP_IT));
 770:/home/jonas/warwick/3dProfilometer/xpcc/ext/stm32f4xx_lib/STM32F4xx_StdPeriph_Driver/src/stm32f4xx_cryp.c **** 
 771:/home/jonas/warwick/3dProfilometer/xpcc/ext/stm32f4xx_lib/STM32F4xx_StdPeriph_Driver/src/stm32f4xx_cryp.c ****   /* Check the status of the specified CRYP interrupt */
 772:/home/jonas/warwick/3dProfilometer/xpcc/ext/stm32f4xx_lib/STM32F4xx_StdPeriph_Driver/src/stm32f4xx_cryp.c ****   if ((CRYP->MISR &  CRYP_IT) != (uint8_t)RESET)
 737              		.loc 1 772 0
 738 0000 034B     		ldr	r3, .L61
 739 0002 DB69     		ldr	r3, [r3, #28]
 740              	.LVL34:
 741 0004 1842     		tst	r0, r3
 773:/home/jonas/warwick/3dProfilometer/xpcc/ext/stm32f4xx_lib/STM32F4xx_StdPeriph_Driver/src/stm32f4xx_cryp.c ****   {
 774:/home/jonas/warwick/3dProfilometer/xpcc/ext/stm32f4xx_lib/STM32F4xx_StdPeriph_Driver/src/stm32f4xx_cryp.c ****     /* CRYP_IT is set */
 775:/home/jonas/warwick/3dProfilometer/xpcc/ext/stm32f4xx_lib/STM32F4xx_StdPeriph_Driver/src/stm32f4xx_cryp.c ****     bitstatus = SET;
 776:/home/jonas/warwick/3dProfilometer/xpcc/ext/stm32f4xx_lib/STM32F4xx_StdPeriph_Driver/src/stm32f4xx_cryp.c ****   }
 777:/home/jonas/warwick/3dProfilometer/xpcc/ext/stm32f4xx_lib/STM32F4xx_StdPeriph_Driver/src/stm32f4xx_cryp.c ****   else
 778:/home/jonas/warwick/3dProfilometer/xpcc/ext/stm32f4xx_lib/STM32F4xx_StdPeriph_Driver/src/stm32f4xx_cryp.c ****   {
 779:/home/jonas/warwick/3dProfilometer/xpcc/ext/stm32f4xx_lib/STM32F4xx_StdPeriph_Driver/src/stm32f4xx_cryp.c ****     /* CRYP_IT is reset */
 780:/home/jonas/warwick/3dProfilometer/xpcc/ext/stm32f4xx_lib/STM32F4xx_StdPeriph_Driver/src/stm32f4xx_cryp.c ****     bitstatus = RESET;
 781:/home/jonas/warwick/3dProfilometer/xpcc/ext/stm32f4xx_lib/STM32F4xx_StdPeriph_Driver/src/stm32f4xx_cryp.c ****   }
 782:/home/jonas/warwick/3dProfilometer/xpcc/ext/stm32f4xx_lib/STM32F4xx_StdPeriph_Driver/src/stm32f4xx_cryp.c ****   /* Return the CRYP_IT status */
 783:/home/jonas/warwick/3dProfilometer/xpcc/ext/stm32f4xx_lib/STM32F4xx_StdPeriph_Driver/src/stm32f4xx_cryp.c ****   return bitstatus;
 784:/home/jonas/warwick/3dProfilometer/xpcc/ext/stm32f4xx_lib/STM32F4xx_StdPeriph_Driver/src/stm32f4xx_cryp.c **** }
 742              		.loc 1 784 0
 743 0006 0CBF     		ite	eq
 744 0008 0020     		moveq	r0, #0
 745 000a 0120     		movne	r0, #1
 746              	.LVL35:
 747 000c 7047     		bx	lr
 748              	.L62:
 749 000e 00BF     		.align	2
 750              	.L61:
 751 0010 00000650 		.word	1342570496
 752              		.cfi_endproc
 753              	.LFE125:
 755              		.section	.text.CRYP_GetFlagStatus,"ax",%progbits
 756              		.align	2
 757              		.global	CRYP_GetFlagStatus
 758              		.thumb
 759              		.thumb_func
 761              	CRYP_GetFlagStatus:
 762              	.LFB126:
 785:/home/jonas/warwick/3dProfilometer/xpcc/ext/stm32f4xx_lib/STM32F4xx_StdPeriph_Driver/src/stm32f4xx_cryp.c **** 
 786:/home/jonas/warwick/3dProfilometer/xpcc/ext/stm32f4xx_lib/STM32F4xx_StdPeriph_Driver/src/stm32f4xx_cryp.c **** /**
 787:/home/jonas/warwick/3dProfilometer/xpcc/ext/stm32f4xx_lib/STM32F4xx_StdPeriph_Driver/src/stm32f4xx_cryp.c ****   * @brief  Checks whether the specified CRYP flag is set or not.
 788:/home/jonas/warwick/3dProfilometer/xpcc/ext/stm32f4xx_lib/STM32F4xx_StdPeriph_Driver/src/stm32f4xx_cryp.c ****   * @param  CRYP_FLAG: specifies the CRYP flag to check.
 789:/home/jonas/warwick/3dProfilometer/xpcc/ext/stm32f4xx_lib/STM32F4xx_StdPeriph_Driver/src/stm32f4xx_cryp.c ****   *          This parameter can be one of the following values:
 790:/home/jonas/warwick/3dProfilometer/xpcc/ext/stm32f4xx_lib/STM32F4xx_StdPeriph_Driver/src/stm32f4xx_cryp.c ****   *            @arg CRYP_FLAG_IFEM: Input FIFO Empty flag.
 791:/home/jonas/warwick/3dProfilometer/xpcc/ext/stm32f4xx_lib/STM32F4xx_StdPeriph_Driver/src/stm32f4xx_cryp.c ****   *            @arg CRYP_FLAG_IFNF: Input FIFO Not Full flag.
 792:/home/jonas/warwick/3dProfilometer/xpcc/ext/stm32f4xx_lib/STM32F4xx_StdPeriph_Driver/src/stm32f4xx_cryp.c ****   *            @arg CRYP_FLAG_OFNE: Output FIFO Not Empty flag.
 793:/home/jonas/warwick/3dProfilometer/xpcc/ext/stm32f4xx_lib/STM32F4xx_StdPeriph_Driver/src/stm32f4xx_cryp.c ****   *            @arg CRYP_FLAG_OFFU: Output FIFO Full flag.
 794:/home/jonas/warwick/3dProfilometer/xpcc/ext/stm32f4xx_lib/STM32F4xx_StdPeriph_Driver/src/stm32f4xx_cryp.c ****   *            @arg CRYP_FLAG_BUSY: Busy flag.
 795:/home/jonas/warwick/3dProfilometer/xpcc/ext/stm32f4xx_lib/STM32F4xx_StdPeriph_Driver/src/stm32f4xx_cryp.c ****   *            @arg CRYP_FLAG_OUTRIS: Output FIFO raw interrupt flag.
 796:/home/jonas/warwick/3dProfilometer/xpcc/ext/stm32f4xx_lib/STM32F4xx_StdPeriph_Driver/src/stm32f4xx_cryp.c ****   *            @arg CRYP_FLAG_INRIS: Input FIFO raw interrupt flag.
 797:/home/jonas/warwick/3dProfilometer/xpcc/ext/stm32f4xx_lib/STM32F4xx_StdPeriph_Driver/src/stm32f4xx_cryp.c ****   * @retval The new state of CRYP_FLAG (SET or RESET).
 798:/home/jonas/warwick/3dProfilometer/xpcc/ext/stm32f4xx_lib/STM32F4xx_StdPeriph_Driver/src/stm32f4xx_cryp.c ****   */
 799:/home/jonas/warwick/3dProfilometer/xpcc/ext/stm32f4xx_lib/STM32F4xx_StdPeriph_Driver/src/stm32f4xx_cryp.c **** FlagStatus CRYP_GetFlagStatus(uint8_t CRYP_FLAG)
 800:/home/jonas/warwick/3dProfilometer/xpcc/ext/stm32f4xx_lib/STM32F4xx_StdPeriph_Driver/src/stm32f4xx_cryp.c **** {
 763              		.loc 1 800 0
 764              		.cfi_startproc
 765              		@ args = 0, pretend = 0, frame = 0
 766              		@ frame_needed = 0, uses_anonymous_args = 0
 767              		@ link register save eliminated.
 768              	.LVL36:
 801:/home/jonas/warwick/3dProfilometer/xpcc/ext/stm32f4xx_lib/STM32F4xx_StdPeriph_Driver/src/stm32f4xx_cryp.c ****   FlagStatus bitstatus = RESET;
 802:/home/jonas/warwick/3dProfilometer/xpcc/ext/stm32f4xx_lib/STM32F4xx_StdPeriph_Driver/src/stm32f4xx_cryp.c ****   uint32_t tempreg = 0;
 803:/home/jonas/warwick/3dProfilometer/xpcc/ext/stm32f4xx_lib/STM32F4xx_StdPeriph_Driver/src/stm32f4xx_cryp.c **** 
 804:/home/jonas/warwick/3dProfilometer/xpcc/ext/stm32f4xx_lib/STM32F4xx_StdPeriph_Driver/src/stm32f4xx_cryp.c ****   /* Check the parameters */
 805:/home/jonas/warwick/3dProfilometer/xpcc/ext/stm32f4xx_lib/STM32F4xx_StdPeriph_Driver/src/stm32f4xx_cryp.c ****   assert_param(IS_CRYP_GET_FLAG(CRYP_FLAG));
 806:/home/jonas/warwick/3dProfilometer/xpcc/ext/stm32f4xx_lib/STM32F4xx_StdPeriph_Driver/src/stm32f4xx_cryp.c **** 
 807:/home/jonas/warwick/3dProfilometer/xpcc/ext/stm32f4xx_lib/STM32F4xx_StdPeriph_Driver/src/stm32f4xx_cryp.c ****   /* check if the FLAG is in RISR register */
 808:/home/jonas/warwick/3dProfilometer/xpcc/ext/stm32f4xx_lib/STM32F4xx_StdPeriph_Driver/src/stm32f4xx_cryp.c ****   if ((CRYP_FLAG & FLAG_MASK) != 0x00) 
 769              		.loc 1 808 0
 770 0000 00F02003 		and	r3, r0, #32
 771 0004 DBB2     		uxtb	r3, r3
 772 0006 33B1     		cbz	r3, .L64
 809:/home/jonas/warwick/3dProfilometer/xpcc/ext/stm32f4xx_lib/STM32F4xx_StdPeriph_Driver/src/stm32f4xx_cryp.c ****   {
 810:/home/jonas/warwick/3dProfilometer/xpcc/ext/stm32f4xx_lib/STM32F4xx_StdPeriph_Driver/src/stm32f4xx_cryp.c ****     tempreg = CRYP->RISR;
 773              		.loc 1 810 0
 774 0008 044B     		ldr	r3, .L66
 775 000a 9B69     		ldr	r3, [r3, #24]
 776              	.LVL37:
 777              	.L65:
 811:/home/jonas/warwick/3dProfilometer/xpcc/ext/stm32f4xx_lib/STM32F4xx_StdPeriph_Driver/src/stm32f4xx_cryp.c ****   }
 812:/home/jonas/warwick/3dProfilometer/xpcc/ext/stm32f4xx_lib/STM32F4xx_StdPeriph_Driver/src/stm32f4xx_cryp.c ****   else  /* The FLAG is in SR register */
 813:/home/jonas/warwick/3dProfilometer/xpcc/ext/stm32f4xx_lib/STM32F4xx_StdPeriph_Driver/src/stm32f4xx_cryp.c ****   {
 814:/home/jonas/warwick/3dProfilometer/xpcc/ext/stm32f4xx_lib/STM32F4xx_StdPeriph_Driver/src/stm32f4xx_cryp.c ****     tempreg = CRYP->SR;
 815:/home/jonas/warwick/3dProfilometer/xpcc/ext/stm32f4xx_lib/STM32F4xx_StdPeriph_Driver/src/stm32f4xx_cryp.c ****   }
 816:/home/jonas/warwick/3dProfilometer/xpcc/ext/stm32f4xx_lib/STM32F4xx_StdPeriph_Driver/src/stm32f4xx_cryp.c **** 
 817:/home/jonas/warwick/3dProfilometer/xpcc/ext/stm32f4xx_lib/STM32F4xx_StdPeriph_Driver/src/stm32f4xx_cryp.c **** 
 818:/home/jonas/warwick/3dProfilometer/xpcc/ext/stm32f4xx_lib/STM32F4xx_StdPeriph_Driver/src/stm32f4xx_cryp.c ****   /* Check the status of the specified CRYP flag */
 819:/home/jonas/warwick/3dProfilometer/xpcc/ext/stm32f4xx_lib/STM32F4xx_StdPeriph_Driver/src/stm32f4xx_cryp.c ****   if ((tempreg & CRYP_FLAG ) != (uint8_t)RESET)
 778              		.loc 1 819 0
 779 000c 0342     		tst	r3, r0
 820:/home/jonas/warwick/3dProfilometer/xpcc/ext/stm32f4xx_lib/STM32F4xx_StdPeriph_Driver/src/stm32f4xx_cryp.c ****   {
 821:/home/jonas/warwick/3dProfilometer/xpcc/ext/stm32f4xx_lib/STM32F4xx_StdPeriph_Driver/src/stm32f4xx_cryp.c ****     /* CRYP_FLAG is set */
 822:/home/jonas/warwick/3dProfilometer/xpcc/ext/stm32f4xx_lib/STM32F4xx_StdPeriph_Driver/src/stm32f4xx_cryp.c ****     bitstatus = SET;
 823:/home/jonas/warwick/3dProfilometer/xpcc/ext/stm32f4xx_lib/STM32F4xx_StdPeriph_Driver/src/stm32f4xx_cryp.c ****   }
 824:/home/jonas/warwick/3dProfilometer/xpcc/ext/stm32f4xx_lib/STM32F4xx_StdPeriph_Driver/src/stm32f4xx_cryp.c ****   else
 825:/home/jonas/warwick/3dProfilometer/xpcc/ext/stm32f4xx_lib/STM32F4xx_StdPeriph_Driver/src/stm32f4xx_cryp.c ****   {
 826:/home/jonas/warwick/3dProfilometer/xpcc/ext/stm32f4xx_lib/STM32F4xx_StdPeriph_Driver/src/stm32f4xx_cryp.c ****     /* CRYP_FLAG is reset */
 827:/home/jonas/warwick/3dProfilometer/xpcc/ext/stm32f4xx_lib/STM32F4xx_StdPeriph_Driver/src/stm32f4xx_cryp.c ****     bitstatus = RESET;
 828:/home/jonas/warwick/3dProfilometer/xpcc/ext/stm32f4xx_lib/STM32F4xx_StdPeriph_Driver/src/stm32f4xx_cryp.c ****   }
 829:/home/jonas/warwick/3dProfilometer/xpcc/ext/stm32f4xx_lib/STM32F4xx_StdPeriph_Driver/src/stm32f4xx_cryp.c **** 
 830:/home/jonas/warwick/3dProfilometer/xpcc/ext/stm32f4xx_lib/STM32F4xx_StdPeriph_Driver/src/stm32f4xx_cryp.c ****   /* Return the CRYP_FLAG status */
 831:/home/jonas/warwick/3dProfilometer/xpcc/ext/stm32f4xx_lib/STM32F4xx_StdPeriph_Driver/src/stm32f4xx_cryp.c ****   return  bitstatus;
 832:/home/jonas/warwick/3dProfilometer/xpcc/ext/stm32f4xx_lib/STM32F4xx_StdPeriph_Driver/src/stm32f4xx_cryp.c **** }
 780              		.loc 1 832 0
 781 000e 0CBF     		ite	eq
 782 0010 0020     		moveq	r0, #0
 783 0012 0120     		movne	r0, #1
 784              	.LVL38:
 785 0014 7047     		bx	lr
 786              	.LVL39:
 787              	.L64:
 814:/home/jonas/warwick/3dProfilometer/xpcc/ext/stm32f4xx_lib/STM32F4xx_StdPeriph_Driver/src/stm32f4xx_cryp.c ****     tempreg = CRYP->SR;
 788              		.loc 1 814 0
 789 0016 014B     		ldr	r3, .L66
 790 0018 5B68     		ldr	r3, [r3, #4]
 791              	.LVL40:
 792 001a F7E7     		b	.L65
 793              	.L67:
 794              		.align	2
 795              	.L66:
 796 001c 00000650 		.word	1342570496
 797              		.cfi_endproc
 798              	.LFE126:
 800              		.text
 801              	.Letext0:
 802              		.file 2 "/opt/arm-2012.09/bin/../lib/gcc/arm-none-eabi/4.7.2/../../../../arm-none-eabi/include/std
 803              		.file 3 "/home/jonas/warwick/3dProfilometer/xpcc/ext/stm32f4xx_lib/CMSIS/Device/ST/STM32F4xx/Inclu
 804              		.file 4 "/home/jonas/warwick/3dProfilometer/xpcc/ext/stm32f4xx_lib/STM32F4xx_StdPeriph_Driver/inc/
 805              		.file 5 "/home/jonas/warwick/3dProfilometer/xpcc/ext/stm32f4xx_lib/CMSIS/Include/core_cm4.h"