   1              		.syntax unified
   2              		.cpu cortex-m4
   3              		.eabi_attribute 27, 3
   4              		.fpu fpv4-sp-d16
   5              		.eabi_attribute 20, 1
   6              		.eabi_attribute 21, 1
   7              		.eabi_attribute 23, 3
   8              		.eabi_attribute 24, 1
   9              		.eabi_attribute 25, 1
  10              		.eabi_attribute 26, 1
  11              		.eabi_attribute 30, 2
  12              		.eabi_attribute 34, 1
  13              		.eabi_attribute 18, 4
  14              		.thumb
  15              		.file	"stm32f4xx_iwdg.c"
  16              		.text
  17              	.Ltext0:
  18              		.cfi_sections	.debug_frame
  19              		.section	.text.IWDG_WriteAccessCmd,"ax",%progbits
  20              		.align	2
  21              		.global	IWDG_WriteAccessCmd
  22              		.thumb
  23              		.thumb_func
  25              	IWDG_WriteAccessCmd:
  26              	.LFB110:
  27              		.file 1 "/home/jonas/warwick/3dProfilometer/xpcc/ext/stm32f4xx_lib/STM32F4xx_StdPeriph_Driver/src/
   1:/home/jonas/warwick/3dProfilometer/xpcc/ext/stm32f4xx_lib/STM32F4xx_StdPeriph_Driver/src/stm32f4xx_iwdg.c **** /**
   2:/home/jonas/warwick/3dProfilometer/xpcc/ext/stm32f4xx_lib/STM32F4xx_StdPeriph_Driver/src/stm32f4xx_iwdg.c ****   ******************************************************************************
   3:/home/jonas/warwick/3dProfilometer/xpcc/ext/stm32f4xx_lib/STM32F4xx_StdPeriph_Driver/src/stm32f4xx_iwdg.c ****   * @file    stm32f4xx_iwdg.c
   4:/home/jonas/warwick/3dProfilometer/xpcc/ext/stm32f4xx_lib/STM32F4xx_StdPeriph_Driver/src/stm32f4xx_iwdg.c ****   * @author  MCD Application Team
   5:/home/jonas/warwick/3dProfilometer/xpcc/ext/stm32f4xx_lib/STM32F4xx_StdPeriph_Driver/src/stm32f4xx_iwdg.c ****   * @version V1.0.0
   6:/home/jonas/warwick/3dProfilometer/xpcc/ext/stm32f4xx_lib/STM32F4xx_StdPeriph_Driver/src/stm32f4xx_iwdg.c ****   * @date    30-September-2011
   7:/home/jonas/warwick/3dProfilometer/xpcc/ext/stm32f4xx_lib/STM32F4xx_StdPeriph_Driver/src/stm32f4xx_iwdg.c ****   * @brief   This file provides firmware functions to manage the following 
   8:/home/jonas/warwick/3dProfilometer/xpcc/ext/stm32f4xx_lib/STM32F4xx_StdPeriph_Driver/src/stm32f4xx_iwdg.c ****   *          functionalities of the Independent watchdog (IWDG) peripheral:           
   9:/home/jonas/warwick/3dProfilometer/xpcc/ext/stm32f4xx_lib/STM32F4xx_StdPeriph_Driver/src/stm32f4xx_iwdg.c ****   *           - Prescaler and Counter configuration
  10:/home/jonas/warwick/3dProfilometer/xpcc/ext/stm32f4xx_lib/STM32F4xx_StdPeriph_Driver/src/stm32f4xx_iwdg.c ****   *           - IWDG activation
  11:/home/jonas/warwick/3dProfilometer/xpcc/ext/stm32f4xx_lib/STM32F4xx_StdPeriph_Driver/src/stm32f4xx_iwdg.c ****   *           - Flag management
  12:/home/jonas/warwick/3dProfilometer/xpcc/ext/stm32f4xx_lib/STM32F4xx_StdPeriph_Driver/src/stm32f4xx_iwdg.c ****   *
  13:/home/jonas/warwick/3dProfilometer/xpcc/ext/stm32f4xx_lib/STM32F4xx_StdPeriph_Driver/src/stm32f4xx_iwdg.c ****   *  @verbatim  
  14:/home/jonas/warwick/3dProfilometer/xpcc/ext/stm32f4xx_lib/STM32F4xx_StdPeriph_Driver/src/stm32f4xx_iwdg.c ****   *  
  15:/home/jonas/warwick/3dProfilometer/xpcc/ext/stm32f4xx_lib/STM32F4xx_StdPeriph_Driver/src/stm32f4xx_iwdg.c ****   *          ===================================================================
  16:/home/jonas/warwick/3dProfilometer/xpcc/ext/stm32f4xx_lib/STM32F4xx_StdPeriph_Driver/src/stm32f4xx_iwdg.c ****   *                                     IWDG features
  17:/home/jonas/warwick/3dProfilometer/xpcc/ext/stm32f4xx_lib/STM32F4xx_StdPeriph_Driver/src/stm32f4xx_iwdg.c ****   *          ===================================================================
  18:/home/jonas/warwick/3dProfilometer/xpcc/ext/stm32f4xx_lib/STM32F4xx_StdPeriph_Driver/src/stm32f4xx_iwdg.c ****   *    
  19:/home/jonas/warwick/3dProfilometer/xpcc/ext/stm32f4xx_lib/STM32F4xx_StdPeriph_Driver/src/stm32f4xx_iwdg.c ****   *          The IWDG can be started by either software or hardware (configurable
  20:/home/jonas/warwick/3dProfilometer/xpcc/ext/stm32f4xx_lib/STM32F4xx_StdPeriph_Driver/src/stm32f4xx_iwdg.c ****   *          through option byte).
  21:/home/jonas/warwick/3dProfilometer/xpcc/ext/stm32f4xx_lib/STM32F4xx_StdPeriph_Driver/src/stm32f4xx_iwdg.c ****   *            
  22:/home/jonas/warwick/3dProfilometer/xpcc/ext/stm32f4xx_lib/STM32F4xx_StdPeriph_Driver/src/stm32f4xx_iwdg.c ****   *          The IWDG is clocked by its own dedicated low-speed clock (LSI) and
  23:/home/jonas/warwick/3dProfilometer/xpcc/ext/stm32f4xx_lib/STM32F4xx_StdPeriph_Driver/src/stm32f4xx_iwdg.c ****   *          thus stays active even if the main clock fails.
  24:/home/jonas/warwick/3dProfilometer/xpcc/ext/stm32f4xx_lib/STM32F4xx_StdPeriph_Driver/src/stm32f4xx_iwdg.c ****   *          Once the IWDG is started, the LSI is forced ON and cannot be disabled
  25:/home/jonas/warwick/3dProfilometer/xpcc/ext/stm32f4xx_lib/STM32F4xx_StdPeriph_Driver/src/stm32f4xx_iwdg.c ****   *          (LSI cannot be disabled too), and the counter starts counting down from 
  26:/home/jonas/warwick/3dProfilometer/xpcc/ext/stm32f4xx_lib/STM32F4xx_StdPeriph_Driver/src/stm32f4xx_iwdg.c ****   *          the reset value of 0xFFF. When it reaches the end of count value (0x000)
  27:/home/jonas/warwick/3dProfilometer/xpcc/ext/stm32f4xx_lib/STM32F4xx_StdPeriph_Driver/src/stm32f4xx_iwdg.c ****   *          a system reset is generated.
  28:/home/jonas/warwick/3dProfilometer/xpcc/ext/stm32f4xx_lib/STM32F4xx_StdPeriph_Driver/src/stm32f4xx_iwdg.c ****   *          The IWDG counter should be reloaded at regular intervals to prevent
  29:/home/jonas/warwick/3dProfilometer/xpcc/ext/stm32f4xx_lib/STM32F4xx_StdPeriph_Driver/src/stm32f4xx_iwdg.c ****   *          an MCU reset.
  30:/home/jonas/warwick/3dProfilometer/xpcc/ext/stm32f4xx_lib/STM32F4xx_StdPeriph_Driver/src/stm32f4xx_iwdg.c ****   *                           
  31:/home/jonas/warwick/3dProfilometer/xpcc/ext/stm32f4xx_lib/STM32F4xx_StdPeriph_Driver/src/stm32f4xx_iwdg.c ****   *          The IWDG is implemented in the VDD voltage domain that is still functional
  32:/home/jonas/warwick/3dProfilometer/xpcc/ext/stm32f4xx_lib/STM32F4xx_StdPeriph_Driver/src/stm32f4xx_iwdg.c ****   *          in STOP and STANDBY mode (IWDG reset can wake-up from STANDBY).          
  33:/home/jonas/warwick/3dProfilometer/xpcc/ext/stm32f4xx_lib/STM32F4xx_StdPeriph_Driver/src/stm32f4xx_iwdg.c ****   *            
  34:/home/jonas/warwick/3dProfilometer/xpcc/ext/stm32f4xx_lib/STM32F4xx_StdPeriph_Driver/src/stm32f4xx_iwdg.c ****   *          IWDGRST flag in RCC_CSR register can be used to inform when a IWDG
  35:/home/jonas/warwick/3dProfilometer/xpcc/ext/stm32f4xx_lib/STM32F4xx_StdPeriph_Driver/src/stm32f4xx_iwdg.c ****   *          reset occurs.
  36:/home/jonas/warwick/3dProfilometer/xpcc/ext/stm32f4xx_lib/STM32F4xx_StdPeriph_Driver/src/stm32f4xx_iwdg.c ****   *            
  37:/home/jonas/warwick/3dProfilometer/xpcc/ext/stm32f4xx_lib/STM32F4xx_StdPeriph_Driver/src/stm32f4xx_iwdg.c ****   *          Min-max timeout value @32KHz (LSI): ~125us / ~32.7s
  38:/home/jonas/warwick/3dProfilometer/xpcc/ext/stm32f4xx_lib/STM32F4xx_StdPeriph_Driver/src/stm32f4xx_iwdg.c ****   *          The IWDG timeout may vary due to LSI frequency dispersion. STM32F4xx
  39:/home/jonas/warwick/3dProfilometer/xpcc/ext/stm32f4xx_lib/STM32F4xx_StdPeriph_Driver/src/stm32f4xx_iwdg.c ****   *          devices provide the capability to measure the LSI frequency (LSI clock
  40:/home/jonas/warwick/3dProfilometer/xpcc/ext/stm32f4xx_lib/STM32F4xx_StdPeriph_Driver/src/stm32f4xx_iwdg.c ****   *          connected internally to TIM5 CH4 input capture). The measured value
  41:/home/jonas/warwick/3dProfilometer/xpcc/ext/stm32f4xx_lib/STM32F4xx_StdPeriph_Driver/src/stm32f4xx_iwdg.c ****   *          can be used to have an IWDG timeout with an acceptable accuracy. 
  42:/home/jonas/warwick/3dProfilometer/xpcc/ext/stm32f4xx_lib/STM32F4xx_StdPeriph_Driver/src/stm32f4xx_iwdg.c ****   *          For more information, please refer to the STM32F4xx Reference manual
  43:/home/jonas/warwick/3dProfilometer/xpcc/ext/stm32f4xx_lib/STM32F4xx_StdPeriph_Driver/src/stm32f4xx_iwdg.c ****   *          
  44:/home/jonas/warwick/3dProfilometer/xpcc/ext/stm32f4xx_lib/STM32F4xx_StdPeriph_Driver/src/stm32f4xx_iwdg.c ****   *                            
  45:/home/jonas/warwick/3dProfilometer/xpcc/ext/stm32f4xx_lib/STM32F4xx_StdPeriph_Driver/src/stm32f4xx_iwdg.c ****   *          ===================================================================
  46:/home/jonas/warwick/3dProfilometer/xpcc/ext/stm32f4xx_lib/STM32F4xx_StdPeriph_Driver/src/stm32f4xx_iwdg.c ****   *                                 How to use this driver
  47:/home/jonas/warwick/3dProfilometer/xpcc/ext/stm32f4xx_lib/STM32F4xx_StdPeriph_Driver/src/stm32f4xx_iwdg.c ****   *          ===================================================================
  48:/home/jonas/warwick/3dProfilometer/xpcc/ext/stm32f4xx_lib/STM32F4xx_StdPeriph_Driver/src/stm32f4xx_iwdg.c ****   *          1. Enable write access to IWDG_PR and IWDG_RLR registers using
  49:/home/jonas/warwick/3dProfilometer/xpcc/ext/stm32f4xx_lib/STM32F4xx_StdPeriph_Driver/src/stm32f4xx_iwdg.c ****   *             IWDG_WriteAccessCmd(IWDG_WriteAccess_Enable) function
  50:/home/jonas/warwick/3dProfilometer/xpcc/ext/stm32f4xx_lib/STM32F4xx_StdPeriph_Driver/src/stm32f4xx_iwdg.c ****   *               
  51:/home/jonas/warwick/3dProfilometer/xpcc/ext/stm32f4xx_lib/STM32F4xx_StdPeriph_Driver/src/stm32f4xx_iwdg.c ****   *          2. Configure the IWDG prescaler using IWDG_SetPrescaler() function
  52:/home/jonas/warwick/3dProfilometer/xpcc/ext/stm32f4xx_lib/STM32F4xx_StdPeriph_Driver/src/stm32f4xx_iwdg.c ****   *            
  53:/home/jonas/warwick/3dProfilometer/xpcc/ext/stm32f4xx_lib/STM32F4xx_StdPeriph_Driver/src/stm32f4xx_iwdg.c ****   *          3. Configure the IWDG counter value using IWDG_SetReload() function.
  54:/home/jonas/warwick/3dProfilometer/xpcc/ext/stm32f4xx_lib/STM32F4xx_StdPeriph_Driver/src/stm32f4xx_iwdg.c ****   *             This value will be loaded in the IWDG counter each time the counter
  55:/home/jonas/warwick/3dProfilometer/xpcc/ext/stm32f4xx_lib/STM32F4xx_StdPeriph_Driver/src/stm32f4xx_iwdg.c ****   *             is reloaded, then the IWDG will start counting down from this value.
  56:/home/jonas/warwick/3dProfilometer/xpcc/ext/stm32f4xx_lib/STM32F4xx_StdPeriph_Driver/src/stm32f4xx_iwdg.c ****   *            
  57:/home/jonas/warwick/3dProfilometer/xpcc/ext/stm32f4xx_lib/STM32F4xx_StdPeriph_Driver/src/stm32f4xx_iwdg.c ****   *          4. Start the IWDG using IWDG_Enable() function, when the IWDG is used
  58:/home/jonas/warwick/3dProfilometer/xpcc/ext/stm32f4xx_lib/STM32F4xx_StdPeriph_Driver/src/stm32f4xx_iwdg.c ****   *             in software mode (no need to enable the LSI, it will be enabled
  59:/home/jonas/warwick/3dProfilometer/xpcc/ext/stm32f4xx_lib/STM32F4xx_StdPeriph_Driver/src/stm32f4xx_iwdg.c ****   *             by hardware)
  60:/home/jonas/warwick/3dProfilometer/xpcc/ext/stm32f4xx_lib/STM32F4xx_StdPeriph_Driver/src/stm32f4xx_iwdg.c ****   *             
  61:/home/jonas/warwick/3dProfilometer/xpcc/ext/stm32f4xx_lib/STM32F4xx_StdPeriph_Driver/src/stm32f4xx_iwdg.c ****   *          5. Then the application program must reload the IWDG counter at regular
  62:/home/jonas/warwick/3dProfilometer/xpcc/ext/stm32f4xx_lib/STM32F4xx_StdPeriph_Driver/src/stm32f4xx_iwdg.c ****   *             intervals during normal operation to prevent an MCU reset, using
  63:/home/jonas/warwick/3dProfilometer/xpcc/ext/stm32f4xx_lib/STM32F4xx_StdPeriph_Driver/src/stm32f4xx_iwdg.c ****   *             IWDG_ReloadCounter() function.      
  64:/home/jonas/warwick/3dProfilometer/xpcc/ext/stm32f4xx_lib/STM32F4xx_StdPeriph_Driver/src/stm32f4xx_iwdg.c ****   *          
  65:/home/jonas/warwick/3dProfilometer/xpcc/ext/stm32f4xx_lib/STM32F4xx_StdPeriph_Driver/src/stm32f4xx_iwdg.c ****   *  @endverbatim
  66:/home/jonas/warwick/3dProfilometer/xpcc/ext/stm32f4xx_lib/STM32F4xx_StdPeriph_Driver/src/stm32f4xx_iwdg.c ****   *    
  67:/home/jonas/warwick/3dProfilometer/xpcc/ext/stm32f4xx_lib/STM32F4xx_StdPeriph_Driver/src/stm32f4xx_iwdg.c ****   ******************************************************************************
  68:/home/jonas/warwick/3dProfilometer/xpcc/ext/stm32f4xx_lib/STM32F4xx_StdPeriph_Driver/src/stm32f4xx_iwdg.c ****   * @attention
  69:/home/jonas/warwick/3dProfilometer/xpcc/ext/stm32f4xx_lib/STM32F4xx_StdPeriph_Driver/src/stm32f4xx_iwdg.c ****   *
  70:/home/jonas/warwick/3dProfilometer/xpcc/ext/stm32f4xx_lib/STM32F4xx_StdPeriph_Driver/src/stm32f4xx_iwdg.c ****   * THE PRESENT FIRMWARE WHICH IS FOR GUIDANCE ONLY AIMS AT PROVIDING CUSTOMERS
  71:/home/jonas/warwick/3dProfilometer/xpcc/ext/stm32f4xx_lib/STM32F4xx_StdPeriph_Driver/src/stm32f4xx_iwdg.c ****   * WITH CODING INFORMATION REGARDING THEIR PRODUCTS IN ORDER FOR THEM TO SAVE
  72:/home/jonas/warwick/3dProfilometer/xpcc/ext/stm32f4xx_lib/STM32F4xx_StdPeriph_Driver/src/stm32f4xx_iwdg.c ****   * TIME. AS A RESULT, STMICROELECTRONICS SHALL NOT BE HELD LIABLE FOR ANY
  73:/home/jonas/warwick/3dProfilometer/xpcc/ext/stm32f4xx_lib/STM32F4xx_StdPeriph_Driver/src/stm32f4xx_iwdg.c ****   * DIRECT, INDIRECT OR CONSEQUENTIAL DAMAGES WITH RESPECT TO ANY CLAIMS ARISING
  74:/home/jonas/warwick/3dProfilometer/xpcc/ext/stm32f4xx_lib/STM32F4xx_StdPeriph_Driver/src/stm32f4xx_iwdg.c ****   * FROM THE CONTENT OF SUCH FIRMWARE AND/OR THE USE MADE BY CUSTOMERS OF THE
  75:/home/jonas/warwick/3dProfilometer/xpcc/ext/stm32f4xx_lib/STM32F4xx_StdPeriph_Driver/src/stm32f4xx_iwdg.c ****   * CODING INFORMATION CONTAINED HEREIN IN CONNECTION WITH THEIR PRODUCTS.
  76:/home/jonas/warwick/3dProfilometer/xpcc/ext/stm32f4xx_lib/STM32F4xx_StdPeriph_Driver/src/stm32f4xx_iwdg.c ****   *
  77:/home/jonas/warwick/3dProfilometer/xpcc/ext/stm32f4xx_lib/STM32F4xx_StdPeriph_Driver/src/stm32f4xx_iwdg.c ****   * <h2><center>&copy; COPYRIGHT 2011 STMicroelectronics</center></h2>
  78:/home/jonas/warwick/3dProfilometer/xpcc/ext/stm32f4xx_lib/STM32F4xx_StdPeriph_Driver/src/stm32f4xx_iwdg.c ****   ******************************************************************************
  79:/home/jonas/warwick/3dProfilometer/xpcc/ext/stm32f4xx_lib/STM32F4xx_StdPeriph_Driver/src/stm32f4xx_iwdg.c ****   */
  80:/home/jonas/warwick/3dProfilometer/xpcc/ext/stm32f4xx_lib/STM32F4xx_StdPeriph_Driver/src/stm32f4xx_iwdg.c **** 
  81:/home/jonas/warwick/3dProfilometer/xpcc/ext/stm32f4xx_lib/STM32F4xx_StdPeriph_Driver/src/stm32f4xx_iwdg.c **** /* Includes ------------------------------------------------------------------*/
  82:/home/jonas/warwick/3dProfilometer/xpcc/ext/stm32f4xx_lib/STM32F4xx_StdPeriph_Driver/src/stm32f4xx_iwdg.c **** #include "stm32f4xx_iwdg.h"
  83:/home/jonas/warwick/3dProfilometer/xpcc/ext/stm32f4xx_lib/STM32F4xx_StdPeriph_Driver/src/stm32f4xx_iwdg.c **** 
  84:/home/jonas/warwick/3dProfilometer/xpcc/ext/stm32f4xx_lib/STM32F4xx_StdPeriph_Driver/src/stm32f4xx_iwdg.c **** /** @addtogroup STM32F4xx_StdPeriph_Driver
  85:/home/jonas/warwick/3dProfilometer/xpcc/ext/stm32f4xx_lib/STM32F4xx_StdPeriph_Driver/src/stm32f4xx_iwdg.c ****   * @{
  86:/home/jonas/warwick/3dProfilometer/xpcc/ext/stm32f4xx_lib/STM32F4xx_StdPeriph_Driver/src/stm32f4xx_iwdg.c ****   */
  87:/home/jonas/warwick/3dProfilometer/xpcc/ext/stm32f4xx_lib/STM32F4xx_StdPeriph_Driver/src/stm32f4xx_iwdg.c **** 
  88:/home/jonas/warwick/3dProfilometer/xpcc/ext/stm32f4xx_lib/STM32F4xx_StdPeriph_Driver/src/stm32f4xx_iwdg.c **** /** @defgroup IWDG 
  89:/home/jonas/warwick/3dProfilometer/xpcc/ext/stm32f4xx_lib/STM32F4xx_StdPeriph_Driver/src/stm32f4xx_iwdg.c ****   * @brief IWDG driver modules
  90:/home/jonas/warwick/3dProfilometer/xpcc/ext/stm32f4xx_lib/STM32F4xx_StdPeriph_Driver/src/stm32f4xx_iwdg.c ****   * @{
  91:/home/jonas/warwick/3dProfilometer/xpcc/ext/stm32f4xx_lib/STM32F4xx_StdPeriph_Driver/src/stm32f4xx_iwdg.c ****   */ 
  92:/home/jonas/warwick/3dProfilometer/xpcc/ext/stm32f4xx_lib/STM32F4xx_StdPeriph_Driver/src/stm32f4xx_iwdg.c **** 
  93:/home/jonas/warwick/3dProfilometer/xpcc/ext/stm32f4xx_lib/STM32F4xx_StdPeriph_Driver/src/stm32f4xx_iwdg.c **** /* Private typedef -----------------------------------------------------------*/
  94:/home/jonas/warwick/3dProfilometer/xpcc/ext/stm32f4xx_lib/STM32F4xx_StdPeriph_Driver/src/stm32f4xx_iwdg.c **** /* Private define ------------------------------------------------------------*/
  95:/home/jonas/warwick/3dProfilometer/xpcc/ext/stm32f4xx_lib/STM32F4xx_StdPeriph_Driver/src/stm32f4xx_iwdg.c **** 
  96:/home/jonas/warwick/3dProfilometer/xpcc/ext/stm32f4xx_lib/STM32F4xx_StdPeriph_Driver/src/stm32f4xx_iwdg.c **** /* KR register bit mask */
  97:/home/jonas/warwick/3dProfilometer/xpcc/ext/stm32f4xx_lib/STM32F4xx_StdPeriph_Driver/src/stm32f4xx_iwdg.c **** #define KR_KEY_RELOAD    ((uint16_t)0xAAAA)
  98:/home/jonas/warwick/3dProfilometer/xpcc/ext/stm32f4xx_lib/STM32F4xx_StdPeriph_Driver/src/stm32f4xx_iwdg.c **** #define KR_KEY_ENABLE    ((uint16_t)0xCCCC)
  99:/home/jonas/warwick/3dProfilometer/xpcc/ext/stm32f4xx_lib/STM32F4xx_StdPeriph_Driver/src/stm32f4xx_iwdg.c **** 
 100:/home/jonas/warwick/3dProfilometer/xpcc/ext/stm32f4xx_lib/STM32F4xx_StdPeriph_Driver/src/stm32f4xx_iwdg.c **** /* Private macro -------------------------------------------------------------*/
 101:/home/jonas/warwick/3dProfilometer/xpcc/ext/stm32f4xx_lib/STM32F4xx_StdPeriph_Driver/src/stm32f4xx_iwdg.c **** /* Private variables ---------------------------------------------------------*/
 102:/home/jonas/warwick/3dProfilometer/xpcc/ext/stm32f4xx_lib/STM32F4xx_StdPeriph_Driver/src/stm32f4xx_iwdg.c **** /* Private function prototypes -----------------------------------------------*/
 103:/home/jonas/warwick/3dProfilometer/xpcc/ext/stm32f4xx_lib/STM32F4xx_StdPeriph_Driver/src/stm32f4xx_iwdg.c **** /* Private functions ---------------------------------------------------------*/
 104:/home/jonas/warwick/3dProfilometer/xpcc/ext/stm32f4xx_lib/STM32F4xx_StdPeriph_Driver/src/stm32f4xx_iwdg.c **** 
 105:/home/jonas/warwick/3dProfilometer/xpcc/ext/stm32f4xx_lib/STM32F4xx_StdPeriph_Driver/src/stm32f4xx_iwdg.c **** /** @defgroup IWDG_Private_Functions
 106:/home/jonas/warwick/3dProfilometer/xpcc/ext/stm32f4xx_lib/STM32F4xx_StdPeriph_Driver/src/stm32f4xx_iwdg.c ****   * @{
 107:/home/jonas/warwick/3dProfilometer/xpcc/ext/stm32f4xx_lib/STM32F4xx_StdPeriph_Driver/src/stm32f4xx_iwdg.c ****   */
 108:/home/jonas/warwick/3dProfilometer/xpcc/ext/stm32f4xx_lib/STM32F4xx_StdPeriph_Driver/src/stm32f4xx_iwdg.c **** 
 109:/home/jonas/warwick/3dProfilometer/xpcc/ext/stm32f4xx_lib/STM32F4xx_StdPeriph_Driver/src/stm32f4xx_iwdg.c **** /** @defgroup IWDG_Group1 Prescaler and Counter configuration functions
 110:/home/jonas/warwick/3dProfilometer/xpcc/ext/stm32f4xx_lib/STM32F4xx_StdPeriph_Driver/src/stm32f4xx_iwdg.c ****  *  @brief   Prescaler and Counter configuration functions
 111:/home/jonas/warwick/3dProfilometer/xpcc/ext/stm32f4xx_lib/STM32F4xx_StdPeriph_Driver/src/stm32f4xx_iwdg.c ****  *
 112:/home/jonas/warwick/3dProfilometer/xpcc/ext/stm32f4xx_lib/STM32F4xx_StdPeriph_Driver/src/stm32f4xx_iwdg.c **** @verbatim   
 113:/home/jonas/warwick/3dProfilometer/xpcc/ext/stm32f4xx_lib/STM32F4xx_StdPeriph_Driver/src/stm32f4xx_iwdg.c ****  ===============================================================================
 114:/home/jonas/warwick/3dProfilometer/xpcc/ext/stm32f4xx_lib/STM32F4xx_StdPeriph_Driver/src/stm32f4xx_iwdg.c ****                   Prescaler and Counter configuration functions
 115:/home/jonas/warwick/3dProfilometer/xpcc/ext/stm32f4xx_lib/STM32F4xx_StdPeriph_Driver/src/stm32f4xx_iwdg.c ****  ===============================================================================  
 116:/home/jonas/warwick/3dProfilometer/xpcc/ext/stm32f4xx_lib/STM32F4xx_StdPeriph_Driver/src/stm32f4xx_iwdg.c **** 
 117:/home/jonas/warwick/3dProfilometer/xpcc/ext/stm32f4xx_lib/STM32F4xx_StdPeriph_Driver/src/stm32f4xx_iwdg.c **** @endverbatim
 118:/home/jonas/warwick/3dProfilometer/xpcc/ext/stm32f4xx_lib/STM32F4xx_StdPeriph_Driver/src/stm32f4xx_iwdg.c ****   * @{
 119:/home/jonas/warwick/3dProfilometer/xpcc/ext/stm32f4xx_lib/STM32F4xx_StdPeriph_Driver/src/stm32f4xx_iwdg.c ****   */
 120:/home/jonas/warwick/3dProfilometer/xpcc/ext/stm32f4xx_lib/STM32F4xx_StdPeriph_Driver/src/stm32f4xx_iwdg.c **** 
 121:/home/jonas/warwick/3dProfilometer/xpcc/ext/stm32f4xx_lib/STM32F4xx_StdPeriph_Driver/src/stm32f4xx_iwdg.c **** /**
 122:/home/jonas/warwick/3dProfilometer/xpcc/ext/stm32f4xx_lib/STM32F4xx_StdPeriph_Driver/src/stm32f4xx_iwdg.c ****   * @brief  Enables or disables write access to IWDG_PR and IWDG_RLR registers.
 123:/home/jonas/warwick/3dProfilometer/xpcc/ext/stm32f4xx_lib/STM32F4xx_StdPeriph_Driver/src/stm32f4xx_iwdg.c ****   * @param  IWDG_WriteAccess: new state of write access to IWDG_PR and IWDG_RLR registers.
 124:/home/jonas/warwick/3dProfilometer/xpcc/ext/stm32f4xx_lib/STM32F4xx_StdPeriph_Driver/src/stm32f4xx_iwdg.c ****   *          This parameter can be one of the following values:
 125:/home/jonas/warwick/3dProfilometer/xpcc/ext/stm32f4xx_lib/STM32F4xx_StdPeriph_Driver/src/stm32f4xx_iwdg.c ****   *            @arg IWDG_WriteAccess_Enable: Enable write access to IWDG_PR and IWDG_RLR registers
 126:/home/jonas/warwick/3dProfilometer/xpcc/ext/stm32f4xx_lib/STM32F4xx_StdPeriph_Driver/src/stm32f4xx_iwdg.c ****   *            @arg IWDG_WriteAccess_Disable: Disable write access to IWDG_PR and IWDG_RLR register
 127:/home/jonas/warwick/3dProfilometer/xpcc/ext/stm32f4xx_lib/STM32F4xx_StdPeriph_Driver/src/stm32f4xx_iwdg.c ****   * @retval None
 128:/home/jonas/warwick/3dProfilometer/xpcc/ext/stm32f4xx_lib/STM32F4xx_StdPeriph_Driver/src/stm32f4xx_iwdg.c ****   */
 129:/home/jonas/warwick/3dProfilometer/xpcc/ext/stm32f4xx_lib/STM32F4xx_StdPeriph_Driver/src/stm32f4xx_iwdg.c **** void IWDG_WriteAccessCmd(uint16_t IWDG_WriteAccess)
 130:/home/jonas/warwick/3dProfilometer/xpcc/ext/stm32f4xx_lib/STM32F4xx_StdPeriph_Driver/src/stm32f4xx_iwdg.c **** {
  28              		.loc 1 130 0
  29              		.cfi_startproc
  30              		@ args = 0, pretend = 0, frame = 0
  31              		@ frame_needed = 0, uses_anonymous_args = 0
  32              		@ link register save eliminated.
  33              	.LVL0:
 131:/home/jonas/warwick/3dProfilometer/xpcc/ext/stm32f4xx_lib/STM32F4xx_StdPeriph_Driver/src/stm32f4xx_iwdg.c ****   /* Check the parameters */
 132:/home/jonas/warwick/3dProfilometer/xpcc/ext/stm32f4xx_lib/STM32F4xx_StdPeriph_Driver/src/stm32f4xx_iwdg.c ****   assert_param(IS_IWDG_WRITE_ACCESS(IWDG_WriteAccess));
 133:/home/jonas/warwick/3dProfilometer/xpcc/ext/stm32f4xx_lib/STM32F4xx_StdPeriph_Driver/src/stm32f4xx_iwdg.c ****   IWDG->KR = IWDG_WriteAccess;
  34              		.loc 1 133 0
  35 0000 014B     		ldr	r3, .L2
  36 0002 1860     		str	r0, [r3, #0]
  37 0004 7047     		bx	lr
  38              	.L3:
  39 0006 00BF     		.align	2
  40              	.L2:
  41 0008 00300040 		.word	1073754112
  42              		.cfi_endproc
  43              	.LFE110:
  45              		.section	.text.IWDG_SetPrescaler,"ax",%progbits
  46              		.align	2
  47              		.global	IWDG_SetPrescaler
  48              		.thumb
  49              		.thumb_func
  51              	IWDG_SetPrescaler:
  52              	.LFB111:
 134:/home/jonas/warwick/3dProfilometer/xpcc/ext/stm32f4xx_lib/STM32F4xx_StdPeriph_Driver/src/stm32f4xx_iwdg.c **** }
 135:/home/jonas/warwick/3dProfilometer/xpcc/ext/stm32f4xx_lib/STM32F4xx_StdPeriph_Driver/src/stm32f4xx_iwdg.c **** 
 136:/home/jonas/warwick/3dProfilometer/xpcc/ext/stm32f4xx_lib/STM32F4xx_StdPeriph_Driver/src/stm32f4xx_iwdg.c **** /**
 137:/home/jonas/warwick/3dProfilometer/xpcc/ext/stm32f4xx_lib/STM32F4xx_StdPeriph_Driver/src/stm32f4xx_iwdg.c ****   * @brief  Sets IWDG Prescaler value.
 138:/home/jonas/warwick/3dProfilometer/xpcc/ext/stm32f4xx_lib/STM32F4xx_StdPeriph_Driver/src/stm32f4xx_iwdg.c ****   * @param  IWDG_Prescaler: specifies the IWDG Prescaler value.
 139:/home/jonas/warwick/3dProfilometer/xpcc/ext/stm32f4xx_lib/STM32F4xx_StdPeriph_Driver/src/stm32f4xx_iwdg.c ****   *          This parameter can be one of the following values:
 140:/home/jonas/warwick/3dProfilometer/xpcc/ext/stm32f4xx_lib/STM32F4xx_StdPeriph_Driver/src/stm32f4xx_iwdg.c ****   *            @arg IWDG_Prescaler_4: IWDG prescaler set to 4
 141:/home/jonas/warwick/3dProfilometer/xpcc/ext/stm32f4xx_lib/STM32F4xx_StdPeriph_Driver/src/stm32f4xx_iwdg.c ****   *            @arg IWDG_Prescaler_8: IWDG prescaler set to 8
 142:/home/jonas/warwick/3dProfilometer/xpcc/ext/stm32f4xx_lib/STM32F4xx_StdPeriph_Driver/src/stm32f4xx_iwdg.c ****   *            @arg IWDG_Prescaler_16: IWDG prescaler set to 16
 143:/home/jonas/warwick/3dProfilometer/xpcc/ext/stm32f4xx_lib/STM32F4xx_StdPeriph_Driver/src/stm32f4xx_iwdg.c ****   *            @arg IWDG_Prescaler_32: IWDG prescaler set to 32
 144:/home/jonas/warwick/3dProfilometer/xpcc/ext/stm32f4xx_lib/STM32F4xx_StdPeriph_Driver/src/stm32f4xx_iwdg.c ****   *            @arg IWDG_Prescaler_64: IWDG prescaler set to 64
 145:/home/jonas/warwick/3dProfilometer/xpcc/ext/stm32f4xx_lib/STM32F4xx_StdPeriph_Driver/src/stm32f4xx_iwdg.c ****   *            @arg IWDG_Prescaler_128: IWDG prescaler set to 128
 146:/home/jonas/warwick/3dProfilometer/xpcc/ext/stm32f4xx_lib/STM32F4xx_StdPeriph_Driver/src/stm32f4xx_iwdg.c ****   *            @arg IWDG_Prescaler_256: IWDG prescaler set to 256
 147:/home/jonas/warwick/3dProfilometer/xpcc/ext/stm32f4xx_lib/STM32F4xx_StdPeriph_Driver/src/stm32f4xx_iwdg.c ****   * @retval None
 148:/home/jonas/warwick/3dProfilometer/xpcc/ext/stm32f4xx_lib/STM32F4xx_StdPeriph_Driver/src/stm32f4xx_iwdg.c ****   */
 149:/home/jonas/warwick/3dProfilometer/xpcc/ext/stm32f4xx_lib/STM32F4xx_StdPeriph_Driver/src/stm32f4xx_iwdg.c **** void IWDG_SetPrescaler(uint8_t IWDG_Prescaler)
 150:/home/jonas/warwick/3dProfilometer/xpcc/ext/stm32f4xx_lib/STM32F4xx_StdPeriph_Driver/src/stm32f4xx_iwdg.c **** {
  53              		.loc 1 150 0
  54              		.cfi_startproc
  55              		@ args = 0, pretend = 0, frame = 0
  56              		@ frame_needed = 0, uses_anonymous_args = 0
  57              		@ link register save eliminated.
  58              	.LVL1:
 151:/home/jonas/warwick/3dProfilometer/xpcc/ext/stm32f4xx_lib/STM32F4xx_StdPeriph_Driver/src/stm32f4xx_iwdg.c ****   /* Check the parameters */
 152:/home/jonas/warwick/3dProfilometer/xpcc/ext/stm32f4xx_lib/STM32F4xx_StdPeriph_Driver/src/stm32f4xx_iwdg.c ****   assert_param(IS_IWDG_PRESCALER(IWDG_Prescaler));
 153:/home/jonas/warwick/3dProfilometer/xpcc/ext/stm32f4xx_lib/STM32F4xx_StdPeriph_Driver/src/stm32f4xx_iwdg.c ****   IWDG->PR = IWDG_Prescaler;
  59              		.loc 1 153 0
  60 0000 014B     		ldr	r3, .L5
  61 0002 5860     		str	r0, [r3, #4]
  62 0004 7047     		bx	lr
  63              	.L6:
  64 0006 00BF     		.align	2
  65              	.L5:
  66 0008 00300040 		.word	1073754112
  67              		.cfi_endproc
  68              	.LFE111:
  70              		.section	.text.IWDG_SetReload,"ax",%progbits
  71              		.align	2
  72              		.global	IWDG_SetReload
  73              		.thumb
  74              		.thumb_func
  76              	IWDG_SetReload:
  77              	.LFB112:
 154:/home/jonas/warwick/3dProfilometer/xpcc/ext/stm32f4xx_lib/STM32F4xx_StdPeriph_Driver/src/stm32f4xx_iwdg.c **** }
 155:/home/jonas/warwick/3dProfilometer/xpcc/ext/stm32f4xx_lib/STM32F4xx_StdPeriph_Driver/src/stm32f4xx_iwdg.c **** 
 156:/home/jonas/warwick/3dProfilometer/xpcc/ext/stm32f4xx_lib/STM32F4xx_StdPeriph_Driver/src/stm32f4xx_iwdg.c **** /**
 157:/home/jonas/warwick/3dProfilometer/xpcc/ext/stm32f4xx_lib/STM32F4xx_StdPeriph_Driver/src/stm32f4xx_iwdg.c ****   * @brief  Sets IWDG Reload value.
 158:/home/jonas/warwick/3dProfilometer/xpcc/ext/stm32f4xx_lib/STM32F4xx_StdPeriph_Driver/src/stm32f4xx_iwdg.c ****   * @param  Reload: specifies the IWDG Reload value.
 159:/home/jonas/warwick/3dProfilometer/xpcc/ext/stm32f4xx_lib/STM32F4xx_StdPeriph_Driver/src/stm32f4xx_iwdg.c ****   *          This parameter must be a number between 0 and 0x0FFF.
 160:/home/jonas/warwick/3dProfilometer/xpcc/ext/stm32f4xx_lib/STM32F4xx_StdPeriph_Driver/src/stm32f4xx_iwdg.c ****   * @retval None
 161:/home/jonas/warwick/3dProfilometer/xpcc/ext/stm32f4xx_lib/STM32F4xx_StdPeriph_Driver/src/stm32f4xx_iwdg.c ****   */
 162:/home/jonas/warwick/3dProfilometer/xpcc/ext/stm32f4xx_lib/STM32F4xx_StdPeriph_Driver/src/stm32f4xx_iwdg.c **** void IWDG_SetReload(uint16_t Reload)
 163:/home/jonas/warwick/3dProfilometer/xpcc/ext/stm32f4xx_lib/STM32F4xx_StdPeriph_Driver/src/stm32f4xx_iwdg.c **** {
  78              		.loc 1 163 0
  79              		.cfi_startproc
  80              		@ args = 0, pretend = 0, frame = 0
  81              		@ frame_needed = 0, uses_anonymous_args = 0
  82              		@ link register save eliminated.
  83              	.LVL2:
 164:/home/jonas/warwick/3dProfilometer/xpcc/ext/stm32f4xx_lib/STM32F4xx_StdPeriph_Driver/src/stm32f4xx_iwdg.c ****   /* Check the parameters */
 165:/home/jonas/warwick/3dProfilometer/xpcc/ext/stm32f4xx_lib/STM32F4xx_StdPeriph_Driver/src/stm32f4xx_iwdg.c ****   assert_param(IS_IWDG_RELOAD(Reload));
 166:/home/jonas/warwick/3dProfilometer/xpcc/ext/stm32f4xx_lib/STM32F4xx_StdPeriph_Driver/src/stm32f4xx_iwdg.c ****   IWDG->RLR = Reload;
  84              		.loc 1 166 0
  85 0000 014B     		ldr	r3, .L8
  86 0002 9860     		str	r0, [r3, #8]
  87 0004 7047     		bx	lr
  88              	.L9:
  89 0006 00BF     		.align	2
  90              	.L8:
  91 0008 00300040 		.word	1073754112
  92              		.cfi_endproc
  93              	.LFE112:
  95              		.section	.text.IWDG_ReloadCounter,"ax",%progbits
  96              		.align	2
  97              		.global	IWDG_ReloadCounter
  98              		.thumb
  99              		.thumb_func
 101              	IWDG_ReloadCounter:
 102              	.LFB113:
 167:/home/jonas/warwick/3dProfilometer/xpcc/ext/stm32f4xx_lib/STM32F4xx_StdPeriph_Driver/src/stm32f4xx_iwdg.c **** }
 168:/home/jonas/warwick/3dProfilometer/xpcc/ext/stm32f4xx_lib/STM32F4xx_StdPeriph_Driver/src/stm32f4xx_iwdg.c **** 
 169:/home/jonas/warwick/3dProfilometer/xpcc/ext/stm32f4xx_lib/STM32F4xx_StdPeriph_Driver/src/stm32f4xx_iwdg.c **** /**
 170:/home/jonas/warwick/3dProfilometer/xpcc/ext/stm32f4xx_lib/STM32F4xx_StdPeriph_Driver/src/stm32f4xx_iwdg.c ****   * @brief  Reloads IWDG counter with value defined in the reload register
 171:/home/jonas/warwick/3dProfilometer/xpcc/ext/stm32f4xx_lib/STM32F4xx_StdPeriph_Driver/src/stm32f4xx_iwdg.c ****   *         (write access to IWDG_PR and IWDG_RLR registers disabled).
 172:/home/jonas/warwick/3dProfilometer/xpcc/ext/stm32f4xx_lib/STM32F4xx_StdPeriph_Driver/src/stm32f4xx_iwdg.c ****   * @param  None
 173:/home/jonas/warwick/3dProfilometer/xpcc/ext/stm32f4xx_lib/STM32F4xx_StdPeriph_Driver/src/stm32f4xx_iwdg.c ****   * @retval None
 174:/home/jonas/warwick/3dProfilometer/xpcc/ext/stm32f4xx_lib/STM32F4xx_StdPeriph_Driver/src/stm32f4xx_iwdg.c ****   */
 175:/home/jonas/warwick/3dProfilometer/xpcc/ext/stm32f4xx_lib/STM32F4xx_StdPeriph_Driver/src/stm32f4xx_iwdg.c **** void IWDG_ReloadCounter(void)
 176:/home/jonas/warwick/3dProfilometer/xpcc/ext/stm32f4xx_lib/STM32F4xx_StdPeriph_Driver/src/stm32f4xx_iwdg.c **** {
 103              		.loc 1 176 0
 104              		.cfi_startproc
 105              		@ args = 0, pretend = 0, frame = 0
 106              		@ frame_needed = 0, uses_anonymous_args = 0
 107              		@ link register save eliminated.
 177:/home/jonas/warwick/3dProfilometer/xpcc/ext/stm32f4xx_lib/STM32F4xx_StdPeriph_Driver/src/stm32f4xx_iwdg.c ****   IWDG->KR = KR_KEY_RELOAD;
 108              		.loc 1 177 0
 109 0000 024B     		ldr	r3, .L11
 110 0002 4AF6AA22 		movw	r2, #43690
 111 0006 1A60     		str	r2, [r3, #0]
 112 0008 7047     		bx	lr
 113              	.L12:
 114 000a 00BF     		.align	2
 115              	.L11:
 116 000c 00300040 		.word	1073754112
 117              		.cfi_endproc
 118              	.LFE113:
 120              		.section	.text.IWDG_Enable,"ax",%progbits
 121              		.align	2
 122              		.global	IWDG_Enable
 123              		.thumb
 124              		.thumb_func
 126              	IWDG_Enable:
 127              	.LFB114:
 178:/home/jonas/warwick/3dProfilometer/xpcc/ext/stm32f4xx_lib/STM32F4xx_StdPeriph_Driver/src/stm32f4xx_iwdg.c **** }
 179:/home/jonas/warwick/3dProfilometer/xpcc/ext/stm32f4xx_lib/STM32F4xx_StdPeriph_Driver/src/stm32f4xx_iwdg.c **** 
 180:/home/jonas/warwick/3dProfilometer/xpcc/ext/stm32f4xx_lib/STM32F4xx_StdPeriph_Driver/src/stm32f4xx_iwdg.c **** /**
 181:/home/jonas/warwick/3dProfilometer/xpcc/ext/stm32f4xx_lib/STM32F4xx_StdPeriph_Driver/src/stm32f4xx_iwdg.c ****   * @}
 182:/home/jonas/warwick/3dProfilometer/xpcc/ext/stm32f4xx_lib/STM32F4xx_StdPeriph_Driver/src/stm32f4xx_iwdg.c ****   */
 183:/home/jonas/warwick/3dProfilometer/xpcc/ext/stm32f4xx_lib/STM32F4xx_StdPeriph_Driver/src/stm32f4xx_iwdg.c **** 
 184:/home/jonas/warwick/3dProfilometer/xpcc/ext/stm32f4xx_lib/STM32F4xx_StdPeriph_Driver/src/stm32f4xx_iwdg.c **** /** @defgroup IWDG_Group2 IWDG activation function
 185:/home/jonas/warwick/3dProfilometer/xpcc/ext/stm32f4xx_lib/STM32F4xx_StdPeriph_Driver/src/stm32f4xx_iwdg.c ****  *  @brief   IWDG activation function 
 186:/home/jonas/warwick/3dProfilometer/xpcc/ext/stm32f4xx_lib/STM32F4xx_StdPeriph_Driver/src/stm32f4xx_iwdg.c ****  *
 187:/home/jonas/warwick/3dProfilometer/xpcc/ext/stm32f4xx_lib/STM32F4xx_StdPeriph_Driver/src/stm32f4xx_iwdg.c **** @verbatim   
 188:/home/jonas/warwick/3dProfilometer/xpcc/ext/stm32f4xx_lib/STM32F4xx_StdPeriph_Driver/src/stm32f4xx_iwdg.c ****  ===============================================================================
 189:/home/jonas/warwick/3dProfilometer/xpcc/ext/stm32f4xx_lib/STM32F4xx_StdPeriph_Driver/src/stm32f4xx_iwdg.c ****                           IWDG activation function
 190:/home/jonas/warwick/3dProfilometer/xpcc/ext/stm32f4xx_lib/STM32F4xx_StdPeriph_Driver/src/stm32f4xx_iwdg.c ****  ===============================================================================  
 191:/home/jonas/warwick/3dProfilometer/xpcc/ext/stm32f4xx_lib/STM32F4xx_StdPeriph_Driver/src/stm32f4xx_iwdg.c **** 
 192:/home/jonas/warwick/3dProfilometer/xpcc/ext/stm32f4xx_lib/STM32F4xx_StdPeriph_Driver/src/stm32f4xx_iwdg.c **** @endverbatim
 193:/home/jonas/warwick/3dProfilometer/xpcc/ext/stm32f4xx_lib/STM32F4xx_StdPeriph_Driver/src/stm32f4xx_iwdg.c ****   * @{
 194:/home/jonas/warwick/3dProfilometer/xpcc/ext/stm32f4xx_lib/STM32F4xx_StdPeriph_Driver/src/stm32f4xx_iwdg.c ****   */
 195:/home/jonas/warwick/3dProfilometer/xpcc/ext/stm32f4xx_lib/STM32F4xx_StdPeriph_Driver/src/stm32f4xx_iwdg.c **** 
 196:/home/jonas/warwick/3dProfilometer/xpcc/ext/stm32f4xx_lib/STM32F4xx_StdPeriph_Driver/src/stm32f4xx_iwdg.c **** /**
 197:/home/jonas/warwick/3dProfilometer/xpcc/ext/stm32f4xx_lib/STM32F4xx_StdPeriph_Driver/src/stm32f4xx_iwdg.c ****   * @brief  Enables IWDG (write access to IWDG_PR and IWDG_RLR registers disabled).
 198:/home/jonas/warwick/3dProfilometer/xpcc/ext/stm32f4xx_lib/STM32F4xx_StdPeriph_Driver/src/stm32f4xx_iwdg.c ****   * @param  None
 199:/home/jonas/warwick/3dProfilometer/xpcc/ext/stm32f4xx_lib/STM32F4xx_StdPeriph_Driver/src/stm32f4xx_iwdg.c ****   * @retval None
 200:/home/jonas/warwick/3dProfilometer/xpcc/ext/stm32f4xx_lib/STM32F4xx_StdPeriph_Driver/src/stm32f4xx_iwdg.c ****   */
 201:/home/jonas/warwick/3dProfilometer/xpcc/ext/stm32f4xx_lib/STM32F4xx_StdPeriph_Driver/src/stm32f4xx_iwdg.c **** void IWDG_Enable(void)
 202:/home/jonas/warwick/3dProfilometer/xpcc/ext/stm32f4xx_lib/STM32F4xx_StdPeriph_Driver/src/stm32f4xx_iwdg.c **** {
 128              		.loc 1 202 0
 129              		.cfi_startproc
 130              		@ args = 0, pretend = 0, frame = 0
 131              		@ frame_needed = 0, uses_anonymous_args = 0
 132              		@ link register save eliminated.
 203:/home/jonas/warwick/3dProfilometer/xpcc/ext/stm32f4xx_lib/STM32F4xx_StdPeriph_Driver/src/stm32f4xx_iwdg.c ****   IWDG->KR = KR_KEY_ENABLE;
 133              		.loc 1 203 0
 134 0000 024B     		ldr	r3, .L14
 135 0002 4CF6CC42 		movw	r2, #52428
 136 0006 1A60     		str	r2, [r3, #0]
 137 0008 7047     		bx	lr
 138              	.L15:
 139 000a 00BF     		.align	2
 140              	.L14:
 141 000c 00300040 		.word	1073754112
 142              		.cfi_endproc
 143              	.LFE114:
 145              		.section	.text.IWDG_GetFlagStatus,"ax",%progbits
 146              		.align	2
 147              		.global	IWDG_GetFlagStatus
 148              		.thumb
 149              		.thumb_func
 151              	IWDG_GetFlagStatus:
 152              	.LFB115:
 204:/home/jonas/warwick/3dProfilometer/xpcc/ext/stm32f4xx_lib/STM32F4xx_StdPeriph_Driver/src/stm32f4xx_iwdg.c **** }
 205:/home/jonas/warwick/3dProfilometer/xpcc/ext/stm32f4xx_lib/STM32F4xx_StdPeriph_Driver/src/stm32f4xx_iwdg.c **** 
 206:/home/jonas/warwick/3dProfilometer/xpcc/ext/stm32f4xx_lib/STM32F4xx_StdPeriph_Driver/src/stm32f4xx_iwdg.c **** /**
 207:/home/jonas/warwick/3dProfilometer/xpcc/ext/stm32f4xx_lib/STM32F4xx_StdPeriph_Driver/src/stm32f4xx_iwdg.c ****   * @}
 208:/home/jonas/warwick/3dProfilometer/xpcc/ext/stm32f4xx_lib/STM32F4xx_StdPeriph_Driver/src/stm32f4xx_iwdg.c ****   */
 209:/home/jonas/warwick/3dProfilometer/xpcc/ext/stm32f4xx_lib/STM32F4xx_StdPeriph_Driver/src/stm32f4xx_iwdg.c **** 
 210:/home/jonas/warwick/3dProfilometer/xpcc/ext/stm32f4xx_lib/STM32F4xx_StdPeriph_Driver/src/stm32f4xx_iwdg.c **** /** @defgroup IWDG_Group3 Flag management function 
 211:/home/jonas/warwick/3dProfilometer/xpcc/ext/stm32f4xx_lib/STM32F4xx_StdPeriph_Driver/src/stm32f4xx_iwdg.c ****  *  @brief  Flag management function  
 212:/home/jonas/warwick/3dProfilometer/xpcc/ext/stm32f4xx_lib/STM32F4xx_StdPeriph_Driver/src/stm32f4xx_iwdg.c ****  *
 213:/home/jonas/warwick/3dProfilometer/xpcc/ext/stm32f4xx_lib/STM32F4xx_StdPeriph_Driver/src/stm32f4xx_iwdg.c **** @verbatim   
 214:/home/jonas/warwick/3dProfilometer/xpcc/ext/stm32f4xx_lib/STM32F4xx_StdPeriph_Driver/src/stm32f4xx_iwdg.c ****  ===============================================================================
 215:/home/jonas/warwick/3dProfilometer/xpcc/ext/stm32f4xx_lib/STM32F4xx_StdPeriph_Driver/src/stm32f4xx_iwdg.c ****                             Flag management function 
 216:/home/jonas/warwick/3dProfilometer/xpcc/ext/stm32f4xx_lib/STM32F4xx_StdPeriph_Driver/src/stm32f4xx_iwdg.c ****  ===============================================================================  
 217:/home/jonas/warwick/3dProfilometer/xpcc/ext/stm32f4xx_lib/STM32F4xx_StdPeriph_Driver/src/stm32f4xx_iwdg.c **** 
 218:/home/jonas/warwick/3dProfilometer/xpcc/ext/stm32f4xx_lib/STM32F4xx_StdPeriph_Driver/src/stm32f4xx_iwdg.c **** @endverbatim
 219:/home/jonas/warwick/3dProfilometer/xpcc/ext/stm32f4xx_lib/STM32F4xx_StdPeriph_Driver/src/stm32f4xx_iwdg.c ****   * @{
 220:/home/jonas/warwick/3dProfilometer/xpcc/ext/stm32f4xx_lib/STM32F4xx_StdPeriph_Driver/src/stm32f4xx_iwdg.c ****   */
 221:/home/jonas/warwick/3dProfilometer/xpcc/ext/stm32f4xx_lib/STM32F4xx_StdPeriph_Driver/src/stm32f4xx_iwdg.c **** 
 222:/home/jonas/warwick/3dProfilometer/xpcc/ext/stm32f4xx_lib/STM32F4xx_StdPeriph_Driver/src/stm32f4xx_iwdg.c **** /**
 223:/home/jonas/warwick/3dProfilometer/xpcc/ext/stm32f4xx_lib/STM32F4xx_StdPeriph_Driver/src/stm32f4xx_iwdg.c ****   * @brief  Checks whether the specified IWDG flag is set or not.
 224:/home/jonas/warwick/3dProfilometer/xpcc/ext/stm32f4xx_lib/STM32F4xx_StdPeriph_Driver/src/stm32f4xx_iwdg.c ****   * @param  IWDG_FLAG: specifies the flag to check.
 225:/home/jonas/warwick/3dProfilometer/xpcc/ext/stm32f4xx_lib/STM32F4xx_StdPeriph_Driver/src/stm32f4xx_iwdg.c ****   *          This parameter can be one of the following values:
 226:/home/jonas/warwick/3dProfilometer/xpcc/ext/stm32f4xx_lib/STM32F4xx_StdPeriph_Driver/src/stm32f4xx_iwdg.c ****   *            @arg IWDG_FLAG_PVU: Prescaler Value Update on going
 227:/home/jonas/warwick/3dProfilometer/xpcc/ext/stm32f4xx_lib/STM32F4xx_StdPeriph_Driver/src/stm32f4xx_iwdg.c ****   *            @arg IWDG_FLAG_RVU: Reload Value Update on going
 228:/home/jonas/warwick/3dProfilometer/xpcc/ext/stm32f4xx_lib/STM32F4xx_StdPeriph_Driver/src/stm32f4xx_iwdg.c ****   * @retval The new state of IWDG_FLAG (SET or RESET).
 229:/home/jonas/warwick/3dProfilometer/xpcc/ext/stm32f4xx_lib/STM32F4xx_StdPeriph_Driver/src/stm32f4xx_iwdg.c ****   */
 230:/home/jonas/warwick/3dProfilometer/xpcc/ext/stm32f4xx_lib/STM32F4xx_StdPeriph_Driver/src/stm32f4xx_iwdg.c **** FlagStatus IWDG_GetFlagStatus(uint16_t IWDG_FLAG)
 231:/home/jonas/warwick/3dProfilometer/xpcc/ext/stm32f4xx_lib/STM32F4xx_StdPeriph_Driver/src/stm32f4xx_iwdg.c **** {
 153              		.loc 1 231 0
 154              		.cfi_startproc
 155              		@ args = 0, pretend = 0, frame = 0
 156              		@ frame_needed = 0, uses_anonymous_args = 0
 157              		@ link register save eliminated.
 158              	.LVL3:
 232:/home/jonas/warwick/3dProfilometer/xpcc/ext/stm32f4xx_lib/STM32F4xx_StdPeriph_Driver/src/stm32f4xx_iwdg.c ****   FlagStatus bitstatus = RESET;
 233:/home/jonas/warwick/3dProfilometer/xpcc/ext/stm32f4xx_lib/STM32F4xx_StdPeriph_Driver/src/stm32f4xx_iwdg.c ****   /* Check the parameters */
 234:/home/jonas/warwick/3dProfilometer/xpcc/ext/stm32f4xx_lib/STM32F4xx_StdPeriph_Driver/src/stm32f4xx_iwdg.c ****   assert_param(IS_IWDG_FLAG(IWDG_FLAG));
 235:/home/jonas/warwick/3dProfilometer/xpcc/ext/stm32f4xx_lib/STM32F4xx_StdPeriph_Driver/src/stm32f4xx_iwdg.c ****   if ((IWDG->SR & IWDG_FLAG) != (uint32_t)RESET)
 159              		.loc 1 235 0
 160 0000 034B     		ldr	r3, .L17
 161 0002 DB68     		ldr	r3, [r3, #12]
 162              	.LVL4:
 163 0004 1842     		tst	r0, r3
 236:/home/jonas/warwick/3dProfilometer/xpcc/ext/stm32f4xx_lib/STM32F4xx_StdPeriph_Driver/src/stm32f4xx_iwdg.c ****   {
 237:/home/jonas/warwick/3dProfilometer/xpcc/ext/stm32f4xx_lib/STM32F4xx_StdPeriph_Driver/src/stm32f4xx_iwdg.c ****     bitstatus = SET;
 238:/home/jonas/warwick/3dProfilometer/xpcc/ext/stm32f4xx_lib/STM32F4xx_StdPeriph_Driver/src/stm32f4xx_iwdg.c ****   }
 239:/home/jonas/warwick/3dProfilometer/xpcc/ext/stm32f4xx_lib/STM32F4xx_StdPeriph_Driver/src/stm32f4xx_iwdg.c ****   else
 240:/home/jonas/warwick/3dProfilometer/xpcc/ext/stm32f4xx_lib/STM32F4xx_StdPeriph_Driver/src/stm32f4xx_iwdg.c ****   {
 241:/home/jonas/warwick/3dProfilometer/xpcc/ext/stm32f4xx_lib/STM32F4xx_StdPeriph_Driver/src/stm32f4xx_iwdg.c ****     bitstatus = RESET;
 242:/home/jonas/warwick/3dProfilometer/xpcc/ext/stm32f4xx_lib/STM32F4xx_StdPeriph_Driver/src/stm32f4xx_iwdg.c ****   }
 243:/home/jonas/warwick/3dProfilometer/xpcc/ext/stm32f4xx_lib/STM32F4xx_StdPeriph_Driver/src/stm32f4xx_iwdg.c ****   /* Return the flag status */
 244:/home/jonas/warwick/3dProfilometer/xpcc/ext/stm32f4xx_lib/STM32F4xx_StdPeriph_Driver/src/stm32f4xx_iwdg.c ****   return bitstatus;
 245:/home/jonas/warwick/3dProfilometer/xpcc/ext/stm32f4xx_lib/STM32F4xx_StdPeriph_Driver/src/stm32f4xx_iwdg.c **** }
 164              		.loc 1 245 0
 165 0006 0CBF     		ite	eq
 166 0008 0020     		moveq	r0, #0
 167 000a 0120     		movne	r0, #1
 168              	.LVL5:
 169 000c 7047     		bx	lr
 170              	.L18:
 171 000e 00BF     		.align	2
 172              	.L17:
 173 0010 00300040 		.word	1073754112
 174              		.cfi_endproc
 175              	.LFE115:
 177              		.text
 178              	.Letext0:
 179              		.file 2 "/opt/arm-2012.09/bin/../lib/gcc/arm-none-eabi/4.7.2/../../../../arm-none-eabi/include/std
 180              		.file 3 "/home/jonas/warwick/3dProfilometer/xpcc/ext/stm32f4xx_lib/CMSIS/Device/ST/STM32F4xx/Inclu
 181              		.file 4 "/home/jonas/warwick/3dProfilometer/xpcc/ext/stm32f4xx_lib/CMSIS/Include/core_cm4.h"