   1              		.syntax unified
   2              		.cpu cortex-m4
   3              		.eabi_attribute 27, 3
   4              		.fpu fpv4-sp-d16
   5              		.eabi_attribute 20, 1
   6              		.eabi_attribute 21, 1
   7              		.eabi_attribute 23, 3
   8              		.eabi_attribute 24, 1
   9              		.eabi_attribute 25, 1
  10              		.eabi_attribute 26, 1
  11              		.eabi_attribute 30, 2
  12              		.eabi_attribute 34, 1
  13              		.eabi_attribute 18, 4
  14              		.thumb
  15              		.file	"mutex.cpp"
  16              		.text
  17              	.Ltext0:
  18              		.cfi_sections	.debug_frame
  19              		.section	.text._ZN4xpcc4rtos5MutexC2Ev,"ax",%progbits
  20              		.align	2
  21              		.global	_ZN4xpcc4rtos5MutexC2Ev
  22              		.thumb
  23              		.thumb_func
  25              	_ZN4xpcc4rtos5MutexC2Ev:
  26              	.LFB9:
  27              		.file 1 "/home/jonas/warwick/3dProfilometer/xpcc/src/xpcc/workflow/rtos/freertos/mutex.cpp"
   1:/home/jonas/warwick/3dProfilometer/xpcc/src/xpcc/workflow/rtos/freertos/mutex.cpp **** // coding: utf-8
   2:/home/jonas/warwick/3dProfilometer/xpcc/src/xpcc/workflow/rtos/freertos/mutex.cpp **** // ----------------------------------------------------------------------------
   3:/home/jonas/warwick/3dProfilometer/xpcc/src/xpcc/workflow/rtos/freertos/mutex.cpp **** /* Copyright (c) 2011, Roboterclub Aachen e.V.
   4:/home/jonas/warwick/3dProfilometer/xpcc/src/xpcc/workflow/rtos/freertos/mutex.cpp ****  * All rights reserved.
   5:/home/jonas/warwick/3dProfilometer/xpcc/src/xpcc/workflow/rtos/freertos/mutex.cpp ****  *
   6:/home/jonas/warwick/3dProfilometer/xpcc/src/xpcc/workflow/rtos/freertos/mutex.cpp ****  * Redistribution and use in source and binary forms, with or without
   7:/home/jonas/warwick/3dProfilometer/xpcc/src/xpcc/workflow/rtos/freertos/mutex.cpp ****  * modification, are permitted provided that the following conditions are met:
   8:/home/jonas/warwick/3dProfilometer/xpcc/src/xpcc/workflow/rtos/freertos/mutex.cpp ****  *
   9:/home/jonas/warwick/3dProfilometer/xpcc/src/xpcc/workflow/rtos/freertos/mutex.cpp ****  *     * Redistributions of source code must retain the above copyright
  10:/home/jonas/warwick/3dProfilometer/xpcc/src/xpcc/workflow/rtos/freertos/mutex.cpp ****  *       notice, this list of conditions and the following disclaimer.
  11:/home/jonas/warwick/3dProfilometer/xpcc/src/xpcc/workflow/rtos/freertos/mutex.cpp ****  *     * Redistributions in binary form must reproduce the above copyright
  12:/home/jonas/warwick/3dProfilometer/xpcc/src/xpcc/workflow/rtos/freertos/mutex.cpp ****  *       notice, this list of conditions and the following disclaimer in the
  13:/home/jonas/warwick/3dProfilometer/xpcc/src/xpcc/workflow/rtos/freertos/mutex.cpp ****  *       documentation and/or other materials provided with the distribution.
  14:/home/jonas/warwick/3dProfilometer/xpcc/src/xpcc/workflow/rtos/freertos/mutex.cpp ****  *     * Neither the name of the Roboterclub Aachen e.V. nor the
  15:/home/jonas/warwick/3dProfilometer/xpcc/src/xpcc/workflow/rtos/freertos/mutex.cpp ****  *       names of its contributors may be used to endorse or promote products
  16:/home/jonas/warwick/3dProfilometer/xpcc/src/xpcc/workflow/rtos/freertos/mutex.cpp ****  *       derived from this software without specific prior written permission.
  17:/home/jonas/warwick/3dProfilometer/xpcc/src/xpcc/workflow/rtos/freertos/mutex.cpp ****  *
  18:/home/jonas/warwick/3dProfilometer/xpcc/src/xpcc/workflow/rtos/freertos/mutex.cpp ****  * THIS SOFTWARE IS PROVIDED BY ROBOTERCLUB AACHEN E.V. ''AS IS'' AND ANY
  19:/home/jonas/warwick/3dProfilometer/xpcc/src/xpcc/workflow/rtos/freertos/mutex.cpp ****  * EXPRESS OR IMPLIED WARRANTIES, INCLUDING, BUT NOT LIMITED TO, THE IMPLIED
  20:/home/jonas/warwick/3dProfilometer/xpcc/src/xpcc/workflow/rtos/freertos/mutex.cpp ****  * WARRANTIES OF MERCHANTABILITY AND FITNESS FOR A PARTICULAR PURPOSE ARE
  21:/home/jonas/warwick/3dProfilometer/xpcc/src/xpcc/workflow/rtos/freertos/mutex.cpp ****  * DISCLAIMED. IN NO EVENT SHALL ROBOTERCLUB AACHEN E.V. BE LIABLE FOR ANY
  22:/home/jonas/warwick/3dProfilometer/xpcc/src/xpcc/workflow/rtos/freertos/mutex.cpp ****  * DIRECT, INDIRECT, INCIDENTAL, SPECIAL, EXEMPLARY, OR CONSEQUENTIAL DAMAGES
  23:/home/jonas/warwick/3dProfilometer/xpcc/src/xpcc/workflow/rtos/freertos/mutex.cpp ****  * (INCLUDING, BUT NOT LIMITED TO, PROCUREMENT OF SUBSTITUTE GOODS OR SERVICES;
  24:/home/jonas/warwick/3dProfilometer/xpcc/src/xpcc/workflow/rtos/freertos/mutex.cpp ****  * LOSS OF USE, DATA, OR PROFITS; OR BUSINESS INTERRUPTION) HOWEVER CAUSED AND
  25:/home/jonas/warwick/3dProfilometer/xpcc/src/xpcc/workflow/rtos/freertos/mutex.cpp ****  * ON ANY THEORY OF LIABILITY, WHETHER IN CONTRACT, STRICT LIABILITY, OR TORT
  26:/home/jonas/warwick/3dProfilometer/xpcc/src/xpcc/workflow/rtos/freertos/mutex.cpp ****  * (INCLUDING NEGLIGENCE OR OTHERWISE) ARISING IN ANY WAY OUT OF THE USE OF
  27:/home/jonas/warwick/3dProfilometer/xpcc/src/xpcc/workflow/rtos/freertos/mutex.cpp ****  * THIS SOFTWARE, EVEN IF ADVISED OF THE POSSIBILITY OF SUCH DAMAGE.
  28:/home/jonas/warwick/3dProfilometer/xpcc/src/xpcc/workflow/rtos/freertos/mutex.cpp ****  */
  29:/home/jonas/warwick/3dProfilometer/xpcc/src/xpcc/workflow/rtos/freertos/mutex.cpp **** // ----------------------------------------------------------------------------
  30:/home/jonas/warwick/3dProfilometer/xpcc/src/xpcc/workflow/rtos/freertos/mutex.cpp **** 
  31:/home/jonas/warwick/3dProfilometer/xpcc/src/xpcc/workflow/rtos/freertos/mutex.cpp **** #include "../mutex.hpp"
  32:/home/jonas/warwick/3dProfilometer/xpcc/src/xpcc/workflow/rtos/freertos/mutex.cpp **** 
  33:/home/jonas/warwick/3dProfilometer/xpcc/src/xpcc/workflow/rtos/freertos/mutex.cpp **** // ----------------------------------------------------------------------------
  34:/home/jonas/warwick/3dProfilometer/xpcc/src/xpcc/workflow/rtos/freertos/mutex.cpp **** xpcc::rtos::Mutex::Mutex()
  28              		.loc 1 34 0
  29              		.cfi_startproc
  30              		@ args = 0, pretend = 0, frame = 0
  31              		@ frame_needed = 0, uses_anonymous_args = 0
  32              	.LVL0:
  33 0000 10B5     		push	{r4, lr}
  34              	.LCFI0:
  35              		.cfi_def_cfa_offset 8
  36              		.cfi_offset 4, -8
  37              		.cfi_offset 14, -4
  38              	.LBB2:
  35:/home/jonas/warwick/3dProfilometer/xpcc/src/xpcc/workflow/rtos/freertos/mutex.cpp **** {
  36:/home/jonas/warwick/3dProfilometer/xpcc/src/xpcc/workflow/rtos/freertos/mutex.cpp **** 	this->handle = xSemaphoreCreateMutex();
  39              		.loc 1 36 0
  40 0002 034B     		ldr	r3, .L2
  41              	.LBE2:
  34:/home/jonas/warwick/3dProfilometer/xpcc/src/xpcc/workflow/rtos/freertos/mutex.cpp **** xpcc::rtos::Mutex::Mutex()
  42              		.loc 1 34 0
  43 0004 0446     		mov	r4, r0
  44              	.LBB3:
  45              		.loc 1 36 0
  46 0006 9847     		blx	r3
  47              	.LVL1:
  48 0008 2060     		str	r0, [r4, #0]
  49              	.LBE3:
  37:/home/jonas/warwick/3dProfilometer/xpcc/src/xpcc/workflow/rtos/freertos/mutex.cpp **** }
  50              		.loc 1 37 0
  51 000a 2046     		mov	r0, r4
  52 000c 10BD     		pop	{r4, pc}
  53              	.L3:
  54 000e 00BF     		.align	2
  55              	.L2:
  56 0010 00000000 		.word	xQueueCreateMutex
  57              		.cfi_endproc
  58              	.LFE9:
  60              		.global	_ZN4xpcc4rtos5MutexC1Ev
  61              		.thumb_set _ZN4xpcc4rtos5MutexC1Ev,_ZN4xpcc4rtos5MutexC2Ev
  62              		.section	.text._ZN4xpcc4rtos5MutexD2Ev,"ax",%progbits
  63              		.align	2
  64              		.global	_ZN4xpcc4rtos5MutexD2Ev
  65              		.thumb
  66              		.thumb_func
  68              	_ZN4xpcc4rtos5MutexD2Ev:
  69              	.LFB12:
  38:/home/jonas/warwick/3dProfilometer/xpcc/src/xpcc/workflow/rtos/freertos/mutex.cpp **** 
  39:/home/jonas/warwick/3dProfilometer/xpcc/src/xpcc/workflow/rtos/freertos/mutex.cpp **** xpcc::rtos::Mutex::~Mutex()
  70              		.loc 1 39 0
  71              		.cfi_startproc
  72              		@ args = 0, pretend = 0, frame = 0
  73              		@ frame_needed = 0, uses_anonymous_args = 0
  74              	.LVL2:
  75 0000 10B5     		push	{r4, lr}
  76              	.LCFI1:
  77              		.cfi_def_cfa_offset 8
  78              		.cfi_offset 4, -8
  79              		.cfi_offset 14, -4
  80              	.LBB4:
  40:/home/jonas/warwick/3dProfilometer/xpcc/src/xpcc/workflow/rtos/freertos/mutex.cpp **** {
  41:/home/jonas/warwick/3dProfilometer/xpcc/src/xpcc/workflow/rtos/freertos/mutex.cpp **** 	vQueueDelete(this->handle);
  81              		.loc 1 41 0
  82 0002 034B     		ldr	r3, .L5
  83              	.LBE4:
  39:/home/jonas/warwick/3dProfilometer/xpcc/src/xpcc/workflow/rtos/freertos/mutex.cpp **** xpcc::rtos::Mutex::~Mutex()
  84              		.loc 1 39 0
  85 0004 0446     		mov	r4, r0
  86              	.LBB5:
  87              		.loc 1 41 0
  88 0006 0068     		ldr	r0, [r0, #0]
  89              	.LVL3:
  90 0008 9847     		blx	r3
  91              	.LVL4:
  92              	.LBE5:
  42:/home/jonas/warwick/3dProfilometer/xpcc/src/xpcc/workflow/rtos/freertos/mutex.cpp **** }
  93              		.loc 1 42 0
  94 000a 2046     		mov	r0, r4
  95 000c 10BD     		pop	{r4, pc}
  96              	.L6:
  97 000e 00BF     		.align	2
  98              	.L5:
  99 0010 00000000 		.word	vQueueDelete
 100              		.cfi_endproc
 101              	.LFE12:
 103              		.global	_ZN4xpcc4rtos5MutexD1Ev
 104              		.thumb_set _ZN4xpcc4rtos5MutexD1Ev,_ZN4xpcc4rtos5MutexD2Ev
 105              		.section	.text._ZN4xpcc4rtos5Mutex7acquireEm,"ax",%progbits
 106              		.align	2
 107              		.global	_ZN4xpcc4rtos5Mutex7acquireEm
 108              		.thumb
 109              		.thumb_func
 111              	_ZN4xpcc4rtos5Mutex7acquireEm:
 112              	.LFB14:
  43:/home/jonas/warwick/3dProfilometer/xpcc/src/xpcc/workflow/rtos/freertos/mutex.cpp **** 
  44:/home/jonas/warwick/3dProfilometer/xpcc/src/xpcc/workflow/rtos/freertos/mutex.cpp **** // ----------------------------------------------------------------------------
  45:/home/jonas/warwick/3dProfilometer/xpcc/src/xpcc/workflow/rtos/freertos/mutex.cpp **** bool
  46:/home/jonas/warwick/3dProfilometer/xpcc/src/xpcc/workflow/rtos/freertos/mutex.cpp **** xpcc::rtos::Mutex::acquire(portTickType timeout)
  47:/home/jonas/warwick/3dProfilometer/xpcc/src/xpcc/workflow/rtos/freertos/mutex.cpp **** {
 113              		.loc 1 47 0
 114              		.cfi_startproc
 115              		@ args = 0, pretend = 0, frame = 0
 116              		@ frame_needed = 0, uses_anonymous_args = 0
 117              	.LVL5:
 118 0000 0A46     		mov	r2, r1
  48:/home/jonas/warwick/3dProfilometer/xpcc/src/xpcc/workflow/rtos/freertos/mutex.cpp **** 	return (xSemaphoreTake(this->handle, timeout) == pdTRUE);
 119              		.loc 1 48 0
 120 0002 0021     		movs	r1, #0
 121              	.LVL6:
  47:/home/jonas/warwick/3dProfilometer/xpcc/src/xpcc/workflow/rtos/freertos/mutex.cpp **** {
 122              		.loc 1 47 0
 123 0004 10B5     		push	{r4, lr}
 124              	.LCFI2:
 125              		.cfi_def_cfa_offset 8
 126              		.cfi_offset 4, -8
 127              		.cfi_offset 14, -4
 128              		.loc 1 48 0
 129 0006 0B46     		mov	r3, r1
 130 0008 034C     		ldr	r4, .L8
 131 000a 0068     		ldr	r0, [r0, #0]
 132              	.LVL7:
 133 000c A047     		blx	r4
 134              	.LVL8:
  49:/home/jonas/warwick/3dProfilometer/xpcc/src/xpcc/workflow/rtos/freertos/mutex.cpp **** }
 135              		.loc 1 49 0
 136 000e 431E     		subs	r3, r0, #1
 137 0010 5842     		rsbs	r0, r3, #0
 138 0012 5841     		adcs	r0, r0, r3
 139 0014 10BD     		pop	{r4, pc}
 140              	.L9:
 141 0016 00BF     		.align	2
 142              	.L8:
 143 0018 00000000 		.word	xQueueGenericReceive
 144              		.cfi_endproc
 145              	.LFE14:
 147              		.section	.text._ZN4xpcc4rtos5Mutex7releaseEv,"ax",%progbits
 148              		.align	2
 149              		.global	_ZN4xpcc4rtos5Mutex7releaseEv
 150              		.thumb
 151              		.thumb_func
 153              	_ZN4xpcc4rtos5Mutex7releaseEv:
 154              	.LFB15:
  50:/home/jonas/warwick/3dProfilometer/xpcc/src/xpcc/workflow/rtos/freertos/mutex.cpp **** 
  51:/home/jonas/warwick/3dProfilometer/xpcc/src/xpcc/workflow/rtos/freertos/mutex.cpp **** void
  52:/home/jonas/warwick/3dProfilometer/xpcc/src/xpcc/workflow/rtos/freertos/mutex.cpp **** xpcc::rtos::Mutex::release()
  53:/home/jonas/warwick/3dProfilometer/xpcc/src/xpcc/workflow/rtos/freertos/mutex.cpp **** {
 155              		.loc 1 53 0
 156              		.cfi_startproc
 157              		@ args = 0, pretend = 0, frame = 0
 158              		@ frame_needed = 0, uses_anonymous_args = 0
 159              	.LVL9:
  54:/home/jonas/warwick/3dProfilometer/xpcc/src/xpcc/workflow/rtos/freertos/mutex.cpp **** 	xSemaphoreGive(this->handle);
 160              		.loc 1 54 0
 161 0000 0021     		movs	r1, #0
  53:/home/jonas/warwick/3dProfilometer/xpcc/src/xpcc/workflow/rtos/freertos/mutex.cpp **** {
 162              		.loc 1 53 0
 163 0002 10B5     		push	{r4, lr}
 164              	.LCFI3:
 165              		.cfi_def_cfa_offset 8
 166              		.cfi_offset 4, -8
 167              		.cfi_offset 14, -4
 168              		.loc 1 54 0
 169 0004 0A46     		mov	r2, r1
 170 0006 0B46     		mov	r3, r1
 171 0008 014C     		ldr	r4, .L11
 172 000a 0068     		ldr	r0, [r0, #0]
 173              	.LVL10:
 174 000c A047     		blx	r4
 175              	.LVL11:
 176 000e 10BD     		pop	{r4, pc}
 177              	.L12:
 178              		.align	2
 179              	.L11:
 180 0010 00000000 		.word	xQueueGenericSend
 181              		.cfi_endproc
 182              	.LFE15:
 184              		.text
 185              	.Letext0:
 186              		.file 2 "/home/jonas/warwick/3dProfilometer/xpcc/ext/freertos/portable/portmacro.h"
 187              		.file 3 "/home/jonas/warwick/3dProfilometer/xpcc/ext/freertos/queue.h"
 188              		.file 4 "/home/jonas/warwick/3dProfilometer/xpcc/ext/freertos/semphr.h"
 189              		.file 5 "/home/jonas/warwick/3dProfilometer/xpcc/src/xpcc/workflow/rtos/freertos/../freertos/mutex