   1              		.syntax unified
   2              		.cpu cortex-m4
   3              		.eabi_attribute 27, 3
   4              		.fpu fpv4-sp-d16
   5              		.eabi_attribute 20, 1
   6              		.eabi_attribute 21, 1
   7              		.eabi_attribute 23, 3
   8              		.eabi_attribute 24, 1
   9              		.eabi_attribute 25, 1
  10              		.eabi_attribute 26, 1
  11              		.eabi_attribute 30, 2
  12              		.eabi_attribute 34, 1
  13              		.eabi_attribute 18, 4
  14              		.thumb
  15              		.file	"thread.cpp"
  16              		.text
  17              	.Ltext0:
  18              		.cfi_sections	.debug_frame
  19              		.section	.text._ZN4xpcc4rtos6Thread7wrapperEPv,"ax",%progbits
  20              		.align	2
  21              		.global	_ZN4xpcc4rtos6Thread7wrapperEPv
  22              		.thumb
  23              		.thumb_func
  25              	_ZN4xpcc4rtos6Thread7wrapperEPv:
  26              	.LFB10:
  27              		.file 1 "/home/jonas/warwick/3dProfilometer/xpcc/src/xpcc/workflow/rtos/freertos/thread.cpp"
   1:/home/jonas/warwick/3dProfilometer/xpcc/src/xpcc/workflow/rtos/freertos/thread.cpp **** // coding: utf-8
   2:/home/jonas/warwick/3dProfilometer/xpcc/src/xpcc/workflow/rtos/freertos/thread.cpp **** // ----------------------------------------------------------------------------
   3:/home/jonas/warwick/3dProfilometer/xpcc/src/xpcc/workflow/rtos/freertos/thread.cpp **** /* Copyright (c) 2011, Roboterclub Aachen e.V.
   4:/home/jonas/warwick/3dProfilometer/xpcc/src/xpcc/workflow/rtos/freertos/thread.cpp ****  * All rights reserved.
   5:/home/jonas/warwick/3dProfilometer/xpcc/src/xpcc/workflow/rtos/freertos/thread.cpp ****  *
   6:/home/jonas/warwick/3dProfilometer/xpcc/src/xpcc/workflow/rtos/freertos/thread.cpp ****  * Redistribution and use in source and binary forms, with or without
   7:/home/jonas/warwick/3dProfilometer/xpcc/src/xpcc/workflow/rtos/freertos/thread.cpp ****  * modification, are permitted provided that the following conditions are met:
   8:/home/jonas/warwick/3dProfilometer/xpcc/src/xpcc/workflow/rtos/freertos/thread.cpp ****  *
   9:/home/jonas/warwick/3dProfilometer/xpcc/src/xpcc/workflow/rtos/freertos/thread.cpp ****  *     * Redistributions of source code must retain the above copyright
  10:/home/jonas/warwick/3dProfilometer/xpcc/src/xpcc/workflow/rtos/freertos/thread.cpp ****  *       notice, this list of conditions and the following disclaimer.
  11:/home/jonas/warwick/3dProfilometer/xpcc/src/xpcc/workflow/rtos/freertos/thread.cpp ****  *     * Redistributions in binary form must reproduce the above copyright
  12:/home/jonas/warwick/3dProfilometer/xpcc/src/xpcc/workflow/rtos/freertos/thread.cpp ****  *       notice, this list of conditions and the following disclaimer in the
  13:/home/jonas/warwick/3dProfilometer/xpcc/src/xpcc/workflow/rtos/freertos/thread.cpp ****  *       documentation and/or other materials provided with the distribution.
  14:/home/jonas/warwick/3dProfilometer/xpcc/src/xpcc/workflow/rtos/freertos/thread.cpp ****  *     * Neither the name of the Roboterclub Aachen e.V. nor the
  15:/home/jonas/warwick/3dProfilometer/xpcc/src/xpcc/workflow/rtos/freertos/thread.cpp ****  *       names of its contributors may be used to endorse or promote products
  16:/home/jonas/warwick/3dProfilometer/xpcc/src/xpcc/workflow/rtos/freertos/thread.cpp ****  *       derived from this software without specific prior written permission.
  17:/home/jonas/warwick/3dProfilometer/xpcc/src/xpcc/workflow/rtos/freertos/thread.cpp ****  *
  18:/home/jonas/warwick/3dProfilometer/xpcc/src/xpcc/workflow/rtos/freertos/thread.cpp ****  * THIS SOFTWARE IS PROVIDED BY ROBOTERCLUB AACHEN E.V. ''AS IS'' AND ANY
  19:/home/jonas/warwick/3dProfilometer/xpcc/src/xpcc/workflow/rtos/freertos/thread.cpp ****  * EXPRESS OR IMPLIED WARRANTIES, INCLUDING, BUT NOT LIMITED TO, THE IMPLIED
  20:/home/jonas/warwick/3dProfilometer/xpcc/src/xpcc/workflow/rtos/freertos/thread.cpp ****  * WARRANTIES OF MERCHANTABILITY AND FITNESS FOR A PARTICULAR PURPOSE ARE
  21:/home/jonas/warwick/3dProfilometer/xpcc/src/xpcc/workflow/rtos/freertos/thread.cpp ****  * DISCLAIMED. IN NO EVENT SHALL ROBOTERCLUB AACHEN E.V. BE LIABLE FOR ANY
  22:/home/jonas/warwick/3dProfilometer/xpcc/src/xpcc/workflow/rtos/freertos/thread.cpp ****  * DIRECT, INDIRECT, INCIDENTAL, SPECIAL, EXEMPLARY, OR CONSEQUENTIAL DAMAGES
  23:/home/jonas/warwick/3dProfilometer/xpcc/src/xpcc/workflow/rtos/freertos/thread.cpp ****  * (INCLUDING, BUT NOT LIMITED TO, PROCUREMENT OF SUBSTITUTE GOODS OR SERVICES;
  24:/home/jonas/warwick/3dProfilometer/xpcc/src/xpcc/workflow/rtos/freertos/thread.cpp ****  * LOSS OF USE, DATA, OR PROFITS; OR BUSINESS INTERRUPTION) HOWEVER CAUSED AND
  25:/home/jonas/warwick/3dProfilometer/xpcc/src/xpcc/workflow/rtos/freertos/thread.cpp ****  * ON ANY THEORY OF LIABILITY, WHETHER IN CONTRACT, STRICT LIABILITY, OR TORT
  26:/home/jonas/warwick/3dProfilometer/xpcc/src/xpcc/workflow/rtos/freertos/thread.cpp ****  * (INCLUDING NEGLIGENCE OR OTHERWISE) ARISING IN ANY WAY OUT OF THE USE OF
  27:/home/jonas/warwick/3dProfilometer/xpcc/src/xpcc/workflow/rtos/freertos/thread.cpp ****  * THIS SOFTWARE, EVEN IF ADVISED OF THE POSSIBILITY OF SUCH DAMAGE.
  28:/home/jonas/warwick/3dProfilometer/xpcc/src/xpcc/workflow/rtos/freertos/thread.cpp ****  */
  29:/home/jonas/warwick/3dProfilometer/xpcc/src/xpcc/workflow/rtos/freertos/thread.cpp **** // ----------------------------------------------------------------------------
  30:/home/jonas/warwick/3dProfilometer/xpcc/src/xpcc/workflow/rtos/freertos/thread.cpp **** 
  31:/home/jonas/warwick/3dProfilometer/xpcc/src/xpcc/workflow/rtos/freertos/thread.cpp **** #include "../thread.hpp"
  32:/home/jonas/warwick/3dProfilometer/xpcc/src/xpcc/workflow/rtos/freertos/thread.cpp **** 
  33:/home/jonas/warwick/3dProfilometer/xpcc/src/xpcc/workflow/rtos/freertos/thread.cpp **** /*
  34:/home/jonas/warwick/3dProfilometer/xpcc/src/xpcc/workflow/rtos/freertos/thread.cpp ****  * FreeRTOS is a C library. Therefore it doesn't know anything about objects
  35:/home/jonas/warwick/3dProfilometer/xpcc/src/xpcc/workflow/rtos/freertos/thread.cpp ****  * and their this-pointers. To be able to use FreeRTOS from C++ we use a
  36:/home/jonas/warwick/3dProfilometer/xpcc/src/xpcc/workflow/rtos/freertos/thread.cpp ****  * simple trick:
  37:/home/jonas/warwick/3dProfilometer/xpcc/src/xpcc/workflow/rtos/freertos/thread.cpp ****  *
  38:/home/jonas/warwick/3dProfilometer/xpcc/src/xpcc/workflow/rtos/freertos/thread.cpp ****  * FreeRTOS threads must be C functions which get a single void-Pointer as
  39:/home/jonas/warwick/3dProfilometer/xpcc/src/xpcc/workflow/rtos/freertos/thread.cpp ****  * argument. To call C++ member functions we use the static member function
  40:/home/jonas/warwick/3dProfilometer/xpcc/src/xpcc/workflow/rtos/freertos/thread.cpp ****  * xpcc::rtos::Thread::wrapper() as a wrapper which gets the a pointer to
  41:/home/jonas/warwick/3dProfilometer/xpcc/src/xpcc/workflow/rtos/freertos/thread.cpp ****  * the corresponding thread as parameter.
  42:/home/jonas/warwick/3dProfilometer/xpcc/src/xpcc/workflow/rtos/freertos/thread.cpp ****  * To be able to call the right run()-function run() needs to be virtual. This
  43:/home/jonas/warwick/3dProfilometer/xpcc/src/xpcc/workflow/rtos/freertos/thread.cpp ****  * adds the overhead of an additional vtable per Thread but is the only portable
  44:/home/jonas/warwick/3dProfilometer/xpcc/src/xpcc/workflow/rtos/freertos/thread.cpp ****  * solution.
  45:/home/jonas/warwick/3dProfilometer/xpcc/src/xpcc/workflow/rtos/freertos/thread.cpp ****  * Casting member functions pointer to void-pointers and back might work but
  46:/home/jonas/warwick/3dProfilometer/xpcc/src/xpcc/workflow/rtos/freertos/thread.cpp ****  * is not guaranteed to.
  47:/home/jonas/warwick/3dProfilometer/xpcc/src/xpcc/workflow/rtos/freertos/thread.cpp ****  */
  48:/home/jonas/warwick/3dProfilometer/xpcc/src/xpcc/workflow/rtos/freertos/thread.cpp **** 
  49:/home/jonas/warwick/3dProfilometer/xpcc/src/xpcc/workflow/rtos/freertos/thread.cpp **** // ----------------------------------------------------------------------------
  50:/home/jonas/warwick/3dProfilometer/xpcc/src/xpcc/workflow/rtos/freertos/thread.cpp **** void
  51:/home/jonas/warwick/3dProfilometer/xpcc/src/xpcc/workflow/rtos/freertos/thread.cpp **** xpcc::rtos::Thread::wrapper(void *object)
  52:/home/jonas/warwick/3dProfilometer/xpcc/src/xpcc/workflow/rtos/freertos/thread.cpp **** {
  28              		.loc 1 52 0
  29              		.cfi_startproc
  30              		@ args = 0, pretend = 0, frame = 0
  31              		@ frame_needed = 0, uses_anonymous_args = 0
  32              	.LVL0:
  33 0000 08B5     		push	{r3, lr}
  34              	.LCFI0:
  35              		.cfi_def_cfa_offset 8
  36              		.cfi_offset 3, -8
  37              		.cfi_offset 14, -4
  38              	.LBB2:
  53:/home/jonas/warwick/3dProfilometer/xpcc/src/xpcc/workflow/rtos/freertos/thread.cpp **** 	Thread* thread = reinterpret_cast<Thread *>(object);
  54:/home/jonas/warwick/3dProfilometer/xpcc/src/xpcc/workflow/rtos/freertos/thread.cpp **** 	thread->run();
  39              		.loc 1 54 0
  40 0002 0368     		ldr	r3, [r0, #0]
  41 0004 9B68     		ldr	r3, [r3, #8]
  42 0006 9847     		blx	r3
  43              	.LVL1:
  44 0008 08BD     		pop	{r3, pc}
  45              	.LBE2:
  46              		.cfi_endproc
  47              	.LFE10:
  49 000a 00BF     		.section	.text._ZN4xpcc4rtos6ThreadD2Ev,"ax",%progbits
  50              		.align	2
  51              		.global	_ZN4xpcc4rtos6ThreadD2Ev
  52              		.thumb
  53              		.thumb_func
  55              	_ZN4xpcc4rtos6ThreadD2Ev:
  56              	.LFB12:
  55:/home/jonas/warwick/3dProfilometer/xpcc/src/xpcc/workflow/rtos/freertos/thread.cpp **** }
  56:/home/jonas/warwick/3dProfilometer/xpcc/src/xpcc/workflow/rtos/freertos/thread.cpp **** 
  57:/home/jonas/warwick/3dProfilometer/xpcc/src/xpcc/workflow/rtos/freertos/thread.cpp **** xpcc::rtos::Thread::~Thread()
  57              		.loc 1 57 0
  58              		.cfi_startproc
  59              		@ args = 0, pretend = 0, frame = 0
  60              		@ frame_needed = 0, uses_anonymous_args = 0
  61              	.LVL2:
  62 0000 10B5     		push	{r4, lr}
  63              	.LCFI1:
  64              		.cfi_def_cfa_offset 8
  65              		.cfi_offset 4, -8
  66              		.cfi_offset 14, -4
  67              	.LBB4:
  68              		.loc 1 57 0
  69 0002 044B     		ldr	r3, .L3
  70              	.LBE4:
  71 0004 0446     		mov	r4, r0
  72              	.LBB5:
  58:/home/jonas/warwick/3dProfilometer/xpcc/src/xpcc/workflow/rtos/freertos/thread.cpp **** {
  59:/home/jonas/warwick/3dProfilometer/xpcc/src/xpcc/workflow/rtos/freertos/thread.cpp **** 	vTaskDelete(this->handle);
  73              		.loc 1 59 0
  74 0006 4068     		ldr	r0, [r0, #4]
  75              	.LVL3:
  57:/home/jonas/warwick/3dProfilometer/xpcc/src/xpcc/workflow/rtos/freertos/thread.cpp **** xpcc::rtos::Thread::~Thread()
  76              		.loc 1 57 0
  77 0008 2360     		str	r3, [r4, #0]
  78              		.loc 1 59 0
  79 000a 034B     		ldr	r3, .L3+4
  80 000c 9847     		blx	r3
  81              	.LVL4:
  82              	.LBE5:
  60:/home/jonas/warwick/3dProfilometer/xpcc/src/xpcc/workflow/rtos/freertos/thread.cpp **** }
  83              		.loc 1 60 0
  84 000e 2046     		mov	r0, r4
  85 0010 10BD     		pop	{r4, pc}
  86              	.L4:
  87 0012 00BF     		.align	2
  88              	.L3:
  89 0014 08000000 		.word	.LANCHOR0+8
  90 0018 00000000 		.word	vTaskDelete
  91              		.cfi_endproc
  92              	.LFE12:
  94              		.global	_ZN4xpcc4rtos6ThreadD1Ev
  95              		.thumb_set _ZN4xpcc4rtos6ThreadD1Ev,_ZN4xpcc4rtos6ThreadD2Ev
  96              		.section	.text._ZN4xpcc4rtos6ThreadD0Ev,"ax",%progbits
  97              		.align	2
  98              		.global	_ZN4xpcc4rtos6ThreadD0Ev
  99              		.thumb
 100              		.thumb_func
 102              	_ZN4xpcc4rtos6ThreadD0Ev:
 103              	.LFB14:
  57:/home/jonas/warwick/3dProfilometer/xpcc/src/xpcc/workflow/rtos/freertos/thread.cpp **** xpcc::rtos::Thread::~Thread()
 104              		.loc 1 57 0
 105              		.cfi_startproc
 106              		@ args = 0, pretend = 0, frame = 0
 107              		@ frame_needed = 0, uses_anonymous_args = 0
 108              	.LVL5:
 109 0000 10B5     		push	{r4, lr}
 110              	.LCFI2:
 111              		.cfi_def_cfa_offset 8
 112              		.cfi_offset 4, -8
 113              		.cfi_offset 14, -4
 114              	.LBB9:
 115              	.LBB10:
  57:/home/jonas/warwick/3dProfilometer/xpcc/src/xpcc/workflow/rtos/freertos/thread.cpp **** xpcc::rtos::Thread::~Thread()
 116              		.loc 1 57 0
 117 0002 054B     		ldr	r3, .L6
 118              	.LBE10:
 119              	.LBE9:
 120 0004 0446     		mov	r4, r0
 121              	.LVL6:
 122              	.LBB12:
 123              	.LBB11:
  59:/home/jonas/warwick/3dProfilometer/xpcc/src/xpcc/workflow/rtos/freertos/thread.cpp **** 	vTaskDelete(this->handle);
 124              		.loc 1 59 0
 125 0006 4068     		ldr	r0, [r0, #4]
 126              	.LVL7:
  57:/home/jonas/warwick/3dProfilometer/xpcc/src/xpcc/workflow/rtos/freertos/thread.cpp **** xpcc::rtos::Thread::~Thread()
 127              		.loc 1 57 0
 128 0008 2360     		str	r3, [r4, #0]
  59:/home/jonas/warwick/3dProfilometer/xpcc/src/xpcc/workflow/rtos/freertos/thread.cpp **** 	vTaskDelete(this->handle);
 129              		.loc 1 59 0
 130 000a 044B     		ldr	r3, .L6+4
 131 000c 9847     		blx	r3
 132              	.LVL8:
 133              	.LBE11:
 134              	.LBE12:
 135              		.loc 1 60 0
 136 000e 2046     		mov	r0, r4
 137 0010 034B     		ldr	r3, .L6+8
 138 0012 9847     		blx	r3
 139              	.LVL9:
 140 0014 2046     		mov	r0, r4
 141 0016 10BD     		pop	{r4, pc}
 142              	.L7:
 143              		.align	2
 144              	.L6:
 145 0018 08000000 		.word	.LANCHOR0+8
 146 001c 00000000 		.word	vTaskDelete
 147 0020 00000000 		.word	_ZdlPv
 148              		.cfi_endproc
 149              	.LFE14:
 151              		.section	.text._ZN4xpcc4rtos6ThreadC2EmtPKc,"ax",%progbits
 152              		.align	2
 153              		.global	_ZN4xpcc4rtos6ThreadC2EmtPKc
 154              		.thumb
 155              		.thumb_func
 157              	_ZN4xpcc4rtos6ThreadC2EmtPKc:
 158              	.LFB16:
  61:/home/jonas/warwick/3dProfilometer/xpcc/src/xpcc/workflow/rtos/freertos/thread.cpp **** 
  62:/home/jonas/warwick/3dProfilometer/xpcc/src/xpcc/workflow/rtos/freertos/thread.cpp **** // ----------------------------------------------------------------------------
  63:/home/jonas/warwick/3dProfilometer/xpcc/src/xpcc/workflow/rtos/freertos/thread.cpp **** xpcc::rtos::Thread::Thread(uint32_t priority,
 159              		.loc 1 63 0
 160              		.cfi_startproc
 161              		@ args = 0, pretend = 0, frame = 0
 162              		@ frame_needed = 0, uses_anonymous_args = 0
 163              	.LVL10:
 164 0000 30B5     		push	{r4, r5, lr}
 165              	.LCFI3:
 166              		.cfi_def_cfa_offset 12
 167              		.cfi_offset 4, -12
 168              		.cfi_offset 5, -8
 169              		.cfi_offset 14, -4
 170 0002 85B0     		sub	sp, sp, #20
 171              	.LCFI4:
 172              		.cfi_def_cfa_offset 32
 173              		.loc 1 63 0
 174 0004 0446     		mov	r4, r0
 175              	.LBB13:
  64:/home/jonas/warwick/3dProfilometer/xpcc/src/xpcc/workflow/rtos/freertos/thread.cpp **** 		uint16_t stackDepth,
  65:/home/jonas/warwick/3dProfilometer/xpcc/src/xpcc/workflow/rtos/freertos/thread.cpp **** 		const char* name)
  66:/home/jonas/warwick/3dProfilometer/xpcc/src/xpcc/workflow/rtos/freertos/thread.cpp **** {
  67:/home/jonas/warwick/3dProfilometer/xpcc/src/xpcc/workflow/rtos/freertos/thread.cpp **** 	xTaskCreate(
  68:/home/jonas/warwick/3dProfilometer/xpcc/src/xpcc/workflow/rtos/freertos/thread.cpp **** 			&wrapper,
  69:/home/jonas/warwick/3dProfilometer/xpcc/src/xpcc/workflow/rtos/freertos/thread.cpp **** 			(const signed char*) name,
  70:/home/jonas/warwick/3dProfilometer/xpcc/src/xpcc/workflow/rtos/freertos/thread.cpp **** 			(stackDepth / 4) + 1,
  71:/home/jonas/warwick/3dProfilometer/xpcc/src/xpcc/workflow/rtos/freertos/thread.cpp **** 			this,
  72:/home/jonas/warwick/3dProfilometer/xpcc/src/xpcc/workflow/rtos/freertos/thread.cpp **** 			priority,
  73:/home/jonas/warwick/3dProfilometer/xpcc/src/xpcc/workflow/rtos/freertos/thread.cpp **** 			&this->handle);
 176              		.loc 1 73 0
 177 0006 0091     		str	r1, [sp, #0]
  65:/home/jonas/warwick/3dProfilometer/xpcc/src/xpcc/workflow/rtos/freertos/thread.cpp **** 		const char* name)
 178              		.loc 1 65 0
 179 0008 0849     		ldr	r1, .L9
 180              	.LVL11:
 181 000a 40F8041B 		str	r1, [r0], #4
 182              	.LVL12:
 183              		.loc 1 73 0
 184 000e 0025     		movs	r5, #0
  67:/home/jonas/warwick/3dProfilometer/xpcc/src/xpcc/workflow/rtos/freertos/thread.cpp **** 	xTaskCreate(
 185              		.loc 1 67 0
 186 0010 9208     		lsrs	r2, r2, #2
 187              	.LVL13:
 188              		.loc 1 73 0
 189 0012 1946     		mov	r1, r3
 190 0014 0190     		str	r0, [sp, #4]
 191 0016 0295     		str	r5, [sp, #8]
 192 0018 0395     		str	r5, [sp, #12]
 193 001a 0132     		adds	r2, r2, #1
 194 001c 2346     		mov	r3, r4
 195              	.LVL14:
 196 001e 044D     		ldr	r5, .L9+4
 197 0020 0448     		ldr	r0, .L9+8
 198 0022 A847     		blx	r5
 199              	.LVL15:
 200              	.LBE13:
  74:/home/jonas/warwick/3dProfilometer/xpcc/src/xpcc/workflow/rtos/freertos/thread.cpp **** }
 201              		.loc 1 74 0
 202 0024 2046     		mov	r0, r4
 203 0026 05B0     		add	sp, sp, #20
 204 0028 30BD     		pop	{r4, r5, pc}
 205              	.L10:
 206 002a 00BF     		.align	2
 207              	.L9:
 208 002c 08000000 		.word	.LANCHOR0+8
 209 0030 00000000 		.word	xTaskGenericCreate
 210 0034 00000000 		.word	_ZN4xpcc4rtos6Thread7wrapperEPv
 211              		.cfi_endproc
 212              	.LFE16:
 214              		.global	_ZN4xpcc4rtos6ThreadC1EmtPKc
 215              		.thumb_set _ZN4xpcc4rtos6ThreadC1EmtPKc,_ZN4xpcc4rtos6ThreadC2EmtPKc
 216              		.section	.text._ZNK4xpcc4rtos6Thread11getPriorityEv,"ax",%progbits
 217              		.align	2
 218              		.global	_ZNK4xpcc4rtos6Thread11getPriorityEv
 219              		.thumb
 220              		.thumb_func
 222              	_ZNK4xpcc4rtos6Thread11getPriorityEv:
 223              	.LFB18:
  75:/home/jonas/warwick/3dProfilometer/xpcc/src/xpcc/workflow/rtos/freertos/thread.cpp **** 
  76:/home/jonas/warwick/3dProfilometer/xpcc/src/xpcc/workflow/rtos/freertos/thread.cpp **** // ----------------------------------------------------------------------------
  77:/home/jonas/warwick/3dProfilometer/xpcc/src/xpcc/workflow/rtos/freertos/thread.cpp **** uint32_t
  78:/home/jonas/warwick/3dProfilometer/xpcc/src/xpcc/workflow/rtos/freertos/thread.cpp **** xpcc::rtos::Thread::getPriority() const
  79:/home/jonas/warwick/3dProfilometer/xpcc/src/xpcc/workflow/rtos/freertos/thread.cpp **** {
 224              		.loc 1 79 0
 225              		.cfi_startproc
 226              		@ args = 0, pretend = 0, frame = 0
 227              		@ frame_needed = 0, uses_anonymous_args = 0
 228              	.LVL16:
 229 0000 08B5     		push	{r3, lr}
 230              	.LCFI5:
 231              		.cfi_def_cfa_offset 8
 232              		.cfi_offset 3, -8
 233              		.cfi_offset 14, -4
  80:/home/jonas/warwick/3dProfilometer/xpcc/src/xpcc/workflow/rtos/freertos/thread.cpp **** 	return uxTaskPriorityGet(this->handle);
 234              		.loc 1 80 0
 235 0002 4068     		ldr	r0, [r0, #4]
 236              	.LVL17:
 237 0004 014B     		ldr	r3, .L12
 238 0006 9847     		blx	r3
 239              	.LVL18:
  81:/home/jonas/warwick/3dProfilometer/xpcc/src/xpcc/workflow/rtos/freertos/thread.cpp **** }
 240              		.loc 1 81 0
 241 0008 08BD     		pop	{r3, pc}
 242              	.L13:
 243 000a 00BF     		.align	2
 244              	.L12:
 245 000c 00000000 		.word	uxTaskPriorityGet
 246              		.cfi_endproc
 247              	.LFE18:
 249              		.section	.text._ZN4xpcc4rtos6Thread11setPriorityEm,"ax",%progbits
 250              		.align	2
 251              		.global	_ZN4xpcc4rtos6Thread11setPriorityEm
 252              		.thumb
 253              		.thumb_func
 255              	_ZN4xpcc4rtos6Thread11setPriorityEm:
 256              	.LFB19:
  82:/home/jonas/warwick/3dProfilometer/xpcc/src/xpcc/workflow/rtos/freertos/thread.cpp **** 
  83:/home/jonas/warwick/3dProfilometer/xpcc/src/xpcc/workflow/rtos/freertos/thread.cpp **** void
  84:/home/jonas/warwick/3dProfilometer/xpcc/src/xpcc/workflow/rtos/freertos/thread.cpp **** xpcc::rtos::Thread::setPriority(uint32_t priority)
  85:/home/jonas/warwick/3dProfilometer/xpcc/src/xpcc/workflow/rtos/freertos/thread.cpp **** {
 257              		.loc 1 85 0
 258              		.cfi_startproc
 259              		@ args = 0, pretend = 0, frame = 0
 260              		@ frame_needed = 0, uses_anonymous_args = 0
 261              	.LVL19:
 262 0000 08B5     		push	{r3, lr}
 263              	.LCFI6:
 264              		.cfi_def_cfa_offset 8
 265              		.cfi_offset 3, -8
 266              		.cfi_offset 14, -4
  86:/home/jonas/warwick/3dProfilometer/xpcc/src/xpcc/workflow/rtos/freertos/thread.cpp **** 	vTaskPrioritySet(this->handle, priority);
 267              		.loc 1 86 0
 268 0002 4068     		ldr	r0, [r0, #4]
 269              	.LVL20:
 270 0004 014B     		ldr	r3, .L15
 271 0006 9847     		blx	r3
 272              	.LVL21:
 273 0008 08BD     		pop	{r3, pc}
 274              	.L16:
 275 000a 00BF     		.align	2
 276              	.L15:
 277 000c 00000000 		.word	vTaskPrioritySet
 278              		.cfi_endproc
 279              	.LFE19:
 281              		.global	_ZTVN4xpcc4rtos6ThreadE
 282              		.section	.rodata._ZTVN4xpcc4rtos6ThreadE,"a",%progbits
 283              		.align	3
 284              		.set	.LANCHOR0,. + 0
 287              	_ZTVN4xpcc4rtos6ThreadE:
 288 0000 00000000 		.word	0
 289 0004 00000000 		.word	0
 290 0008 00000000 		.word	_ZN4xpcc4rtos6ThreadD1Ev
 291 000c 00000000 		.word	_ZN4xpcc4rtos6ThreadD0Ev
 292 0010 00000000 		.word	__cxa_pure_virtual
 293 0014 00000000 		.text
 294              	.Letext0:
 295              		.file 2 "/opt/arm-2012.09/bin/../lib/gcc/arm-none-eabi/4.7.2/../../../../arm-none-eabi/include/std
 296              		.file 3 "/home/jonas/warwick/3dProfilometer/xpcc/ext/freertos/portable/portmacro.h"
 297              		.file 4 "/home/jonas/warwick/3dProfilometer/xpcc/ext/freertos/task.h"
 298              		.file 5 "/home/jonas/warwick/3dProfilometer/xpcc/src/xpcc/workflow/rtos/freertos/../freertos/threa