   1              		.syntax unified
   2              		.cpu cortex-m4
   3              		.eabi_attribute 27, 3
   4              		.fpu fpv4-sp-d16
   5              		.eabi_attribute 20, 1
   6              		.eabi_attribute 21, 1
   7              		.eabi_attribute 23, 3
   8              		.eabi_attribute 24, 1
   9              		.eabi_attribute 25, 1
  10              		.eabi_attribute 26, 1
  11              		.eabi_attribute 30, 2
  12              		.eabi_attribute 34, 1
  13              		.eabi_attribute 18, 4
  14              		.thumb
  15              		.file	"timer_1.cpp"
  16              		.text
  17              	.Ltext0:
  18              		.cfi_sections	.debug_frame
  19              		.section	.text._ZN4xpcc5stm326Timer16enableEv,"ax",%progbits
  20              		.align	2
  21              		.global	_ZN4xpcc5stm326Timer16enableEv
  22              		.thumb
  23              		.thumb_func
  25              	_ZN4xpcc5stm326Timer16enableEv:
  26              	.LFB165:
  27              		.file 1 "/home/jonas/warwick/3dProfilometer/xpcc/src/xpcc/architecture/platform/cortex_m3/stm32/ti
   1:/home/jonas/warwick/3dProfilometer/xpcc/src/xpcc/architecture/platform/cortex_m3/stm32/timer/timer_1.cpp **** // coding: utf-8
   2:/home/jonas/warwick/3dProfilometer/xpcc/src/xpcc/architecture/platform/cortex_m3/stm32/timer/timer_1.cpp **** // ----------------------------------------------------------------------------
   3:/home/jonas/warwick/3dProfilometer/xpcc/src/xpcc/architecture/platform/cortex_m3/stm32/timer/timer_1.cpp **** /* Copyright (c) 2011, Roboterclub Aachen e.V.
   4:/home/jonas/warwick/3dProfilometer/xpcc/src/xpcc/architecture/platform/cortex_m3/stm32/timer/timer_1.cpp ****  * All rights reserved.
   5:/home/jonas/warwick/3dProfilometer/xpcc/src/xpcc/architecture/platform/cortex_m3/stm32/timer/timer_1.cpp ****  *
   6:/home/jonas/warwick/3dProfilometer/xpcc/src/xpcc/architecture/platform/cortex_m3/stm32/timer/timer_1.cpp ****  * Redistribution and use in source and binary forms, with or without
   7:/home/jonas/warwick/3dProfilometer/xpcc/src/xpcc/architecture/platform/cortex_m3/stm32/timer/timer_1.cpp ****  * modification, are permitted provided that the following conditions are met:
   8:/home/jonas/warwick/3dProfilometer/xpcc/src/xpcc/architecture/platform/cortex_m3/stm32/timer/timer_1.cpp ****  * 
   9:/home/jonas/warwick/3dProfilometer/xpcc/src/xpcc/architecture/platform/cortex_m3/stm32/timer/timer_1.cpp ****  *     * Redistributions of source code must retain the above copyright
  10:/home/jonas/warwick/3dProfilometer/xpcc/src/xpcc/architecture/platform/cortex_m3/stm32/timer/timer_1.cpp ****  *       notice, this list of conditions and the following disclaimer.
  11:/home/jonas/warwick/3dProfilometer/xpcc/src/xpcc/architecture/platform/cortex_m3/stm32/timer/timer_1.cpp ****  *     * Redistributions in binary form must reproduce the above copyright
  12:/home/jonas/warwick/3dProfilometer/xpcc/src/xpcc/architecture/platform/cortex_m3/stm32/timer/timer_1.cpp ****  *       notice, this list of conditions and the following disclaimer in the
  13:/home/jonas/warwick/3dProfilometer/xpcc/src/xpcc/architecture/platform/cortex_m3/stm32/timer/timer_1.cpp ****  *       documentation and/or other materials provided with the distribution.
  14:/home/jonas/warwick/3dProfilometer/xpcc/src/xpcc/architecture/platform/cortex_m3/stm32/timer/timer_1.cpp ****  *     * Neither the name of the Roboterclub Aachen e.V. nor the
  15:/home/jonas/warwick/3dProfilometer/xpcc/src/xpcc/architecture/platform/cortex_m3/stm32/timer/timer_1.cpp ****  *       names of its contributors may be used to endorse or promote products
  16:/home/jonas/warwick/3dProfilometer/xpcc/src/xpcc/architecture/platform/cortex_m3/stm32/timer/timer_1.cpp ****  *       derived from this software without specific prior written permission.
  17:/home/jonas/warwick/3dProfilometer/xpcc/src/xpcc/architecture/platform/cortex_m3/stm32/timer/timer_1.cpp ****  *
  18:/home/jonas/warwick/3dProfilometer/xpcc/src/xpcc/architecture/platform/cortex_m3/stm32/timer/timer_1.cpp ****  * THIS SOFTWARE IS PROVIDED BY ROBOTERCLUB AACHEN E.V. ''AS IS'' AND ANY
  19:/home/jonas/warwick/3dProfilometer/xpcc/src/xpcc/architecture/platform/cortex_m3/stm32/timer/timer_1.cpp ****  * EXPRESS OR IMPLIED WARRANTIES, INCLUDING, BUT NOT LIMITED TO, THE IMPLIED
  20:/home/jonas/warwick/3dProfilometer/xpcc/src/xpcc/architecture/platform/cortex_m3/stm32/timer/timer_1.cpp ****  * WARRANTIES OF MERCHANTABILITY AND FITNESS FOR A PARTICULAR PURPOSE ARE
  21:/home/jonas/warwick/3dProfilometer/xpcc/src/xpcc/architecture/platform/cortex_m3/stm32/timer/timer_1.cpp ****  * DISCLAIMED. IN NO EVENT SHALL ROBOTERCLUB AACHEN E.V. BE LIABLE FOR ANY
  22:/home/jonas/warwick/3dProfilometer/xpcc/src/xpcc/architecture/platform/cortex_m3/stm32/timer/timer_1.cpp ****  * DIRECT, INDIRECT, INCIDENTAL, SPECIAL, EXEMPLARY, OR CONSEQUENTIAL DAMAGES
  23:/home/jonas/warwick/3dProfilometer/xpcc/src/xpcc/architecture/platform/cortex_m3/stm32/timer/timer_1.cpp ****  * (INCLUDING, BUT NOT LIMITED TO, PROCUREMENT OF SUBSTITUTE GOODS OR SERVICES;
  24:/home/jonas/warwick/3dProfilometer/xpcc/src/xpcc/architecture/platform/cortex_m3/stm32/timer/timer_1.cpp ****  * LOSS OF USE, DATA, OR PROFITS; OR BUSINESS INTERRUPTION) HOWEVER CAUSED AND
  25:/home/jonas/warwick/3dProfilometer/xpcc/src/xpcc/architecture/platform/cortex_m3/stm32/timer/timer_1.cpp ****  * ON ANY THEORY OF LIABILITY, WHETHER IN CONTRACT, STRICT LIABILITY, OR TORT
  26:/home/jonas/warwick/3dProfilometer/xpcc/src/xpcc/architecture/platform/cortex_m3/stm32/timer/timer_1.cpp ****  * (INCLUDING NEGLIGENCE OR OTHERWISE) ARISING IN ANY WAY OUT OF THE USE OF
  27:/home/jonas/warwick/3dProfilometer/xpcc/src/xpcc/architecture/platform/cortex_m3/stm32/timer/timer_1.cpp ****  * THIS SOFTWARE, EVEN IF ADVISED OF THE POSSIBILITY OF SUCH DAMAGE.
  28:/home/jonas/warwick/3dProfilometer/xpcc/src/xpcc/architecture/platform/cortex_m3/stm32/timer/timer_1.cpp ****  */
  29:/home/jonas/warwick/3dProfilometer/xpcc/src/xpcc/architecture/platform/cortex_m3/stm32/timer/timer_1.cpp **** // ----------------------------------------------------------------------------
  30:/home/jonas/warwick/3dProfilometer/xpcc/src/xpcc/architecture/platform/cortex_m3/stm32/timer/timer_1.cpp **** /*
  31:/home/jonas/warwick/3dProfilometer/xpcc/src/xpcc/architecture/platform/cortex_m3/stm32/timer/timer_1.cpp ****  * WARNING: This file is generated automatically, do not edit!
  32:/home/jonas/warwick/3dProfilometer/xpcc/src/xpcc/architecture/platform/cortex_m3/stm32/timer/timer_1.cpp ****  * Please modify the corresponding *.in file instead and rebuild this file. 
  33:/home/jonas/warwick/3dProfilometer/xpcc/src/xpcc/architecture/platform/cortex_m3/stm32/timer/timer_1.cpp ****  */
  34:/home/jonas/warwick/3dProfilometer/xpcc/src/xpcc/architecture/platform/cortex_m3/stm32/timer/timer_1.cpp **** // ----------------------------------------------------------------------------
  35:/home/jonas/warwick/3dProfilometer/xpcc/src/xpcc/architecture/platform/cortex_m3/stm32/timer/timer_1.cpp **** 
  36:/home/jonas/warwick/3dProfilometer/xpcc/src/xpcc/architecture/platform/cortex_m3/stm32/timer/timer_1.cpp **** #include "../gpio.hpp"
  37:/home/jonas/warwick/3dProfilometer/xpcc/src/xpcc/architecture/platform/cortex_m3/stm32/timer/timer_1.cpp **** #include "../device.h"
  38:/home/jonas/warwick/3dProfilometer/xpcc/src/xpcc/architecture/platform/cortex_m3/stm32/timer/timer_1.cpp **** 
  39:/home/jonas/warwick/3dProfilometer/xpcc/src/xpcc/architecture/platform/cortex_m3/stm32/timer/timer_1.cpp **** #include "timer_1.hpp"
  40:/home/jonas/warwick/3dProfilometer/xpcc/src/xpcc/architecture/platform/cortex_m3/stm32/timer/timer_1.cpp **** 
  41:/home/jonas/warwick/3dProfilometer/xpcc/src/xpcc/architecture/platform/cortex_m3/stm32/timer/timer_1.cpp **** #include <xpcc_config.hpp>
  42:/home/jonas/warwick/3dProfilometer/xpcc/src/xpcc/architecture/platform/cortex_m3/stm32/timer/timer_1.cpp **** 
  43:/home/jonas/warwick/3dProfilometer/xpcc/src/xpcc/architecture/platform/cortex_m3/stm32/timer/timer_1.cpp **** 
  44:/home/jonas/warwick/3dProfilometer/xpcc/src/xpcc/architecture/platform/cortex_m3/stm32/timer/timer_1.cpp **** #if defined(STM32F10X_XL) || defined(STM32F2XX) || defined(STM32F4XX)
  45:/home/jonas/warwick/3dProfilometer/xpcc/src/xpcc/architecture/platform/cortex_m3/stm32/timer/timer_1.cpp **** #	define TIM1_BRK_IRQn		TIM1_BRK_TIM9_IRQn
  46:/home/jonas/warwick/3dProfilometer/xpcc/src/xpcc/architecture/platform/cortex_m3/stm32/timer/timer_1.cpp **** #	define TIM1_UP_IRQn			TIM1_UP_TIM10_IRQn
  47:/home/jonas/warwick/3dProfilometer/xpcc/src/xpcc/architecture/platform/cortex_m3/stm32/timer/timer_1.cpp **** #	define TIM1_TRG_COM_IRQn	TIM1_TRG_COM_TIM11_IRQn
  48:/home/jonas/warwick/3dProfilometer/xpcc/src/xpcc/architecture/platform/cortex_m3/stm32/timer/timer_1.cpp **** 
  49:/home/jonas/warwick/3dProfilometer/xpcc/src/xpcc/architecture/platform/cortex_m3/stm32/timer/timer_1.cpp **** #	define TIM8_BRK_IRQn		TIM8_BRK_TIM12_IRQn
  50:/home/jonas/warwick/3dProfilometer/xpcc/src/xpcc/architecture/platform/cortex_m3/stm32/timer/timer_1.cpp **** #	define TIM8_UP_IRQn			TIM8_UP_TIM13_IRQn
  51:/home/jonas/warwick/3dProfilometer/xpcc/src/xpcc/architecture/platform/cortex_m3/stm32/timer/timer_1.cpp **** #	define TIM8_TRG_COM_IRQn	TIM8_TRG_COM_TIM14_IRQn
  52:/home/jonas/warwick/3dProfilometer/xpcc/src/xpcc/architecture/platform/cortex_m3/stm32/timer/timer_1.cpp **** #elif defined(STM32F3XX)
  53:/home/jonas/warwick/3dProfilometer/xpcc/src/xpcc/architecture/platform/cortex_m3/stm32/timer/timer_1.cpp **** #	define TIM1_BRK_IRQn		TIM1_BRK_TIM15_IRQn
  54:/home/jonas/warwick/3dProfilometer/xpcc/src/xpcc/architecture/platform/cortex_m3/stm32/timer/timer_1.cpp **** #	define TIM1_UP_IRQn			TIM1_UP_TIM16_IRQn
  55:/home/jonas/warwick/3dProfilometer/xpcc/src/xpcc/architecture/platform/cortex_m3/stm32/timer/timer_1.cpp **** #	define TIM1_TRG_COM_IRQn	TIM1_TRG_COM_TIM17_IRQn
  56:/home/jonas/warwick/3dProfilometer/xpcc/src/xpcc/architecture/platform/cortex_m3/stm32/timer/timer_1.cpp **** #endif
  57:/home/jonas/warwick/3dProfilometer/xpcc/src/xpcc/architecture/platform/cortex_m3/stm32/timer/timer_1.cpp **** 
  58:/home/jonas/warwick/3dProfilometer/xpcc/src/xpcc/architecture/platform/cortex_m3/stm32/timer/timer_1.cpp **** // ----------------------------------------------------------------------------
  59:/home/jonas/warwick/3dProfilometer/xpcc/src/xpcc/architecture/platform/cortex_m3/stm32/timer/timer_1.cpp **** void
  60:/home/jonas/warwick/3dProfilometer/xpcc/src/xpcc/architecture/platform/cortex_m3/stm32/timer/timer_1.cpp **** xpcc::stm32::Timer1::enable()
  61:/home/jonas/warwick/3dProfilometer/xpcc/src/xpcc/architecture/platform/cortex_m3/stm32/timer/timer_1.cpp **** {
  28              		.loc 1 61 0
  29              		.cfi_startproc
  30              		@ args = 0, pretend = 0, frame = 0
  31              		@ frame_needed = 0, uses_anonymous_args = 0
  32              		@ link register save eliminated.
  62:/home/jonas/warwick/3dProfilometer/xpcc/src/xpcc/architecture/platform/cortex_m3/stm32/timer/timer_1.cpp **** 	// enable clock
  63:/home/jonas/warwick/3dProfilometer/xpcc/src/xpcc/architecture/platform/cortex_m3/stm32/timer/timer_1.cpp **** 	RCC->APB2ENR  |=  RCC_APB2ENR_TIM1EN;
  33              		.loc 1 63 0
  34 0000 064B     		ldr	r3, .L2
  35 0002 5A6C     		ldr	r2, [r3, #68]
  36 0004 42F00102 		orr	r2, r2, #1
  37 0008 5A64     		str	r2, [r3, #68]
  64:/home/jonas/warwick/3dProfilometer/xpcc/src/xpcc/architecture/platform/cortex_m3/stm32/timer/timer_1.cpp **** 	
  65:/home/jonas/warwick/3dProfilometer/xpcc/src/xpcc/architecture/platform/cortex_m3/stm32/timer/timer_1.cpp **** 	// reset timer
  66:/home/jonas/warwick/3dProfilometer/xpcc/src/xpcc/architecture/platform/cortex_m3/stm32/timer/timer_1.cpp **** 	RCC->APB2RSTR |=  RCC_APB2RSTR_TIM1RST;
  38              		.loc 1 66 0
  39 000a 5A6A     		ldr	r2, [r3, #36]
  40 000c 42F00102 		orr	r2, r2, #1
  41 0010 5A62     		str	r2, [r3, #36]
  67:/home/jonas/warwick/3dProfilometer/xpcc/src/xpcc/architecture/platform/cortex_m3/stm32/timer/timer_1.cpp **** 	RCC->APB2RSTR &= ~RCC_APB2RSTR_TIM1RST;
  42              		.loc 1 67 0
  43 0012 5A6A     		ldr	r2, [r3, #36]
  44 0014 22F00102 		bic	r2, r2, #1
  45 0018 5A62     		str	r2, [r3, #36]
  46 001a 7047     		bx	lr
  47              	.L3:
  48              		.align	2
  49              	.L2:
  50 001c 00380240 		.word	1073887232
  51              		.cfi_endproc
  52              	.LFE165:
  54              		.section	.text._ZN4xpcc5stm326Timer17disableEv,"ax",%progbits
  55              		.align	2
  56              		.global	_ZN4xpcc5stm326Timer17disableEv
  57              		.thumb
  58              		.thumb_func
  60              	_ZN4xpcc5stm326Timer17disableEv:
  61              	.LFB166:
  68:/home/jonas/warwick/3dProfilometer/xpcc/src/xpcc/architecture/platform/cortex_m3/stm32/timer/timer_1.cpp **** }
  69:/home/jonas/warwick/3dProfilometer/xpcc/src/xpcc/architecture/platform/cortex_m3/stm32/timer/timer_1.cpp **** 
  70:/home/jonas/warwick/3dProfilometer/xpcc/src/xpcc/architecture/platform/cortex_m3/stm32/timer/timer_1.cpp **** void
  71:/home/jonas/warwick/3dProfilometer/xpcc/src/xpcc/architecture/platform/cortex_m3/stm32/timer/timer_1.cpp **** xpcc::stm32::Timer1::disable()
  72:/home/jonas/warwick/3dProfilometer/xpcc/src/xpcc/architecture/platform/cortex_m3/stm32/timer/timer_1.cpp **** {
  62              		.loc 1 72 0
  63              		.cfi_startproc
  64              		@ args = 0, pretend = 0, frame = 0
  65              		@ frame_needed = 0, uses_anonymous_args = 0
  66              		@ link register save eliminated.
  73:/home/jonas/warwick/3dProfilometer/xpcc/src/xpcc/architecture/platform/cortex_m3/stm32/timer/timer_1.cpp **** 	// disable clock
  74:/home/jonas/warwick/3dProfilometer/xpcc/src/xpcc/architecture/platform/cortex_m3/stm32/timer/timer_1.cpp **** 	RCC->APB2ENR &= ~RCC_APB2ENR_TIM1EN;
  67              		.loc 1 74 0
  68 0000 0549     		ldr	r1, .L5
  75:/home/jonas/warwick/3dProfilometer/xpcc/src/xpcc/architecture/platform/cortex_m3/stm32/timer/timer_1.cpp **** 	
  76:/home/jonas/warwick/3dProfilometer/xpcc/src/xpcc/architecture/platform/cortex_m3/stm32/timer/timer_1.cpp **** 	TIM1->CR1 = 0;
  69              		.loc 1 76 0
  70 0002 064B     		ldr	r3, .L5+4
  74:/home/jonas/warwick/3dProfilometer/xpcc/src/xpcc/architecture/platform/cortex_m3/stm32/timer/timer_1.cpp **** 	RCC->APB2ENR &= ~RCC_APB2ENR_TIM1EN;
  71              		.loc 1 74 0
  72 0004 486C     		ldr	r0, [r1, #68]
  73              		.loc 1 76 0
  74 0006 0022     		movs	r2, #0
  74:/home/jonas/warwick/3dProfilometer/xpcc/src/xpcc/architecture/platform/cortex_m3/stm32/timer/timer_1.cpp **** 	RCC->APB2ENR &= ~RCC_APB2ENR_TIM1EN;
  75              		.loc 1 74 0
  76 0008 20F00100 		bic	r0, r0, #1
  77 000c 4864     		str	r0, [r1, #68]
  78              		.loc 1 76 0
  79 000e 1A80     		strh	r2, [r3, #0]	@ movhi
  77:/home/jonas/warwick/3dProfilometer/xpcc/src/xpcc/architecture/platform/cortex_m3/stm32/timer/timer_1.cpp **** 	TIM1->DIER = 0;
  80              		.loc 1 77 0
  81 0010 9A81     		strh	r2, [r3, #12]	@ movhi
  78:/home/jonas/warwick/3dProfilometer/xpcc/src/xpcc/architecture/platform/cortex_m3/stm32/timer/timer_1.cpp **** 	TIM1->CCER = 0;
  82              		.loc 1 78 0
  83 0012 1A84     		strh	r2, [r3, #32]	@ movhi
  84 0014 7047     		bx	lr
  85              	.L6:
  86 0016 00BF     		.align	2
  87              	.L5:
  88 0018 00380240 		.word	1073887232
  89 001c 00000140 		.word	1073807360
  90              		.cfi_endproc
  91              	.LFE166:
  93              		.section	.text._ZN4xpcc5stm326Timer17setModeENS0_19GeneralPurposeTimer4ModeENS1_9SlaveModeENS1_16S
  94              		.align	2
  95              		.global	_ZN4xpcc5stm326Timer17setModeENS0_19GeneralPurposeTimer4ModeENS1_9SlaveModeENS1_16SlaveMod
  96              		.thumb
  97              		.thumb_func
  99              	_ZN4xpcc5stm326Timer17setModeENS0_19GeneralPurposeTimer4ModeENS1_9SlaveModeENS1_16SlaveModeTriggerE
 100              	.LFB167:
  79:/home/jonas/warwick/3dProfilometer/xpcc/src/xpcc/architecture/platform/cortex_m3/stm32/timer/timer_1.cpp **** }
  80:/home/jonas/warwick/3dProfilometer/xpcc/src/xpcc/architecture/platform/cortex_m3/stm32/timer/timer_1.cpp **** 
  81:/home/jonas/warwick/3dProfilometer/xpcc/src/xpcc/architecture/platform/cortex_m3/stm32/timer/timer_1.cpp **** // ----------------------------------------------------------------------------
  82:/home/jonas/warwick/3dProfilometer/xpcc/src/xpcc/architecture/platform/cortex_m3/stm32/timer/timer_1.cpp **** void
  83:/home/jonas/warwick/3dProfilometer/xpcc/src/xpcc/architecture/platform/cortex_m3/stm32/timer/timer_1.cpp **** xpcc::stm32::Timer1::setMode(Mode mode, SlaveMode slaveMode,
  84:/home/jonas/warwick/3dProfilometer/xpcc/src/xpcc/architecture/platform/cortex_m3/stm32/timer/timer_1.cpp **** 		SlaveModeTrigger slaveModeTrigger, MasterMode masterMode
  85:/home/jonas/warwick/3dProfilometer/xpcc/src/xpcc/architecture/platform/cortex_m3/stm32/timer/timer_1.cpp **** #if defined(STM32F3XX)
  86:/home/jonas/warwick/3dProfilometer/xpcc/src/xpcc/architecture/platform/cortex_m3/stm32/timer/timer_1.cpp **** 		, MasterMode2 masterMode2
  87:/home/jonas/warwick/3dProfilometer/xpcc/src/xpcc/architecture/platform/cortex_m3/stm32/timer/timer_1.cpp **** #endif /* defined(STM32F3XX) */
  88:/home/jonas/warwick/3dProfilometer/xpcc/src/xpcc/architecture/platform/cortex_m3/stm32/timer/timer_1.cpp **** 		)
  89:/home/jonas/warwick/3dProfilometer/xpcc/src/xpcc/architecture/platform/cortex_m3/stm32/timer/timer_1.cpp **** {
 101              		.loc 1 89 0
 102              		.cfi_startproc
 103              		@ args = 0, pretend = 0, frame = 0
 104              		@ frame_needed = 0, uses_anonymous_args = 0
 105              		@ link register save eliminated.
 106              	.LVL0:
 107 0000 70B4     		push	{r4, r5, r6}
 108              	.LCFI0:
 109              		.cfi_def_cfa_offset 12
 110              		.cfi_offset 4, -12
 111              		.cfi_offset 5, -8
 112              		.cfi_offset 6, -4
  90:/home/jonas/warwick/3dProfilometer/xpcc/src/xpcc/architecture/platform/cortex_m3/stm32/timer/timer_1.cpp **** 	// disable timer
  91:/home/jonas/warwick/3dProfilometer/xpcc/src/xpcc/architecture/platform/cortex_m3/stm32/timer/timer_1.cpp **** 	TIM1->CR1 = 0;
 113              		.loc 1 91 0
 114 0002 084C     		ldr	r4, .L9
  92:/home/jonas/warwick/3dProfilometer/xpcc/src/xpcc/architecture/platform/cortex_m3/stm32/timer/timer_1.cpp **** 	TIM1->CR2 = 0;
  93:/home/jonas/warwick/3dProfilometer/xpcc/src/xpcc/architecture/platform/cortex_m3/stm32/timer/timer_1.cpp **** 	
  94:/home/jonas/warwick/3dProfilometer/xpcc/src/xpcc/architecture/platform/cortex_m3/stm32/timer/timer_1.cpp **** 	if (slaveMode == SLAVE_ENCODER_1 || slaveMode == SLAVE_ENCODER_2 || slaveMode == SLAVE_ENCODER_3)
 115              		.loc 1 94 0
 116 0004 4E1E     		subs	r6, r1, #1
  91:/home/jonas/warwick/3dProfilometer/xpcc/src/xpcc/architecture/platform/cortex_m3/stm32/timer/timer_1.cpp **** 	TIM1->CR1 = 0;
 117              		.loc 1 91 0
 118 0006 0025     		movs	r5, #0
 119              		.loc 1 94 0
 120 0008 022E     		cmp	r6, #2
 121              	.LVL1:
  91:/home/jonas/warwick/3dProfilometer/xpcc/src/xpcc/architecture/platform/cortex_m3/stm32/timer/timer_1.cpp **** 	TIM1->CR1 = 0;
 122              		.loc 1 91 0
 123 000a 2580     		strh	r5, [r4, #0]	@ movhi
  92:/home/jonas/warwick/3dProfilometer/xpcc/src/xpcc/architecture/platform/cortex_m3/stm32/timer/timer_1.cpp **** 	TIM1->CR2 = 0;
 124              		.loc 1 92 0
 125 000c A580     		strh	r5, [r4, #4]	@ movhi
 126              	.LBB71:
 127              	.LBB72:
 128              		.file 2 "/home/jonas/warwick/3dProfilometer/xpcc/src/xpcc/architecture/platform/cortex_m3/stm32/ti
   1:/home/jonas/warwick/3dProfilometer/xpcc/src/xpcc/architecture/platform/cortex_m3/stm32/timer/timer_1.hpp **** // coding: utf-8
   2:/home/jonas/warwick/3dProfilometer/xpcc/src/xpcc/architecture/platform/cortex_m3/stm32/timer/timer_1.hpp **** // ----------------------------------------------------------------------------
   3:/home/jonas/warwick/3dProfilometer/xpcc/src/xpcc/architecture/platform/cortex_m3/stm32/timer/timer_1.hpp **** /* Copyright (c) 2011, Roboterclub Aachen e.V.
   4:/home/jonas/warwick/3dProfilometer/xpcc/src/xpcc/architecture/platform/cortex_m3/stm32/timer/timer_1.hpp ****  * All rights reserved.
   5:/home/jonas/warwick/3dProfilometer/xpcc/src/xpcc/architecture/platform/cortex_m3/stm32/timer/timer_1.hpp ****  *
   6:/home/jonas/warwick/3dProfilometer/xpcc/src/xpcc/architecture/platform/cortex_m3/stm32/timer/timer_1.hpp ****  * Redistribution and use in source and binary forms, with or without
   7:/home/jonas/warwick/3dProfilometer/xpcc/src/xpcc/architecture/platform/cortex_m3/stm32/timer/timer_1.hpp ****  * modification, are permitted provided that the following conditions are met:
   8:/home/jonas/warwick/3dProfilometer/xpcc/src/xpcc/architecture/platform/cortex_m3/stm32/timer/timer_1.hpp ****  * 
   9:/home/jonas/warwick/3dProfilometer/xpcc/src/xpcc/architecture/platform/cortex_m3/stm32/timer/timer_1.hpp ****  *     * Redistributions of source code must retain the above copyright
  10:/home/jonas/warwick/3dProfilometer/xpcc/src/xpcc/architecture/platform/cortex_m3/stm32/timer/timer_1.hpp ****  *       notice, this list of conditions and the following disclaimer.
  11:/home/jonas/warwick/3dProfilometer/xpcc/src/xpcc/architecture/platform/cortex_m3/stm32/timer/timer_1.hpp ****  *     * Redistributions in binary form must reproduce the above copyright
  12:/home/jonas/warwick/3dProfilometer/xpcc/src/xpcc/architecture/platform/cortex_m3/stm32/timer/timer_1.hpp ****  *       notice, this list of conditions and the following disclaimer in the
  13:/home/jonas/warwick/3dProfilometer/xpcc/src/xpcc/architecture/platform/cortex_m3/stm32/timer/timer_1.hpp ****  *       documentation and/or other materials provided with the distribution.
  14:/home/jonas/warwick/3dProfilometer/xpcc/src/xpcc/architecture/platform/cortex_m3/stm32/timer/timer_1.hpp ****  *     * Neither the name of the Roboterclub Aachen e.V. nor the
  15:/home/jonas/warwick/3dProfilometer/xpcc/src/xpcc/architecture/platform/cortex_m3/stm32/timer/timer_1.hpp ****  *       names of its contributors may be used to endorse or promote products
  16:/home/jonas/warwick/3dProfilometer/xpcc/src/xpcc/architecture/platform/cortex_m3/stm32/timer/timer_1.hpp ****  *       derived from this software without specific prior written permission.
  17:/home/jonas/warwick/3dProfilometer/xpcc/src/xpcc/architecture/platform/cortex_m3/stm32/timer/timer_1.hpp ****  *
  18:/home/jonas/warwick/3dProfilometer/xpcc/src/xpcc/architecture/platform/cortex_m3/stm32/timer/timer_1.hpp ****  * THIS SOFTWARE IS PROVIDED BY ROBOTERCLUB AACHEN E.V. ''AS IS'' AND ANY
  19:/home/jonas/warwick/3dProfilometer/xpcc/src/xpcc/architecture/platform/cortex_m3/stm32/timer/timer_1.hpp ****  * EXPRESS OR IMPLIED WARRANTIES, INCLUDING, BUT NOT LIMITED TO, THE IMPLIED
  20:/home/jonas/warwick/3dProfilometer/xpcc/src/xpcc/architecture/platform/cortex_m3/stm32/timer/timer_1.hpp ****  * WARRANTIES OF MERCHANTABILITY AND FITNESS FOR A PARTICULAR PURPOSE ARE
  21:/home/jonas/warwick/3dProfilometer/xpcc/src/xpcc/architecture/platform/cortex_m3/stm32/timer/timer_1.hpp ****  * DISCLAIMED. IN NO EVENT SHALL ROBOTERCLUB AACHEN E.V. BE LIABLE FOR ANY
  22:/home/jonas/warwick/3dProfilometer/xpcc/src/xpcc/architecture/platform/cortex_m3/stm32/timer/timer_1.hpp ****  * DIRECT, INDIRECT, INCIDENTAL, SPECIAL, EXEMPLARY, OR CONSEQUENTIAL DAMAGES
  23:/home/jonas/warwick/3dProfilometer/xpcc/src/xpcc/architecture/platform/cortex_m3/stm32/timer/timer_1.hpp ****  * (INCLUDING, BUT NOT LIMITED TO, PROCUREMENT OF SUBSTITUTE GOODS OR SERVICES;
  24:/home/jonas/warwick/3dProfilometer/xpcc/src/xpcc/architecture/platform/cortex_m3/stm32/timer/timer_1.hpp ****  * LOSS OF USE, DATA, OR PROFITS; OR BUSINESS INTERRUPTION) HOWEVER CAUSED AND
  25:/home/jonas/warwick/3dProfilometer/xpcc/src/xpcc/architecture/platform/cortex_m3/stm32/timer/timer_1.hpp ****  * ON ANY THEORY OF LIABILITY, WHETHER IN CONTRACT, STRICT LIABILITY, OR TORT
  26:/home/jonas/warwick/3dProfilometer/xpcc/src/xpcc/architecture/platform/cortex_m3/stm32/timer/timer_1.hpp ****  * (INCLUDING NEGLIGENCE OR OTHERWISE) ARISING IN ANY WAY OUT OF THE USE OF
  27:/home/jonas/warwick/3dProfilometer/xpcc/src/xpcc/architecture/platform/cortex_m3/stm32/timer/timer_1.hpp ****  * THIS SOFTWARE, EVEN IF ADVISED OF THE POSSIBILITY OF SUCH DAMAGE.
  28:/home/jonas/warwick/3dProfilometer/xpcc/src/xpcc/architecture/platform/cortex_m3/stm32/timer/timer_1.hpp ****  */
  29:/home/jonas/warwick/3dProfilometer/xpcc/src/xpcc/architecture/platform/cortex_m3/stm32/timer/timer_1.hpp **** // ----------------------------------------------------------------------------
  30:/home/jonas/warwick/3dProfilometer/xpcc/src/xpcc/architecture/platform/cortex_m3/stm32/timer/timer_1.hpp **** /*
  31:/home/jonas/warwick/3dProfilometer/xpcc/src/xpcc/architecture/platform/cortex_m3/stm32/timer/timer_1.hpp ****  * WARNING: This file is generated automatically, do not edit!
  32:/home/jonas/warwick/3dProfilometer/xpcc/src/xpcc/architecture/platform/cortex_m3/stm32/timer/timer_1.hpp ****  * Please modify the corresponding *.in file instead and rebuild this file. 
  33:/home/jonas/warwick/3dProfilometer/xpcc/src/xpcc/architecture/platform/cortex_m3/stm32/timer/timer_1.hpp ****  */
  34:/home/jonas/warwick/3dProfilometer/xpcc/src/xpcc/architecture/platform/cortex_m3/stm32/timer/timer_1.hpp **** // ----------------------------------------------------------------------------
  35:/home/jonas/warwick/3dProfilometer/xpcc/src/xpcc/architecture/platform/cortex_m3/stm32/timer/timer_1.hpp **** 
  36:/home/jonas/warwick/3dProfilometer/xpcc/src/xpcc/architecture/platform/cortex_m3/stm32/timer/timer_1.hpp **** #ifndef XPCC_STM32__TIMER_1_HPP
  37:/home/jonas/warwick/3dProfilometer/xpcc/src/xpcc/architecture/platform/cortex_m3/stm32/timer/timer_1.hpp **** #define XPCC_STM32__TIMER_1_HPP
  38:/home/jonas/warwick/3dProfilometer/xpcc/src/xpcc/architecture/platform/cortex_m3/stm32/timer/timer_1.hpp **** 
  39:/home/jonas/warwick/3dProfilometer/xpcc/src/xpcc/architecture/platform/cortex_m3/stm32/timer/timer_1.hpp **** #include "timer_base.hpp"
  40:/home/jonas/warwick/3dProfilometer/xpcc/src/xpcc/architecture/platform/cortex_m3/stm32/timer/timer_1.hpp **** 
  41:/home/jonas/warwick/3dProfilometer/xpcc/src/xpcc/architecture/platform/cortex_m3/stm32/timer/timer_1.hpp **** namespace xpcc
  42:/home/jonas/warwick/3dProfilometer/xpcc/src/xpcc/architecture/platform/cortex_m3/stm32/timer/timer_1.hpp **** {
  43:/home/jonas/warwick/3dProfilometer/xpcc/src/xpcc/architecture/platform/cortex_m3/stm32/timer/timer_1.hpp **** 	namespace stm32
  44:/home/jonas/warwick/3dProfilometer/xpcc/src/xpcc/architecture/platform/cortex_m3/stm32/timer/timer_1.hpp **** 	{
  45:/home/jonas/warwick/3dProfilometer/xpcc/src/xpcc/architecture/platform/cortex_m3/stm32/timer/timer_1.hpp **** 		/**
  46:/home/jonas/warwick/3dProfilometer/xpcc/src/xpcc/architecture/platform/cortex_m3/stm32/timer/timer_1.hpp **** 		 * @brief		Advanced Control Timer 1
  47:/home/jonas/warwick/3dProfilometer/xpcc/src/xpcc/architecture/platform/cortex_m3/stm32/timer/timer_1.hpp **** 		 * 
  48:/home/jonas/warwick/3dProfilometer/xpcc/src/xpcc/architecture/platform/cortex_m3/stm32/timer/timer_1.hpp **** 		 * 
  49:/home/jonas/warwick/3dProfilometer/xpcc/src/xpcc/architecture/platform/cortex_m3/stm32/timer/timer_1.hpp **** 		 * Interrupt handler (for LD, MD, HD and CL):
  50:/home/jonas/warwick/3dProfilometer/xpcc/src/xpcc/architecture/platform/cortex_m3/stm32/timer/timer_1.hpp **** 		 * - TIM1_BRK_IRQHandler
  51:/home/jonas/warwick/3dProfilometer/xpcc/src/xpcc/architecture/platform/cortex_m3/stm32/timer/timer_1.hpp **** 		 * - TIM1_UP_IRQHandler
  52:/home/jonas/warwick/3dProfilometer/xpcc/src/xpcc/architecture/platform/cortex_m3/stm32/timer/timer_1.hpp **** 		 * - TIM1_TRG_COM_IRQHandler
  53:/home/jonas/warwick/3dProfilometer/xpcc/src/xpcc/architecture/platform/cortex_m3/stm32/timer/timer_1.hpp **** 		 * - TIM1_CC_IRQHandler
  54:/home/jonas/warwick/3dProfilometer/xpcc/src/xpcc/architecture/platform/cortex_m3/stm32/timer/timer_1.hpp **** 		 * 
  55:/home/jonas/warwick/3dProfilometer/xpcc/src/xpcc/architecture/platform/cortex_m3/stm32/timer/timer_1.hpp **** 		 * Interrupt handler for XL Density:
  56:/home/jonas/warwick/3dProfilometer/xpcc/src/xpcc/architecture/platform/cortex_m3/stm32/timer/timer_1.hpp **** 		 * - TIM1_BRK_TIM9_IRQHandler
  57:/home/jonas/warwick/3dProfilometer/xpcc/src/xpcc/architecture/platform/cortex_m3/stm32/timer/timer_1.hpp **** 		 * - TIM1_UP_TIM10_IRQn
  58:/home/jonas/warwick/3dProfilometer/xpcc/src/xpcc/architecture/platform/cortex_m3/stm32/timer/timer_1.hpp **** 		 * - TIM1_TRG_COM_TIM11_IRQn
  59:/home/jonas/warwick/3dProfilometer/xpcc/src/xpcc/architecture/platform/cortex_m3/stm32/timer/timer_1.hpp **** 		 * - TIM1_CC_IRQn
  60:/home/jonas/warwick/3dProfilometer/xpcc/src/xpcc/architecture/platform/cortex_m3/stm32/timer/timer_1.hpp **** 		 * 
  61:/home/jonas/warwick/3dProfilometer/xpcc/src/xpcc/architecture/platform/cortex_m3/stm32/timer/timer_1.hpp **** 		 * 
  62:/home/jonas/warwick/3dProfilometer/xpcc/src/xpcc/architecture/platform/cortex_m3/stm32/timer/timer_1.hpp **** 		 * Example:
  63:/home/jonas/warwick/3dProfilometer/xpcc/src/xpcc/architecture/platform/cortex_m3/stm32/timer/timer_1.hpp **** 		 * \code
  64:/home/jonas/warwick/3dProfilometer/xpcc/src/xpcc/architecture/platform/cortex_m3/stm32/timer/timer_1.hpp **** 		 * extern "C" void
  65:/home/jonas/warwick/3dProfilometer/xpcc/src/xpcc/architecture/platform/cortex_m3/stm32/timer/timer_1.hpp **** 		 * TIM1_UP_IRQHandler(void)
  66:/home/jonas/warwick/3dProfilometer/xpcc/src/xpcc/architecture/platform/cortex_m3/stm32/timer/timer_1.hpp **** 		 * {
  67:/home/jonas/warwick/3dProfilometer/xpcc/src/xpcc/architecture/platform/cortex_m3/stm32/timer/timer_1.hpp **** 		 *     Timer1::resetInterruptFlags(Timer1::...);
  68:/home/jonas/warwick/3dProfilometer/xpcc/src/xpcc/architecture/platform/cortex_m3/stm32/timer/timer_1.hpp **** 		 *     
  69:/home/jonas/warwick/3dProfilometer/xpcc/src/xpcc/architecture/platform/cortex_m3/stm32/timer/timer_1.hpp **** 		 *     ...
  70:/home/jonas/warwick/3dProfilometer/xpcc/src/xpcc/architecture/platform/cortex_m3/stm32/timer/timer_1.hpp **** 		 * }
  71:/home/jonas/warwick/3dProfilometer/xpcc/src/xpcc/architecture/platform/cortex_m3/stm32/timer/timer_1.hpp **** 		 * \endcode
  72:/home/jonas/warwick/3dProfilometer/xpcc/src/xpcc/architecture/platform/cortex_m3/stm32/timer/timer_1.hpp **** 		 * 
  73:/home/jonas/warwick/3dProfilometer/xpcc/src/xpcc/architecture/platform/cortex_m3/stm32/timer/timer_1.hpp **** 		 * \warning	The Timer has much more possibilities than presented by this
  74:/home/jonas/warwick/3dProfilometer/xpcc/src/xpcc/architecture/platform/cortex_m3/stm32/timer/timer_1.hpp **** 		 * 			interface (e.g. Input Capture, Trigger for other Timers, DMA).
  75:/home/jonas/warwick/3dProfilometer/xpcc/src/xpcc/architecture/platform/cortex_m3/stm32/timer/timer_1.hpp **** 		 * 			It might be expanded in the future.
  76:/home/jonas/warwick/3dProfilometer/xpcc/src/xpcc/architecture/platform/cortex_m3/stm32/timer/timer_1.hpp **** 		 * 
  77:/home/jonas/warwick/3dProfilometer/xpcc/src/xpcc/architecture/platform/cortex_m3/stm32/timer/timer_1.hpp **** 		 * @author		Fabian Greif
  78:/home/jonas/warwick/3dProfilometer/xpcc/src/xpcc/architecture/platform/cortex_m3/stm32/timer/timer_1.hpp **** 		 * @ingroup		stm32
  79:/home/jonas/warwick/3dProfilometer/xpcc/src/xpcc/architecture/platform/cortex_m3/stm32/timer/timer_1.hpp **** 		 */
  80:/home/jonas/warwick/3dProfilometer/xpcc/src/xpcc/architecture/platform/cortex_m3/stm32/timer/timer_1.hpp **** 		class Timer1 : public AdvancedControlTimer
  81:/home/jonas/warwick/3dProfilometer/xpcc/src/xpcc/architecture/platform/cortex_m3/stm32/timer/timer_1.hpp **** 		{
  82:/home/jonas/warwick/3dProfilometer/xpcc/src/xpcc/architecture/platform/cortex_m3/stm32/timer/timer_1.hpp **** #if defined(STM32F2XX) || defined(STM32F3XX) || defined(STM32F4XX)
  83:/home/jonas/warwick/3dProfilometer/xpcc/src/xpcc/architecture/platform/cortex_m3/stm32/timer/timer_1.hpp **** 		public:
  84:/home/jonas/warwick/3dProfilometer/xpcc/src/xpcc/architecture/platform/cortex_m3/stm32/timer/timer_1.hpp **** 			
  85:/home/jonas/warwick/3dProfilometer/xpcc/src/xpcc/architecture/platform/cortex_m3/stm32/timer/timer_1.hpp **** #else
  86:/home/jonas/warwick/3dProfilometer/xpcc/src/xpcc/architecture/platform/cortex_m3/stm32/timer/timer_1.hpp **** 		public:
  87:/home/jonas/warwick/3dProfilometer/xpcc/src/xpcc/architecture/platform/cortex_m3/stm32/timer/timer_1.hpp **** 			enum Remap
  88:/home/jonas/warwick/3dProfilometer/xpcc/src/xpcc/architecture/platform/cortex_m3/stm32/timer/timer_1.hpp **** 			{
  89:/home/jonas/warwick/3dProfilometer/xpcc/src/xpcc/architecture/platform/cortex_m3/stm32/timer/timer_1.hpp **** 				NO_REMAP = AFIO_MAPR_TIM1_REMAP_NOREMAP,			///< ETR/PA12, CH1/PA8, CH2/PA9, CH3/PA10, CH4/PA11,
  90:/home/jonas/warwick/3dProfilometer/xpcc/src/xpcc/architecture/platform/cortex_m3/stm32/timer/timer_1.hpp **** 				PARTIAL_REMAP = AFIO_MAPR_TIM1_REMAP_PARTIALREMAP,	///< ETR/PA12, CH1/PA8, CH2/PA9, CH3/PA10, C
  91:/home/jonas/warwick/3dProfilometer/xpcc/src/xpcc/architecture/platform/cortex_m3/stm32/timer/timer_1.hpp **** 				FULL_REMAP = AFIO_MAPR_TIM1_REMAP_FULLREMAP,		///< ETR/PE7, CH1/PE9, CH2/PE11, CH3/PE13, CH4/PE
  92:/home/jonas/warwick/3dProfilometer/xpcc/src/xpcc/architecture/platform/cortex_m3/stm32/timer/timer_1.hpp **** 			};
  93:/home/jonas/warwick/3dProfilometer/xpcc/src/xpcc/architecture/platform/cortex_m3/stm32/timer/timer_1.hpp **** 			static const uint32_t remapMask = AFIO_MAPR_TIM1_REMAP;
  94:/home/jonas/warwick/3dProfilometer/xpcc/src/xpcc/architecture/platform/cortex_m3/stm32/timer/timer_1.hpp **** 			
  95:/home/jonas/warwick/3dProfilometer/xpcc/src/xpcc/architecture/platform/cortex_m3/stm32/timer/timer_1.hpp **** 			/**
  96:/home/jonas/warwick/3dProfilometer/xpcc/src/xpcc/architecture/platform/cortex_m3/stm32/timer/timer_1.hpp **** 			 * Remap compare channels to other locations.
  97:/home/jonas/warwick/3dProfilometer/xpcc/src/xpcc/architecture/platform/cortex_m3/stm32/timer/timer_1.hpp **** 			 * 
  98:/home/jonas/warwick/3dProfilometer/xpcc/src/xpcc/architecture/platform/cortex_m3/stm32/timer/timer_1.hpp **** 			 * The pins are not automatically initialized. This has to be
  99:/home/jonas/warwick/3dProfilometer/xpcc/src/xpcc/architecture/platform/cortex_m3/stm32/timer/timer_1.hpp **** 			 * done by the user.
 100:/home/jonas/warwick/3dProfilometer/xpcc/src/xpcc/architecture/platform/cortex_m3/stm32/timer/timer_1.hpp **** 			 */
 101:/home/jonas/warwick/3dProfilometer/xpcc/src/xpcc/architecture/platform/cortex_m3/stm32/timer/timer_1.hpp **** 			static inline void
 102:/home/jonas/warwick/3dProfilometer/xpcc/src/xpcc/architecture/platform/cortex_m3/stm32/timer/timer_1.hpp **** 			remapPins(Remap mapping)
 103:/home/jonas/warwick/3dProfilometer/xpcc/src/xpcc/architecture/platform/cortex_m3/stm32/timer/timer_1.hpp **** 			{
 104:/home/jonas/warwick/3dProfilometer/xpcc/src/xpcc/architecture/platform/cortex_m3/stm32/timer/timer_1.hpp **** 				AFIO->MAPR = (AFIO->MAPR & ~remapMask) | mapping;
 105:/home/jonas/warwick/3dProfilometer/xpcc/src/xpcc/architecture/platform/cortex_m3/stm32/timer/timer_1.hpp **** 			}
 106:/home/jonas/warwick/3dProfilometer/xpcc/src/xpcc/architecture/platform/cortex_m3/stm32/timer/timer_1.hpp **** #endif
 107:/home/jonas/warwick/3dProfilometer/xpcc/src/xpcc/architecture/platform/cortex_m3/stm32/timer/timer_1.hpp **** 			
 108:/home/jonas/warwick/3dProfilometer/xpcc/src/xpcc/architecture/platform/cortex_m3/stm32/timer/timer_1.hpp **** 		public:
 109:/home/jonas/warwick/3dProfilometer/xpcc/src/xpcc/architecture/platform/cortex_m3/stm32/timer/timer_1.hpp **** 			enum MasterMode
 110:/home/jonas/warwick/3dProfilometer/xpcc/src/xpcc/architecture/platform/cortex_m3/stm32/timer/timer_1.hpp **** 			{
 111:/home/jonas/warwick/3dProfilometer/xpcc/src/xpcc/architecture/platform/cortex_m3/stm32/timer/timer_1.hpp **** 				MASTER_RESET 			= 0,							// 0b000
 112:/home/jonas/warwick/3dProfilometer/xpcc/src/xpcc/architecture/platform/cortex_m3/stm32/timer/timer_1.hpp **** 				MASTER_ENABLE 			= TIM_CR2_MMS_0,				// 0b001
 113:/home/jonas/warwick/3dProfilometer/xpcc/src/xpcc/architecture/platform/cortex_m3/stm32/timer/timer_1.hpp **** 				MASTER_UPDATE 			= TIM_CR2_MMS_1,				// 0b010
 114:/home/jonas/warwick/3dProfilometer/xpcc/src/xpcc/architecture/platform/cortex_m3/stm32/timer/timer_1.hpp **** 				MASTER_COMPARE_PULSE 	= TIM_CR2_MMS_1 | TIM_CR2_MMS_0,// 0b011
 115:/home/jonas/warwick/3dProfilometer/xpcc/src/xpcc/architecture/platform/cortex_m3/stm32/timer/timer_1.hpp **** 				MASTER_COMPARE_OC1REF 	= TIM_CR2_MMS_2,				// 0b100
 116:/home/jonas/warwick/3dProfilometer/xpcc/src/xpcc/architecture/platform/cortex_m3/stm32/timer/timer_1.hpp **** 				MASTER_COMPARE_OC2REF 	= TIM_CR2_MMS_2 | TIM_CR2_MMS_0,// 0b101
 117:/home/jonas/warwick/3dProfilometer/xpcc/src/xpcc/architecture/platform/cortex_m3/stm32/timer/timer_1.hpp **** 				MASTER_COMPARE_OC3REF 	= TIM_CR2_MMS_2 | TIM_CR2_MMS_1,// 0b110
 118:/home/jonas/warwick/3dProfilometer/xpcc/src/xpcc/architecture/platform/cortex_m3/stm32/timer/timer_1.hpp **** 				MASTER_COMPARE_OC4REF 	= TIM_CR2_MMS_2 | TIM_CR2_MMS_1	// 0b111
 119:/home/jonas/warwick/3dProfilometer/xpcc/src/xpcc/architecture/platform/cortex_m3/stm32/timer/timer_1.hpp **** 														| TIM_CR2_MMS_0,
 120:/home/jonas/warwick/3dProfilometer/xpcc/src/xpcc/architecture/platform/cortex_m3/stm32/timer/timer_1.hpp **** 			};
 121:/home/jonas/warwick/3dProfilometer/xpcc/src/xpcc/architecture/platform/cortex_m3/stm32/timer/timer_1.hpp **** 
 122:/home/jonas/warwick/3dProfilometer/xpcc/src/xpcc/architecture/platform/cortex_m3/stm32/timer/timer_1.hpp **** 			enum CaptureCompareControlUpdate
 123:/home/jonas/warwick/3dProfilometer/xpcc/src/xpcc/architecture/platform/cortex_m3/stm32/timer/timer_1.hpp **** 			{
 124:/home/jonas/warwick/3dProfilometer/xpcc/src/xpcc/architecture/platform/cortex_m3/stm32/timer/timer_1.hpp **** 				SET_COMG = 0,
 125:/home/jonas/warwick/3dProfilometer/xpcc/src/xpcc/architecture/platform/cortex_m3/stm32/timer/timer_1.hpp **** 				SET_COMG_OR_TRGI_RIDING_EDGE = TIM_CR2_CCUS
 126:/home/jonas/warwick/3dProfilometer/xpcc/src/xpcc/architecture/platform/cortex_m3/stm32/timer/timer_1.hpp **** 			};
 127:/home/jonas/warwick/3dProfilometer/xpcc/src/xpcc/architecture/platform/cortex_m3/stm32/timer/timer_1.hpp **** 
 128:/home/jonas/warwick/3dProfilometer/xpcc/src/xpcc/architecture/platform/cortex_m3/stm32/timer/timer_1.hpp **** #if defined(STM32F3XX)
 129:/home/jonas/warwick/3dProfilometer/xpcc/src/xpcc/architecture/platform/cortex_m3/stm32/timer/timer_1.hpp **** 			enum MasterMode2
 130:/home/jonas/warwick/3dProfilometer/xpcc/src/xpcc/architecture/platform/cortex_m3/stm32/timer/timer_1.hpp **** 			{
 131:/home/jonas/warwick/3dProfilometer/xpcc/src/xpcc/architecture/platform/cortex_m3/stm32/timer/timer_1.hpp **** 				MASTER2_RESET			= 0,							//0b0000
 132:/home/jonas/warwick/3dProfilometer/xpcc/src/xpcc/architecture/platform/cortex_m3/stm32/timer/timer_1.hpp **** 				MASTER2_ENABLE			= TIM_CR2_MMS2_0,				//0b0001
 133:/home/jonas/warwick/3dProfilometer/xpcc/src/xpcc/architecture/platform/cortex_m3/stm32/timer/timer_1.hpp **** 				MASTER2_UPDATE			= TIM_CR2_MMS2_1,				//0b0010
 134:/home/jonas/warwick/3dProfilometer/xpcc/src/xpcc/architecture/platform/cortex_m3/stm32/timer/timer_1.hpp **** 				MASTER2_COMPARE_PULSE	= TIM_CR2_MMS2_1				//0b0010
 135:/home/jonas/warwick/3dProfilometer/xpcc/src/xpcc/architecture/platform/cortex_m3/stm32/timer/timer_1.hpp **** 										| TIM_CR2_MMS2_0,
 136:/home/jonas/warwick/3dProfilometer/xpcc/src/xpcc/architecture/platform/cortex_m3/stm32/timer/timer_1.hpp **** 				MASTER2_COMPARE_OC1REF	= TIM_CR2_MMS2_2,				//0b0100
 137:/home/jonas/warwick/3dProfilometer/xpcc/src/xpcc/architecture/platform/cortex_m3/stm32/timer/timer_1.hpp **** 				MASTER2_COMPARE_OC2REF	= TIM_CR2_MMS2_2				//0b0101
 138:/home/jonas/warwick/3dProfilometer/xpcc/src/xpcc/architecture/platform/cortex_m3/stm32/timer/timer_1.hpp **** 										| TIM_CR2_MMS2_0,
 139:/home/jonas/warwick/3dProfilometer/xpcc/src/xpcc/architecture/platform/cortex_m3/stm32/timer/timer_1.hpp **** 				MASTER2_COMPARE_OC3REF	= TIM_CR2_MMS2_2				//0b0110
 140:/home/jonas/warwick/3dProfilometer/xpcc/src/xpcc/architecture/platform/cortex_m3/stm32/timer/timer_1.hpp **** 										| TIM_CR2_MMS2_1,
 141:/home/jonas/warwick/3dProfilometer/xpcc/src/xpcc/architecture/platform/cortex_m3/stm32/timer/timer_1.hpp **** 				MASTER2_COMPARE_OC4REF	= TIM_CR2_MMS2_2				//0b0111
 142:/home/jonas/warwick/3dProfilometer/xpcc/src/xpcc/architecture/platform/cortex_m3/stm32/timer/timer_1.hpp **** 										| TIM_CR2_MMS2_1 | TIM_CR2_MMS2_0,
 143:/home/jonas/warwick/3dProfilometer/xpcc/src/xpcc/architecture/platform/cortex_m3/stm32/timer/timer_1.hpp **** 				MASTER2_COMPARE_OC5REF	= TIM_CR2_MMS2_3,				//0b1000
 144:/home/jonas/warwick/3dProfilometer/xpcc/src/xpcc/architecture/platform/cortex_m3/stm32/timer/timer_1.hpp **** 				MASTER2_COMPARE_OC6REF	= TIM_CR2_MMS2_3				//0b1001
 145:/home/jonas/warwick/3dProfilometer/xpcc/src/xpcc/architecture/platform/cortex_m3/stm32/timer/timer_1.hpp **** 										| TIM_CR2_MMS2_0,
 146:/home/jonas/warwick/3dProfilometer/xpcc/src/xpcc/architecture/platform/cortex_m3/stm32/timer/timer_1.hpp **** 				// TODO: Add other Master Modes
 147:/home/jonas/warwick/3dProfilometer/xpcc/src/xpcc/architecture/platform/cortex_m3/stm32/timer/timer_1.hpp **** 			};
 148:/home/jonas/warwick/3dProfilometer/xpcc/src/xpcc/architecture/platform/cortex_m3/stm32/timer/timer_1.hpp **** #endif /* defined(STM32F3XX) */
 149:/home/jonas/warwick/3dProfilometer/xpcc/src/xpcc/architecture/platform/cortex_m3/stm32/timer/timer_1.hpp **** 
 150:/home/jonas/warwick/3dProfilometer/xpcc/src/xpcc/architecture/platform/cortex_m3/stm32/timer/timer_1.hpp **** 			enum SlaveModeTrigger
 151:/home/jonas/warwick/3dProfilometer/xpcc/src/xpcc/architecture/platform/cortex_m3/stm32/timer/timer_1.hpp **** 			{
 152:/home/jonas/warwick/3dProfilometer/xpcc/src/xpcc/architecture/platform/cortex_m3/stm32/timer/timer_1.hpp **** 				TRIGGER_INTERNAL_0 = 0,
 153:/home/jonas/warwick/3dProfilometer/xpcc/src/xpcc/architecture/platform/cortex_m3/stm32/timer/timer_1.hpp **** 				TRIGGER_INTERNAL_1 = TIM_SMCR_TS_0,
 154:/home/jonas/warwick/3dProfilometer/xpcc/src/xpcc/architecture/platform/cortex_m3/stm32/timer/timer_1.hpp **** 				TRIGGER_INTERNAL_2 = TIM_SMCR_TS_1,
 155:/home/jonas/warwick/3dProfilometer/xpcc/src/xpcc/architecture/platform/cortex_m3/stm32/timer/timer_1.hpp **** 				TRIGGER_INTERNAL_3 = TIM_SMCR_TS_1 | TIM_SMCR_TS_0,
 156:/home/jonas/warwick/3dProfilometer/xpcc/src/xpcc/architecture/platform/cortex_m3/stm32/timer/timer_1.hpp **** 				TRIGGER_TI1_EDGE_DETECTOR = TIM_SMCR_TS_2,
 157:/home/jonas/warwick/3dProfilometer/xpcc/src/xpcc/architecture/platform/cortex_m3/stm32/timer/timer_1.hpp **** 				TRIGGER_FILTERED_TI1 = TIM_SMCR_TS_2 | TIM_SMCR_TS_0,
 158:/home/jonas/warwick/3dProfilometer/xpcc/src/xpcc/architecture/platform/cortex_m3/stm32/timer/timer_1.hpp **** 				TRIGGER_FILTERED_TI2 = TIM_SMCR_TS_2 | TIM_SMCR_TS_1,
 159:/home/jonas/warwick/3dProfilometer/xpcc/src/xpcc/architecture/platform/cortex_m3/stm32/timer/timer_1.hpp **** 				TRIGGER_EXTERNAL = TIM_SMCR_TS_2 | TIM_SMCR_TS_1 | TIM_SMCR_TS_0,
 160:/home/jonas/warwick/3dProfilometer/xpcc/src/xpcc/architecture/platform/cortex_m3/stm32/timer/timer_1.hpp **** 			};
 161:/home/jonas/warwick/3dProfilometer/xpcc/src/xpcc/architecture/platform/cortex_m3/stm32/timer/timer_1.hpp **** 			
 162:/home/jonas/warwick/3dProfilometer/xpcc/src/xpcc/architecture/platform/cortex_m3/stm32/timer/timer_1.hpp **** 			enum SlaveMode
 163:/home/jonas/warwick/3dProfilometer/xpcc/src/xpcc/architecture/platform/cortex_m3/stm32/timer/timer_1.hpp **** 			{
 164:/home/jonas/warwick/3dProfilometer/xpcc/src/xpcc/architecture/platform/cortex_m3/stm32/timer/timer_1.hpp **** 				SLAVE_DISABLED	= 0, // Slave mode disabled - if CEN = '1' then the prescaler is clocked directl
 165:/home/jonas/warwick/3dProfilometer/xpcc/src/xpcc/architecture/platform/cortex_m3/stm32/timer/timer_1.hpp **** 				SLAVE_ENCODER_1	= TIM_SMCR_SMS_0, // Counter counts up/down on TI2FP2 edge depending on TI1FP1 
 166:/home/jonas/warwick/3dProfilometer/xpcc/src/xpcc/architecture/platform/cortex_m3/stm32/timer/timer_1.hpp **** 				SLAVE_ENCODER_2	= TIM_SMCR_SMS_1, // Counter counts up/down on TI1FP1 edge depending on TI2FP2 
 167:/home/jonas/warwick/3dProfilometer/xpcc/src/xpcc/architecture/platform/cortex_m3/stm32/timer/timer_1.hpp **** 				SLAVE_ENCODER_3	= TIM_SMCR_SMS_1 | TIM_SMCR_SMS_0, // Counter counts up/down on both TI1FP1 and
 168:/home/jonas/warwick/3dProfilometer/xpcc/src/xpcc/architecture/platform/cortex_m3/stm32/timer/timer_1.hpp **** 				SLAVE_RESET		= TIM_SMCR_SMS_2, // Rising edge of the selected trigger input (TRGI) reinitialize
 169:/home/jonas/warwick/3dProfilometer/xpcc/src/xpcc/architecture/platform/cortex_m3/stm32/timer/timer_1.hpp **** 				SLAVE_GATED		= TIM_SMCR_SMS_2 | TIM_SMCR_SMS_0, // The counter clock is enabled when the trigge
 170:/home/jonas/warwick/3dProfilometer/xpcc/src/xpcc/architecture/platform/cortex_m3/stm32/timer/timer_1.hpp **** 				SLAVE_TRIGGER	= TIM_SMCR_SMS_2 | TIM_SMCR_SMS_1, // The counter starts at a rising edge of the 
 171:/home/jonas/warwick/3dProfilometer/xpcc/src/xpcc/architecture/platform/cortex_m3/stm32/timer/timer_1.hpp **** 				SLAVE_EXTERNAL_CLOCK = TIM_SMCR_SMS_2 | TIM_SMCR_SMS_1 | TIM_SMCR_SMS_0, // Rising edges of the
 172:/home/jonas/warwick/3dProfilometer/xpcc/src/xpcc/architecture/platform/cortex_m3/stm32/timer/timer_1.hpp **** 			};
 173:/home/jonas/warwick/3dProfilometer/xpcc/src/xpcc/architecture/platform/cortex_m3/stm32/timer/timer_1.hpp **** 
 174:/home/jonas/warwick/3dProfilometer/xpcc/src/xpcc/architecture/platform/cortex_m3/stm32/timer/timer_1.hpp **** 			enum OffStateForRunMode
 175:/home/jonas/warwick/3dProfilometer/xpcc/src/xpcc/architecture/platform/cortex_m3/stm32/timer/timer_1.hpp **** 			{
 176:/home/jonas/warwick/3dProfilometer/xpcc/src/xpcc/architecture/platform/cortex_m3/stm32/timer/timer_1.hpp **** 				OSSR_DISABLE = 0,
 177:/home/jonas/warwick/3dProfilometer/xpcc/src/xpcc/architecture/platform/cortex_m3/stm32/timer/timer_1.hpp **** 				OSSR_ENABLE = TIM_BDTR_OSSR,
 178:/home/jonas/warwick/3dProfilometer/xpcc/src/xpcc/architecture/platform/cortex_m3/stm32/timer/timer_1.hpp **** 			};
 179:/home/jonas/warwick/3dProfilometer/xpcc/src/xpcc/architecture/platform/cortex_m3/stm32/timer/timer_1.hpp **** 
 180:/home/jonas/warwick/3dProfilometer/xpcc/src/xpcc/architecture/platform/cortex_m3/stm32/timer/timer_1.hpp **** 			enum OffStateForIdleMode
 181:/home/jonas/warwick/3dProfilometer/xpcc/src/xpcc/architecture/platform/cortex_m3/stm32/timer/timer_1.hpp **** 			{
 182:/home/jonas/warwick/3dProfilometer/xpcc/src/xpcc/architecture/platform/cortex_m3/stm32/timer/timer_1.hpp **** 				OSSI_DISABLE = 0,
 183:/home/jonas/warwick/3dProfilometer/xpcc/src/xpcc/architecture/platform/cortex_m3/stm32/timer/timer_1.hpp **** 				OSSI_ENABLE = TIM_BDTR_OSSI,
 184:/home/jonas/warwick/3dProfilometer/xpcc/src/xpcc/architecture/platform/cortex_m3/stm32/timer/timer_1.hpp **** 			};
 185:/home/jonas/warwick/3dProfilometer/xpcc/src/xpcc/architecture/platform/cortex_m3/stm32/timer/timer_1.hpp **** 
 186:/home/jonas/warwick/3dProfilometer/xpcc/src/xpcc/architecture/platform/cortex_m3/stm32/timer/timer_1.hpp **** 			enum OutputIdleState
 187:/home/jonas/warwick/3dProfilometer/xpcc/src/xpcc/architecture/platform/cortex_m3/stm32/timer/timer_1.hpp **** 			{
 188:/home/jonas/warwick/3dProfilometer/xpcc/src/xpcc/architecture/platform/cortex_m3/stm32/timer/timer_1.hpp **** 				IDLE_STATE_RESET = 0,
 189:/home/jonas/warwick/3dProfilometer/xpcc/src/xpcc/architecture/platform/cortex_m3/stm32/timer/timer_1.hpp **** 				IDLE_STATE_SET = TIM_CR2_OIS1,
 190:/home/jonas/warwick/3dProfilometer/xpcc/src/xpcc/architecture/platform/cortex_m3/stm32/timer/timer_1.hpp **** 			};
 191:/home/jonas/warwick/3dProfilometer/xpcc/src/xpcc/architecture/platform/cortex_m3/stm32/timer/timer_1.hpp **** 
 192:/home/jonas/warwick/3dProfilometer/xpcc/src/xpcc/architecture/platform/cortex_m3/stm32/timer/timer_1.hpp **** 			enum Event
 193:/home/jonas/warwick/3dProfilometer/xpcc/src/xpcc/architecture/platform/cortex_m3/stm32/timer/timer_1.hpp **** 			{
 194:/home/jonas/warwick/3dProfilometer/xpcc/src/xpcc/architecture/platform/cortex_m3/stm32/timer/timer_1.hpp **** 			#if defined(STM32F3XX)
 195:/home/jonas/warwick/3dProfilometer/xpcc/src/xpcc/architecture/platform/cortex_m3/stm32/timer/timer_1.hpp **** 				EVENT_BREAK_2 							= TIM_EGR_B2G,
 196:/home/jonas/warwick/3dProfilometer/xpcc/src/xpcc/architecture/platform/cortex_m3/stm32/timer/timer_1.hpp **** 			#endif
 197:/home/jonas/warwick/3dProfilometer/xpcc/src/xpcc/architecture/platform/cortex_m3/stm32/timer/timer_1.hpp **** 				EVENT_BREAK 							= TIM_EGR_BG,
 198:/home/jonas/warwick/3dProfilometer/xpcc/src/xpcc/architecture/platform/cortex_m3/stm32/timer/timer_1.hpp **** 				EVENT_TRIGGER 							= TIM_EGR_TG,
 199:/home/jonas/warwick/3dProfilometer/xpcc/src/xpcc/architecture/platform/cortex_m3/stm32/timer/timer_1.hpp **** 				EVENT_CAPTURE_COMPARE_CONTROL_UPDATE 	= TIM_EGR_COMG,
 200:/home/jonas/warwick/3dProfilometer/xpcc/src/xpcc/architecture/platform/cortex_m3/stm32/timer/timer_1.hpp **** 				EVENT_CAPTURE_COMPARE_4 				= TIM_EGR_CC4G,
 201:/home/jonas/warwick/3dProfilometer/xpcc/src/xpcc/architecture/platform/cortex_m3/stm32/timer/timer_1.hpp **** 				EVENT_CAPTURE_COMPARE_3 				= TIM_EGR_CC3G,
 202:/home/jonas/warwick/3dProfilometer/xpcc/src/xpcc/architecture/platform/cortex_m3/stm32/timer/timer_1.hpp **** 				EVENT_CAPTURE_COMPARE_2 				= TIM_EGR_CC2G,
 203:/home/jonas/warwick/3dProfilometer/xpcc/src/xpcc/architecture/platform/cortex_m3/stm32/timer/timer_1.hpp **** 				EVENT_CAPTURE_COMPARE_1 				= TIM_EGR_CC1G,
 204:/home/jonas/warwick/3dProfilometer/xpcc/src/xpcc/architecture/platform/cortex_m3/stm32/timer/timer_1.hpp **** 				EVENT_UPDATE 							= TIM_EGR_UG,
 205:/home/jonas/warwick/3dProfilometer/xpcc/src/xpcc/architecture/platform/cortex_m3/stm32/timer/timer_1.hpp **** 			};
 206:/home/jonas/warwick/3dProfilometer/xpcc/src/xpcc/architecture/platform/cortex_m3/stm32/timer/timer_1.hpp **** 
 207:/home/jonas/warwick/3dProfilometer/xpcc/src/xpcc/architecture/platform/cortex_m3/stm32/timer/timer_1.hpp **** 			
 208:/home/jonas/warwick/3dProfilometer/xpcc/src/xpcc/architecture/platform/cortex_m3/stm32/timer/timer_1.hpp **** 			static void
 209:/home/jonas/warwick/3dProfilometer/xpcc/src/xpcc/architecture/platform/cortex_m3/stm32/timer/timer_1.hpp **** 			enable();
 210:/home/jonas/warwick/3dProfilometer/xpcc/src/xpcc/architecture/platform/cortex_m3/stm32/timer/timer_1.hpp **** 			
 211:/home/jonas/warwick/3dProfilometer/xpcc/src/xpcc/architecture/platform/cortex_m3/stm32/timer/timer_1.hpp **** 			static void
 212:/home/jonas/warwick/3dProfilometer/xpcc/src/xpcc/architecture/platform/cortex_m3/stm32/timer/timer_1.hpp **** 			disable();
 213:/home/jonas/warwick/3dProfilometer/xpcc/src/xpcc/architecture/platform/cortex_m3/stm32/timer/timer_1.hpp **** 			
 214:/home/jonas/warwick/3dProfilometer/xpcc/src/xpcc/architecture/platform/cortex_m3/stm32/timer/timer_1.hpp **** 			static inline void
 215:/home/jonas/warwick/3dProfilometer/xpcc/src/xpcc/architecture/platform/cortex_m3/stm32/timer/timer_1.hpp **** 			pause()
 216:/home/jonas/warwick/3dProfilometer/xpcc/src/xpcc/architecture/platform/cortex_m3/stm32/timer/timer_1.hpp **** 			{
 217:/home/jonas/warwick/3dProfilometer/xpcc/src/xpcc/architecture/platform/cortex_m3/stm32/timer/timer_1.hpp **** 				TIM1->CR1 &= ~TIM_CR1_CEN;
 218:/home/jonas/warwick/3dProfilometer/xpcc/src/xpcc/architecture/platform/cortex_m3/stm32/timer/timer_1.hpp **** 			}
 219:/home/jonas/warwick/3dProfilometer/xpcc/src/xpcc/architecture/platform/cortex_m3/stm32/timer/timer_1.hpp **** 			
 220:/home/jonas/warwick/3dProfilometer/xpcc/src/xpcc/architecture/platform/cortex_m3/stm32/timer/timer_1.hpp **** 			static inline void
 221:/home/jonas/warwick/3dProfilometer/xpcc/src/xpcc/architecture/platform/cortex_m3/stm32/timer/timer_1.hpp **** 			start()
 222:/home/jonas/warwick/3dProfilometer/xpcc/src/xpcc/architecture/platform/cortex_m3/stm32/timer/timer_1.hpp **** 			{
 223:/home/jonas/warwick/3dProfilometer/xpcc/src/xpcc/architecture/platform/cortex_m3/stm32/timer/timer_1.hpp **** 				TIM1->CR1 |= TIM_CR1_CEN;
 224:/home/jonas/warwick/3dProfilometer/xpcc/src/xpcc/architecture/platform/cortex_m3/stm32/timer/timer_1.hpp **** 			}
 225:/home/jonas/warwick/3dProfilometer/xpcc/src/xpcc/architecture/platform/cortex_m3/stm32/timer/timer_1.hpp **** 			
 226:/home/jonas/warwick/3dProfilometer/xpcc/src/xpcc/architecture/platform/cortex_m3/stm32/timer/timer_1.hpp **** 			static void
 227:/home/jonas/warwick/3dProfilometer/xpcc/src/xpcc/architecture/platform/cortex_m3/stm32/timer/timer_1.hpp **** 			setMode(Mode mode,
 228:/home/jonas/warwick/3dProfilometer/xpcc/src/xpcc/architecture/platform/cortex_m3/stm32/timer/timer_1.hpp **** 					SlaveMode slaveMode = SLAVE_DISABLED,
 229:/home/jonas/warwick/3dProfilometer/xpcc/src/xpcc/architecture/platform/cortex_m3/stm32/timer/timer_1.hpp **** 					SlaveModeTrigger slaveModeTrigger = TRIGGER_INTERNAL_0,
 230:/home/jonas/warwick/3dProfilometer/xpcc/src/xpcc/architecture/platform/cortex_m3/stm32/timer/timer_1.hpp **** 					MasterMode masterMode = MASTER_RESET
 231:/home/jonas/warwick/3dProfilometer/xpcc/src/xpcc/architecture/platform/cortex_m3/stm32/timer/timer_1.hpp **** #if defined(STM32F3XX)
 232:/home/jonas/warwick/3dProfilometer/xpcc/src/xpcc/architecture/platform/cortex_m3/stm32/timer/timer_1.hpp **** 					, MasterMode2 masterMode2 = MASTER2_RESET
 233:/home/jonas/warwick/3dProfilometer/xpcc/src/xpcc/architecture/platform/cortex_m3/stm32/timer/timer_1.hpp **** #endif /* defined(STM32F3XX) */
 234:/home/jonas/warwick/3dProfilometer/xpcc/src/xpcc/architecture/platform/cortex_m3/stm32/timer/timer_1.hpp **** 					);
 235:/home/jonas/warwick/3dProfilometer/xpcc/src/xpcc/architecture/platform/cortex_m3/stm32/timer/timer_1.hpp **** 
 236:/home/jonas/warwick/3dProfilometer/xpcc/src/xpcc/architecture/platform/cortex_m3/stm32/timer/timer_1.hpp **** 			static inline void
 237:/home/jonas/warwick/3dProfilometer/xpcc/src/xpcc/architecture/platform/cortex_m3/stm32/timer/timer_1.hpp **** 			setCaptureCompareControlUpdate(CaptureCompareControlUpdate update)
 238:/home/jonas/warwick/3dProfilometer/xpcc/src/xpcc/architecture/platform/cortex_m3/stm32/timer/timer_1.hpp **** 			{
 239:/home/jonas/warwick/3dProfilometer/xpcc/src/xpcc/architecture/platform/cortex_m3/stm32/timer/timer_1.hpp **** 				TIM1->CR2 =  (TIM1->CR2 & ~TIM_CR2_CCUS)
 240:/home/jonas/warwick/3dProfilometer/xpcc/src/xpcc/architecture/platform/cortex_m3/stm32/timer/timer_1.hpp **** 									| update;
 241:/home/jonas/warwick/3dProfilometer/xpcc/src/xpcc/architecture/platform/cortex_m3/stm32/timer/timer_1.hpp **** 			};
 242:/home/jonas/warwick/3dProfilometer/xpcc/src/xpcc/architecture/platform/cortex_m3/stm32/timer/timer_1.hpp **** 
 243:/home/jonas/warwick/3dProfilometer/xpcc/src/xpcc/architecture/platform/cortex_m3/stm32/timer/timer_1.hpp **** 
 244:/home/jonas/warwick/3dProfilometer/xpcc/src/xpcc/architecture/platform/cortex_m3/stm32/timer/timer_1.hpp **** 			/*
 245:/home/jonas/warwick/3dProfilometer/xpcc/src/xpcc/architecture/platform/cortex_m3/stm32/timer/timer_1.hpp **** 			 * Enables Capture/Compare preloaded control
 246:/home/jonas/warwick/3dProfilometer/xpcc/src/xpcc/architecture/platform/cortex_m3/stm32/timer/timer_1.hpp **** 			 *
 247:/home/jonas/warwick/3dProfilometer/xpcc/src/xpcc/architecture/platform/cortex_m3/stm32/timer/timer_1.hpp **** 			 * If enabled CCxE, CCxNE and OCxM bits are preloaded and only
 248:/home/jonas/warwick/3dProfilometer/xpcc/src/xpcc/architecture/platform/cortex_m3/stm32/timer/timer_1.hpp **** 			 * updated when the COMG bit is set or on a rising edge on TRGI
 249:/home/jonas/warwick/3dProfilometer/xpcc/src/xpcc/architecture/platform/cortex_m3/stm32/timer/timer_1.hpp **** 			 * This is determined by the CaptureCompareControlUpdate setting.
 250:/home/jonas/warwick/3dProfilometer/xpcc/src/xpcc/architecture/platform/cortex_m3/stm32/timer/timer_1.hpp **** 			 */
 251:/home/jonas/warwick/3dProfilometer/xpcc/src/xpcc/architecture/platform/cortex_m3/stm32/timer/timer_1.hpp **** 			static inline void
 252:/home/jonas/warwick/3dProfilometer/xpcc/src/xpcc/architecture/platform/cortex_m3/stm32/timer/timer_1.hpp **** 			enableCaptureComparePreloadedControl
 253:/home/jonas/warwick/3dProfilometer/xpcc/src/xpcc/architecture/platform/cortex_m3/stm32/timer/timer_1.hpp **** 			(CaptureCompareControlUpdate update = SET_COMG)
 254:/home/jonas/warwick/3dProfilometer/xpcc/src/xpcc/architecture/platform/cortex_m3/stm32/timer/timer_1.hpp **** 			{
 255:/home/jonas/warwick/3dProfilometer/xpcc/src/xpcc/architecture/platform/cortex_m3/stm32/timer/timer_1.hpp **** 				TIM1->CR2 = (TIM1->CR2 & ~TIM_CR2_CCUS)
 256:/home/jonas/warwick/3dProfilometer/xpcc/src/xpcc/architecture/platform/cortex_m3/stm32/timer/timer_1.hpp **** 									| update | TIM_CR2_CCPC;
 257:/home/jonas/warwick/3dProfilometer/xpcc/src/xpcc/architecture/platform/cortex_m3/stm32/timer/timer_1.hpp **** 			}
 258:/home/jonas/warwick/3dProfilometer/xpcc/src/xpcc/architecture/platform/cortex_m3/stm32/timer/timer_1.hpp **** 
 259:/home/jonas/warwick/3dProfilometer/xpcc/src/xpcc/architecture/platform/cortex_m3/stm32/timer/timer_1.hpp **** 			static inline void
 260:/home/jonas/warwick/3dProfilometer/xpcc/src/xpcc/architecture/platform/cortex_m3/stm32/timer/timer_1.hpp **** 			disableCaptureComparePreloadedControl()
 261:/home/jonas/warwick/3dProfilometer/xpcc/src/xpcc/architecture/platform/cortex_m3/stm32/timer/timer_1.hpp **** 			{
 262:/home/jonas/warwick/3dProfilometer/xpcc/src/xpcc/architecture/platform/cortex_m3/stm32/timer/timer_1.hpp **** 				TIM1->CR2 &= ~TIM_CR2_CCPC;
 263:/home/jonas/warwick/3dProfilometer/xpcc/src/xpcc/architecture/platform/cortex_m3/stm32/timer/timer_1.hpp **** 			}
 264:/home/jonas/warwick/3dProfilometer/xpcc/src/xpcc/architecture/platform/cortex_m3/stm32/timer/timer_1.hpp **** 			
 265:/home/jonas/warwick/3dProfilometer/xpcc/src/xpcc/architecture/platform/cortex_m3/stm32/timer/timer_1.hpp **** 			static inline void
 266:/home/jonas/warwick/3dProfilometer/xpcc/src/xpcc/architecture/platform/cortex_m3/stm32/timer/timer_1.hpp **** 			setPrescaler(uint16_t prescaler)
 267:/home/jonas/warwick/3dProfilometer/xpcc/src/xpcc/architecture/platform/cortex_m3/stm32/timer/timer_1.hpp **** 			{
 268:/home/jonas/warwick/3dProfilometer/xpcc/src/xpcc/architecture/platform/cortex_m3/stm32/timer/timer_1.hpp **** 				// Because a prescaler of zero is not possible the actual
 269:/home/jonas/warwick/3dProfilometer/xpcc/src/xpcc/architecture/platform/cortex_m3/stm32/timer/timer_1.hpp **** 				// prescaler value is \p prescaler - 1 (see Datasheet)
 270:/home/jonas/warwick/3dProfilometer/xpcc/src/xpcc/architecture/platform/cortex_m3/stm32/timer/timer_1.hpp **** 				TIM1->PSC = prescaler - 1;
 129              		.loc 2 270 0
 130 000e 98BF     		it	ls
 131 0010 2585     		strhls	r5, [r4, #40]	@ movhi
 132              	.LBE72:
 133              	.LBE71:
  95:/home/jonas/warwick/3dProfilometer/xpcc/src/xpcc/architecture/platform/cortex_m3/stm32/timer/timer_1.cpp **** 	{
  96:/home/jonas/warwick/3dProfilometer/xpcc/src/xpcc/architecture/platform/cortex_m3/stm32/timer/timer_1.cpp **** 		setPrescaler(1);
  97:/home/jonas/warwick/3dProfilometer/xpcc/src/xpcc/architecture/platform/cortex_m3/stm32/timer/timer_1.cpp **** 	}
  98:/home/jonas/warwick/3dProfilometer/xpcc/src/xpcc/architecture/platform/cortex_m3/stm32/timer/timer_1.cpp **** 	
  99:/home/jonas/warwick/3dProfilometer/xpcc/src/xpcc/architecture/platform/cortex_m3/stm32/timer/timer_1.cpp **** 	// ARR Register is buffered, only Under/Overflow generates update interrupt
 100:/home/jonas/warwick/3dProfilometer/xpcc/src/xpcc/architecture/platform/cortex_m3/stm32/timer/timer_1.cpp **** 	TIM1->CR1 = TIM_CR1_ARPE | TIM_CR1_URS | mode;
 134              		.loc 1 100 0
 135 0012 044C     		ldr	r4, .L9
 136 0014 40F08400 		orr	r0, r0, #132
 137              	.LVL2:
 101:/home/jonas/warwick/3dProfilometer/xpcc/src/xpcc/architecture/platform/cortex_m3/stm32/timer/timer_1.cpp **** #if defined(STM32F3XX)
 102:/home/jonas/warwick/3dProfilometer/xpcc/src/xpcc/architecture/platform/cortex_m3/stm32/timer/timer_1.cpp **** 	TIM1->CR2 = masterMode | masterMode2;
 103:/home/jonas/warwick/3dProfilometer/xpcc/src/xpcc/architecture/platform/cortex_m3/stm32/timer/timer_1.cpp **** #else
 104:/home/jonas/warwick/3dProfilometer/xpcc/src/xpcc/architecture/platform/cortex_m3/stm32/timer/timer_1.cpp **** 	TIM1->CR2 = masterMode;
 105:/home/jonas/warwick/3dProfilometer/xpcc/src/xpcc/architecture/platform/cortex_m3/stm32/timer/timer_1.cpp **** #endif
 106:/home/jonas/warwick/3dProfilometer/xpcc/src/xpcc/architecture/platform/cortex_m3/stm32/timer/timer_1.cpp **** 	TIM1->SMCR = slaveMode|slaveModeTrigger;
 138              		.loc 1 106 0
 139 0018 1143     		orrs	r1, r1, r2
 140              	.LVL3:
 100:/home/jonas/warwick/3dProfilometer/xpcc/src/xpcc/architecture/platform/cortex_m3/stm32/timer/timer_1.cpp **** 	TIM1->CR1 = TIM_CR1_ARPE | TIM_CR1_URS | mode;
 141              		.loc 1 100 0
 142 001a 2080     		strh	r0, [r4, #0]	@ movhi
 104:/home/jonas/warwick/3dProfilometer/xpcc/src/xpcc/architecture/platform/cortex_m3/stm32/timer/timer_1.cpp **** 	TIM1->CR2 = masterMode;
 143              		.loc 1 104 0
 144 001c A380     		strh	r3, [r4, #4]	@ movhi
 145              		.loc 1 106 0
 146 001e 2181     		strh	r1, [r4, #8]	@ movhi
 107:/home/jonas/warwick/3dProfilometer/xpcc/src/xpcc/architecture/platform/cortex_m3/stm32/timer/timer_1.cpp **** }
 147              		.loc 1 107 0
 148 0020 70BC     		pop	{r4, r5, r6}
 149 0022 7047     		bx	lr
 150              	.L10:
 151              		.align	2
 152              	.L9:
 153 0024 00000140 		.word	1073807360
 154              		.cfi_endproc
 155              	.LFE167:
 157              		.section	.text._ZN4xpcc5stm326Timer19setPeriodEmb,"ax",%progbits
 158              		.align	2
 159              		.global	_ZN4xpcc5stm326Timer19setPeriodEmb
 160              		.thumb
 161              		.thumb_func
 163              	_ZN4xpcc5stm326Timer19setPeriodEmb:
 164              	.LFB168:
 108:/home/jonas/warwick/3dProfilometer/xpcc/src/xpcc/architecture/platform/cortex_m3/stm32/timer/timer_1.cpp **** 
 109:/home/jonas/warwick/3dProfilometer/xpcc/src/xpcc/architecture/platform/cortex_m3/stm32/timer/timer_1.cpp **** // ----------------------------------------------------------------------------
 110:/home/jonas/warwick/3dProfilometer/xpcc/src/xpcc/architecture/platform/cortex_m3/stm32/timer/timer_1.cpp **** uint16_t
 111:/home/jonas/warwick/3dProfilometer/xpcc/src/xpcc/architecture/platform/cortex_m3/stm32/timer/timer_1.cpp **** xpcc::stm32::Timer1::setPeriod(uint32_t microseconds, bool autoApply)
 112:/home/jonas/warwick/3dProfilometer/xpcc/src/xpcc/architecture/platform/cortex_m3/stm32/timer/timer_1.cpp **** {
 165              		.loc 1 112 0
 166              		.cfi_startproc
 167              		@ args = 0, pretend = 0, frame = 0
 168              		@ frame_needed = 0, uses_anonymous_args = 0
 169              		@ link register save eliminated.
 170              	.LVL4:
 171              	.LBB73:
 113:/home/jonas/warwick/3dProfilometer/xpcc/src/xpcc/architecture/platform/cortex_m3/stm32/timer/timer_1.cpp **** 	// This will be inaccurate for non-smooth frequencies (last six digits
 114:/home/jonas/warwick/3dProfilometer/xpcc/src/xpcc/architecture/platform/cortex_m3/stm32/timer/timer_1.cpp **** 	// unequal to zero)
 115:/home/jonas/warwick/3dProfilometer/xpcc/src/xpcc/architecture/platform/cortex_m3/stm32/timer/timer_1.cpp **** 	uint32_t cycles = microseconds * (
 116:/home/jonas/warwick/3dProfilometer/xpcc/src/xpcc/architecture/platform/cortex_m3/stm32/timer/timer_1.cpp **** 			((STM32_APB2_FREQUENCY==STM32_AHB_FREQUENCY)?1:2) * 
 117:/home/jonas/warwick/3dProfilometer/xpcc/src/xpcc/architecture/platform/cortex_m3/stm32/timer/timer_1.cpp **** 			STM32_APB2_FREQUENCY / 1000000UL);
 172              		.loc 1 117 0
 173 0000 A823     		movs	r3, #168
 174 0002 03FB00F0 		mul	r0, r3, r0
 175              	.LVL5:
 118:/home/jonas/warwick/3dProfilometer/xpcc/src/xpcc/architecture/platform/cortex_m3/stm32/timer/timer_1.cpp **** 	uint16_t prescaler = (cycles + 65535) / 65536;	// always round up
 176              		.loc 1 118 0
 177 0006 00F57F43 		add	r3, r0, #65280
 178 000a FF33     		adds	r3, r3, #255
 179 000c 1A0C     		lsrs	r2, r3, #16
 180              	.LVL6:
 119:/home/jonas/warwick/3dProfilometer/xpcc/src/xpcc/architecture/platform/cortex_m3/stm32/timer/timer_1.cpp **** 	uint16_t overflow = cycles / prescaler;
 181              		.loc 1 119 0
 182 000e B0FBF2F0 		udiv	r0, r0, r2
 183              	.LVL7:
 184              	.LBB74:
 185              	.LBB75:
 186              		.loc 2 270 0
 187 0012 064B     		ldr	r3, .L17
 188              	.LVL8:
 189              	.LBE75:
 190              	.LBE74:
 120:/home/jonas/warwick/3dProfilometer/xpcc/src/xpcc/architecture/platform/cortex_m3/stm32/timer/timer_1.cpp **** 	
 121:/home/jonas/warwick/3dProfilometer/xpcc/src/xpcc/architecture/platform/cortex_m3/stm32/timer/timer_1.cpp **** 	overflow = overflow - 1;	// e.g. 36000 cycles are from 0 to 35999
 191              		.loc 1 121 0
 192 0014 0138     		subs	r0, r0, #1
 193              	.LVL9:
 194              	.LBB78:
 195              	.LBB76:
 196              		.loc 2 270 0
 197 0016 013A     		subs	r2, r2, #1
 198              	.LVL10:
 199              	.LBE76:
 200              	.LBE78:
 201              		.loc 1 121 0
 202 0018 80B2     		uxth	r0, r0
 203              	.LVL11:
 204              	.LBB79:
 205              	.LBB77:
 206              		.loc 2 270 0
 207 001a 1A85     		strh	r2, [r3, #40]	@ movhi
 208              	.LVL12:
 209              	.LBE77:
 210              	.LBE79:
 211              	.LBB80:
 212              	.LBB81:
 271:/home/jonas/warwick/3dProfilometer/xpcc/src/xpcc/architecture/platform/cortex_m3/stm32/timer/timer_1.hpp **** 			}
 272:/home/jonas/warwick/3dProfilometer/xpcc/src/xpcc/architecture/platform/cortex_m3/stm32/timer/timer_1.hpp **** 			
 273:/home/jonas/warwick/3dProfilometer/xpcc/src/xpcc/architecture/platform/cortex_m3/stm32/timer/timer_1.hpp **** 			static inline void
 274:/home/jonas/warwick/3dProfilometer/xpcc/src/xpcc/architecture/platform/cortex_m3/stm32/timer/timer_1.hpp **** 			setOverflow(uint16_t overflow)
 275:/home/jonas/warwick/3dProfilometer/xpcc/src/xpcc/architecture/platform/cortex_m3/stm32/timer/timer_1.hpp **** 			{
 276:/home/jonas/warwick/3dProfilometer/xpcc/src/xpcc/architecture/platform/cortex_m3/stm32/timer/timer_1.hpp **** 				TIM1->ARR = overflow;
 213              		.loc 2 276 0
 214 001c D862     		str	r0, [r3, #44]
 215              	.LBE81:
 216              	.LBE80:
 122:/home/jonas/warwick/3dProfilometer/xpcc/src/xpcc/architecture/platform/cortex_m3/stm32/timer/timer_1.cpp **** 	
 123:/home/jonas/warwick/3dProfilometer/xpcc/src/xpcc/architecture/platform/cortex_m3/stm32/timer/timer_1.cpp **** 	setPrescaler(prescaler);
 124:/home/jonas/warwick/3dProfilometer/xpcc/src/xpcc/architecture/platform/cortex_m3/stm32/timer/timer_1.cpp **** 	setOverflow(overflow);
 125:/home/jonas/warwick/3dProfilometer/xpcc/src/xpcc/architecture/platform/cortex_m3/stm32/timer/timer_1.cpp **** 	
 126:/home/jonas/warwick/3dProfilometer/xpcc/src/xpcc/architecture/platform/cortex_m3/stm32/timer/timer_1.cpp **** 	if (autoApply) {
 217              		.loc 1 126 0
 218 001e 21B1     		cbz	r1, .L12
 127:/home/jonas/warwick/3dProfilometer/xpcc/src/xpcc/architecture/platform/cortex_m3/stm32/timer/timer_1.cpp **** 		// Generate Update Event to apply the new settings for ARR
 128:/home/jonas/warwick/3dProfilometer/xpcc/src/xpcc/architecture/platform/cortex_m3/stm32/timer/timer_1.cpp **** 		TIM1->EGR |= TIM_EGR_UG;
 219              		.loc 1 128 0
 220 0020 9A8A     		ldrh	r2, [r3, #20]
 221              	.LVL13:
 222 0022 92B2     		uxth	r2, r2
 223 0024 42F00102 		orr	r2, r2, #1
 224 0028 9A82     		strh	r2, [r3, #20]	@ movhi
 225              	.L12:
 226              	.LBE73:
 129:/home/jonas/warwick/3dProfilometer/xpcc/src/xpcc/architecture/platform/cortex_m3/stm32/timer/timer_1.cpp **** 	}
 130:/home/jonas/warwick/3dProfilometer/xpcc/src/xpcc/architecture/platform/cortex_m3/stm32/timer/timer_1.cpp **** 	
 131:/home/jonas/warwick/3dProfilometer/xpcc/src/xpcc/architecture/platform/cortex_m3/stm32/timer/timer_1.cpp **** 	return overflow;
 132:/home/jonas/warwick/3dProfilometer/xpcc/src/xpcc/architecture/platform/cortex_m3/stm32/timer/timer_1.cpp **** }
 227              		.loc 1 132 0
 228 002a 7047     		bx	lr
 229              	.L18:
 230              		.align	2
 231              	.L17:
 232 002c 00000140 		.word	1073807360
 233              		.cfi_endproc
 234              	.LFE168:
 236              		.section	.text._ZN4xpcc5stm326Timer121configureInputChannelEmNS0_19GeneralPurposeTimer19InputCaptu
 237              		.align	2
 238              		.global	_ZN4xpcc5stm326Timer121configureInputChannelEmNS0_19GeneralPurposeTimer19InputCaptureMappi
 239              		.thumb
 240              		.thumb_func
 242              	_ZN4xpcc5stm326Timer121configureInputChannelEmNS0_19GeneralPurposeTimer19InputCaptureMappingENS2_21
 243              	.LFB169:
 133:/home/jonas/warwick/3dProfilometer/xpcc/src/xpcc/architecture/platform/cortex_m3/stm32/timer/timer_1.cpp **** 
 134:/home/jonas/warwick/3dProfilometer/xpcc/src/xpcc/architecture/platform/cortex_m3/stm32/timer/timer_1.cpp **** // ----------------------------------------------------------------------------
 135:/home/jonas/warwick/3dProfilometer/xpcc/src/xpcc/architecture/platform/cortex_m3/stm32/timer/timer_1.cpp **** void
 136:/home/jonas/warwick/3dProfilometer/xpcc/src/xpcc/architecture/platform/cortex_m3/stm32/timer/timer_1.cpp **** xpcc::stm32::Timer1::configureInputChannel(uint32_t channel,
 137:/home/jonas/warwick/3dProfilometer/xpcc/src/xpcc/architecture/platform/cortex_m3/stm32/timer/timer_1.cpp **** 		InputCaptureMapping input, InputCapturePrescaler prescaler,
 138:/home/jonas/warwick/3dProfilometer/xpcc/src/xpcc/architecture/platform/cortex_m3/stm32/timer/timer_1.cpp **** 		InputCapturePolarity polarity, uint8_t filter,
 139:/home/jonas/warwick/3dProfilometer/xpcc/src/xpcc/architecture/platform/cortex_m3/stm32/timer/timer_1.cpp **** 		bool xor_ch1_3)
 140:/home/jonas/warwick/3dProfilometer/xpcc/src/xpcc/architecture/platform/cortex_m3/stm32/timer/timer_1.cpp **** {
 244              		.loc 1 140 0
 245              		.cfi_startproc
 246              		@ args = 8, pretend = 0, frame = 0
 247              		@ frame_needed = 0, uses_anonymous_args = 0
 248              		@ link register save eliminated.
 249              	.LVL14:
 250 0000 2DE9F001 		push	{r4, r5, r6, r7, r8}
 251              	.LCFI1:
 252              		.cfi_def_cfa_offset 20
 253              		.cfi_offset 4, -20
 254              		.cfi_offset 5, -16
 255              		.cfi_offset 6, -12
 256              		.cfi_offset 7, -8
 257              		.cfi_offset 8, -4
 258              	.LBB82:
 141:/home/jonas/warwick/3dProfilometer/xpcc/src/xpcc/architecture/platform/cortex_m3/stm32/timer/timer_1.cpp **** 	channel -= 1;	// 1..4 -> 0..3
 142:/home/jonas/warwick/3dProfilometer/xpcc/src/xpcc/architecture/platform/cortex_m3/stm32/timer/timer_1.cpp **** 	
 143:/home/jonas/warwick/3dProfilometer/xpcc/src/xpcc/architecture/platform/cortex_m3/stm32/timer/timer_1.cpp **** 	// disable channel
 144:/home/jonas/warwick/3dProfilometer/xpcc/src/xpcc/architecture/platform/cortex_m3/stm32/timer/timer_1.cpp **** 	TIM1->CCER &= ~((TIM_CCER_CC1NP | TIM_CCER_CC1P | TIM_CCER_CC1E) << (channel * 4));
 259              		.loc 1 144 0
 260 0004 284C     		ldr	r4, .L24
 145:/home/jonas/warwick/3dProfilometer/xpcc/src/xpcc/architecture/platform/cortex_m3/stm32/timer/timer_1.cpp **** 	
 146:/home/jonas/warwick/3dProfilometer/xpcc/src/xpcc/architecture/platform/cortex_m3/stm32/timer/timer_1.cpp **** 	uint32_t flags = input;
 147:/home/jonas/warwick/3dProfilometer/xpcc/src/xpcc/architecture/platform/cortex_m3/stm32/timer/timer_1.cpp **** 	flags |= ((uint32_t)prescaler) << 2;
 148:/home/jonas/warwick/3dProfilometer/xpcc/src/xpcc/architecture/platform/cortex_m3/stm32/timer/timer_1.cpp **** 	flags |= ((uint32_t)(filter&0xf)) << 4;
 261              		.loc 1 148 0
 262 0006 9DF814C0 		ldrb	ip, [sp, #20]	@ zero_extendqisi2
 144:/home/jonas/warwick/3dProfilometer/xpcc/src/xpcc/architecture/platform/cortex_m3/stm32/timer/timer_1.cpp **** 	TIM1->CCER &= ~((TIM_CCER_CC1NP | TIM_CCER_CC1P | TIM_CCER_CC1E) << (channel * 4));
 263              		.loc 1 144 0
 264 000a 278C     		ldrh	r7, [r4, #32]
 141:/home/jonas/warwick/3dProfilometer/xpcc/src/xpcc/architecture/platform/cortex_m3/stm32/timer/timer_1.cpp **** 	channel -= 1;	// 1..4 -> 0..3
 265              		.loc 1 141 0
 266 000c 451E     		subs	r5, r0, #1
 267              	.LVL15:
 144:/home/jonas/warwick/3dProfilometer/xpcc/src/xpcc/architecture/platform/cortex_m3/stm32/timer/timer_1.cpp **** 	TIM1->CCER &= ~((TIM_CCER_CC1NP | TIM_CCER_CC1P | TIM_CCER_CC1E) << (channel * 4));
 268              		.loc 1 144 0
 269 000e AE00     		lsls	r6, r5, #2
 270 0010 4FF00B08 		mov	r8, #11
 271 0014 BFB2     		uxth	r7, r7
 272 0016 08FA06F8 		lsl	r8, r8, r6
 273              		.loc 1 148 0
 274 001a 4FEA0C1C 		lsl	ip, ip, #4
 144:/home/jonas/warwick/3dProfilometer/xpcc/src/xpcc/architecture/platform/cortex_m3/stm32/timer/timer_1.cpp **** 	TIM1->CCER &= ~((TIM_CCER_CC1NP | TIM_CCER_CC1P | TIM_CCER_CC1E) << (channel * 4));
 275              		.loc 1 144 0
 276 001e 27EA0807 		bic	r7, r7, r8
 147:/home/jonas/warwick/3dProfilometer/xpcc/src/xpcc/architecture/platform/cortex_m3/stm32/timer/timer_1.cpp **** 	flags |= ((uint32_t)prescaler) << 2;
 277              		.loc 1 147 0
 278 0022 41EA8202 		orr	r2, r1, r2, lsl #2
 279              	.LVL16:
 280              		.loc 1 148 0
 281 0026 5FFA8CFC 		uxtb	ip, ip
 282              	.LBB83:
 149:/home/jonas/warwick/3dProfilometer/xpcc/src/xpcc/architecture/platform/cortex_m3/stm32/timer/timer_1.cpp **** 	
 150:/home/jonas/warwick/3dProfilometer/xpcc/src/xpcc/architecture/platform/cortex_m3/stm32/timer/timer_1.cpp **** 	if (channel <= 1)
 283              		.loc 1 150 0
 284 002a 012D     		cmp	r5, #1
 285              	.LBE83:
 144:/home/jonas/warwick/3dProfilometer/xpcc/src/xpcc/architecture/platform/cortex_m3/stm32/timer/timer_1.cpp **** 	TIM1->CCER &= ~((TIM_CCER_CC1NP | TIM_CCER_CC1P | TIM_CCER_CC1E) << (channel * 4));
 286              		.loc 1 144 0
 287 002c 2784     		strh	r7, [r4, #32]	@ movhi
 288              	.LVL17:
 148:/home/jonas/warwick/3dProfilometer/xpcc/src/xpcc/architecture/platform/cortex_m3/stm32/timer/timer_1.cpp **** 	flags |= ((uint32_t)(filter&0xf)) << 4;
 289              		.loc 1 148 0
 290 002e 42EA0C0C 		orr	ip, r2, ip
 291              	.LVL18:
 292              	.LBB86:
 293              		.loc 1 150 0
 294 0032 19D9     		bls	.L23
 295              	.LVL19:
 296              	.LBB84:
 151:/home/jonas/warwick/3dProfilometer/xpcc/src/xpcc/architecture/platform/cortex_m3/stm32/timer/timer_1.cpp **** 	{
 152:/home/jonas/warwick/3dProfilometer/xpcc/src/xpcc/architecture/platform/cortex_m3/stm32/timer/timer_1.cpp **** 		uint32_t offset = 8 * channel;
 153:/home/jonas/warwick/3dProfilometer/xpcc/src/xpcc/architecture/platform/cortex_m3/stm32/timer/timer_1.cpp **** 
 154:/home/jonas/warwick/3dProfilometer/xpcc/src/xpcc/architecture/platform/cortex_m3/stm32/timer/timer_1.cpp **** 		flags <<= offset;
 155:/home/jonas/warwick/3dProfilometer/xpcc/src/xpcc/architecture/platform/cortex_m3/stm32/timer/timer_1.cpp **** 		flags |= TIM1->CCMR1 & ~(0xff << offset);
 156:/home/jonas/warwick/3dProfilometer/xpcc/src/xpcc/architecture/platform/cortex_m3/stm32/timer/timer_1.cpp **** 
 157:/home/jonas/warwick/3dProfilometer/xpcc/src/xpcc/architecture/platform/cortex_m3/stm32/timer/timer_1.cpp **** 		TIM1->CCMR1 = flags;
 158:/home/jonas/warwick/3dProfilometer/xpcc/src/xpcc/architecture/platform/cortex_m3/stm32/timer/timer_1.cpp **** 
 159:/home/jonas/warwick/3dProfilometer/xpcc/src/xpcc/architecture/platform/cortex_m3/stm32/timer/timer_1.cpp **** 		if(channel == 0) {
 160:/home/jonas/warwick/3dProfilometer/xpcc/src/xpcc/architecture/platform/cortex_m3/stm32/timer/timer_1.cpp **** 			if(xor_ch1_3)
 161:/home/jonas/warwick/3dProfilometer/xpcc/src/xpcc/architecture/platform/cortex_m3/stm32/timer/timer_1.cpp **** 				TIM1->CR2 |= TIM_CR2_TI1S;
 162:/home/jonas/warwick/3dProfilometer/xpcc/src/xpcc/architecture/platform/cortex_m3/stm32/timer/timer_1.cpp **** 			else
 163:/home/jonas/warwick/3dProfilometer/xpcc/src/xpcc/architecture/platform/cortex_m3/stm32/timer/timer_1.cpp **** 				TIM1->CR2 &= ~TIM_CR2_TI1S;
 164:/home/jonas/warwick/3dProfilometer/xpcc/src/xpcc/architecture/platform/cortex_m3/stm32/timer/timer_1.cpp **** 		}
 165:/home/jonas/warwick/3dProfilometer/xpcc/src/xpcc/architecture/platform/cortex_m3/stm32/timer/timer_1.cpp **** 	}
 166:/home/jonas/warwick/3dProfilometer/xpcc/src/xpcc/architecture/platform/cortex_m3/stm32/timer/timer_1.cpp **** 	else {
 167:/home/jonas/warwick/3dProfilometer/xpcc/src/xpcc/architecture/platform/cortex_m3/stm32/timer/timer_1.cpp **** 		uint32_t offset = 8 * (channel - 2);
 168:/home/jonas/warwick/3dProfilometer/xpcc/src/xpcc/architecture/platform/cortex_m3/stm32/timer/timer_1.cpp **** 		
 169:/home/jonas/warwick/3dProfilometer/xpcc/src/xpcc/architecture/platform/cortex_m3/stm32/timer/timer_1.cpp **** 		flags <<= offset;
 170:/home/jonas/warwick/3dProfilometer/xpcc/src/xpcc/architecture/platform/cortex_m3/stm32/timer/timer_1.cpp **** 		flags |= TIM1->CCMR2 & ~(0xff << offset);
 297              		.loc 1 170 0
 298 0034 A28B     		ldrh	r2, [r4, #28]
 167:/home/jonas/warwick/3dProfilometer/xpcc/src/xpcc/architecture/platform/cortex_m3/stm32/timer/timer_1.cpp **** 		uint32_t offset = 8 * (channel - 2);
 299              		.loc 1 167 0
 300 0036 C000     		lsls	r0, r0, #3
 301              	.LVL20:
 302 0038 1838     		subs	r0, r0, #24
 303              		.loc 1 170 0
 304 003a FF21     		movs	r1, #255
 305              	.LVL21:
 306 003c 92B2     		uxth	r2, r2
 307 003e 01FA00F1 		lsl	r1, r1, r0
 169:/home/jonas/warwick/3dProfilometer/xpcc/src/xpcc/architecture/platform/cortex_m3/stm32/timer/timer_1.cpp **** 		flags <<= offset;
 308              		.loc 1 169 0
 309 0042 0CFA00FC 		lsl	ip, ip, r0
 310              	.LVL22:
 311              		.loc 1 170 0
 312 0046 22EA0101 		bic	r1, r2, r1
 313 004a 4CEA010C 		orr	ip, ip, r1
 314              	.LVL23:
 171:/home/jonas/warwick/3dProfilometer/xpcc/src/xpcc/architecture/platform/cortex_m3/stm32/timer/timer_1.cpp **** 		
 172:/home/jonas/warwick/3dProfilometer/xpcc/src/xpcc/architecture/platform/cortex_m3/stm32/timer/timer_1.cpp **** 		TIM1->CCMR2 = flags; 
 315              		.loc 1 172 0
 316 004e A4F81CC0 		strh	ip, [r4, #28]	@ movhi
 317              	.LVL24:
 318              	.L21:
 319              	.LBE84:
 320              	.LBE86:
 173:/home/jonas/warwick/3dProfilometer/xpcc/src/xpcc/architecture/platform/cortex_m3/stm32/timer/timer_1.cpp **** 	}
 174:/home/jonas/warwick/3dProfilometer/xpcc/src/xpcc/architecture/platform/cortex_m3/stm32/timer/timer_1.cpp **** 	
 175:/home/jonas/warwick/3dProfilometer/xpcc/src/xpcc/architecture/platform/cortex_m3/stm32/timer/timer_1.cpp **** 	TIM1->CCER |= (TIM_CCER_CC1E | polarity) << (channel * 4);
 321              		.loc 1 175 0
 322 0052 154A     		ldr	r2, .L24
 323 0054 43F00103 		orr	r3, r3, #1
 324              	.LVL25:
 325 0058 118C     		ldrh	r1, [r2, #32]
 326 005a 03FA06F6 		lsl	r6, r3, r6
 327 005e 0E43     		orrs	r6, r6, r1
 328 0060 1684     		strh	r6, [r2, #32]	@ movhi
 329              	.LBE82:
 176:/home/jonas/warwick/3dProfilometer/xpcc/src/xpcc/architecture/platform/cortex_m3/stm32/timer/timer_1.cpp **** }
 330              		.loc 1 176 0
 331 0062 BDE8F001 		pop	{r4, r5, r6, r7, r8}
 332 0066 7047     		bx	lr
 333              	.LVL26:
 334              	.L23:
 335              	.LBB88:
 336              	.LBB87:
 337              	.LBB85:
 155:/home/jonas/warwick/3dProfilometer/xpcc/src/xpcc/architecture/platform/cortex_m3/stm32/timer/timer_1.cpp **** 		flags |= TIM1->CCMR1 & ~(0xff << offset);
 338              		.loc 1 155 0
 339 0068 208B     		ldrh	r0, [r4, #24]
 152:/home/jonas/warwick/3dProfilometer/xpcc/src/xpcc/architecture/platform/cortex_m3/stm32/timer/timer_1.cpp **** 		uint32_t offset = 8 * channel;
 340              		.loc 1 152 0
 341 006a EA00     		lsls	r2, r5, #3
 342              	.LVL27:
 155:/home/jonas/warwick/3dProfilometer/xpcc/src/xpcc/architecture/platform/cortex_m3/stm32/timer/timer_1.cpp **** 		flags |= TIM1->CCMR1 & ~(0xff << offset);
 343              		.loc 1 155 0
 344 006c FF21     		movs	r1, #255
 345              	.LVL28:
 346 006e 80B2     		uxth	r0, r0
 347 0070 01FA02F1 		lsl	r1, r1, r2
 154:/home/jonas/warwick/3dProfilometer/xpcc/src/xpcc/architecture/platform/cortex_m3/stm32/timer/timer_1.cpp **** 		flags <<= offset;
 348              		.loc 1 154 0
 349 0074 0CFA02FC 		lsl	ip, ip, r2
 350              	.LVL29:
 155:/home/jonas/warwick/3dProfilometer/xpcc/src/xpcc/architecture/platform/cortex_m3/stm32/timer/timer_1.cpp **** 		flags |= TIM1->CCMR1 & ~(0xff << offset);
 351              		.loc 1 155 0
 352 0078 20EA0101 		bic	r1, r0, r1
 353 007c 4CEA010C 		orr	ip, ip, r1
 354              	.LVL30:
 157:/home/jonas/warwick/3dProfilometer/xpcc/src/xpcc/architecture/platform/cortex_m3/stm32/timer/timer_1.cpp **** 		TIM1->CCMR1 = flags;
 355              		.loc 1 157 0
 356 0080 A4F818C0 		strh	ip, [r4, #24]	@ movhi
 159:/home/jonas/warwick/3dProfilometer/xpcc/src/xpcc/architecture/platform/cortex_m3/stm32/timer/timer_1.cpp **** 		if(channel == 0) {
 357              		.loc 1 159 0
 358 0084 002D     		cmp	r5, #0
 359 0086 E4D1     		bne	.L21
 160:/home/jonas/warwick/3dProfilometer/xpcc/src/xpcc/architecture/platform/cortex_m3/stm32/timer/timer_1.cpp **** 			if(xor_ch1_3)
 360              		.loc 1 160 0
 361 0088 9DF81820 		ldrb	r2, [sp, #24]	@ zero_extendqisi2
 362              	.LVL31:
 363 008c 2AB1     		cbz	r2, .L22
 161:/home/jonas/warwick/3dProfilometer/xpcc/src/xpcc/architecture/platform/cortex_m3/stm32/timer/timer_1.cpp **** 				TIM1->CR2 |= TIM_CR2_TI1S;
 364              		.loc 1 161 0
 365 008e A288     		ldrh	r2, [r4, #4]
 366 0090 92B2     		uxth	r2, r2
 367 0092 42F08002 		orr	r2, r2, #128
 368 0096 A280     		strh	r2, [r4, #4]	@ movhi
 369 0098 DBE7     		b	.L21
 370              	.L22:
 163:/home/jonas/warwick/3dProfilometer/xpcc/src/xpcc/architecture/platform/cortex_m3/stm32/timer/timer_1.cpp **** 				TIM1->CR2 &= ~TIM_CR2_TI1S;
 371              		.loc 1 163 0
 372 009a A288     		ldrh	r2, [r4, #4]
 373 009c 22F08002 		bic	r2, r2, #128
 374 00a0 1204     		lsls	r2, r2, #16
 375 00a2 120C     		lsrs	r2, r2, #16
 376 00a4 A280     		strh	r2, [r4, #4]	@ movhi
 377 00a6 D4E7     		b	.L21
 378              	.L25:
 379              		.align	2
 380              	.L24:
 381 00a8 00000140 		.word	1073807360
 382              	.LBE85:
 383              	.LBE87:
 384              	.LBE88:
 385              		.cfi_endproc
 386              	.LFE169:
 388              		.section	.text._ZN4xpcc5stm326Timer122configureOutputChannelEmNS0_19GeneralPurposeTimer17OutputCom
 389              		.align	2
 390              		.global	_ZN4xpcc5stm326Timer122configureOutputChannelEmNS0_19GeneralPurposeTimer17OutputCompareMod
 391              		.thumb
 392              		.thumb_func
 394              	_ZN4xpcc5stm326Timer122configureOutputChannelEmNS0_19GeneralPurposeTimer17OutputCompareModeEt:
 395              	.LFB170:
 177:/home/jonas/warwick/3dProfilometer/xpcc/src/xpcc/architecture/platform/cortex_m3/stm32/timer/timer_1.cpp **** 
 178:/home/jonas/warwick/3dProfilometer/xpcc/src/xpcc/architecture/platform/cortex_m3/stm32/timer/timer_1.cpp **** // ----------------------------------------------------------------------------
 179:/home/jonas/warwick/3dProfilometer/xpcc/src/xpcc/architecture/platform/cortex_m3/stm32/timer/timer_1.cpp **** void
 180:/home/jonas/warwick/3dProfilometer/xpcc/src/xpcc/architecture/platform/cortex_m3/stm32/timer/timer_1.cpp **** xpcc::stm32::Timer1::configureOutputChannel(uint32_t channel,
 181:/home/jonas/warwick/3dProfilometer/xpcc/src/xpcc/architecture/platform/cortex_m3/stm32/timer/timer_1.cpp **** 		OutputCompareMode mode, uint16_t compareValue)
 182:/home/jonas/warwick/3dProfilometer/xpcc/src/xpcc/architecture/platform/cortex_m3/stm32/timer/timer_1.cpp **** {
 396              		.loc 1 182 0
 397              		.cfi_startproc
 398              		@ args = 0, pretend = 0, frame = 0
 399              		@ frame_needed = 0, uses_anonymous_args = 0
 400              		@ link register save eliminated.
 401              	.LVL32:
 402              	.LBB89:
 183:/home/jonas/warwick/3dProfilometer/xpcc/src/xpcc/architecture/platform/cortex_m3/stm32/timer/timer_1.cpp **** 	channel -= 1;	// 1..4 -> 0..3
 184:/home/jonas/warwick/3dProfilometer/xpcc/src/xpcc/architecture/platform/cortex_m3/stm32/timer/timer_1.cpp **** 	
 185:/home/jonas/warwick/3dProfilometer/xpcc/src/xpcc/architecture/platform/cortex_m3/stm32/timer/timer_1.cpp **** 	// disable output
 186:/home/jonas/warwick/3dProfilometer/xpcc/src/xpcc/architecture/platform/cortex_m3/stm32/timer/timer_1.cpp **** 	TIM1->CCER &= ~(0xf << (channel * 4));
 403              		.loc 1 186 0
 404 0000 1C4B     		ldr	r3, .L34
 405              	.LBE89:
 182:/home/jonas/warwick/3dProfilometer/xpcc/src/xpcc/architecture/platform/cortex_m3/stm32/timer/timer_1.cpp **** {
 406              		.loc 1 182 0
 407 0002 F0B4     		push	{r4, r5, r6, r7}
 408              	.LCFI2:
 409              		.cfi_def_cfa_offset 16
 410              		.cfi_offset 4, -16
 411              		.cfi_offset 5, -12
 412              		.cfi_offset 6, -8
 413              		.cfi_offset 7, -4
 414              	.LBB99:
 415              		.loc 1 186 0
 416 0004 1E8C     		ldrh	r6, [r3, #32]
 183:/home/jonas/warwick/3dProfilometer/xpcc/src/xpcc/architecture/platform/cortex_m3/stm32/timer/timer_1.cpp **** 	channel -= 1;	// 1..4 -> 0..3
 417              		.loc 1 183 0
 418 0006 441E     		subs	r4, r0, #1
 419              	.LVL33:
 420              		.loc 1 186 0
 421 0008 A500     		lsls	r5, r4, #2
 422 000a 0F27     		movs	r7, #15
 423 000c 07FA05F7 		lsl	r7, r7, r5
 424 0010 B6B2     		uxth	r6, r6
 425 0012 26EA0706 		bic	r6, r6, r7
 426              	.LBB90:
 427              	.LBB91:
 277:/home/jonas/warwick/3dProfilometer/xpcc/src/xpcc/architecture/platform/cortex_m3/stm32/timer/timer_1.hpp **** 			}
 278:/home/jonas/warwick/3dProfilometer/xpcc/src/xpcc/architecture/platform/cortex_m3/stm32/timer/timer_1.hpp **** 			
 279:/home/jonas/warwick/3dProfilometer/xpcc/src/xpcc/architecture/platform/cortex_m3/stm32/timer/timer_1.hpp **** 			static uint16_t
 280:/home/jonas/warwick/3dProfilometer/xpcc/src/xpcc/architecture/platform/cortex_m3/stm32/timer/timer_1.hpp **** 			setPeriod(uint32_t microseconds, bool autoApply = true);
 281:/home/jonas/warwick/3dProfilometer/xpcc/src/xpcc/architecture/platform/cortex_m3/stm32/timer/timer_1.hpp **** 			
 282:/home/jonas/warwick/3dProfilometer/xpcc/src/xpcc/architecture/platform/cortex_m3/stm32/timer/timer_1.hpp **** 			static inline void
 283:/home/jonas/warwick/3dProfilometer/xpcc/src/xpcc/architecture/platform/cortex_m3/stm32/timer/timer_1.hpp **** 			applyAndReset()
 284:/home/jonas/warwick/3dProfilometer/xpcc/src/xpcc/architecture/platform/cortex_m3/stm32/timer/timer_1.hpp **** 			{
 285:/home/jonas/warwick/3dProfilometer/xpcc/src/xpcc/architecture/platform/cortex_m3/stm32/timer/timer_1.hpp **** 				// Generate Update Event to apply the new settings for ARR
 286:/home/jonas/warwick/3dProfilometer/xpcc/src/xpcc/architecture/platform/cortex_m3/stm32/timer/timer_1.hpp **** 				generateEvent(EVENT_UPDATE);
 287:/home/jonas/warwick/3dProfilometer/xpcc/src/xpcc/architecture/platform/cortex_m3/stm32/timer/timer_1.hpp **** 			}
 288:/home/jonas/warwick/3dProfilometer/xpcc/src/xpcc/architecture/platform/cortex_m3/stm32/timer/timer_1.hpp **** 
 289:/home/jonas/warwick/3dProfilometer/xpcc/src/xpcc/architecture/platform/cortex_m3/stm32/timer/timer_1.hpp **** 			static inline void
 290:/home/jonas/warwick/3dProfilometer/xpcc/src/xpcc/architecture/platform/cortex_m3/stm32/timer/timer_1.hpp **** 			generateEvent(Event ev)
 291:/home/jonas/warwick/3dProfilometer/xpcc/src/xpcc/architecture/platform/cortex_m3/stm32/timer/timer_1.hpp **** 			{
 292:/home/jonas/warwick/3dProfilometer/xpcc/src/xpcc/architecture/platform/cortex_m3/stm32/timer/timer_1.hpp **** 				TIM1->EGR |= static_cast<uint32_t>(ev);
 293:/home/jonas/warwick/3dProfilometer/xpcc/src/xpcc/architecture/platform/cortex_m3/stm32/timer/timer_1.hpp **** 			}
 294:/home/jonas/warwick/3dProfilometer/xpcc/src/xpcc/architecture/platform/cortex_m3/stm32/timer/timer_1.hpp **** 
 295:/home/jonas/warwick/3dProfilometer/xpcc/src/xpcc/architecture/platform/cortex_m3/stm32/timer/timer_1.hpp **** 			static inline uint16_t
 296:/home/jonas/warwick/3dProfilometer/xpcc/src/xpcc/architecture/platform/cortex_m3/stm32/timer/timer_1.hpp **** 			getValue()
 297:/home/jonas/warwick/3dProfilometer/xpcc/src/xpcc/architecture/platform/cortex_m3/stm32/timer/timer_1.hpp **** 			{
 298:/home/jonas/warwick/3dProfilometer/xpcc/src/xpcc/architecture/platform/cortex_m3/stm32/timer/timer_1.hpp **** 				return TIM1->CNT;
 299:/home/jonas/warwick/3dProfilometer/xpcc/src/xpcc/architecture/platform/cortex_m3/stm32/timer/timer_1.hpp **** 			}
 300:/home/jonas/warwick/3dProfilometer/xpcc/src/xpcc/architecture/platform/cortex_m3/stm32/timer/timer_1.hpp **** 			
 301:/home/jonas/warwick/3dProfilometer/xpcc/src/xpcc/architecture/platform/cortex_m3/stm32/timer/timer_1.hpp **** 			static inline void
 302:/home/jonas/warwick/3dProfilometer/xpcc/src/xpcc/architecture/platform/cortex_m3/stm32/timer/timer_1.hpp **** 			setValue(uint16_t value)
 303:/home/jonas/warwick/3dProfilometer/xpcc/src/xpcc/architecture/platform/cortex_m3/stm32/timer/timer_1.hpp **** 			{
 304:/home/jonas/warwick/3dProfilometer/xpcc/src/xpcc/architecture/platform/cortex_m3/stm32/timer/timer_1.hpp **** 				TIM1->CNT = value;
 305:/home/jonas/warwick/3dProfilometer/xpcc/src/xpcc/architecture/platform/cortex_m3/stm32/timer/timer_1.hpp **** 			}
 306:/home/jonas/warwick/3dProfilometer/xpcc/src/xpcc/architecture/platform/cortex_m3/stm32/timer/timer_1.hpp **** 			
 307:/home/jonas/warwick/3dProfilometer/xpcc/src/xpcc/architecture/platform/cortex_m3/stm32/timer/timer_1.hpp **** 			static inline void
 308:/home/jonas/warwick/3dProfilometer/xpcc/src/xpcc/architecture/platform/cortex_m3/stm32/timer/timer_1.hpp **** 			enableOutput()
 309:/home/jonas/warwick/3dProfilometer/xpcc/src/xpcc/architecture/platform/cortex_m3/stm32/timer/timer_1.hpp **** 			{
 310:/home/jonas/warwick/3dProfilometer/xpcc/src/xpcc/architecture/platform/cortex_m3/stm32/timer/timer_1.hpp **** 				TIM1->BDTR |= TIM_BDTR_MOE;
 311:/home/jonas/warwick/3dProfilometer/xpcc/src/xpcc/architecture/platform/cortex_m3/stm32/timer/timer_1.hpp **** 			}
 312:/home/jonas/warwick/3dProfilometer/xpcc/src/xpcc/architecture/platform/cortex_m3/stm32/timer/timer_1.hpp **** 
 313:/home/jonas/warwick/3dProfilometer/xpcc/src/xpcc/architecture/platform/cortex_m3/stm32/timer/timer_1.hpp **** 			/*
 314:/home/jonas/warwick/3dProfilometer/xpcc/src/xpcc/architecture/platform/cortex_m3/stm32/timer/timer_1.hpp **** 			 * Enable/Disable automatic set of MOE bit at the next update event
 315:/home/jonas/warwick/3dProfilometer/xpcc/src/xpcc/architecture/platform/cortex_m3/stm32/timer/timer_1.hpp **** 			 */
 316:/home/jonas/warwick/3dProfilometer/xpcc/src/xpcc/architecture/platform/cortex_m3/stm32/timer/timer_1.hpp **** 			static inline void
 317:/home/jonas/warwick/3dProfilometer/xpcc/src/xpcc/architecture/platform/cortex_m3/stm32/timer/timer_1.hpp **** 			setAutomaticUpdate(bool enable)
 318:/home/jonas/warwick/3dProfilometer/xpcc/src/xpcc/architecture/platform/cortex_m3/stm32/timer/timer_1.hpp **** 			{
 319:/home/jonas/warwick/3dProfilometer/xpcc/src/xpcc/architecture/platform/cortex_m3/stm32/timer/timer_1.hpp **** 				if(enable)
 320:/home/jonas/warwick/3dProfilometer/xpcc/src/xpcc/architecture/platform/cortex_m3/stm32/timer/timer_1.hpp **** 					TIM1->BDTR |= TIM_BDTR_AOE;
 321:/home/jonas/warwick/3dProfilometer/xpcc/src/xpcc/architecture/platform/cortex_m3/stm32/timer/timer_1.hpp **** 				else
 322:/home/jonas/warwick/3dProfilometer/xpcc/src/xpcc/architecture/platform/cortex_m3/stm32/timer/timer_1.hpp **** 					TIM1->BDTR &= ~TIM_BDTR_AOE;
 323:/home/jonas/warwick/3dProfilometer/xpcc/src/xpcc/architecture/platform/cortex_m3/stm32/timer/timer_1.hpp **** 			}
 324:/home/jonas/warwick/3dProfilometer/xpcc/src/xpcc/architecture/platform/cortex_m3/stm32/timer/timer_1.hpp **** 
 325:/home/jonas/warwick/3dProfilometer/xpcc/src/xpcc/architecture/platform/cortex_m3/stm32/timer/timer_1.hpp **** 			static inline void
 326:/home/jonas/warwick/3dProfilometer/xpcc/src/xpcc/architecture/platform/cortex_m3/stm32/timer/timer_1.hpp **** 			setOffState(OffStateForRunMode runMode, OffStateForIdleMode idleMode)
 327:/home/jonas/warwick/3dProfilometer/xpcc/src/xpcc/architecture/platform/cortex_m3/stm32/timer/timer_1.hpp **** 			{
 328:/home/jonas/warwick/3dProfilometer/xpcc/src/xpcc/architecture/platform/cortex_m3/stm32/timer/timer_1.hpp **** 				uint32_t flags = TIM1->BDTR;
 329:/home/jonas/warwick/3dProfilometer/xpcc/src/xpcc/architecture/platform/cortex_m3/stm32/timer/timer_1.hpp **** 				flags &= ~(TIM_BDTR_OSSR | TIM_BDTR_OSSI);
 330:/home/jonas/warwick/3dProfilometer/xpcc/src/xpcc/architecture/platform/cortex_m3/stm32/timer/timer_1.hpp **** 				flags |= runMode | idleMode;
 331:/home/jonas/warwick/3dProfilometer/xpcc/src/xpcc/architecture/platform/cortex_m3/stm32/timer/timer_1.hpp **** 				TIM1->BDTR = flags;
 332:/home/jonas/warwick/3dProfilometer/xpcc/src/xpcc/architecture/platform/cortex_m3/stm32/timer/timer_1.hpp **** 			}
 333:/home/jonas/warwick/3dProfilometer/xpcc/src/xpcc/architecture/platform/cortex_m3/stm32/timer/timer_1.hpp **** 
 334:/home/jonas/warwick/3dProfilometer/xpcc/src/xpcc/architecture/platform/cortex_m3/stm32/timer/timer_1.hpp **** 			static inline void
 335:/home/jonas/warwick/3dProfilometer/xpcc/src/xpcc/architecture/platform/cortex_m3/stm32/timer/timer_1.hpp **** 			setOutputIdleState(uint32_t channel, OutputIdleState idle,
 336:/home/jonas/warwick/3dProfilometer/xpcc/src/xpcc/architecture/platform/cortex_m3/stm32/timer/timer_1.hpp **** 									OutputIdleState idle_n = IDLE_STATE_RESET)
 337:/home/jonas/warwick/3dProfilometer/xpcc/src/xpcc/architecture/platform/cortex_m3/stm32/timer/timer_1.hpp **** 			{
 338:/home/jonas/warwick/3dProfilometer/xpcc/src/xpcc/architecture/platform/cortex_m3/stm32/timer/timer_1.hpp **** 				uint32_t flags = TIM1->CR2;
 339:/home/jonas/warwick/3dProfilometer/xpcc/src/xpcc/architecture/platform/cortex_m3/stm32/timer/timer_1.hpp **** 				channel -= 1;
 340:/home/jonas/warwick/3dProfilometer/xpcc/src/xpcc/architecture/platform/cortex_m3/stm32/timer/timer_1.hpp **** 				flags &=  (IDLE_STATE_SET << (channel * 2))
 341:/home/jonas/warwick/3dProfilometer/xpcc/src/xpcc/architecture/platform/cortex_m3/stm32/timer/timer_1.hpp **** 						| (IDLE_STATE_SET << (channel * 2 + 1));
 342:/home/jonas/warwick/3dProfilometer/xpcc/src/xpcc/architecture/platform/cortex_m3/stm32/timer/timer_1.hpp **** 				flags |= (idle   << (channel * 2));
 343:/home/jonas/warwick/3dProfilometer/xpcc/src/xpcc/architecture/platform/cortex_m3/stm32/timer/timer_1.hpp **** 				flags |= (idle_n << (channel * 2 + 1));
 344:/home/jonas/warwick/3dProfilometer/xpcc/src/xpcc/architecture/platform/cortex_m3/stm32/timer/timer_1.hpp **** 				TIM1->CR2 = flags;
 345:/home/jonas/warwick/3dProfilometer/xpcc/src/xpcc/architecture/platform/cortex_m3/stm32/timer/timer_1.hpp **** 			}
 346:/home/jonas/warwick/3dProfilometer/xpcc/src/xpcc/architecture/platform/cortex_m3/stm32/timer/timer_1.hpp **** 
 347:/home/jonas/warwick/3dProfilometer/xpcc/src/xpcc/architecture/platform/cortex_m3/stm32/timer/timer_1.hpp **** 			/*
 348:/home/jonas/warwick/3dProfilometer/xpcc/src/xpcc/architecture/platform/cortex_m3/stm32/timer/timer_1.hpp **** 			 * Set Dead Time Value
 349:/home/jonas/warwick/3dProfilometer/xpcc/src/xpcc/architecture/platform/cortex_m3/stm32/timer/timer_1.hpp **** 			 *
 350:/home/jonas/warwick/3dProfilometer/xpcc/src/xpcc/architecture/platform/cortex_m3/stm32/timer/timer_1.hpp **** 			 * Different Resolution Depending on DeadTime[7:5]:
 351:/home/jonas/warwick/3dProfilometer/xpcc/src/xpcc/architecture/platform/cortex_m3/stm32/timer/timer_1.hpp **** 			 *     0xx =>  DeadTime[6:0]            * T(DTS)
 352:/home/jonas/warwick/3dProfilometer/xpcc/src/xpcc/architecture/platform/cortex_m3/stm32/timer/timer_1.hpp **** 			 *     10x => (DeadTime[5:0] + 32) *  2 * T(DTS)
 353:/home/jonas/warwick/3dProfilometer/xpcc/src/xpcc/architecture/platform/cortex_m3/stm32/timer/timer_1.hpp **** 			 *     110 => (DeadTime[4:0] + 4)  *  8 * T(DTS)
 354:/home/jonas/warwick/3dProfilometer/xpcc/src/xpcc/architecture/platform/cortex_m3/stm32/timer/timer_1.hpp **** 			 *     111 => (DeadTime[4:0] + 2)  * 16 * T(DTS)
 355:/home/jonas/warwick/3dProfilometer/xpcc/src/xpcc/architecture/platform/cortex_m3/stm32/timer/timer_1.hpp **** 			 */
 356:/home/jonas/warwick/3dProfilometer/xpcc/src/xpcc/architecture/platform/cortex_m3/stm32/timer/timer_1.hpp **** 			static inline void
 357:/home/jonas/warwick/3dProfilometer/xpcc/src/xpcc/architecture/platform/cortex_m3/stm32/timer/timer_1.hpp **** 			setDeadTime(uint8_t deadTime)
 358:/home/jonas/warwick/3dProfilometer/xpcc/src/xpcc/architecture/platform/cortex_m3/stm32/timer/timer_1.hpp **** 			{
 359:/home/jonas/warwick/3dProfilometer/xpcc/src/xpcc/architecture/platform/cortex_m3/stm32/timer/timer_1.hpp **** 				uint32_t flags = TIM1->BDTR;
 360:/home/jonas/warwick/3dProfilometer/xpcc/src/xpcc/architecture/platform/cortex_m3/stm32/timer/timer_1.hpp **** 				flags &= TIM_BDTR_DTG;
 361:/home/jonas/warwick/3dProfilometer/xpcc/src/xpcc/architecture/platform/cortex_m3/stm32/timer/timer_1.hpp **** 				flags |= deadTime;
 362:/home/jonas/warwick/3dProfilometer/xpcc/src/xpcc/architecture/platform/cortex_m3/stm32/timer/timer_1.hpp **** 				TIM1->BDTR = flags;
 363:/home/jonas/warwick/3dProfilometer/xpcc/src/xpcc/architecture/platform/cortex_m3/stm32/timer/timer_1.hpp **** 			}
 364:/home/jonas/warwick/3dProfilometer/xpcc/src/xpcc/architecture/platform/cortex_m3/stm32/timer/timer_1.hpp **** 
 365:/home/jonas/warwick/3dProfilometer/xpcc/src/xpcc/architecture/platform/cortex_m3/stm32/timer/timer_1.hpp **** 			/*
 366:/home/jonas/warwick/3dProfilometer/xpcc/src/xpcc/architecture/platform/cortex_m3/stm32/timer/timer_1.hpp **** 			 * Set Dead Time Value
 367:/home/jonas/warwick/3dProfilometer/xpcc/src/xpcc/architecture/platform/cortex_m3/stm32/timer/timer_1.hpp **** 			 *
 368:/home/jonas/warwick/3dProfilometer/xpcc/src/xpcc/architecture/platform/cortex_m3/stm32/timer/timer_1.hpp **** 			 * Different Resolution Depending on DeadTime[7:5]:
 369:/home/jonas/warwick/3dProfilometer/xpcc/src/xpcc/architecture/platform/cortex_m3/stm32/timer/timer_1.hpp **** 			 *     0xx =>  DeadTime[6:0]            * T(DTS)
 370:/home/jonas/warwick/3dProfilometer/xpcc/src/xpcc/architecture/platform/cortex_m3/stm32/timer/timer_1.hpp **** 			 *     10x => (DeadTime[5:0] + 32) *  2 * T(DTS)
 371:/home/jonas/warwick/3dProfilometer/xpcc/src/xpcc/architecture/platform/cortex_m3/stm32/timer/timer_1.hpp **** 			 *     110 => (DeadTime[4:0] + 4)  *  8 * T(DTS)
 372:/home/jonas/warwick/3dProfilometer/xpcc/src/xpcc/architecture/platform/cortex_m3/stm32/timer/timer_1.hpp **** 			 *     111 => (DeadTime[4:0] + 2)  * 16 * T(DTS)
 373:/home/jonas/warwick/3dProfilometer/xpcc/src/xpcc/architecture/platform/cortex_m3/stm32/timer/timer_1.hpp **** 			 */
 374:/home/jonas/warwick/3dProfilometer/xpcc/src/xpcc/architecture/platform/cortex_m3/stm32/timer/timer_1.hpp **** 			static inline void
 375:/home/jonas/warwick/3dProfilometer/xpcc/src/xpcc/architecture/platform/cortex_m3/stm32/timer/timer_1.hpp **** 			setDeadTime(DeadTimeResolution resolution, uint8_t deadTime)
 376:/home/jonas/warwick/3dProfilometer/xpcc/src/xpcc/architecture/platform/cortex_m3/stm32/timer/timer_1.hpp **** 			{
 377:/home/jonas/warwick/3dProfilometer/xpcc/src/xpcc/architecture/platform/cortex_m3/stm32/timer/timer_1.hpp **** 				uint8_t bitmask;
 378:/home/jonas/warwick/3dProfilometer/xpcc/src/xpcc/architecture/platform/cortex_m3/stm32/timer/timer_1.hpp **** 				switch(resolution){
 379:/home/jonas/warwick/3dProfilometer/xpcc/src/xpcc/architecture/platform/cortex_m3/stm32/timer/timer_1.hpp **** 					case FROM_0_125NS_STEP:
 380:/home/jonas/warwick/3dProfilometer/xpcc/src/xpcc/architecture/platform/cortex_m3/stm32/timer/timer_1.hpp **** 						bitmask = 0b01111111;
 381:/home/jonas/warwick/3dProfilometer/xpcc/src/xpcc/architecture/platform/cortex_m3/stm32/timer/timer_1.hpp **** 						break;
 382:/home/jonas/warwick/3dProfilometer/xpcc/src/xpcc/architecture/platform/cortex_m3/stm32/timer/timer_1.hpp **** 					case FROM_16US_250NS_STEP:
 383:/home/jonas/warwick/3dProfilometer/xpcc/src/xpcc/architecture/platform/cortex_m3/stm32/timer/timer_1.hpp **** 						bitmask = 0b00111111;
 384:/home/jonas/warwick/3dProfilometer/xpcc/src/xpcc/architecture/platform/cortex_m3/stm32/timer/timer_1.hpp **** 						break;
 385:/home/jonas/warwick/3dProfilometer/xpcc/src/xpcc/architecture/platform/cortex_m3/stm32/timer/timer_1.hpp **** 					case FROM_32US_1US_STEP:
 386:/home/jonas/warwick/3dProfilometer/xpcc/src/xpcc/architecture/platform/cortex_m3/stm32/timer/timer_1.hpp **** 					case FROM_64US_2US_STEP:
 387:/home/jonas/warwick/3dProfilometer/xpcc/src/xpcc/architecture/platform/cortex_m3/stm32/timer/timer_1.hpp **** 						bitmask = 0b00011111;
 388:/home/jonas/warwick/3dProfilometer/xpcc/src/xpcc/architecture/platform/cortex_m3/stm32/timer/timer_1.hpp **** 						break;
 389:/home/jonas/warwick/3dProfilometer/xpcc/src/xpcc/architecture/platform/cortex_m3/stm32/timer/timer_1.hpp **** 					default:
 390:/home/jonas/warwick/3dProfilometer/xpcc/src/xpcc/architecture/platform/cortex_m3/stm32/timer/timer_1.hpp **** 						bitmask = 0x00;
 391:/home/jonas/warwick/3dProfilometer/xpcc/src/xpcc/architecture/platform/cortex_m3/stm32/timer/timer_1.hpp **** 						break;
 392:/home/jonas/warwick/3dProfilometer/xpcc/src/xpcc/architecture/platform/cortex_m3/stm32/timer/timer_1.hpp **** 				}
 393:/home/jonas/warwick/3dProfilometer/xpcc/src/xpcc/architecture/platform/cortex_m3/stm32/timer/timer_1.hpp **** 				uint32_t flags = TIM1->BDTR;
 394:/home/jonas/warwick/3dProfilometer/xpcc/src/xpcc/architecture/platform/cortex_m3/stm32/timer/timer_1.hpp **** 				flags &= TIM_BDTR_DTG;
 395:/home/jonas/warwick/3dProfilometer/xpcc/src/xpcc/architecture/platform/cortex_m3/stm32/timer/timer_1.hpp **** 				flags |= (deadTime & bitmask) | resolution;
 396:/home/jonas/warwick/3dProfilometer/xpcc/src/xpcc/architecture/platform/cortex_m3/stm32/timer/timer_1.hpp **** 				TIM1->BDTR = flags;
 397:/home/jonas/warwick/3dProfilometer/xpcc/src/xpcc/architecture/platform/cortex_m3/stm32/timer/timer_1.hpp **** 			}
 398:/home/jonas/warwick/3dProfilometer/xpcc/src/xpcc/architecture/platform/cortex_m3/stm32/timer/timer_1.hpp **** 
 399:/home/jonas/warwick/3dProfilometer/xpcc/src/xpcc/architecture/platform/cortex_m3/stm32/timer/timer_1.hpp **** 		public:
 400:/home/jonas/warwick/3dProfilometer/xpcc/src/xpcc/architecture/platform/cortex_m3/stm32/timer/timer_1.hpp **** 			static void
 401:/home/jonas/warwick/3dProfilometer/xpcc/src/xpcc/architecture/platform/cortex_m3/stm32/timer/timer_1.hpp **** 			configureInputChannel(uint32_t channel, InputCaptureMapping input,
 402:/home/jonas/warwick/3dProfilometer/xpcc/src/xpcc/architecture/platform/cortex_m3/stm32/timer/timer_1.hpp **** 					InputCapturePrescaler prescaler,
 403:/home/jonas/warwick/3dProfilometer/xpcc/src/xpcc/architecture/platform/cortex_m3/stm32/timer/timer_1.hpp **** 					InputCapturePolarity polarity, uint8_t filter,
 404:/home/jonas/warwick/3dProfilometer/xpcc/src/xpcc/architecture/platform/cortex_m3/stm32/timer/timer_1.hpp **** 					bool xor_ch1_3=false);
 405:/home/jonas/warwick/3dProfilometer/xpcc/src/xpcc/architecture/platform/cortex_m3/stm32/timer/timer_1.hpp **** 
 406:/home/jonas/warwick/3dProfilometer/xpcc/src/xpcc/architecture/platform/cortex_m3/stm32/timer/timer_1.hpp **** 			static void
 407:/home/jonas/warwick/3dProfilometer/xpcc/src/xpcc/architecture/platform/cortex_m3/stm32/timer/timer_1.hpp **** 			configureOutputChannel(uint32_t channel, OutputCompareMode mode,
 408:/home/jonas/warwick/3dProfilometer/xpcc/src/xpcc/architecture/platform/cortex_m3/stm32/timer/timer_1.hpp **** 					uint16_t compareValue);
 409:/home/jonas/warwick/3dProfilometer/xpcc/src/xpcc/architecture/platform/cortex_m3/stm32/timer/timer_1.hpp **** 			// TODO: Maybe add some functionality from the configureOutput
 410:/home/jonas/warwick/3dProfilometer/xpcc/src/xpcc/architecture/platform/cortex_m3/stm32/timer/timer_1.hpp **** 			//       function below...
 411:/home/jonas/warwick/3dProfilometer/xpcc/src/xpcc/architecture/platform/cortex_m3/stm32/timer/timer_1.hpp **** 
 412:/home/jonas/warwick/3dProfilometer/xpcc/src/xpcc/architecture/platform/cortex_m3/stm32/timer/timer_1.hpp **** 			/*
 413:/home/jonas/warwick/3dProfilometer/xpcc/src/xpcc/architecture/platform/cortex_m3/stm32/timer/timer_1.hpp **** 			 * Configure Output Channel without changing the Compare Value
 414:/home/jonas/warwick/3dProfilometer/xpcc/src/xpcc/architecture/platform/cortex_m3/stm32/timer/timer_1.hpp **** 			 *
 415:/home/jonas/warwick/3dProfilometer/xpcc/src/xpcc/architecture/platform/cortex_m3/stm32/timer/timer_1.hpp **** 			 * Normally used to REconfigure the Output channel without touching
 416:/home/jonas/warwick/3dProfilometer/xpcc/src/xpcc/architecture/platform/cortex_m3/stm32/timer/timer_1.hpp **** 			 * the compare value. This can e.g. be useful for commutation of a
 417:/home/jonas/warwick/3dProfilometer/xpcc/src/xpcc/architecture/platform/cortex_m3/stm32/timer/timer_1.hpp **** 			 * bldc motor.
 418:/home/jonas/warwick/3dProfilometer/xpcc/src/xpcc/architecture/platform/cortex_m3/stm32/timer/timer_1.hpp **** 			 *
 419:/home/jonas/warwick/3dProfilometer/xpcc/src/xpcc/architecture/platform/cortex_m3/stm32/timer/timer_1.hpp **** 			 * This function probably won't be used for a one time setup but
 420:/home/jonas/warwick/3dProfilometer/xpcc/src/xpcc/architecture/platform/cortex_m3/stm32/timer/timer_1.hpp **** 			 * rather for adjusting the output setting periodically.
 421:/home/jonas/warwick/3dProfilometer/xpcc/src/xpcc/architecture/platform/cortex_m3/stm32/timer/timer_1.hpp **** 			 * Therefore it aims aims to provide the best performance possible
 422:/home/jonas/warwick/3dProfilometer/xpcc/src/xpcc/architecture/platform/cortex_m3/stm32/timer/timer_1.hpp **** 			 * without sacrificing code readability.
 423:/home/jonas/warwick/3dProfilometer/xpcc/src/xpcc/architecture/platform/cortex_m3/stm32/timer/timer_1.hpp **** 			 */
 424:/home/jonas/warwick/3dProfilometer/xpcc/src/xpcc/architecture/platform/cortex_m3/stm32/timer/timer_1.hpp **** 			static void
 425:/home/jonas/warwick/3dProfilometer/xpcc/src/xpcc/architecture/platform/cortex_m3/stm32/timer/timer_1.hpp **** 			configureOutputChannel(uint32_t channel, OutputCompareMode mode,
 426:/home/jonas/warwick/3dProfilometer/xpcc/src/xpcc/architecture/platform/cortex_m3/stm32/timer/timer_1.hpp **** 					PinState out, OutputComparePolarity polarity,
 427:/home/jonas/warwick/3dProfilometer/xpcc/src/xpcc/architecture/platform/cortex_m3/stm32/timer/timer_1.hpp **** 					PinState out_n,
 428:/home/jonas/warwick/3dProfilometer/xpcc/src/xpcc/architecture/platform/cortex_m3/stm32/timer/timer_1.hpp **** 					OutputComparePolarity polarity_n = OUTPUT_ACTIVE_HIGH,
 429:/home/jonas/warwick/3dProfilometer/xpcc/src/xpcc/architecture/platform/cortex_m3/stm32/timer/timer_1.hpp **** 					OutputComparePreload preload = PRELOAD_REGISTER_DISABLED);
 430:/home/jonas/warwick/3dProfilometer/xpcc/src/xpcc/architecture/platform/cortex_m3/stm32/timer/timer_1.hpp **** 
 431:/home/jonas/warwick/3dProfilometer/xpcc/src/xpcc/architecture/platform/cortex_m3/stm32/timer/timer_1.hpp **** 			/*
 432:/home/jonas/warwick/3dProfilometer/xpcc/src/xpcc/architecture/platform/cortex_m3/stm32/timer/timer_1.hpp **** 			 * Configure Output Channel width Mode/OutputPort uint
 433:/home/jonas/warwick/3dProfilometer/xpcc/src/xpcc/architecture/platform/cortex_m3/stm32/timer/timer_1.hpp **** 			 *
 434:/home/jonas/warwick/3dProfilometer/xpcc/src/xpcc/architecture/platform/cortex_m3/stm32/timer/timer_1.hpp **** 			 * This is the least typesafe way of doing this and should only
 435:/home/jonas/warwick/3dProfilometer/xpcc/src/xpcc/architecture/platform/cortex_m3/stm32/timer/timer_1.hpp **** 			 * be done if it provides a necessary performance
 436:/home/jonas/warwick/3dProfilometer/xpcc/src/xpcc/architecture/platform/cortex_m3/stm32/timer/timer_1.hpp **** 			 * (or more or less) laziness benefit.
 437:/home/jonas/warwick/3dProfilometer/xpcc/src/xpcc/architecture/platform/cortex_m3/stm32/timer/timer_1.hpp **** 			 * i.e. if you have specific mode/output uints precalculated and
 438:/home/jonas/warwick/3dProfilometer/xpcc/src/xpcc/architecture/platform/cortex_m3/stm32/timer/timer_1.hpp **** 			 * just want to load them as fast as possible.
 439:/home/jonas/warwick/3dProfilometer/xpcc/src/xpcc/architecture/platform/cortex_m3/stm32/timer/timer_1.hpp **** 			 *
 440:/home/jonas/warwick/3dProfilometer/xpcc/src/xpcc/architecture/platform/cortex_m3/stm32/timer/timer_1.hpp **** 			 * The "mode/output" uint contains four bits
 441:/home/jonas/warwick/3dProfilometer/xpcc/src/xpcc/architecture/platform/cortex_m3/stm32/timer/timer_1.hpp **** 			 * that describe the intended output setting:
 442:/home/jonas/warwick/3dProfilometer/xpcc/src/xpcc/architecture/platform/cortex_m3/stm32/timer/timer_1.hpp **** 			 * Bit0: Output Enabled/Disabled
 443:/home/jonas/warwick/3dProfilometer/xpcc/src/xpcc/architecture/platform/cortex_m3/stm32/timer/timer_1.hpp **** 			 * Bit1: Output Polarity
 444:/home/jonas/warwick/3dProfilometer/xpcc/src/xpcc/architecture/platform/cortex_m3/stm32/timer/timer_1.hpp **** 			 * Bit2: Complementary Output Enable/Disable
 445:/home/jonas/warwick/3dProfilometer/xpcc/src/xpcc/architecture/platform/cortex_m3/stm32/timer/timer_1.hpp **** 			 * Bit3: Complementary Output Polarity
 446:/home/jonas/warwick/3dProfilometer/xpcc/src/xpcc/architecture/platform/cortex_m3/stm32/timer/timer_1.hpp **** 			 *
 447:/home/jonas/warwick/3dProfilometer/xpcc/src/xpcc/architecture/platform/cortex_m3/stm32/timer/timer_1.hpp **** 			 * As well as Mode Information (Bit6-Bit4)
 448:/home/jonas/warwick/3dProfilometer/xpcc/src/xpcc/architecture/platform/cortex_m3/stm32/timer/timer_1.hpp **** 			 * which is just an OutputCompareMode constant ored with the
 449:/home/jonas/warwick/3dProfilometer/xpcc/src/xpcc/architecture/platform/cortex_m3/stm32/timer/timer_1.hpp **** 			 * port output quadruple specified above.
 450:/home/jonas/warwick/3dProfilometer/xpcc/src/xpcc/architecture/platform/cortex_m3/stm32/timer/timer_1.hpp **** 			 */
 451:/home/jonas/warwick/3dProfilometer/xpcc/src/xpcc/architecture/platform/cortex_m3/stm32/timer/timer_1.hpp **** 			static void
 452:/home/jonas/warwick/3dProfilometer/xpcc/src/xpcc/architecture/platform/cortex_m3/stm32/timer/timer_1.hpp **** 			configureOutputChannel(uint32_t channel, uint32_t modeOutputPorts);
 453:/home/jonas/warwick/3dProfilometer/xpcc/src/xpcc/architecture/platform/cortex_m3/stm32/timer/timer_1.hpp **** 
 454:/home/jonas/warwick/3dProfilometer/xpcc/src/xpcc/architecture/platform/cortex_m3/stm32/timer/timer_1.hpp **** 			static inline void
 455:/home/jonas/warwick/3dProfilometer/xpcc/src/xpcc/architecture/platform/cortex_m3/stm32/timer/timer_1.hpp **** 			setCompareValue(uint32_t channel, uint16_t value)
 456:/home/jonas/warwick/3dProfilometer/xpcc/src/xpcc/architecture/platform/cortex_m3/stm32/timer/timer_1.hpp **** 			{
 457:/home/jonas/warwick/3dProfilometer/xpcc/src/xpcc/architecture/platform/cortex_m3/stm32/timer/timer_1.hpp **** #if defined(STM32F2XX) || defined(STM32F3XX) || defined(STM32F4XX)
 458:/home/jonas/warwick/3dProfilometer/xpcc/src/xpcc/architecture/platform/cortex_m3/stm32/timer/timer_1.hpp **** 				*(&TIM1->CCR1 + (channel - 1)) = value;
 428              		.loc 2 458 0
 429 0016 184F     		ldr	r7, .L34+4
 430              	.LBE91:
 431              	.LBE90:
 432              		.loc 1 186 0
 433 0018 1E84     		strh	r6, [r3, #32]	@ movhi
 434              	.LVL34:
 435              	.LBB93:
 187:/home/jonas/warwick/3dProfilometer/xpcc/src/xpcc/architecture/platform/cortex_m3/stm32/timer/timer_1.cpp **** 	
 188:/home/jonas/warwick/3dProfilometer/xpcc/src/xpcc/architecture/platform/cortex_m3/stm32/timer/timer_1.cpp **** 	setCompareValue(channel + 1, compareValue);
 189:/home/jonas/warwick/3dProfilometer/xpcc/src/xpcc/architecture/platform/cortex_m3/stm32/timer/timer_1.cpp **** 	
 190:/home/jonas/warwick/3dProfilometer/xpcc/src/xpcc/architecture/platform/cortex_m3/stm32/timer/timer_1.cpp **** 	// enable preload (the compare value is loaded at each update event)
 191:/home/jonas/warwick/3dProfilometer/xpcc/src/xpcc/architecture/platform/cortex_m3/stm32/timer/timer_1.cpp **** 	uint32_t flags = mode | TIM_CCMR1_OC1PE;
 192:/home/jonas/warwick/3dProfilometer/xpcc/src/xpcc/architecture/platform/cortex_m3/stm32/timer/timer_1.cpp **** 		
 193:/home/jonas/warwick/3dProfilometer/xpcc/src/xpcc/architecture/platform/cortex_m3/stm32/timer/timer_1.cpp **** 	if (channel <= 1)
 436              		.loc 1 193 0
 437 001a 012C     		cmp	r4, #1
 438              	.LBE93:
 191:/home/jonas/warwick/3dProfilometer/xpcc/src/xpcc/architecture/platform/cortex_m3/stm32/timer/timer_1.cpp **** 	uint32_t flags = mode | TIM_CCMR1_OC1PE;
 439              		.loc 1 191 0
 440 001c 41F00806 		orr	r6, r1, #8
 441              	.LVL35:
 442              	.LBB96:
 443              	.LBB92:
 444              		.loc 2 458 0
 445 0020 47F82020 		str	r2, [r7, r0, lsl #2]
 446              	.LBE92:
 447              	.LBE96:
 448              	.LBB97:
 449              		.loc 1 193 0
 450 0024 18D9     		bls	.L33
 451              	.LVL36:
 452              	.LBB94:
 194:/home/jonas/warwick/3dProfilometer/xpcc/src/xpcc/architecture/platform/cortex_m3/stm32/timer/timer_1.cpp **** 	{
 195:/home/jonas/warwick/3dProfilometer/xpcc/src/xpcc/architecture/platform/cortex_m3/stm32/timer/timer_1.cpp **** 		uint32_t offset = 8 * channel;
 196:/home/jonas/warwick/3dProfilometer/xpcc/src/xpcc/architecture/platform/cortex_m3/stm32/timer/timer_1.cpp **** 		
 197:/home/jonas/warwick/3dProfilometer/xpcc/src/xpcc/architecture/platform/cortex_m3/stm32/timer/timer_1.cpp **** 		flags <<= offset;
 198:/home/jonas/warwick/3dProfilometer/xpcc/src/xpcc/architecture/platform/cortex_m3/stm32/timer/timer_1.cpp **** 		flags |= TIM1->CCMR1 & ~(0xff << offset);
 199:/home/jonas/warwick/3dProfilometer/xpcc/src/xpcc/architecture/platform/cortex_m3/stm32/timer/timer_1.cpp **** 		
 200:/home/jonas/warwick/3dProfilometer/xpcc/src/xpcc/architecture/platform/cortex_m3/stm32/timer/timer_1.cpp **** 		TIM1->CCMR1 = flags;
 201:/home/jonas/warwick/3dProfilometer/xpcc/src/xpcc/architecture/platform/cortex_m3/stm32/timer/timer_1.cpp **** 	}
 202:/home/jonas/warwick/3dProfilometer/xpcc/src/xpcc/architecture/platform/cortex_m3/stm32/timer/timer_1.cpp **** 	else {
 203:/home/jonas/warwick/3dProfilometer/xpcc/src/xpcc/architecture/platform/cortex_m3/stm32/timer/timer_1.cpp **** 		uint32_t offset = 8 * (channel - 2);
 204:/home/jonas/warwick/3dProfilometer/xpcc/src/xpcc/architecture/platform/cortex_m3/stm32/timer/timer_1.cpp **** 		
 205:/home/jonas/warwick/3dProfilometer/xpcc/src/xpcc/architecture/platform/cortex_m3/stm32/timer/timer_1.cpp **** 		flags <<= offset;
 206:/home/jonas/warwick/3dProfilometer/xpcc/src/xpcc/architecture/platform/cortex_m3/stm32/timer/timer_1.cpp **** 		flags |= TIM1->CCMR2 & ~(0xff << offset);
 453              		.loc 1 206 0
 454 0026 9A8B     		ldrh	r2, [r3, #28]
 455              	.LVL37:
 203:/home/jonas/warwick/3dProfilometer/xpcc/src/xpcc/architecture/platform/cortex_m3/stm32/timer/timer_1.cpp **** 		uint32_t offset = 8 * (channel - 2);
 456              		.loc 1 203 0
 457 0028 C000     		lsls	r0, r0, #3
 458              	.LVL38:
 459 002a 1838     		subs	r0, r0, #24
 460              		.loc 1 206 0
 461 002c FF24     		movs	r4, #255
 462              	.LVL39:
 463 002e 92B2     		uxth	r2, r2
 464 0030 04FA00F4 		lsl	r4, r4, r0
 205:/home/jonas/warwick/3dProfilometer/xpcc/src/xpcc/architecture/platform/cortex_m3/stm32/timer/timer_1.cpp **** 		flags <<= offset;
 465              		.loc 1 205 0
 466 0034 06FA00F6 		lsl	r6, r6, r0
 467              	.LVL40:
 468              		.loc 1 206 0
 469 0038 22EA0400 		bic	r0, r2, r4
 470              	.LVL41:
 471 003c 3043     		orrs	r0, r0, r6
 207:/home/jonas/warwick/3dProfilometer/xpcc/src/xpcc/architecture/platform/cortex_m3/stm32/timer/timer_1.cpp **** 		
 208:/home/jonas/warwick/3dProfilometer/xpcc/src/xpcc/architecture/platform/cortex_m3/stm32/timer/timer_1.cpp **** 		TIM1->CCMR2 = flags; 
 472              		.loc 1 208 0
 473 003e 9883     		strh	r0, [r3, #28]	@ movhi
 474              	.LVL42:
 475              	.L28:
 476              	.LBE94:
 477              	.LBE97:
 209:/home/jonas/warwick/3dProfilometer/xpcc/src/xpcc/architecture/platform/cortex_m3/stm32/timer/timer_1.cpp **** 	}
 210:/home/jonas/warwick/3dProfilometer/xpcc/src/xpcc/architecture/platform/cortex_m3/stm32/timer/timer_1.cpp **** 	
 211:/home/jonas/warwick/3dProfilometer/xpcc/src/xpcc/architecture/platform/cortex_m3/stm32/timer/timer_1.cpp **** 	// Disable Repetition Counter (FIXME has to be done here for some unknown reason)
 212:/home/jonas/warwick/3dProfilometer/xpcc/src/xpcc/architecture/platform/cortex_m3/stm32/timer/timer_1.cpp **** 	TIM1->RCR = 0;
 478              		.loc 1 212 0
 479 0040 0C4B     		ldr	r3, .L34
 480 0042 0022     		movs	r2, #0
 481 0044 1A86     		strh	r2, [r3, #48]	@ movhi
 213:/home/jonas/warwick/3dProfilometer/xpcc/src/xpcc/architecture/platform/cortex_m3/stm32/timer/timer_1.cpp **** 	
 214:/home/jonas/warwick/3dProfilometer/xpcc/src/xpcc/architecture/platform/cortex_m3/stm32/timer/timer_1.cpp **** 	if (mode != OUTPUT_INACTIVE) {
 482              		.loc 1 214 0
 483 0046 29B1     		cbz	r1, .L26
 215:/home/jonas/warwick/3dProfilometer/xpcc/src/xpcc/architecture/platform/cortex_m3/stm32/timer/timer_1.cpp **** 		TIM1->CCER |= (TIM_CCER_CC1E) << (channel * 4);
 484              		.loc 1 215 0
 485 0048 1A8C     		ldrh	r2, [r3, #32]
 486 004a 0121     		movs	r1, #1
 487              	.LVL43:
 488 004c 01FA05F5 		lsl	r5, r1, r5
 489 0050 1543     		orrs	r5, r5, r2
 490 0052 1D84     		strh	r5, [r3, #32]	@ movhi
 491              	.L26:
 492              	.LBE99:
 216:/home/jonas/warwick/3dProfilometer/xpcc/src/xpcc/architecture/platform/cortex_m3/stm32/timer/timer_1.cpp **** 	}
 217:/home/jonas/warwick/3dProfilometer/xpcc/src/xpcc/architecture/platform/cortex_m3/stm32/timer/timer_1.cpp **** }
 493              		.loc 1 217 0
 494 0054 F0BC     		pop	{r4, r5, r6, r7}
 495 0056 7047     		bx	lr
 496              	.LVL44:
 497              	.L33:
 498              	.LBB100:
 499              	.LBB98:
 500              	.LBB95:
 198:/home/jonas/warwick/3dProfilometer/xpcc/src/xpcc/architecture/platform/cortex_m3/stm32/timer/timer_1.cpp **** 		flags |= TIM1->CCMR1 & ~(0xff << offset);
 501              		.loc 1 198 0
 502 0058 1A8B     		ldrh	r2, [r3, #24]
 503              	.LVL45:
 195:/home/jonas/warwick/3dProfilometer/xpcc/src/xpcc/architecture/platform/cortex_m3/stm32/timer/timer_1.cpp **** 		uint32_t offset = 8 * channel;
 504              		.loc 1 195 0
 505 005a E400     		lsls	r4, r4, #3
 506              	.LVL46:
 198:/home/jonas/warwick/3dProfilometer/xpcc/src/xpcc/architecture/platform/cortex_m3/stm32/timer/timer_1.cpp **** 		flags |= TIM1->CCMR1 & ~(0xff << offset);
 507              		.loc 1 198 0
 508 005c FF20     		movs	r0, #255
 509              	.LVL47:
 510 005e 92B2     		uxth	r2, r2
 511 0060 00FA04F0 		lsl	r0, r0, r4
 197:/home/jonas/warwick/3dProfilometer/xpcc/src/xpcc/architecture/platform/cortex_m3/stm32/timer/timer_1.cpp **** 		flags <<= offset;
 512              		.loc 1 197 0
 513 0064 06FA04F6 		lsl	r6, r6, r4
 514              	.LVL48:
 198:/home/jonas/warwick/3dProfilometer/xpcc/src/xpcc/architecture/platform/cortex_m3/stm32/timer/timer_1.cpp **** 		flags |= TIM1->CCMR1 & ~(0xff << offset);
 515              		.loc 1 198 0
 516 0068 22EA0004 		bic	r4, r2, r0
 517              	.LVL49:
 518 006c 3443     		orrs	r4, r4, r6
 200:/home/jonas/warwick/3dProfilometer/xpcc/src/xpcc/architecture/platform/cortex_m3/stm32/timer/timer_1.cpp **** 		TIM1->CCMR1 = flags;
 519              		.loc 1 200 0
 520 006e 1C83     		strh	r4, [r3, #24]	@ movhi
 521 0070 E6E7     		b	.L28
 522              	.L35:
 523 0072 00BF     		.align	2
 524              	.L34:
 525 0074 00000140 		.word	1073807360
 526 0078 30000140 		.word	1073807408
 527              	.LBE95:
 528              	.LBE98:
 529              	.LBE100:
 530              		.cfi_endproc
 531              	.LFE170:
 533              		.section	.text._ZN4xpcc5stm326Timer122configureOutputChannelEmNS0_19GeneralPurposeTimer17OutputCom
 534              		.align	2
 535              		.global	_ZN4xpcc5stm326Timer122configureOutputChannelEmNS0_19GeneralPurposeTimer17OutputCompareMod
 536              		.thumb
 537              		.thumb_func
 539              	_ZN4xpcc5stm326Timer122configureOutputChannelEmNS0_19GeneralPurposeTimer17OutputCompareModeENS2_8Pi
 540              	.LFB171:
 218:/home/jonas/warwick/3dProfilometer/xpcc/src/xpcc/architecture/platform/cortex_m3/stm32/timer/timer_1.cpp **** 
 219:/home/jonas/warwick/3dProfilometer/xpcc/src/xpcc/architecture/platform/cortex_m3/stm32/timer/timer_1.cpp **** void
 220:/home/jonas/warwick/3dProfilometer/xpcc/src/xpcc/architecture/platform/cortex_m3/stm32/timer/timer_1.cpp **** xpcc::stm32::Timer1::configureOutputChannel(uint32_t channel,
 221:/home/jonas/warwick/3dProfilometer/xpcc/src/xpcc/architecture/platform/cortex_m3/stm32/timer/timer_1.cpp **** OutputCompareMode mode,
 222:/home/jonas/warwick/3dProfilometer/xpcc/src/xpcc/architecture/platform/cortex_m3/stm32/timer/timer_1.cpp **** PinState out, OutputComparePolarity polarity,
 223:/home/jonas/warwick/3dProfilometer/xpcc/src/xpcc/architecture/platform/cortex_m3/stm32/timer/timer_1.cpp **** PinState out_n, OutputComparePolarity polarity_n,
 224:/home/jonas/warwick/3dProfilometer/xpcc/src/xpcc/architecture/platform/cortex_m3/stm32/timer/timer_1.cpp **** OutputComparePreload preload)
 225:/home/jonas/warwick/3dProfilometer/xpcc/src/xpcc/architecture/platform/cortex_m3/stm32/timer/timer_1.cpp **** {
 541              		.loc 1 225 0
 542              		.cfi_startproc
 543              		@ args = 12, pretend = 0, frame = 0
 544              		@ frame_needed = 0, uses_anonymous_args = 0
 545              		@ link register save eliminated.
 546              	.LVL50:
 547 0000 F0B4     		push	{r4, r5, r6, r7}
 548              	.LCFI3:
 549              		.cfi_def_cfa_offset 16
 550              		.cfi_offset 4, -16
 551              		.cfi_offset 5, -12
 552              		.cfi_offset 6, -8
 553              		.cfi_offset 7, -4
 554              	.LBB101:
 226:/home/jonas/warwick/3dProfilometer/xpcc/src/xpcc/architecture/platform/cortex_m3/stm32/timer/timer_1.cpp **** 	channel -= 1;	// 1..4 -> 0..3
 227:/home/jonas/warwick/3dProfilometer/xpcc/src/xpcc/architecture/platform/cortex_m3/stm32/timer/timer_1.cpp **** 
 228:/home/jonas/warwick/3dProfilometer/xpcc/src/xpcc/architecture/platform/cortex_m3/stm32/timer/timer_1.cpp **** 	// disable output
 229:/home/jonas/warwick/3dProfilometer/xpcc/src/xpcc/architecture/platform/cortex_m3/stm32/timer/timer_1.cpp **** 	TIM1->CCER &= ~(0xf << (channel * 4));
 555              		.loc 1 229 0
 556 0002 1F4C     		ldr	r4, .L40
 226:/home/jonas/warwick/3dProfilometer/xpcc/src/xpcc/architecture/platform/cortex_m3/stm32/timer/timer_1.cpp **** 	channel -= 1;	// 1..4 -> 0..3
 557              		.loc 1 226 0
 558 0004 451E     		subs	r5, r0, #1
 559              	.LVL51:
 560              		.loc 1 229 0
 561 0006 278C     		ldrh	r7, [r4, #32]
 562 0008 AE00     		lsls	r6, r5, #2
 563 000a 4FF00F0C 		mov	ip, #15
 564 000e BFB2     		uxth	r7, r7
 565 0010 0CFA06FC 		lsl	ip, ip, r6
 566 0014 27EA0C07 		bic	r7, r7, ip
 567 0018 2784     		strh	r7, [r4, #32]	@ movhi
 230:/home/jonas/warwick/3dProfilometer/xpcc/src/xpcc/architecture/platform/cortex_m3/stm32/timer/timer_1.cpp **** 
 231:/home/jonas/warwick/3dProfilometer/xpcc/src/xpcc/architecture/platform/cortex_m3/stm32/timer/timer_1.cpp **** 	uint32_t flags = mode | preload;
 568              		.loc 1 231 0
 569 001a 9DF81870 		ldrb	r7, [sp, #24]	@ zero_extendqisi2
 570              	.LBB102:
 232:/home/jonas/warwick/3dProfilometer/xpcc/src/xpcc/architecture/platform/cortex_m3/stm32/timer/timer_1.cpp **** 
 233:/home/jonas/warwick/3dProfilometer/xpcc/src/xpcc/architecture/platform/cortex_m3/stm32/timer/timer_1.cpp **** 	if (channel <= 1)
 571              		.loc 1 233 0
 572 001e 012D     		cmp	r5, #1
 573              	.LBE102:
 231:/home/jonas/warwick/3dProfilometer/xpcc/src/xpcc/architecture/platform/cortex_m3/stm32/timer/timer_1.cpp **** 	uint32_t flags = mode | preload;
 574              		.loc 1 231 0
 575 0020 47EA0107 		orr	r7, r7, r1
 576              	.LVL52:
 577              	.LBB105:
 578              		.loc 1 233 0
 579 0024 1FD9     		bls	.L39
 580              	.LVL53:
 581              	.LBB103:
 234:/home/jonas/warwick/3dProfilometer/xpcc/src/xpcc/architecture/platform/cortex_m3/stm32/timer/timer_1.cpp **** 	{
 235:/home/jonas/warwick/3dProfilometer/xpcc/src/xpcc/architecture/platform/cortex_m3/stm32/timer/timer_1.cpp **** 		uint32_t offset = 8 * channel;
 236:/home/jonas/warwick/3dProfilometer/xpcc/src/xpcc/architecture/platform/cortex_m3/stm32/timer/timer_1.cpp **** 
 237:/home/jonas/warwick/3dProfilometer/xpcc/src/xpcc/architecture/platform/cortex_m3/stm32/timer/timer_1.cpp **** 		flags <<= offset;
 238:/home/jonas/warwick/3dProfilometer/xpcc/src/xpcc/architecture/platform/cortex_m3/stm32/timer/timer_1.cpp **** 		flags |= TIM1->CCMR1 & ~(0xff << offset);
 239:/home/jonas/warwick/3dProfilometer/xpcc/src/xpcc/architecture/platform/cortex_m3/stm32/timer/timer_1.cpp **** 
 240:/home/jonas/warwick/3dProfilometer/xpcc/src/xpcc/architecture/platform/cortex_m3/stm32/timer/timer_1.cpp **** 		TIM1->CCMR1 = flags;
 241:/home/jonas/warwick/3dProfilometer/xpcc/src/xpcc/architecture/platform/cortex_m3/stm32/timer/timer_1.cpp **** 	}
 242:/home/jonas/warwick/3dProfilometer/xpcc/src/xpcc/architecture/platform/cortex_m3/stm32/timer/timer_1.cpp **** 	else {
 243:/home/jonas/warwick/3dProfilometer/xpcc/src/xpcc/architecture/platform/cortex_m3/stm32/timer/timer_1.cpp **** 		uint32_t offset = 8 * (channel - 2);
 244:/home/jonas/warwick/3dProfilometer/xpcc/src/xpcc/architecture/platform/cortex_m3/stm32/timer/timer_1.cpp **** 
 245:/home/jonas/warwick/3dProfilometer/xpcc/src/xpcc/architecture/platform/cortex_m3/stm32/timer/timer_1.cpp **** 		flags <<= offset;
 246:/home/jonas/warwick/3dProfilometer/xpcc/src/xpcc/architecture/platform/cortex_m3/stm32/timer/timer_1.cpp **** 		flags |= TIM1->CCMR2 & ~(0xff << offset);
 582              		.loc 1 246 0
 583 0026 A58B     		ldrh	r5, [r4, #28]
 584              	.LVL54:
 243:/home/jonas/warwick/3dProfilometer/xpcc/src/xpcc/architecture/platform/cortex_m3/stm32/timer/timer_1.cpp **** 		uint32_t offset = 8 * (channel - 2);
 585              		.loc 1 243 0
 586 0028 C000     		lsls	r0, r0, #3
 587              	.LVL55:
 588 002a 1838     		subs	r0, r0, #24
 589              		.loc 1 246 0
 590 002c FF21     		movs	r1, #255
 591              	.LVL56:
 592 002e ADB2     		uxth	r5, r5
 593 0030 01FA00F1 		lsl	r1, r1, r0
 245:/home/jonas/warwick/3dProfilometer/xpcc/src/xpcc/architecture/platform/cortex_m3/stm32/timer/timer_1.cpp **** 		flags <<= offset;
 594              		.loc 1 245 0
 595 0034 07FA00F7 		lsl	r7, r7, r0
 596              	.LVL57:
 597              		.loc 1 246 0
 598 0038 25EA0101 		bic	r1, r5, r1
 599 003c 0F43     		orrs	r7, r7, r1
 600              	.LVL58:
 247:/home/jonas/warwick/3dProfilometer/xpcc/src/xpcc/architecture/platform/cortex_m3/stm32/timer/timer_1.cpp **** 
 248:/home/jonas/warwick/3dProfilometer/xpcc/src/xpcc/architecture/platform/cortex_m3/stm32/timer/timer_1.cpp **** 		TIM1->CCMR2 = flags; 
 601              		.loc 1 248 0
 602 003e A783     		strh	r7, [r4, #28]	@ movhi
 603              	.LVL59:
 604              	.L38:
 605              	.LBE103:
 606              	.LBE105:
 249:/home/jonas/warwick/3dProfilometer/xpcc/src/xpcc/architecture/platform/cortex_m3/stm32/timer/timer_1.cpp **** 	}
 250:/home/jonas/warwick/3dProfilometer/xpcc/src/xpcc/architecture/platform/cortex_m3/stm32/timer/timer_1.cpp **** 
 251:/home/jonas/warwick/3dProfilometer/xpcc/src/xpcc/architecture/platform/cortex_m3/stm32/timer/timer_1.cpp **** 	// Disable Repetition Counter (FIXME has to be done here for some unknown reason)
 252:/home/jonas/warwick/3dProfilometer/xpcc/src/xpcc/architecture/platform/cortex_m3/stm32/timer/timer_1.cpp **** 	TIM1->RCR = 0;
 607              		.loc 1 252 0
 608 0040 0F49     		ldr	r1, .L40
 253:/home/jonas/warwick/3dProfilometer/xpcc/src/xpcc/architecture/platform/cortex_m3/stm32/timer/timer_1.cpp **** 
 254:/home/jonas/warwick/3dProfilometer/xpcc/src/xpcc/architecture/platform/cortex_m3/stm32/timer/timer_1.cpp **** 	// CCER Flags (Enable/Polarity)
 255:/home/jonas/warwick/3dProfilometer/xpcc/src/xpcc/architecture/platform/cortex_m3/stm32/timer/timer_1.cpp **** 	flags = (polarity_n<<2) | (out_n<<2) | polarity | out;
 609              		.loc 1 255 0
 610 0042 1A43     		orrs	r2, r2, r3
 611              	.LVL60:
 252:/home/jonas/warwick/3dProfilometer/xpcc/src/xpcc/architecture/platform/cortex_m3/stm32/timer/timer_1.cpp **** 	TIM1->RCR = 0;
 612              		.loc 1 252 0
 613 0044 0023     		movs	r3, #0
 614              	.LVL61:
 615 0046 0B86     		strh	r3, [r1, #48]	@ movhi
 616              		.loc 1 255 0
 617 0048 9DF81030 		ldrb	r3, [sp, #16]	@ zero_extendqisi2
 256:/home/jonas/warwick/3dProfilometer/xpcc/src/xpcc/architecture/platform/cortex_m3/stm32/timer/timer_1.cpp **** 
 257:/home/jonas/warwick/3dProfilometer/xpcc/src/xpcc/architecture/platform/cortex_m3/stm32/timer/timer_1.cpp **** 	TIM1->CCER |= flags << (channel * 4);
 618              		.loc 1 257 0
 619 004c 088C     		ldrh	r0, [r1, #32]
 255:/home/jonas/warwick/3dProfilometer/xpcc/src/xpcc/architecture/platform/cortex_m3/stm32/timer/timer_1.cpp **** 	flags = (polarity_n<<2) | (out_n<<2) | polarity | out;
 620              		.loc 1 255 0
 621 004e 42EA8303 		orr	r3, r2, r3, lsl #2
 622 0052 9DF81420 		ldrb	r2, [sp, #20]	@ zero_extendqisi2
 623 0056 43EA8203 		orr	r3, r3, r2, lsl #2
 624              		.loc 1 257 0
 625 005a 03FA06F6 		lsl	r6, r3, r6
 626 005e 0643     		orrs	r6, r6, r0
 627 0060 0E84     		strh	r6, [r1, #32]	@ movhi
 628              	.LBE101:
 258:/home/jonas/warwick/3dProfilometer/xpcc/src/xpcc/architecture/platform/cortex_m3/stm32/timer/timer_1.cpp **** }
 629              		.loc 1 258 0
 630 0062 F0BC     		pop	{r4, r5, r6, r7}
 631 0064 7047     		bx	lr
 632              	.LVL62:
 633              	.L39:
 634              	.LBB107:
 635              	.LBB106:
 636              	.LBB104:
 238:/home/jonas/warwick/3dProfilometer/xpcc/src/xpcc/architecture/platform/cortex_m3/stm32/timer/timer_1.cpp **** 		flags |= TIM1->CCMR1 & ~(0xff << offset);
 637              		.loc 1 238 0
 638 0066 208B     		ldrh	r0, [r4, #24]
 235:/home/jonas/warwick/3dProfilometer/xpcc/src/xpcc/architecture/platform/cortex_m3/stm32/timer/timer_1.cpp **** 		uint32_t offset = 8 * channel;
 639              		.loc 1 235 0
 640 0068 ED00     		lsls	r5, r5, #3
 641              	.LVL63:
 238:/home/jonas/warwick/3dProfilometer/xpcc/src/xpcc/architecture/platform/cortex_m3/stm32/timer/timer_1.cpp **** 		flags |= TIM1->CCMR1 & ~(0xff << offset);
 642              		.loc 1 238 0
 643 006a FF21     		movs	r1, #255
 644              	.LVL64:
 645 006c 01FA05F1 		lsl	r1, r1, r5
 646 0070 80B2     		uxth	r0, r0
 237:/home/jonas/warwick/3dProfilometer/xpcc/src/xpcc/architecture/platform/cortex_m3/stm32/timer/timer_1.cpp **** 		flags <<= offset;
 647              		.loc 1 237 0
 648 0072 07FA05F5 		lsl	r5, r7, r5
 649              	.LVL65:
 238:/home/jonas/warwick/3dProfilometer/xpcc/src/xpcc/architecture/platform/cortex_m3/stm32/timer/timer_1.cpp **** 		flags |= TIM1->CCMR1 & ~(0xff << offset);
 650              		.loc 1 238 0
 651 0076 20EA0101 		bic	r1, r0, r1
 652 007a 0D43     		orrs	r5, r5, r1
 653              	.LVL66:
 240:/home/jonas/warwick/3dProfilometer/xpcc/src/xpcc/architecture/platform/cortex_m3/stm32/timer/timer_1.cpp **** 		TIM1->CCMR1 = flags;
 654              		.loc 1 240 0
 655 007c 2583     		strh	r5, [r4, #24]	@ movhi
 656 007e DFE7     		b	.L38
 657              	.L41:
 658              		.align	2
 659              	.L40:
 660 0080 00000140 		.word	1073807360
 661              	.LBE104:
 662              	.LBE106:
 663              	.LBE107:
 664              		.cfi_endproc
 665              	.LFE171:
 667              		.section	.text._ZN4xpcc5stm326Timer122configureOutputChannelEmm,"ax",%progbits
 668              		.align	2
 669              		.global	_ZN4xpcc5stm326Timer122configureOutputChannelEmm
 670              		.thumb
 671              		.thumb_func
 673              	_ZN4xpcc5stm326Timer122configureOutputChannelEmm:
 674              	.LFB172:
 259:/home/jonas/warwick/3dProfilometer/xpcc/src/xpcc/architecture/platform/cortex_m3/stm32/timer/timer_1.cpp **** 
 260:/home/jonas/warwick/3dProfilometer/xpcc/src/xpcc/architecture/platform/cortex_m3/stm32/timer/timer_1.cpp **** void
 261:/home/jonas/warwick/3dProfilometer/xpcc/src/xpcc/architecture/platform/cortex_m3/stm32/timer/timer_1.cpp **** xpcc::stm32::Timer1::configureOutputChannel(uint32_t channel,
 262:/home/jonas/warwick/3dProfilometer/xpcc/src/xpcc/architecture/platform/cortex_m3/stm32/timer/timer_1.cpp **** uint32_t modeOutputPorts)
 263:/home/jonas/warwick/3dProfilometer/xpcc/src/xpcc/architecture/platform/cortex_m3/stm32/timer/timer_1.cpp **** {
 675              		.loc 1 263 0
 676              		.cfi_startproc
 677              		@ args = 0, pretend = 0, frame = 0
 678              		@ frame_needed = 0, uses_anonymous_args = 0
 679              		@ link register save eliminated.
 680              	.LVL67:
 681              	.LBB108:
 264:/home/jonas/warwick/3dProfilometer/xpcc/src/xpcc/architecture/platform/cortex_m3/stm32/timer/timer_1.cpp **** 	channel -= 1;	// 1..4 -> 0..3
 265:/home/jonas/warwick/3dProfilometer/xpcc/src/xpcc/architecture/platform/cortex_m3/stm32/timer/timer_1.cpp **** 
 266:/home/jonas/warwick/3dProfilometer/xpcc/src/xpcc/architecture/platform/cortex_m3/stm32/timer/timer_1.cpp **** 	// disable output
 267:/home/jonas/warwick/3dProfilometer/xpcc/src/xpcc/architecture/platform/cortex_m3/stm32/timer/timer_1.cpp **** 	TIM1->CCER &= ~(0xf << (channel * 4));
 682              		.loc 1 267 0
 683 0000 1A4B     		ldr	r3, .L46
 684              	.LBE108:
 263:/home/jonas/warwick/3dProfilometer/xpcc/src/xpcc/architecture/platform/cortex_m3/stm32/timer/timer_1.cpp **** {
 685              		.loc 1 263 0
 686 0002 70B4     		push	{r4, r5, r6}
 687              	.LCFI4:
 688              		.cfi_def_cfa_offset 12
 689              		.cfi_offset 4, -12
 690              		.cfi_offset 5, -8
 691              		.cfi_offset 6, -4
 692              	.LBB114:
 264:/home/jonas/warwick/3dProfilometer/xpcc/src/xpcc/architecture/platform/cortex_m3/stm32/timer/timer_1.cpp **** 	channel -= 1;	// 1..4 -> 0..3
 693              		.loc 1 264 0
 694 0004 421E     		subs	r2, r0, #1
 695              	.LVL68:
 696              		.loc 1 267 0
 697 0006 1D8C     		ldrh	r5, [r3, #32]
 698 0008 9400     		lsls	r4, r2, #2
 699 000a 0F26     		movs	r6, #15
 700 000c ADB2     		uxth	r5, r5
 701 000e 06FA04F6 		lsl	r6, r6, r4
 702 0012 25EA0605 		bic	r5, r5, r6
 703              	.LBB109:
 268:/home/jonas/warwick/3dProfilometer/xpcc/src/xpcc/architecture/platform/cortex_m3/stm32/timer/timer_1.cpp **** 
 269:/home/jonas/warwick/3dProfilometer/xpcc/src/xpcc/architecture/platform/cortex_m3/stm32/timer/timer_1.cpp **** 	uint32_t flags = modeOutputPorts & (0x70);
 270:/home/jonas/warwick/3dProfilometer/xpcc/src/xpcc/architecture/platform/cortex_m3/stm32/timer/timer_1.cpp **** 
 271:/home/jonas/warwick/3dProfilometer/xpcc/src/xpcc/architecture/platform/cortex_m3/stm32/timer/timer_1.cpp **** 	if (channel <= 1)
 704              		.loc 1 271 0
 705 0016 012A     		cmp	r2, #1
 706              	.LBE109:
 267:/home/jonas/warwick/3dProfilometer/xpcc/src/xpcc/architecture/platform/cortex_m3/stm32/timer/timer_1.cpp **** 	TIM1->CCER &= ~(0xf << (channel * 4));
 707              		.loc 1 267 0
 708 0018 1D84     		strh	r5, [r3, #32]	@ movhi
 269:/home/jonas/warwick/3dProfilometer/xpcc/src/xpcc/architecture/platform/cortex_m3/stm32/timer/timer_1.cpp **** 	uint32_t flags = modeOutputPorts & (0x70);
 709              		.loc 1 269 0
 710 001a 01F07005 		and	r5, r1, #112
 711              	.LVL69:
 712              	.LBB112:
 713              		.loc 1 271 0
 714 001e 18D9     		bls	.L45
 715              	.LVL70:
 716              	.LBB110:
 272:/home/jonas/warwick/3dProfilometer/xpcc/src/xpcc/architecture/platform/cortex_m3/stm32/timer/timer_1.cpp **** 	{
 273:/home/jonas/warwick/3dProfilometer/xpcc/src/xpcc/architecture/platform/cortex_m3/stm32/timer/timer_1.cpp **** 		uint32_t offset = 8 * channel;
 274:/home/jonas/warwick/3dProfilometer/xpcc/src/xpcc/architecture/platform/cortex_m3/stm32/timer/timer_1.cpp **** 
 275:/home/jonas/warwick/3dProfilometer/xpcc/src/xpcc/architecture/platform/cortex_m3/stm32/timer/timer_1.cpp **** 		flags <<= offset;
 276:/home/jonas/warwick/3dProfilometer/xpcc/src/xpcc/architecture/platform/cortex_m3/stm32/timer/timer_1.cpp **** 		flags |= TIM1->CCMR1 & ~(TIM_CCMR1_OC1M << offset);
 277:/home/jonas/warwick/3dProfilometer/xpcc/src/xpcc/architecture/platform/cortex_m3/stm32/timer/timer_1.cpp **** 		TIM1->CCMR1 = flags;
 278:/home/jonas/warwick/3dProfilometer/xpcc/src/xpcc/architecture/platform/cortex_m3/stm32/timer/timer_1.cpp **** 	}
 279:/home/jonas/warwick/3dProfilometer/xpcc/src/xpcc/architecture/platform/cortex_m3/stm32/timer/timer_1.cpp **** 	else {
 280:/home/jonas/warwick/3dProfilometer/xpcc/src/xpcc/architecture/platform/cortex_m3/stm32/timer/timer_1.cpp **** 		uint32_t offset = 8 * (channel - 2);
 281:/home/jonas/warwick/3dProfilometer/xpcc/src/xpcc/architecture/platform/cortex_m3/stm32/timer/timer_1.cpp **** 
 282:/home/jonas/warwick/3dProfilometer/xpcc/src/xpcc/architecture/platform/cortex_m3/stm32/timer/timer_1.cpp **** 		flags <<= offset;
 283:/home/jonas/warwick/3dProfilometer/xpcc/src/xpcc/architecture/platform/cortex_m3/stm32/timer/timer_1.cpp **** 		flags |= TIM1->CCMR2 & ~(TIM_CCMR1_OC1M << offset);
 717              		.loc 1 283 0
 718 0020 9A8B     		ldrh	r2, [r3, #28]
 719              	.LVL71:
 280:/home/jonas/warwick/3dProfilometer/xpcc/src/xpcc/architecture/platform/cortex_m3/stm32/timer/timer_1.cpp **** 		uint32_t offset = 8 * (channel - 2);
 720              		.loc 1 280 0
 721 0022 C000     		lsls	r0, r0, #3
 722              	.LVL72:
 723 0024 1838     		subs	r0, r0, #24
 724              		.loc 1 283 0
 725 0026 7026     		movs	r6, #112
 726 0028 92B2     		uxth	r2, r2
 727 002a 06FA00F6 		lsl	r6, r6, r0
 282:/home/jonas/warwick/3dProfilometer/xpcc/src/xpcc/architecture/platform/cortex_m3/stm32/timer/timer_1.cpp **** 		flags <<= offset;
 728              		.loc 1 282 0
 729 002e 05FA00F5 		lsl	r5, r5, r0
 730              	.LVL73:
 731              		.loc 1 283 0
 732 0032 22EA0600 		bic	r0, r2, r6
 733              	.LVL74:
 734 0036 2843     		orrs	r0, r0, r5
 284:/home/jonas/warwick/3dProfilometer/xpcc/src/xpcc/architecture/platform/cortex_m3/stm32/timer/timer_1.cpp **** 
 285:/home/jonas/warwick/3dProfilometer/xpcc/src/xpcc/architecture/platform/cortex_m3/stm32/timer/timer_1.cpp **** 		TIM1->CCMR2 = flags; 
 735              		.loc 1 285 0
 736 0038 9883     		strh	r0, [r3, #28]	@ movhi
 737              	.LVL75:
 738              	.L44:
 739              	.LBE110:
 740              	.LBE112:
 286:/home/jonas/warwick/3dProfilometer/xpcc/src/xpcc/architecture/platform/cortex_m3/stm32/timer/timer_1.cpp **** 	}
 287:/home/jonas/warwick/3dProfilometer/xpcc/src/xpcc/architecture/platform/cortex_m3/stm32/timer/timer_1.cpp **** 
 288:/home/jonas/warwick/3dProfilometer/xpcc/src/xpcc/architecture/platform/cortex_m3/stm32/timer/timer_1.cpp **** 	// Disable Repetition Counter (FIXME has to be done here for some unknown reason)
 289:/home/jonas/warwick/3dProfilometer/xpcc/src/xpcc/architecture/platform/cortex_m3/stm32/timer/timer_1.cpp **** 	TIM1->RCR = 0;
 741              		.loc 1 289 0
 742 003a 0C4B     		ldr	r3, .L46
 743 003c 0022     		movs	r2, #0
 744 003e 1A86     		strh	r2, [r3, #48]	@ movhi
 290:/home/jonas/warwick/3dProfilometer/xpcc/src/xpcc/architecture/platform/cortex_m3/stm32/timer/timer_1.cpp **** 
 291:/home/jonas/warwick/3dProfilometer/xpcc/src/xpcc/architecture/platform/cortex_m3/stm32/timer/timer_1.cpp **** 	TIM1->CCER |= (modeOutputPorts & (0xf)) << (channel * 4);
 745              		.loc 1 291 0
 746 0040 1A8C     		ldrh	r2, [r3, #32]
 747 0042 01F00F01 		and	r1, r1, #15
 748              	.LVL76:
 749 0046 01FA04F4 		lsl	r4, r1, r4
 750 004a 1443     		orrs	r4, r4, r2
 751 004c 1C84     		strh	r4, [r3, #32]	@ movhi
 752              	.LBE114:
 292:/home/jonas/warwick/3dProfilometer/xpcc/src/xpcc/architecture/platform/cortex_m3/stm32/timer/timer_1.cpp **** }
 753              		.loc 1 292 0
 754 004e 70BC     		pop	{r4, r5, r6}
 755 0050 7047     		bx	lr
 756              	.LVL77:
 757              	.L45:
 758              	.LBB115:
 759              	.LBB113:
 760              	.LBB111:
 276:/home/jonas/warwick/3dProfilometer/xpcc/src/xpcc/architecture/platform/cortex_m3/stm32/timer/timer_1.cpp **** 		flags |= TIM1->CCMR1 & ~(TIM_CCMR1_OC1M << offset);
 761              		.loc 1 276 0
 762 0052 188B     		ldrh	r0, [r3, #24]
 273:/home/jonas/warwick/3dProfilometer/xpcc/src/xpcc/architecture/platform/cortex_m3/stm32/timer/timer_1.cpp **** 		uint32_t offset = 8 * channel;
 763              		.loc 1 273 0
 764 0054 D200     		lsls	r2, r2, #3
 765              	.LVL78:
 276:/home/jonas/warwick/3dProfilometer/xpcc/src/xpcc/architecture/platform/cortex_m3/stm32/timer/timer_1.cpp **** 		flags |= TIM1->CCMR1 & ~(TIM_CCMR1_OC1M << offset);
 766              		.loc 1 276 0
 767 0056 7026     		movs	r6, #112
 768 0058 80B2     		uxth	r0, r0
 769 005a 06FA02F6 		lsl	r6, r6, r2
 275:/home/jonas/warwick/3dProfilometer/xpcc/src/xpcc/architecture/platform/cortex_m3/stm32/timer/timer_1.cpp **** 		flags <<= offset;
 770              		.loc 1 275 0
 771 005e 05FA02F5 		lsl	r5, r5, r2
 772              	.LVL79:
 276:/home/jonas/warwick/3dProfilometer/xpcc/src/xpcc/architecture/platform/cortex_m3/stm32/timer/timer_1.cpp **** 		flags |= TIM1->CCMR1 & ~(TIM_CCMR1_OC1M << offset);
 773              		.loc 1 276 0
 774 0062 20EA0602 		bic	r2, r0, r6
 775              	.LVL80:
 776 0066 2A43     		orrs	r2, r2, r5
 277:/home/jonas/warwick/3dProfilometer/xpcc/src/xpcc/architecture/platform/cortex_m3/stm32/timer/timer_1.cpp **** 		TIM1->CCMR1 = flags;
 777              		.loc 1 277 0
 778 0068 1A83     		strh	r2, [r3, #24]	@ movhi
 779 006a E6E7     		b	.L44
 780              	.L47:
 781              		.align	2
 782              	.L46:
 783 006c 00000140 		.word	1073807360
 784              	.LBE111:
 785              	.LBE113:
 786              	.LBE115:
 787              		.cfi_endproc
 788              	.LFE172:
 790              		.section	.text._ZN4xpcc5stm326Timer121enableInterruptVectorENS0_19GeneralPurposeTimer9InterruptEbm
 791              		.align	2
 792              		.global	_ZN4xpcc5stm326Timer121enableInterruptVectorENS0_19GeneralPurposeTimer9InterruptEbm
 793              		.thumb
 794              		.thumb_func
 796              	_ZN4xpcc5stm326Timer121enableInterruptVectorENS0_19GeneralPurposeTimer9InterruptEbm:
 797              	.LFB175:
 293:/home/jonas/warwick/3dProfilometer/xpcc/src/xpcc/architecture/platform/cortex_m3/stm32/timer/timer_1.cpp **** 
 294:/home/jonas/warwick/3dProfilometer/xpcc/src/xpcc/architecture/platform/cortex_m3/stm32/timer/timer_1.cpp **** // ----------------------------------------------------------------------------
 295:/home/jonas/warwick/3dProfilometer/xpcc/src/xpcc/architecture/platform/cortex_m3/stm32/timer/timer_1.cpp **** // Re-implemented here to save some code space. As all arguments in the calls
 296:/home/jonas/warwick/3dProfilometer/xpcc/src/xpcc/architecture/platform/cortex_m3/stm32/timer/timer_1.cpp **** // below are constant the compiler is able to calculate everything at
 297:/home/jonas/warwick/3dProfilometer/xpcc/src/xpcc/architecture/platform/cortex_m3/stm32/timer/timer_1.cpp **** // compile time.
 298:/home/jonas/warwick/3dProfilometer/xpcc/src/xpcc/architecture/platform/cortex_m3/stm32/timer/timer_1.cpp **** static ALWAYS_INLINE void
 299:/home/jonas/warwick/3dProfilometer/xpcc/src/xpcc/architecture/platform/cortex_m3/stm32/timer/timer_1.cpp **** nvicEnableInterrupt(IRQn_Type IRQn)
 300:/home/jonas/warwick/3dProfilometer/xpcc/src/xpcc/architecture/platform/cortex_m3/stm32/timer/timer_1.cpp **** {
 301:/home/jonas/warwick/3dProfilometer/xpcc/src/xpcc/architecture/platform/cortex_m3/stm32/timer/timer_1.cpp **** 	NVIC->ISER[((uint32_t)(IRQn) >> 5)] = (1 << ((uint32_t)(IRQn) & 0x1F));
 302:/home/jonas/warwick/3dProfilometer/xpcc/src/xpcc/architecture/platform/cortex_m3/stm32/timer/timer_1.cpp **** }
 303:/home/jonas/warwick/3dProfilometer/xpcc/src/xpcc/architecture/platform/cortex_m3/stm32/timer/timer_1.cpp **** 
 304:/home/jonas/warwick/3dProfilometer/xpcc/src/xpcc/architecture/platform/cortex_m3/stm32/timer/timer_1.cpp **** static ALWAYS_INLINE void
 305:/home/jonas/warwick/3dProfilometer/xpcc/src/xpcc/architecture/platform/cortex_m3/stm32/timer/timer_1.cpp **** nvicDisableInterrupt(IRQn_Type IRQn)
 306:/home/jonas/warwick/3dProfilometer/xpcc/src/xpcc/architecture/platform/cortex_m3/stm32/timer/timer_1.cpp **** {
 307:/home/jonas/warwick/3dProfilometer/xpcc/src/xpcc/architecture/platform/cortex_m3/stm32/timer/timer_1.cpp **** 	NVIC_DisableIRQ(IRQn);
 308:/home/jonas/warwick/3dProfilometer/xpcc/src/xpcc/architecture/platform/cortex_m3/stm32/timer/timer_1.cpp **** }
 309:/home/jonas/warwick/3dProfilometer/xpcc/src/xpcc/architecture/platform/cortex_m3/stm32/timer/timer_1.cpp **** 
 310:/home/jonas/warwick/3dProfilometer/xpcc/src/xpcc/architecture/platform/cortex_m3/stm32/timer/timer_1.cpp **** // ----------------------------------------------------------------------------
 311:/home/jonas/warwick/3dProfilometer/xpcc/src/xpcc/architecture/platform/cortex_m3/stm32/timer/timer_1.cpp **** void
 312:/home/jonas/warwick/3dProfilometer/xpcc/src/xpcc/architecture/platform/cortex_m3/stm32/timer/timer_1.cpp **** xpcc::stm32::Timer1::enableInterruptVector(Interrupt interrupt, bool enable, uint32_t priority)
 313:/home/jonas/warwick/3dProfilometer/xpcc/src/xpcc/architecture/platform/cortex_m3/stm32/timer/timer_1.cpp **** {
 798              		.loc 1 313 0
 799              		.cfi_startproc
 800              		@ args = 0, pretend = 0, frame = 0
 801              		@ frame_needed = 0, uses_anonymous_args = 0
 802              		@ link register save eliminated.
 803              	.LVL81:
 314:/home/jonas/warwick/3dProfilometer/xpcc/src/xpcc/architecture/platform/cortex_m3/stm32/timer/timer_1.cpp **** 	if (enable)
 804              		.loc 1 314 0
 805 0000 F9B1     		cbz	r1, .L49
 315:/home/jonas/warwick/3dProfilometer/xpcc/src/xpcc/architecture/platform/cortex_m3/stm32/timer/timer_1.cpp **** 	{
 316:/home/jonas/warwick/3dProfilometer/xpcc/src/xpcc/architecture/platform/cortex_m3/stm32/timer/timer_1.cpp **** 		if (interrupt & INTERRUPT_UPDATE) {
 806              		.loc 1 316 0
 807 0002 C307     		lsls	r3, r0, #31
 808 0004 06D5     		bpl	.L50
 809              	.LVL82:
 810              	.LBB116:
 811              	.LBB117:
 812              		.file 3 "/home/jonas/warwick/3dProfilometer/xpcc/ext/stm32f4xx_lib/CMSIS/Include/core_cm4.h"
   1:/home/jonas/warwick/3dProfilometer/xpcc/ext/stm32f4xx_lib/CMSIS/Include/core_cm4.h **** /**************************************************************************//**
   2:/home/jonas/warwick/3dProfilometer/xpcc/ext/stm32f4xx_lib/CMSIS/Include/core_cm4.h ****  * @file     core_cm4.h
   3:/home/jonas/warwick/3dProfilometer/xpcc/ext/stm32f4xx_lib/CMSIS/Include/core_cm4.h ****  * @brief    CMSIS Cortex-M4 Core Peripheral Access Layer Header File
   4:/home/jonas/warwick/3dProfilometer/xpcc/ext/stm32f4xx_lib/CMSIS/Include/core_cm4.h ****  * @version  V2.10
   5:/home/jonas/warwick/3dProfilometer/xpcc/ext/stm32f4xx_lib/CMSIS/Include/core_cm4.h ****  * @date     19. July 2011
   6:/home/jonas/warwick/3dProfilometer/xpcc/ext/stm32f4xx_lib/CMSIS/Include/core_cm4.h ****  *
   7:/home/jonas/warwick/3dProfilometer/xpcc/ext/stm32f4xx_lib/CMSIS/Include/core_cm4.h ****  * @note
   8:/home/jonas/warwick/3dProfilometer/xpcc/ext/stm32f4xx_lib/CMSIS/Include/core_cm4.h ****  * Copyright (C) 2009-2011 ARM Limited. All rights reserved.
   9:/home/jonas/warwick/3dProfilometer/xpcc/ext/stm32f4xx_lib/CMSIS/Include/core_cm4.h ****  *
  10:/home/jonas/warwick/3dProfilometer/xpcc/ext/stm32f4xx_lib/CMSIS/Include/core_cm4.h ****  * @par
  11:/home/jonas/warwick/3dProfilometer/xpcc/ext/stm32f4xx_lib/CMSIS/Include/core_cm4.h ****  * ARM Limited (ARM) is supplying this software for use with Cortex-M
  12:/home/jonas/warwick/3dProfilometer/xpcc/ext/stm32f4xx_lib/CMSIS/Include/core_cm4.h ****  * processor based microcontrollers.  This file can be freely distributed
  13:/home/jonas/warwick/3dProfilometer/xpcc/ext/stm32f4xx_lib/CMSIS/Include/core_cm4.h ****  * within development tools that are supporting such ARM based processors.
  14:/home/jonas/warwick/3dProfilometer/xpcc/ext/stm32f4xx_lib/CMSIS/Include/core_cm4.h ****  *
  15:/home/jonas/warwick/3dProfilometer/xpcc/ext/stm32f4xx_lib/CMSIS/Include/core_cm4.h ****  * @par
  16:/home/jonas/warwick/3dProfilometer/xpcc/ext/stm32f4xx_lib/CMSIS/Include/core_cm4.h ****  * THIS SOFTWARE IS PROVIDED "AS IS".  NO WARRANTIES, WHETHER EXPRESS, IMPLIED
  17:/home/jonas/warwick/3dProfilometer/xpcc/ext/stm32f4xx_lib/CMSIS/Include/core_cm4.h ****  * OR STATUTORY, INCLUDING, BUT NOT LIMITED TO, IMPLIED WARRANTIES OF
  18:/home/jonas/warwick/3dProfilometer/xpcc/ext/stm32f4xx_lib/CMSIS/Include/core_cm4.h ****  * MERCHANTABILITY AND FITNESS FOR A PARTICULAR PURPOSE APPLY TO THIS SOFTWARE.
  19:/home/jonas/warwick/3dProfilometer/xpcc/ext/stm32f4xx_lib/CMSIS/Include/core_cm4.h ****  * ARM SHALL NOT, IN ANY CIRCUMSTANCES, BE LIABLE FOR SPECIAL, INCIDENTAL, OR
  20:/home/jonas/warwick/3dProfilometer/xpcc/ext/stm32f4xx_lib/CMSIS/Include/core_cm4.h ****  * CONSEQUENTIAL DAMAGES, FOR ANY REASON WHATSOEVER.
  21:/home/jonas/warwick/3dProfilometer/xpcc/ext/stm32f4xx_lib/CMSIS/Include/core_cm4.h ****  *
  22:/home/jonas/warwick/3dProfilometer/xpcc/ext/stm32f4xx_lib/CMSIS/Include/core_cm4.h ****  ******************************************************************************/
  23:/home/jonas/warwick/3dProfilometer/xpcc/ext/stm32f4xx_lib/CMSIS/Include/core_cm4.h **** #if defined ( __ICCARM__ )
  24:/home/jonas/warwick/3dProfilometer/xpcc/ext/stm32f4xx_lib/CMSIS/Include/core_cm4.h ****  #pragma system_include  /* treat file as system include file for MISRA check */
  25:/home/jonas/warwick/3dProfilometer/xpcc/ext/stm32f4xx_lib/CMSIS/Include/core_cm4.h **** #endif
  26:/home/jonas/warwick/3dProfilometer/xpcc/ext/stm32f4xx_lib/CMSIS/Include/core_cm4.h **** 
  27:/home/jonas/warwick/3dProfilometer/xpcc/ext/stm32f4xx_lib/CMSIS/Include/core_cm4.h **** #ifdef __cplusplus
  28:/home/jonas/warwick/3dProfilometer/xpcc/ext/stm32f4xx_lib/CMSIS/Include/core_cm4.h ****  extern "C" {
  29:/home/jonas/warwick/3dProfilometer/xpcc/ext/stm32f4xx_lib/CMSIS/Include/core_cm4.h **** #endif
  30:/home/jonas/warwick/3dProfilometer/xpcc/ext/stm32f4xx_lib/CMSIS/Include/core_cm4.h **** 
  31:/home/jonas/warwick/3dProfilometer/xpcc/ext/stm32f4xx_lib/CMSIS/Include/core_cm4.h **** #ifndef __CORE_CM4_H_GENERIC
  32:/home/jonas/warwick/3dProfilometer/xpcc/ext/stm32f4xx_lib/CMSIS/Include/core_cm4.h **** #define __CORE_CM4_H_GENERIC
  33:/home/jonas/warwick/3dProfilometer/xpcc/ext/stm32f4xx_lib/CMSIS/Include/core_cm4.h **** 
  34:/home/jonas/warwick/3dProfilometer/xpcc/ext/stm32f4xx_lib/CMSIS/Include/core_cm4.h **** 
  35:/home/jonas/warwick/3dProfilometer/xpcc/ext/stm32f4xx_lib/CMSIS/Include/core_cm4.h **** /** \mainpage CMSIS Cortex-M4
  36:/home/jonas/warwick/3dProfilometer/xpcc/ext/stm32f4xx_lib/CMSIS/Include/core_cm4.h **** 
  37:/home/jonas/warwick/3dProfilometer/xpcc/ext/stm32f4xx_lib/CMSIS/Include/core_cm4.h ****   This documentation describes the CMSIS Cortex-M Core Peripheral Access Layer.
  38:/home/jonas/warwick/3dProfilometer/xpcc/ext/stm32f4xx_lib/CMSIS/Include/core_cm4.h ****   It consists of:
  39:/home/jonas/warwick/3dProfilometer/xpcc/ext/stm32f4xx_lib/CMSIS/Include/core_cm4.h **** 
  40:/home/jonas/warwick/3dProfilometer/xpcc/ext/stm32f4xx_lib/CMSIS/Include/core_cm4.h ****      - Cortex-M Core Register Definitions
  41:/home/jonas/warwick/3dProfilometer/xpcc/ext/stm32f4xx_lib/CMSIS/Include/core_cm4.h ****      - Cortex-M functions
  42:/home/jonas/warwick/3dProfilometer/xpcc/ext/stm32f4xx_lib/CMSIS/Include/core_cm4.h ****      - Cortex-M instructions
  43:/home/jonas/warwick/3dProfilometer/xpcc/ext/stm32f4xx_lib/CMSIS/Include/core_cm4.h ****      - Cortex-M SIMD instructions
  44:/home/jonas/warwick/3dProfilometer/xpcc/ext/stm32f4xx_lib/CMSIS/Include/core_cm4.h **** 
  45:/home/jonas/warwick/3dProfilometer/xpcc/ext/stm32f4xx_lib/CMSIS/Include/core_cm4.h ****   The CMSIS Cortex-M4 Core Peripheral Access Layer contains C and assembly functions that ease
  46:/home/jonas/warwick/3dProfilometer/xpcc/ext/stm32f4xx_lib/CMSIS/Include/core_cm4.h ****   access to the Cortex-M Core
  47:/home/jonas/warwick/3dProfilometer/xpcc/ext/stm32f4xx_lib/CMSIS/Include/core_cm4.h ****  */
  48:/home/jonas/warwick/3dProfilometer/xpcc/ext/stm32f4xx_lib/CMSIS/Include/core_cm4.h **** 
  49:/home/jonas/warwick/3dProfilometer/xpcc/ext/stm32f4xx_lib/CMSIS/Include/core_cm4.h **** /** \defgroup CMSIS_MISRA_Exceptions  CMSIS MISRA-C:2004 Compliance Exceptions
  50:/home/jonas/warwick/3dProfilometer/xpcc/ext/stm32f4xx_lib/CMSIS/Include/core_cm4.h ****   CMSIS violates following MISRA-C2004 Rules:
  51:/home/jonas/warwick/3dProfilometer/xpcc/ext/stm32f4xx_lib/CMSIS/Include/core_cm4.h ****   
  52:/home/jonas/warwick/3dProfilometer/xpcc/ext/stm32f4xx_lib/CMSIS/Include/core_cm4.h ****    - Violates MISRA 2004 Required Rule 8.5, object/function definition in header file.<br>
  53:/home/jonas/warwick/3dProfilometer/xpcc/ext/stm32f4xx_lib/CMSIS/Include/core_cm4.h ****      Function definitions in header files are used to allow 'inlining'. 
  54:/home/jonas/warwick/3dProfilometer/xpcc/ext/stm32f4xx_lib/CMSIS/Include/core_cm4.h **** 
  55:/home/jonas/warwick/3dProfilometer/xpcc/ext/stm32f4xx_lib/CMSIS/Include/core_cm4.h ****    - Violates MISRA 2004 Required Rule 18.4, declaration of union type or object of union type: '{.
  56:/home/jonas/warwick/3dProfilometer/xpcc/ext/stm32f4xx_lib/CMSIS/Include/core_cm4.h ****      Unions are used for effective representation of core registers.
  57:/home/jonas/warwick/3dProfilometer/xpcc/ext/stm32f4xx_lib/CMSIS/Include/core_cm4.h ****    
  58:/home/jonas/warwick/3dProfilometer/xpcc/ext/stm32f4xx_lib/CMSIS/Include/core_cm4.h ****    - Violates MISRA 2004 Advisory Rule 19.7, Function-like macro defined.<br>
  59:/home/jonas/warwick/3dProfilometer/xpcc/ext/stm32f4xx_lib/CMSIS/Include/core_cm4.h ****      Function-like macros are used to allow more efficient code. 
  60:/home/jonas/warwick/3dProfilometer/xpcc/ext/stm32f4xx_lib/CMSIS/Include/core_cm4.h **** 
  61:/home/jonas/warwick/3dProfilometer/xpcc/ext/stm32f4xx_lib/CMSIS/Include/core_cm4.h ****  */
  62:/home/jonas/warwick/3dProfilometer/xpcc/ext/stm32f4xx_lib/CMSIS/Include/core_cm4.h **** 
  63:/home/jonas/warwick/3dProfilometer/xpcc/ext/stm32f4xx_lib/CMSIS/Include/core_cm4.h **** 
  64:/home/jonas/warwick/3dProfilometer/xpcc/ext/stm32f4xx_lib/CMSIS/Include/core_cm4.h **** /*******************************************************************************
  65:/home/jonas/warwick/3dProfilometer/xpcc/ext/stm32f4xx_lib/CMSIS/Include/core_cm4.h ****  *                 CMSIS definitions
  66:/home/jonas/warwick/3dProfilometer/xpcc/ext/stm32f4xx_lib/CMSIS/Include/core_cm4.h ****  ******************************************************************************/
  67:/home/jonas/warwick/3dProfilometer/xpcc/ext/stm32f4xx_lib/CMSIS/Include/core_cm4.h **** /** \defgroup CMSIS_core_definitions CMSIS Core Definitions
  68:/home/jonas/warwick/3dProfilometer/xpcc/ext/stm32f4xx_lib/CMSIS/Include/core_cm4.h ****   This file defines all structures and symbols for CMSIS core:
  69:/home/jonas/warwick/3dProfilometer/xpcc/ext/stm32f4xx_lib/CMSIS/Include/core_cm4.h ****    - CMSIS version number
  70:/home/jonas/warwick/3dProfilometer/xpcc/ext/stm32f4xx_lib/CMSIS/Include/core_cm4.h ****    - Cortex-M core
  71:/home/jonas/warwick/3dProfilometer/xpcc/ext/stm32f4xx_lib/CMSIS/Include/core_cm4.h ****    - Cortex-M core Revision Number
  72:/home/jonas/warwick/3dProfilometer/xpcc/ext/stm32f4xx_lib/CMSIS/Include/core_cm4.h ****   @{
  73:/home/jonas/warwick/3dProfilometer/xpcc/ext/stm32f4xx_lib/CMSIS/Include/core_cm4.h ****  */
  74:/home/jonas/warwick/3dProfilometer/xpcc/ext/stm32f4xx_lib/CMSIS/Include/core_cm4.h **** 
  75:/home/jonas/warwick/3dProfilometer/xpcc/ext/stm32f4xx_lib/CMSIS/Include/core_cm4.h **** /*  CMSIS CM4 definitions */
  76:/home/jonas/warwick/3dProfilometer/xpcc/ext/stm32f4xx_lib/CMSIS/Include/core_cm4.h **** #define __CM4_CMSIS_VERSION_MAIN  (0x02)                                                       /*!<
  77:/home/jonas/warwick/3dProfilometer/xpcc/ext/stm32f4xx_lib/CMSIS/Include/core_cm4.h **** #define __CM4_CMSIS_VERSION_SUB   (0x10)                                                       /*!<
  78:/home/jonas/warwick/3dProfilometer/xpcc/ext/stm32f4xx_lib/CMSIS/Include/core_cm4.h **** #define __CM4_CMSIS_VERSION       ((__CM4_CMSIS_VERSION_MAIN << 16) | __CM4_CMSIS_VERSION_SUB) /*!<
  79:/home/jonas/warwick/3dProfilometer/xpcc/ext/stm32f4xx_lib/CMSIS/Include/core_cm4.h **** 
  80:/home/jonas/warwick/3dProfilometer/xpcc/ext/stm32f4xx_lib/CMSIS/Include/core_cm4.h **** #define __CORTEX_M                (0x04)                                                       /*!<
  81:/home/jonas/warwick/3dProfilometer/xpcc/ext/stm32f4xx_lib/CMSIS/Include/core_cm4.h **** 
  82:/home/jonas/warwick/3dProfilometer/xpcc/ext/stm32f4xx_lib/CMSIS/Include/core_cm4.h **** 
  83:/home/jonas/warwick/3dProfilometer/xpcc/ext/stm32f4xx_lib/CMSIS/Include/core_cm4.h **** #if   defined ( __CC_ARM )
  84:/home/jonas/warwick/3dProfilometer/xpcc/ext/stm32f4xx_lib/CMSIS/Include/core_cm4.h ****   #define __ASM            __asm                                      /*!< asm keyword for ARM Comp
  85:/home/jonas/warwick/3dProfilometer/xpcc/ext/stm32f4xx_lib/CMSIS/Include/core_cm4.h ****   #define __INLINE         __inline                                   /*!< inline keyword for ARM C
  86:/home/jonas/warwick/3dProfilometer/xpcc/ext/stm32f4xx_lib/CMSIS/Include/core_cm4.h **** 
  87:/home/jonas/warwick/3dProfilometer/xpcc/ext/stm32f4xx_lib/CMSIS/Include/core_cm4.h **** #elif defined ( __ICCARM__ )
  88:/home/jonas/warwick/3dProfilometer/xpcc/ext/stm32f4xx_lib/CMSIS/Include/core_cm4.h ****   #define __ASM           __asm                                       /*!< asm keyword for IAR Comp
  89:/home/jonas/warwick/3dProfilometer/xpcc/ext/stm32f4xx_lib/CMSIS/Include/core_cm4.h ****   #define __INLINE        inline                                      /*!< inline keyword for IAR C
  90:/home/jonas/warwick/3dProfilometer/xpcc/ext/stm32f4xx_lib/CMSIS/Include/core_cm4.h **** 
  91:/home/jonas/warwick/3dProfilometer/xpcc/ext/stm32f4xx_lib/CMSIS/Include/core_cm4.h **** #elif defined ( __GNUC__ )
  92:/home/jonas/warwick/3dProfilometer/xpcc/ext/stm32f4xx_lib/CMSIS/Include/core_cm4.h ****   #define __ASM            __asm                                      /*!< asm keyword for GNU Comp
  93:/home/jonas/warwick/3dProfilometer/xpcc/ext/stm32f4xx_lib/CMSIS/Include/core_cm4.h ****   #define __INLINE         inline                                     /*!< inline keyword for GNU C
  94:/home/jonas/warwick/3dProfilometer/xpcc/ext/stm32f4xx_lib/CMSIS/Include/core_cm4.h **** 
  95:/home/jonas/warwick/3dProfilometer/xpcc/ext/stm32f4xx_lib/CMSIS/Include/core_cm4.h **** #elif defined ( __TASKING__ )
  96:/home/jonas/warwick/3dProfilometer/xpcc/ext/stm32f4xx_lib/CMSIS/Include/core_cm4.h ****   #define __ASM            __asm                                      /*!< asm keyword for TASKING 
  97:/home/jonas/warwick/3dProfilometer/xpcc/ext/stm32f4xx_lib/CMSIS/Include/core_cm4.h ****   #define __INLINE         inline                                     /*!< inline keyword for TASKI
  98:/home/jonas/warwick/3dProfilometer/xpcc/ext/stm32f4xx_lib/CMSIS/Include/core_cm4.h **** 
  99:/home/jonas/warwick/3dProfilometer/xpcc/ext/stm32f4xx_lib/CMSIS/Include/core_cm4.h **** #endif
 100:/home/jonas/warwick/3dProfilometer/xpcc/ext/stm32f4xx_lib/CMSIS/Include/core_cm4.h **** 
 101:/home/jonas/warwick/3dProfilometer/xpcc/ext/stm32f4xx_lib/CMSIS/Include/core_cm4.h **** /*!< __FPU_USED to be checked prior to making use of FPU specific registers and functions */
 102:/home/jonas/warwick/3dProfilometer/xpcc/ext/stm32f4xx_lib/CMSIS/Include/core_cm4.h **** #if defined ( __CC_ARM )
 103:/home/jonas/warwick/3dProfilometer/xpcc/ext/stm32f4xx_lib/CMSIS/Include/core_cm4.h ****   #if defined __TARGET_FPU_VFP
 104:/home/jonas/warwick/3dProfilometer/xpcc/ext/stm32f4xx_lib/CMSIS/Include/core_cm4.h ****     #if (__FPU_PRESENT == 1)
 105:/home/jonas/warwick/3dProfilometer/xpcc/ext/stm32f4xx_lib/CMSIS/Include/core_cm4.h ****       #define __FPU_USED       1
 106:/home/jonas/warwick/3dProfilometer/xpcc/ext/stm32f4xx_lib/CMSIS/Include/core_cm4.h ****     #else
 107:/home/jonas/warwick/3dProfilometer/xpcc/ext/stm32f4xx_lib/CMSIS/Include/core_cm4.h ****       #warning "Compiler generates FPU instructions for a device without an FPU (check __FPU_PRESEN
 108:/home/jonas/warwick/3dProfilometer/xpcc/ext/stm32f4xx_lib/CMSIS/Include/core_cm4.h ****       #define __FPU_USED       0
 109:/home/jonas/warwick/3dProfilometer/xpcc/ext/stm32f4xx_lib/CMSIS/Include/core_cm4.h ****     #endif
 110:/home/jonas/warwick/3dProfilometer/xpcc/ext/stm32f4xx_lib/CMSIS/Include/core_cm4.h ****   #else
 111:/home/jonas/warwick/3dProfilometer/xpcc/ext/stm32f4xx_lib/CMSIS/Include/core_cm4.h ****     #define __FPU_USED         0
 112:/home/jonas/warwick/3dProfilometer/xpcc/ext/stm32f4xx_lib/CMSIS/Include/core_cm4.h ****   #endif
 113:/home/jonas/warwick/3dProfilometer/xpcc/ext/stm32f4xx_lib/CMSIS/Include/core_cm4.h **** 
 114:/home/jonas/warwick/3dProfilometer/xpcc/ext/stm32f4xx_lib/CMSIS/Include/core_cm4.h **** #elif defined ( __ICCARM__ )
 115:/home/jonas/warwick/3dProfilometer/xpcc/ext/stm32f4xx_lib/CMSIS/Include/core_cm4.h ****   #if defined __ARMVFP__
 116:/home/jonas/warwick/3dProfilometer/xpcc/ext/stm32f4xx_lib/CMSIS/Include/core_cm4.h ****     #if (__FPU_PRESENT == 1)
 117:/home/jonas/warwick/3dProfilometer/xpcc/ext/stm32f4xx_lib/CMSIS/Include/core_cm4.h ****       #define __FPU_USED       1
 118:/home/jonas/warwick/3dProfilometer/xpcc/ext/stm32f4xx_lib/CMSIS/Include/core_cm4.h ****     #else
 119:/home/jonas/warwick/3dProfilometer/xpcc/ext/stm32f4xx_lib/CMSIS/Include/core_cm4.h ****       #warning "Compiler generates FPU instructions for a device without an FPU (check __FPU_PRESEN
 120:/home/jonas/warwick/3dProfilometer/xpcc/ext/stm32f4xx_lib/CMSIS/Include/core_cm4.h ****       #define __FPU_USED       0
 121:/home/jonas/warwick/3dProfilometer/xpcc/ext/stm32f4xx_lib/CMSIS/Include/core_cm4.h ****     #endif
 122:/home/jonas/warwick/3dProfilometer/xpcc/ext/stm32f4xx_lib/CMSIS/Include/core_cm4.h ****   #else
 123:/home/jonas/warwick/3dProfilometer/xpcc/ext/stm32f4xx_lib/CMSIS/Include/core_cm4.h ****     #define __FPU_USED         0
 124:/home/jonas/warwick/3dProfilometer/xpcc/ext/stm32f4xx_lib/CMSIS/Include/core_cm4.h ****   #endif
 125:/home/jonas/warwick/3dProfilometer/xpcc/ext/stm32f4xx_lib/CMSIS/Include/core_cm4.h **** 
 126:/home/jonas/warwick/3dProfilometer/xpcc/ext/stm32f4xx_lib/CMSIS/Include/core_cm4.h **** #elif defined ( __GNUC__ )
 127:/home/jonas/warwick/3dProfilometer/xpcc/ext/stm32f4xx_lib/CMSIS/Include/core_cm4.h ****   #if defined (__VFP_FP__) && !defined(__SOFTFP__)
 128:/home/jonas/warwick/3dProfilometer/xpcc/ext/stm32f4xx_lib/CMSIS/Include/core_cm4.h ****     #if (__FPU_PRESENT == 1)
 129:/home/jonas/warwick/3dProfilometer/xpcc/ext/stm32f4xx_lib/CMSIS/Include/core_cm4.h ****       #define __FPU_USED       1
 130:/home/jonas/warwick/3dProfilometer/xpcc/ext/stm32f4xx_lib/CMSIS/Include/core_cm4.h ****     #else
 131:/home/jonas/warwick/3dProfilometer/xpcc/ext/stm32f4xx_lib/CMSIS/Include/core_cm4.h ****       #warning "Compiler generates FPU instructions for a device without an FPU (check __FPU_PRESEN
 132:/home/jonas/warwick/3dProfilometer/xpcc/ext/stm32f4xx_lib/CMSIS/Include/core_cm4.h ****       #define __FPU_USED       0
 133:/home/jonas/warwick/3dProfilometer/xpcc/ext/stm32f4xx_lib/CMSIS/Include/core_cm4.h ****     #endif
 134:/home/jonas/warwick/3dProfilometer/xpcc/ext/stm32f4xx_lib/CMSIS/Include/core_cm4.h ****   #else
 135:/home/jonas/warwick/3dProfilometer/xpcc/ext/stm32f4xx_lib/CMSIS/Include/core_cm4.h ****     #define __FPU_USED         0
 136:/home/jonas/warwick/3dProfilometer/xpcc/ext/stm32f4xx_lib/CMSIS/Include/core_cm4.h ****   #endif
 137:/home/jonas/warwick/3dProfilometer/xpcc/ext/stm32f4xx_lib/CMSIS/Include/core_cm4.h **** 
 138:/home/jonas/warwick/3dProfilometer/xpcc/ext/stm32f4xx_lib/CMSIS/Include/core_cm4.h **** #elif defined ( __TASKING__ )
 139:/home/jonas/warwick/3dProfilometer/xpcc/ext/stm32f4xx_lib/CMSIS/Include/core_cm4.h ****     /* add preprocessor checks to define __FPU_USED */
 140:/home/jonas/warwick/3dProfilometer/xpcc/ext/stm32f4xx_lib/CMSIS/Include/core_cm4.h ****     #define __FPU_USED         0
 141:/home/jonas/warwick/3dProfilometer/xpcc/ext/stm32f4xx_lib/CMSIS/Include/core_cm4.h **** #endif
 142:/home/jonas/warwick/3dProfilometer/xpcc/ext/stm32f4xx_lib/CMSIS/Include/core_cm4.h **** 
 143:/home/jonas/warwick/3dProfilometer/xpcc/ext/stm32f4xx_lib/CMSIS/Include/core_cm4.h **** #include <stdint.h>                      /*!< standard types definitions                      */
 144:/home/jonas/warwick/3dProfilometer/xpcc/ext/stm32f4xx_lib/CMSIS/Include/core_cm4.h **** #include <core_cmInstr.h>                /*!< Core Instruction Access                         */
 145:/home/jonas/warwick/3dProfilometer/xpcc/ext/stm32f4xx_lib/CMSIS/Include/core_cm4.h **** #include <core_cmFunc.h>                 /*!< Core Function Access                            */
 146:/home/jonas/warwick/3dProfilometer/xpcc/ext/stm32f4xx_lib/CMSIS/Include/core_cm4.h **** #include <core_cm4_simd.h>               /*!< Compiler specific SIMD Intrinsics               */
 147:/home/jonas/warwick/3dProfilometer/xpcc/ext/stm32f4xx_lib/CMSIS/Include/core_cm4.h **** 
 148:/home/jonas/warwick/3dProfilometer/xpcc/ext/stm32f4xx_lib/CMSIS/Include/core_cm4.h **** #endif /* __CORE_CM4_H_GENERIC */
 149:/home/jonas/warwick/3dProfilometer/xpcc/ext/stm32f4xx_lib/CMSIS/Include/core_cm4.h **** 
 150:/home/jonas/warwick/3dProfilometer/xpcc/ext/stm32f4xx_lib/CMSIS/Include/core_cm4.h **** #ifndef __CMSIS_GENERIC
 151:/home/jonas/warwick/3dProfilometer/xpcc/ext/stm32f4xx_lib/CMSIS/Include/core_cm4.h **** 
 152:/home/jonas/warwick/3dProfilometer/xpcc/ext/stm32f4xx_lib/CMSIS/Include/core_cm4.h **** #ifndef __CORE_CM4_H_DEPENDANT
 153:/home/jonas/warwick/3dProfilometer/xpcc/ext/stm32f4xx_lib/CMSIS/Include/core_cm4.h **** #define __CORE_CM4_H_DEPENDANT
 154:/home/jonas/warwick/3dProfilometer/xpcc/ext/stm32f4xx_lib/CMSIS/Include/core_cm4.h **** 
 155:/home/jonas/warwick/3dProfilometer/xpcc/ext/stm32f4xx_lib/CMSIS/Include/core_cm4.h **** /* check device defines and use defaults */
 156:/home/jonas/warwick/3dProfilometer/xpcc/ext/stm32f4xx_lib/CMSIS/Include/core_cm4.h **** #if defined __CHECK_DEVICE_DEFINES
 157:/home/jonas/warwick/3dProfilometer/xpcc/ext/stm32f4xx_lib/CMSIS/Include/core_cm4.h ****   #ifndef __CM4_REV
 158:/home/jonas/warwick/3dProfilometer/xpcc/ext/stm32f4xx_lib/CMSIS/Include/core_cm4.h ****     #define __CM4_REV               0x0000
 159:/home/jonas/warwick/3dProfilometer/xpcc/ext/stm32f4xx_lib/CMSIS/Include/core_cm4.h ****     #warning "__CM4_REV not defined in device header file; using default!"
 160:/home/jonas/warwick/3dProfilometer/xpcc/ext/stm32f4xx_lib/CMSIS/Include/core_cm4.h ****   #endif
 161:/home/jonas/warwick/3dProfilometer/xpcc/ext/stm32f4xx_lib/CMSIS/Include/core_cm4.h **** 
 162:/home/jonas/warwick/3dProfilometer/xpcc/ext/stm32f4xx_lib/CMSIS/Include/core_cm4.h ****   #ifndef __FPU_PRESENT
 163:/home/jonas/warwick/3dProfilometer/xpcc/ext/stm32f4xx_lib/CMSIS/Include/core_cm4.h ****     #define __FPU_PRESENT             0
 164:/home/jonas/warwick/3dProfilometer/xpcc/ext/stm32f4xx_lib/CMSIS/Include/core_cm4.h ****     #warning "__FPU_PRESENT not defined in device header file; using default!"
 165:/home/jonas/warwick/3dProfilometer/xpcc/ext/stm32f4xx_lib/CMSIS/Include/core_cm4.h ****   #endif
 166:/home/jonas/warwick/3dProfilometer/xpcc/ext/stm32f4xx_lib/CMSIS/Include/core_cm4.h **** 
 167:/home/jonas/warwick/3dProfilometer/xpcc/ext/stm32f4xx_lib/CMSIS/Include/core_cm4.h ****   #ifndef __MPU_PRESENT
 168:/home/jonas/warwick/3dProfilometer/xpcc/ext/stm32f4xx_lib/CMSIS/Include/core_cm4.h ****     #define __MPU_PRESENT             0
 169:/home/jonas/warwick/3dProfilometer/xpcc/ext/stm32f4xx_lib/CMSIS/Include/core_cm4.h ****     #warning "__MPU_PRESENT not defined in device header file; using default!"
 170:/home/jonas/warwick/3dProfilometer/xpcc/ext/stm32f4xx_lib/CMSIS/Include/core_cm4.h ****   #endif
 171:/home/jonas/warwick/3dProfilometer/xpcc/ext/stm32f4xx_lib/CMSIS/Include/core_cm4.h **** 
 172:/home/jonas/warwick/3dProfilometer/xpcc/ext/stm32f4xx_lib/CMSIS/Include/core_cm4.h ****   #ifndef __NVIC_PRIO_BITS
 173:/home/jonas/warwick/3dProfilometer/xpcc/ext/stm32f4xx_lib/CMSIS/Include/core_cm4.h ****     #define __NVIC_PRIO_BITS          4
 174:/home/jonas/warwick/3dProfilometer/xpcc/ext/stm32f4xx_lib/CMSIS/Include/core_cm4.h ****     #warning "__NVIC_PRIO_BITS not defined in device header file; using default!"
 175:/home/jonas/warwick/3dProfilometer/xpcc/ext/stm32f4xx_lib/CMSIS/Include/core_cm4.h ****   #endif
 176:/home/jonas/warwick/3dProfilometer/xpcc/ext/stm32f4xx_lib/CMSIS/Include/core_cm4.h **** 
 177:/home/jonas/warwick/3dProfilometer/xpcc/ext/stm32f4xx_lib/CMSIS/Include/core_cm4.h ****   #ifndef __Vendor_SysTickConfig
 178:/home/jonas/warwick/3dProfilometer/xpcc/ext/stm32f4xx_lib/CMSIS/Include/core_cm4.h ****     #define __Vendor_SysTickConfig    0
 179:/home/jonas/warwick/3dProfilometer/xpcc/ext/stm32f4xx_lib/CMSIS/Include/core_cm4.h ****     #warning "__Vendor_SysTickConfig not defined in device header file; using default!"
 180:/home/jonas/warwick/3dProfilometer/xpcc/ext/stm32f4xx_lib/CMSIS/Include/core_cm4.h ****   #endif
 181:/home/jonas/warwick/3dProfilometer/xpcc/ext/stm32f4xx_lib/CMSIS/Include/core_cm4.h **** #endif
 182:/home/jonas/warwick/3dProfilometer/xpcc/ext/stm32f4xx_lib/CMSIS/Include/core_cm4.h **** 
 183:/home/jonas/warwick/3dProfilometer/xpcc/ext/stm32f4xx_lib/CMSIS/Include/core_cm4.h **** /* IO definitions (access restrictions to peripheral registers) */
 184:/home/jonas/warwick/3dProfilometer/xpcc/ext/stm32f4xx_lib/CMSIS/Include/core_cm4.h **** #ifdef __cplusplus
 185:/home/jonas/warwick/3dProfilometer/xpcc/ext/stm32f4xx_lib/CMSIS/Include/core_cm4.h ****   #define   __I     volatile             /*!< defines 'read only' permissions                 */
 186:/home/jonas/warwick/3dProfilometer/xpcc/ext/stm32f4xx_lib/CMSIS/Include/core_cm4.h **** #else
 187:/home/jonas/warwick/3dProfilometer/xpcc/ext/stm32f4xx_lib/CMSIS/Include/core_cm4.h ****   #define   __I     volatile const       /*!< defines 'read only' permissions                 */
 188:/home/jonas/warwick/3dProfilometer/xpcc/ext/stm32f4xx_lib/CMSIS/Include/core_cm4.h **** #endif
 189:/home/jonas/warwick/3dProfilometer/xpcc/ext/stm32f4xx_lib/CMSIS/Include/core_cm4.h **** #define     __O     volatile             /*!< defines 'write only' permissions                */
 190:/home/jonas/warwick/3dProfilometer/xpcc/ext/stm32f4xx_lib/CMSIS/Include/core_cm4.h **** #define     __IO    volatile             /*!< defines 'read / write' permissions              */
 191:/home/jonas/warwick/3dProfilometer/xpcc/ext/stm32f4xx_lib/CMSIS/Include/core_cm4.h **** 
 192:/home/jonas/warwick/3dProfilometer/xpcc/ext/stm32f4xx_lib/CMSIS/Include/core_cm4.h **** /*@} end of group CMSIS_core_definitions */
 193:/home/jonas/warwick/3dProfilometer/xpcc/ext/stm32f4xx_lib/CMSIS/Include/core_cm4.h **** 
 194:/home/jonas/warwick/3dProfilometer/xpcc/ext/stm32f4xx_lib/CMSIS/Include/core_cm4.h **** 
 195:/home/jonas/warwick/3dProfilometer/xpcc/ext/stm32f4xx_lib/CMSIS/Include/core_cm4.h **** 
 196:/home/jonas/warwick/3dProfilometer/xpcc/ext/stm32f4xx_lib/CMSIS/Include/core_cm4.h **** /*******************************************************************************
 197:/home/jonas/warwick/3dProfilometer/xpcc/ext/stm32f4xx_lib/CMSIS/Include/core_cm4.h ****  *                 Register Abstraction
 198:/home/jonas/warwick/3dProfilometer/xpcc/ext/stm32f4xx_lib/CMSIS/Include/core_cm4.h ****  ******************************************************************************/
 199:/home/jonas/warwick/3dProfilometer/xpcc/ext/stm32f4xx_lib/CMSIS/Include/core_cm4.h **** /** \defgroup CMSIS_core_register CMSIS Core Register
 200:/home/jonas/warwick/3dProfilometer/xpcc/ext/stm32f4xx_lib/CMSIS/Include/core_cm4.h ****   Core Register contain:
 201:/home/jonas/warwick/3dProfilometer/xpcc/ext/stm32f4xx_lib/CMSIS/Include/core_cm4.h ****   - Core Register
 202:/home/jonas/warwick/3dProfilometer/xpcc/ext/stm32f4xx_lib/CMSIS/Include/core_cm4.h ****   - Core NVIC Register
 203:/home/jonas/warwick/3dProfilometer/xpcc/ext/stm32f4xx_lib/CMSIS/Include/core_cm4.h ****   - Core SCB Register
 204:/home/jonas/warwick/3dProfilometer/xpcc/ext/stm32f4xx_lib/CMSIS/Include/core_cm4.h ****   - Core SysTick Register
 205:/home/jonas/warwick/3dProfilometer/xpcc/ext/stm32f4xx_lib/CMSIS/Include/core_cm4.h ****   - Core Debug Register
 206:/home/jonas/warwick/3dProfilometer/xpcc/ext/stm32f4xx_lib/CMSIS/Include/core_cm4.h ****   - Core MPU Register
 207:/home/jonas/warwick/3dProfilometer/xpcc/ext/stm32f4xx_lib/CMSIS/Include/core_cm4.h ****   - Core FPU Register
 208:/home/jonas/warwick/3dProfilometer/xpcc/ext/stm32f4xx_lib/CMSIS/Include/core_cm4.h **** */
 209:/home/jonas/warwick/3dProfilometer/xpcc/ext/stm32f4xx_lib/CMSIS/Include/core_cm4.h **** 
 210:/home/jonas/warwick/3dProfilometer/xpcc/ext/stm32f4xx_lib/CMSIS/Include/core_cm4.h **** /** \ingroup  CMSIS_core_register
 211:/home/jonas/warwick/3dProfilometer/xpcc/ext/stm32f4xx_lib/CMSIS/Include/core_cm4.h ****     \defgroup CMSIS_CORE CMSIS Core
 212:/home/jonas/warwick/3dProfilometer/xpcc/ext/stm32f4xx_lib/CMSIS/Include/core_cm4.h ****   Type definitions for the Cortex-M Core Registers
 213:/home/jonas/warwick/3dProfilometer/xpcc/ext/stm32f4xx_lib/CMSIS/Include/core_cm4.h ****   @{
 214:/home/jonas/warwick/3dProfilometer/xpcc/ext/stm32f4xx_lib/CMSIS/Include/core_cm4.h ****  */
 215:/home/jonas/warwick/3dProfilometer/xpcc/ext/stm32f4xx_lib/CMSIS/Include/core_cm4.h **** 
 216:/home/jonas/warwick/3dProfilometer/xpcc/ext/stm32f4xx_lib/CMSIS/Include/core_cm4.h **** /** \brief  Union type to access the Application Program Status Register (APSR).
 217:/home/jonas/warwick/3dProfilometer/xpcc/ext/stm32f4xx_lib/CMSIS/Include/core_cm4.h ****  */
 218:/home/jonas/warwick/3dProfilometer/xpcc/ext/stm32f4xx_lib/CMSIS/Include/core_cm4.h **** typedef union
 219:/home/jonas/warwick/3dProfilometer/xpcc/ext/stm32f4xx_lib/CMSIS/Include/core_cm4.h **** {
 220:/home/jonas/warwick/3dProfilometer/xpcc/ext/stm32f4xx_lib/CMSIS/Include/core_cm4.h ****   struct
 221:/home/jonas/warwick/3dProfilometer/xpcc/ext/stm32f4xx_lib/CMSIS/Include/core_cm4.h ****   {
 222:/home/jonas/warwick/3dProfilometer/xpcc/ext/stm32f4xx_lib/CMSIS/Include/core_cm4.h **** #if (__CORTEX_M != 0x04)
 223:/home/jonas/warwick/3dProfilometer/xpcc/ext/stm32f4xx_lib/CMSIS/Include/core_cm4.h ****     uint32_t _reserved0:27;              /*!< bit:  0..26  Reserved                           */
 224:/home/jonas/warwick/3dProfilometer/xpcc/ext/stm32f4xx_lib/CMSIS/Include/core_cm4.h **** #else
 225:/home/jonas/warwick/3dProfilometer/xpcc/ext/stm32f4xx_lib/CMSIS/Include/core_cm4.h ****     uint32_t _reserved0:16;              /*!< bit:  0..15  Reserved                           */
 226:/home/jonas/warwick/3dProfilometer/xpcc/ext/stm32f4xx_lib/CMSIS/Include/core_cm4.h ****     uint32_t GE:4;                       /*!< bit: 16..19  Greater than or Equal flags        */
 227:/home/jonas/warwick/3dProfilometer/xpcc/ext/stm32f4xx_lib/CMSIS/Include/core_cm4.h ****     uint32_t _reserved1:7;               /*!< bit: 20..26  Reserved                           */
 228:/home/jonas/warwick/3dProfilometer/xpcc/ext/stm32f4xx_lib/CMSIS/Include/core_cm4.h **** #endif
 229:/home/jonas/warwick/3dProfilometer/xpcc/ext/stm32f4xx_lib/CMSIS/Include/core_cm4.h ****     uint32_t Q:1;                        /*!< bit:     27  Saturation condition flag          */
 230:/home/jonas/warwick/3dProfilometer/xpcc/ext/stm32f4xx_lib/CMSIS/Include/core_cm4.h ****     uint32_t V:1;                        /*!< bit:     28  Overflow condition code flag       */
 231:/home/jonas/warwick/3dProfilometer/xpcc/ext/stm32f4xx_lib/CMSIS/Include/core_cm4.h ****     uint32_t C:1;                        /*!< bit:     29  Carry condition code flag          */
 232:/home/jonas/warwick/3dProfilometer/xpcc/ext/stm32f4xx_lib/CMSIS/Include/core_cm4.h ****     uint32_t Z:1;                        /*!< bit:     30  Zero condition code flag           */
 233:/home/jonas/warwick/3dProfilometer/xpcc/ext/stm32f4xx_lib/CMSIS/Include/core_cm4.h ****     uint32_t N:1;                        /*!< bit:     31  Negative condition code flag       */
 234:/home/jonas/warwick/3dProfilometer/xpcc/ext/stm32f4xx_lib/CMSIS/Include/core_cm4.h ****   } b;                                   /*!< Structure used for bit  access                  */
 235:/home/jonas/warwick/3dProfilometer/xpcc/ext/stm32f4xx_lib/CMSIS/Include/core_cm4.h ****   uint32_t w;                            /*!< Type      used for word access                  */
 236:/home/jonas/warwick/3dProfilometer/xpcc/ext/stm32f4xx_lib/CMSIS/Include/core_cm4.h **** } APSR_Type;
 237:/home/jonas/warwick/3dProfilometer/xpcc/ext/stm32f4xx_lib/CMSIS/Include/core_cm4.h **** 
 238:/home/jonas/warwick/3dProfilometer/xpcc/ext/stm32f4xx_lib/CMSIS/Include/core_cm4.h **** 
 239:/home/jonas/warwick/3dProfilometer/xpcc/ext/stm32f4xx_lib/CMSIS/Include/core_cm4.h **** /** \brief  Union type to access the Interrupt Program Status Register (IPSR).
 240:/home/jonas/warwick/3dProfilometer/xpcc/ext/stm32f4xx_lib/CMSIS/Include/core_cm4.h ****  */
 241:/home/jonas/warwick/3dProfilometer/xpcc/ext/stm32f4xx_lib/CMSIS/Include/core_cm4.h **** typedef union
 242:/home/jonas/warwick/3dProfilometer/xpcc/ext/stm32f4xx_lib/CMSIS/Include/core_cm4.h **** {
 243:/home/jonas/warwick/3dProfilometer/xpcc/ext/stm32f4xx_lib/CMSIS/Include/core_cm4.h ****   struct
 244:/home/jonas/warwick/3dProfilometer/xpcc/ext/stm32f4xx_lib/CMSIS/Include/core_cm4.h ****   {
 245:/home/jonas/warwick/3dProfilometer/xpcc/ext/stm32f4xx_lib/CMSIS/Include/core_cm4.h ****     uint32_t ISR:9;                      /*!< bit:  0.. 8  Exception number                   */
 246:/home/jonas/warwick/3dProfilometer/xpcc/ext/stm32f4xx_lib/CMSIS/Include/core_cm4.h ****     uint32_t _reserved0:23;              /*!< bit:  9..31  Reserved                           */
 247:/home/jonas/warwick/3dProfilometer/xpcc/ext/stm32f4xx_lib/CMSIS/Include/core_cm4.h ****   } b;                                   /*!< Structure used for bit  access                  */
 248:/home/jonas/warwick/3dProfilometer/xpcc/ext/stm32f4xx_lib/CMSIS/Include/core_cm4.h ****   uint32_t w;                            /*!< Type      used for word access                  */
 249:/home/jonas/warwick/3dProfilometer/xpcc/ext/stm32f4xx_lib/CMSIS/Include/core_cm4.h **** } IPSR_Type;
 250:/home/jonas/warwick/3dProfilometer/xpcc/ext/stm32f4xx_lib/CMSIS/Include/core_cm4.h **** 
 251:/home/jonas/warwick/3dProfilometer/xpcc/ext/stm32f4xx_lib/CMSIS/Include/core_cm4.h **** 
 252:/home/jonas/warwick/3dProfilometer/xpcc/ext/stm32f4xx_lib/CMSIS/Include/core_cm4.h **** /** \brief  Union type to access the Special-Purpose Program Status Registers (xPSR).
 253:/home/jonas/warwick/3dProfilometer/xpcc/ext/stm32f4xx_lib/CMSIS/Include/core_cm4.h ****  */
 254:/home/jonas/warwick/3dProfilometer/xpcc/ext/stm32f4xx_lib/CMSIS/Include/core_cm4.h **** typedef union
 255:/home/jonas/warwick/3dProfilometer/xpcc/ext/stm32f4xx_lib/CMSIS/Include/core_cm4.h **** {
 256:/home/jonas/warwick/3dProfilometer/xpcc/ext/stm32f4xx_lib/CMSIS/Include/core_cm4.h ****   struct
 257:/home/jonas/warwick/3dProfilometer/xpcc/ext/stm32f4xx_lib/CMSIS/Include/core_cm4.h ****   {
 258:/home/jonas/warwick/3dProfilometer/xpcc/ext/stm32f4xx_lib/CMSIS/Include/core_cm4.h ****     uint32_t ISR:9;                      /*!< bit:  0.. 8  Exception number                   */
 259:/home/jonas/warwick/3dProfilometer/xpcc/ext/stm32f4xx_lib/CMSIS/Include/core_cm4.h **** #if (__CORTEX_M != 0x04)
 260:/home/jonas/warwick/3dProfilometer/xpcc/ext/stm32f4xx_lib/CMSIS/Include/core_cm4.h ****     uint32_t _reserved0:15;              /*!< bit:  9..23  Reserved                           */
 261:/home/jonas/warwick/3dProfilometer/xpcc/ext/stm32f4xx_lib/CMSIS/Include/core_cm4.h **** #else
 262:/home/jonas/warwick/3dProfilometer/xpcc/ext/stm32f4xx_lib/CMSIS/Include/core_cm4.h ****     uint32_t _reserved0:7;               /*!< bit:  9..15  Reserved                           */
 263:/home/jonas/warwick/3dProfilometer/xpcc/ext/stm32f4xx_lib/CMSIS/Include/core_cm4.h ****     uint32_t GE:4;                       /*!< bit: 16..19  Greater than or Equal flags        */
 264:/home/jonas/warwick/3dProfilometer/xpcc/ext/stm32f4xx_lib/CMSIS/Include/core_cm4.h ****     uint32_t _reserved1:4;               /*!< bit: 20..23  Reserved                           */
 265:/home/jonas/warwick/3dProfilometer/xpcc/ext/stm32f4xx_lib/CMSIS/Include/core_cm4.h **** #endif
 266:/home/jonas/warwick/3dProfilometer/xpcc/ext/stm32f4xx_lib/CMSIS/Include/core_cm4.h ****     uint32_t T:1;                        /*!< bit:     24  Thumb bit        (read 0)          */
 267:/home/jonas/warwick/3dProfilometer/xpcc/ext/stm32f4xx_lib/CMSIS/Include/core_cm4.h ****     uint32_t IT:2;                       /*!< bit: 25..26  saved IT state   (read 0)          */
 268:/home/jonas/warwick/3dProfilometer/xpcc/ext/stm32f4xx_lib/CMSIS/Include/core_cm4.h ****     uint32_t Q:1;                        /*!< bit:     27  Saturation condition flag          */
 269:/home/jonas/warwick/3dProfilometer/xpcc/ext/stm32f4xx_lib/CMSIS/Include/core_cm4.h ****     uint32_t V:1;                        /*!< bit:     28  Overflow condition code flag       */
 270:/home/jonas/warwick/3dProfilometer/xpcc/ext/stm32f4xx_lib/CMSIS/Include/core_cm4.h ****     uint32_t C:1;                        /*!< bit:     29  Carry condition code flag          */
 271:/home/jonas/warwick/3dProfilometer/xpcc/ext/stm32f4xx_lib/CMSIS/Include/core_cm4.h ****     uint32_t Z:1;                        /*!< bit:     30  Zero condition code flag           */
 272:/home/jonas/warwick/3dProfilometer/xpcc/ext/stm32f4xx_lib/CMSIS/Include/core_cm4.h ****     uint32_t N:1;                        /*!< bit:     31  Negative condition code flag       */
 273:/home/jonas/warwick/3dProfilometer/xpcc/ext/stm32f4xx_lib/CMSIS/Include/core_cm4.h ****   } b;                                   /*!< Structure used for bit  access                  */
 274:/home/jonas/warwick/3dProfilometer/xpcc/ext/stm32f4xx_lib/CMSIS/Include/core_cm4.h ****   uint32_t w;                            /*!< Type      used for word access                  */
 275:/home/jonas/warwick/3dProfilometer/xpcc/ext/stm32f4xx_lib/CMSIS/Include/core_cm4.h **** } xPSR_Type;
 276:/home/jonas/warwick/3dProfilometer/xpcc/ext/stm32f4xx_lib/CMSIS/Include/core_cm4.h **** 
 277:/home/jonas/warwick/3dProfilometer/xpcc/ext/stm32f4xx_lib/CMSIS/Include/core_cm4.h **** 
 278:/home/jonas/warwick/3dProfilometer/xpcc/ext/stm32f4xx_lib/CMSIS/Include/core_cm4.h **** /** \brief  Union type to access the Control Registers (CONTROL).
 279:/home/jonas/warwick/3dProfilometer/xpcc/ext/stm32f4xx_lib/CMSIS/Include/core_cm4.h ****  */
 280:/home/jonas/warwick/3dProfilometer/xpcc/ext/stm32f4xx_lib/CMSIS/Include/core_cm4.h **** typedef union
 281:/home/jonas/warwick/3dProfilometer/xpcc/ext/stm32f4xx_lib/CMSIS/Include/core_cm4.h **** {
 282:/home/jonas/warwick/3dProfilometer/xpcc/ext/stm32f4xx_lib/CMSIS/Include/core_cm4.h ****   struct
 283:/home/jonas/warwick/3dProfilometer/xpcc/ext/stm32f4xx_lib/CMSIS/Include/core_cm4.h ****   {
 284:/home/jonas/warwick/3dProfilometer/xpcc/ext/stm32f4xx_lib/CMSIS/Include/core_cm4.h ****     uint32_t nPRIV:1;                    /*!< bit:      0  Execution privilege in Thread mode */
 285:/home/jonas/warwick/3dProfilometer/xpcc/ext/stm32f4xx_lib/CMSIS/Include/core_cm4.h ****     uint32_t SPSEL:1;                    /*!< bit:      1  Stack to be used                   */
 286:/home/jonas/warwick/3dProfilometer/xpcc/ext/stm32f4xx_lib/CMSIS/Include/core_cm4.h ****     uint32_t FPCA:1;                     /*!< bit:      2  FP extension active flag           */
 287:/home/jonas/warwick/3dProfilometer/xpcc/ext/stm32f4xx_lib/CMSIS/Include/core_cm4.h ****     uint32_t _reserved0:29;              /*!< bit:  3..31  Reserved                           */
 288:/home/jonas/warwick/3dProfilometer/xpcc/ext/stm32f4xx_lib/CMSIS/Include/core_cm4.h ****   } b;                                   /*!< Structure used for bit  access                  */
 289:/home/jonas/warwick/3dProfilometer/xpcc/ext/stm32f4xx_lib/CMSIS/Include/core_cm4.h ****   uint32_t w;                            /*!< Type      used for word access                  */
 290:/home/jonas/warwick/3dProfilometer/xpcc/ext/stm32f4xx_lib/CMSIS/Include/core_cm4.h **** } CONTROL_Type;
 291:/home/jonas/warwick/3dProfilometer/xpcc/ext/stm32f4xx_lib/CMSIS/Include/core_cm4.h **** 
 292:/home/jonas/warwick/3dProfilometer/xpcc/ext/stm32f4xx_lib/CMSIS/Include/core_cm4.h **** /*@} end of group CMSIS_CORE */
 293:/home/jonas/warwick/3dProfilometer/xpcc/ext/stm32f4xx_lib/CMSIS/Include/core_cm4.h **** 
 294:/home/jonas/warwick/3dProfilometer/xpcc/ext/stm32f4xx_lib/CMSIS/Include/core_cm4.h **** 
 295:/home/jonas/warwick/3dProfilometer/xpcc/ext/stm32f4xx_lib/CMSIS/Include/core_cm4.h **** /** \ingroup  CMSIS_core_register
 296:/home/jonas/warwick/3dProfilometer/xpcc/ext/stm32f4xx_lib/CMSIS/Include/core_cm4.h ****     \defgroup CMSIS_NVIC CMSIS NVIC
 297:/home/jonas/warwick/3dProfilometer/xpcc/ext/stm32f4xx_lib/CMSIS/Include/core_cm4.h ****   Type definitions for the Cortex-M NVIC Registers
 298:/home/jonas/warwick/3dProfilometer/xpcc/ext/stm32f4xx_lib/CMSIS/Include/core_cm4.h ****   @{
 299:/home/jonas/warwick/3dProfilometer/xpcc/ext/stm32f4xx_lib/CMSIS/Include/core_cm4.h ****  */
 300:/home/jonas/warwick/3dProfilometer/xpcc/ext/stm32f4xx_lib/CMSIS/Include/core_cm4.h **** 
 301:/home/jonas/warwick/3dProfilometer/xpcc/ext/stm32f4xx_lib/CMSIS/Include/core_cm4.h **** /** \brief  Structure type to access the Nested Vectored Interrupt Controller (NVIC).
 302:/home/jonas/warwick/3dProfilometer/xpcc/ext/stm32f4xx_lib/CMSIS/Include/core_cm4.h ****  */
 303:/home/jonas/warwick/3dProfilometer/xpcc/ext/stm32f4xx_lib/CMSIS/Include/core_cm4.h **** typedef struct
 304:/home/jonas/warwick/3dProfilometer/xpcc/ext/stm32f4xx_lib/CMSIS/Include/core_cm4.h **** {
 305:/home/jonas/warwick/3dProfilometer/xpcc/ext/stm32f4xx_lib/CMSIS/Include/core_cm4.h ****   __IO uint32_t ISER[8];                 /*!< Offset: 0x000 (R/W)  Interrupt Set Enable Register   
 306:/home/jonas/warwick/3dProfilometer/xpcc/ext/stm32f4xx_lib/CMSIS/Include/core_cm4.h ****        uint32_t RESERVED0[24];
 307:/home/jonas/warwick/3dProfilometer/xpcc/ext/stm32f4xx_lib/CMSIS/Include/core_cm4.h ****   __IO uint32_t ICER[8];                 /*!< Offset: 0x080 (R/W)  Interrupt Clear Enable Register 
 308:/home/jonas/warwick/3dProfilometer/xpcc/ext/stm32f4xx_lib/CMSIS/Include/core_cm4.h ****        uint32_t RSERVED1[24];
 309:/home/jonas/warwick/3dProfilometer/xpcc/ext/stm32f4xx_lib/CMSIS/Include/core_cm4.h ****   __IO uint32_t ISPR[8];                 /*!< Offset: 0x100 (R/W)  Interrupt Set Pending Register  
 310:/home/jonas/warwick/3dProfilometer/xpcc/ext/stm32f4xx_lib/CMSIS/Include/core_cm4.h ****        uint32_t RESERVED2[24];
 311:/home/jonas/warwick/3dProfilometer/xpcc/ext/stm32f4xx_lib/CMSIS/Include/core_cm4.h ****   __IO uint32_t ICPR[8];                 /*!< Offset: 0x180 (R/W)  Interrupt Clear Pending Register
 312:/home/jonas/warwick/3dProfilometer/xpcc/ext/stm32f4xx_lib/CMSIS/Include/core_cm4.h ****        uint32_t RESERVED3[24];
 313:/home/jonas/warwick/3dProfilometer/xpcc/ext/stm32f4xx_lib/CMSIS/Include/core_cm4.h ****   __IO uint32_t IABR[8];                 /*!< Offset: 0x200 (R/W)  Interrupt Active bit Register   
 314:/home/jonas/warwick/3dProfilometer/xpcc/ext/stm32f4xx_lib/CMSIS/Include/core_cm4.h ****        uint32_t RESERVED4[56];
 315:/home/jonas/warwick/3dProfilometer/xpcc/ext/stm32f4xx_lib/CMSIS/Include/core_cm4.h ****   __IO uint8_t  IP[240];                 /*!< Offset: 0x300 (R/W)  Interrupt Priority Register (8Bi
 316:/home/jonas/warwick/3dProfilometer/xpcc/ext/stm32f4xx_lib/CMSIS/Include/core_cm4.h ****        uint32_t RESERVED5[644];
 317:/home/jonas/warwick/3dProfilometer/xpcc/ext/stm32f4xx_lib/CMSIS/Include/core_cm4.h ****   __O  uint32_t STIR;                    /*!< Offset: 0xE00 ( /W)  Software Trigger Interrupt Regis
 318:/home/jonas/warwick/3dProfilometer/xpcc/ext/stm32f4xx_lib/CMSIS/Include/core_cm4.h **** }  NVIC_Type;
 319:/home/jonas/warwick/3dProfilometer/xpcc/ext/stm32f4xx_lib/CMSIS/Include/core_cm4.h **** 
 320:/home/jonas/warwick/3dProfilometer/xpcc/ext/stm32f4xx_lib/CMSIS/Include/core_cm4.h **** /* Software Triggered Interrupt Register Definitions */
 321:/home/jonas/warwick/3dProfilometer/xpcc/ext/stm32f4xx_lib/CMSIS/Include/core_cm4.h **** #define NVIC_STIR_INTID_Pos                 0                                          /*!< STIR: I
 322:/home/jonas/warwick/3dProfilometer/xpcc/ext/stm32f4xx_lib/CMSIS/Include/core_cm4.h **** #define NVIC_STIR_INTID_Msk                (0x1FFUL << NVIC_STIR_INTID_Pos)            /*!< STIR: I
 323:/home/jonas/warwick/3dProfilometer/xpcc/ext/stm32f4xx_lib/CMSIS/Include/core_cm4.h **** 
 324:/home/jonas/warwick/3dProfilometer/xpcc/ext/stm32f4xx_lib/CMSIS/Include/core_cm4.h **** /*@} end of group CMSIS_NVIC */
 325:/home/jonas/warwick/3dProfilometer/xpcc/ext/stm32f4xx_lib/CMSIS/Include/core_cm4.h **** 
 326:/home/jonas/warwick/3dProfilometer/xpcc/ext/stm32f4xx_lib/CMSIS/Include/core_cm4.h **** 
 327:/home/jonas/warwick/3dProfilometer/xpcc/ext/stm32f4xx_lib/CMSIS/Include/core_cm4.h **** /** \ingroup  CMSIS_core_register
 328:/home/jonas/warwick/3dProfilometer/xpcc/ext/stm32f4xx_lib/CMSIS/Include/core_cm4.h ****     \defgroup CMSIS_SCB CMSIS SCB
 329:/home/jonas/warwick/3dProfilometer/xpcc/ext/stm32f4xx_lib/CMSIS/Include/core_cm4.h ****   Type definitions for the Cortex-M System Control Block Registers
 330:/home/jonas/warwick/3dProfilometer/xpcc/ext/stm32f4xx_lib/CMSIS/Include/core_cm4.h ****   @{
 331:/home/jonas/warwick/3dProfilometer/xpcc/ext/stm32f4xx_lib/CMSIS/Include/core_cm4.h ****  */
 332:/home/jonas/warwick/3dProfilometer/xpcc/ext/stm32f4xx_lib/CMSIS/Include/core_cm4.h **** 
 333:/home/jonas/warwick/3dProfilometer/xpcc/ext/stm32f4xx_lib/CMSIS/Include/core_cm4.h **** /** \brief  Structure type to access the System Control Block (SCB).
 334:/home/jonas/warwick/3dProfilometer/xpcc/ext/stm32f4xx_lib/CMSIS/Include/core_cm4.h ****  */
 335:/home/jonas/warwick/3dProfilometer/xpcc/ext/stm32f4xx_lib/CMSIS/Include/core_cm4.h **** typedef struct
 336:/home/jonas/warwick/3dProfilometer/xpcc/ext/stm32f4xx_lib/CMSIS/Include/core_cm4.h **** {
 337:/home/jonas/warwick/3dProfilometer/xpcc/ext/stm32f4xx_lib/CMSIS/Include/core_cm4.h ****   __I  uint32_t CPUID;                   /*!< Offset: 0x000 (R/ )  CPUID Base Register             
 338:/home/jonas/warwick/3dProfilometer/xpcc/ext/stm32f4xx_lib/CMSIS/Include/core_cm4.h ****   __IO uint32_t ICSR;                    /*!< Offset: 0x004 (R/W)  Interrupt Control and State Regi
 339:/home/jonas/warwick/3dProfilometer/xpcc/ext/stm32f4xx_lib/CMSIS/Include/core_cm4.h ****   __IO uint32_t VTOR;                    /*!< Offset: 0x008 (R/W)  Vector Table Offset Register    
 340:/home/jonas/warwick/3dProfilometer/xpcc/ext/stm32f4xx_lib/CMSIS/Include/core_cm4.h ****   __IO uint32_t AIRCR;                   /*!< Offset: 0x00C (R/W)  Application Interrupt and Reset 
 341:/home/jonas/warwick/3dProfilometer/xpcc/ext/stm32f4xx_lib/CMSIS/Include/core_cm4.h ****   __IO uint32_t SCR;                     /*!< Offset: 0x010 (R/W)  System Control Register         
 342:/home/jonas/warwick/3dProfilometer/xpcc/ext/stm32f4xx_lib/CMSIS/Include/core_cm4.h ****   __IO uint32_t CCR;                     /*!< Offset: 0x014 (R/W)  Configuration Control Register  
 343:/home/jonas/warwick/3dProfilometer/xpcc/ext/stm32f4xx_lib/CMSIS/Include/core_cm4.h ****   __IO uint8_t  SHP[12];                 /*!< Offset: 0x018 (R/W)  System Handlers Priority Registe
 344:/home/jonas/warwick/3dProfilometer/xpcc/ext/stm32f4xx_lib/CMSIS/Include/core_cm4.h ****   __IO uint32_t SHCSR;                   /*!< Offset: 0x024 (R/W)  System Handler Control and State
 345:/home/jonas/warwick/3dProfilometer/xpcc/ext/stm32f4xx_lib/CMSIS/Include/core_cm4.h ****   __IO uint32_t CFSR;                    /*!< Offset: 0x028 (R/W)  Configurable Fault Status Regist
 346:/home/jonas/warwick/3dProfilometer/xpcc/ext/stm32f4xx_lib/CMSIS/Include/core_cm4.h ****   __IO uint32_t HFSR;                    /*!< Offset: 0x02C (R/W)  HardFault Status Register       
 347:/home/jonas/warwick/3dProfilometer/xpcc/ext/stm32f4xx_lib/CMSIS/Include/core_cm4.h ****   __IO uint32_t DFSR;                    /*!< Offset: 0x030 (R/W)  Debug Fault Status Register     
 348:/home/jonas/warwick/3dProfilometer/xpcc/ext/stm32f4xx_lib/CMSIS/Include/core_cm4.h ****   __IO uint32_t MMFAR;                   /*!< Offset: 0x034 (R/W)  MemManage Fault Address Register
 349:/home/jonas/warwick/3dProfilometer/xpcc/ext/stm32f4xx_lib/CMSIS/Include/core_cm4.h ****   __IO uint32_t BFAR;                    /*!< Offset: 0x038 (R/W)  BusFault Address Register       
 350:/home/jonas/warwick/3dProfilometer/xpcc/ext/stm32f4xx_lib/CMSIS/Include/core_cm4.h ****   __IO uint32_t AFSR;                    /*!< Offset: 0x03C (R/W)  Auxiliary Fault Status Register 
 351:/home/jonas/warwick/3dProfilometer/xpcc/ext/stm32f4xx_lib/CMSIS/Include/core_cm4.h ****   __I  uint32_t PFR[2];                  /*!< Offset: 0x040 (R/ )  Processor Feature Register      
 352:/home/jonas/warwick/3dProfilometer/xpcc/ext/stm32f4xx_lib/CMSIS/Include/core_cm4.h ****   __I  uint32_t DFR;                     /*!< Offset: 0x048 (R/ )  Debug Feature Register          
 353:/home/jonas/warwick/3dProfilometer/xpcc/ext/stm32f4xx_lib/CMSIS/Include/core_cm4.h ****   __I  uint32_t ADR;                     /*!< Offset: 0x04C (R/ )  Auxiliary Feature Register      
 354:/home/jonas/warwick/3dProfilometer/xpcc/ext/stm32f4xx_lib/CMSIS/Include/core_cm4.h ****   __I  uint32_t MMFR[4];                 /*!< Offset: 0x050 (R/ )  Memory Model Feature Register   
 355:/home/jonas/warwick/3dProfilometer/xpcc/ext/stm32f4xx_lib/CMSIS/Include/core_cm4.h ****   __I  uint32_t ISAR[5];                 /*!< Offset: 0x060 (R/ )  Instruction Set Attributes Regis
 356:/home/jonas/warwick/3dProfilometer/xpcc/ext/stm32f4xx_lib/CMSIS/Include/core_cm4.h ****        uint32_t RESERVED0[5];
 357:/home/jonas/warwick/3dProfilometer/xpcc/ext/stm32f4xx_lib/CMSIS/Include/core_cm4.h ****   __IO uint32_t CPACR;                   /*!< Offset: 0x088 (R/W)  Coprocessor Access Control Regis
 358:/home/jonas/warwick/3dProfilometer/xpcc/ext/stm32f4xx_lib/CMSIS/Include/core_cm4.h **** } SCB_Type;
 359:/home/jonas/warwick/3dProfilometer/xpcc/ext/stm32f4xx_lib/CMSIS/Include/core_cm4.h **** 
 360:/home/jonas/warwick/3dProfilometer/xpcc/ext/stm32f4xx_lib/CMSIS/Include/core_cm4.h **** /* SCB CPUID Register Definitions */
 361:/home/jonas/warwick/3dProfilometer/xpcc/ext/stm32f4xx_lib/CMSIS/Include/core_cm4.h **** #define SCB_CPUID_IMPLEMENTER_Pos          24                                             /*!< SCB 
 362:/home/jonas/warwick/3dProfilometer/xpcc/ext/stm32f4xx_lib/CMSIS/Include/core_cm4.h **** #define SCB_CPUID_IMPLEMENTER_Msk          (0xFFUL << SCB_CPUID_IMPLEMENTER_Pos)          /*!< SCB 
 363:/home/jonas/warwick/3dProfilometer/xpcc/ext/stm32f4xx_lib/CMSIS/Include/core_cm4.h **** 
 364:/home/jonas/warwick/3dProfilometer/xpcc/ext/stm32f4xx_lib/CMSIS/Include/core_cm4.h **** #define SCB_CPUID_VARIANT_Pos              20                                             /*!< SCB 
 365:/home/jonas/warwick/3dProfilometer/xpcc/ext/stm32f4xx_lib/CMSIS/Include/core_cm4.h **** #define SCB_CPUID_VARIANT_Msk              (0xFUL << SCB_CPUID_VARIANT_Pos)               /*!< SCB 
 366:/home/jonas/warwick/3dProfilometer/xpcc/ext/stm32f4xx_lib/CMSIS/Include/core_cm4.h **** 
 367:/home/jonas/warwick/3dProfilometer/xpcc/ext/stm32f4xx_lib/CMSIS/Include/core_cm4.h **** #define SCB_CPUID_ARCHITECTURE_Pos         16                                             /*!< SCB 
 368:/home/jonas/warwick/3dProfilometer/xpcc/ext/stm32f4xx_lib/CMSIS/Include/core_cm4.h **** #define SCB_CPUID_ARCHITECTURE_Msk         (0xFUL << SCB_CPUID_ARCHITECTURE_Pos)          /*!< SCB 
 369:/home/jonas/warwick/3dProfilometer/xpcc/ext/stm32f4xx_lib/CMSIS/Include/core_cm4.h **** 
 370:/home/jonas/warwick/3dProfilometer/xpcc/ext/stm32f4xx_lib/CMSIS/Include/core_cm4.h **** #define SCB_CPUID_PARTNO_Pos                4                                             /*!< SCB 
 371:/home/jonas/warwick/3dProfilometer/xpcc/ext/stm32f4xx_lib/CMSIS/Include/core_cm4.h **** #define SCB_CPUID_PARTNO_Msk               (0xFFFUL << SCB_CPUID_PARTNO_Pos)              /*!< SCB 
 372:/home/jonas/warwick/3dProfilometer/xpcc/ext/stm32f4xx_lib/CMSIS/Include/core_cm4.h **** 
 373:/home/jonas/warwick/3dProfilometer/xpcc/ext/stm32f4xx_lib/CMSIS/Include/core_cm4.h **** #define SCB_CPUID_REVISION_Pos              0                                             /*!< SCB 
 374:/home/jonas/warwick/3dProfilometer/xpcc/ext/stm32f4xx_lib/CMSIS/Include/core_cm4.h **** #define SCB_CPUID_REVISION_Msk             (0xFUL << SCB_CPUID_REVISION_Pos)              /*!< SCB 
 375:/home/jonas/warwick/3dProfilometer/xpcc/ext/stm32f4xx_lib/CMSIS/Include/core_cm4.h **** 
 376:/home/jonas/warwick/3dProfilometer/xpcc/ext/stm32f4xx_lib/CMSIS/Include/core_cm4.h **** /* SCB Interrupt Control State Register Definitions */
 377:/home/jonas/warwick/3dProfilometer/xpcc/ext/stm32f4xx_lib/CMSIS/Include/core_cm4.h **** #define SCB_ICSR_NMIPENDSET_Pos            31                                             /*!< SCB 
 378:/home/jonas/warwick/3dProfilometer/xpcc/ext/stm32f4xx_lib/CMSIS/Include/core_cm4.h **** #define SCB_ICSR_NMIPENDSET_Msk            (1UL << SCB_ICSR_NMIPENDSET_Pos)               /*!< SCB 
 379:/home/jonas/warwick/3dProfilometer/xpcc/ext/stm32f4xx_lib/CMSIS/Include/core_cm4.h **** 
 380:/home/jonas/warwick/3dProfilometer/xpcc/ext/stm32f4xx_lib/CMSIS/Include/core_cm4.h **** #define SCB_ICSR_PENDSVSET_Pos             28                                             /*!< SCB 
 381:/home/jonas/warwick/3dProfilometer/xpcc/ext/stm32f4xx_lib/CMSIS/Include/core_cm4.h **** #define SCB_ICSR_PENDSVSET_Msk             (1UL << SCB_ICSR_PENDSVSET_Pos)                /*!< SCB 
 382:/home/jonas/warwick/3dProfilometer/xpcc/ext/stm32f4xx_lib/CMSIS/Include/core_cm4.h **** 
 383:/home/jonas/warwick/3dProfilometer/xpcc/ext/stm32f4xx_lib/CMSIS/Include/core_cm4.h **** #define SCB_ICSR_PENDSVCLR_Pos             27                                             /*!< SCB 
 384:/home/jonas/warwick/3dProfilometer/xpcc/ext/stm32f4xx_lib/CMSIS/Include/core_cm4.h **** #define SCB_ICSR_PENDSVCLR_Msk             (1UL << SCB_ICSR_PENDSVCLR_Pos)                /*!< SCB 
 385:/home/jonas/warwick/3dProfilometer/xpcc/ext/stm32f4xx_lib/CMSIS/Include/core_cm4.h **** 
 386:/home/jonas/warwick/3dProfilometer/xpcc/ext/stm32f4xx_lib/CMSIS/Include/core_cm4.h **** #define SCB_ICSR_PENDSTSET_Pos             26                                             /*!< SCB 
 387:/home/jonas/warwick/3dProfilometer/xpcc/ext/stm32f4xx_lib/CMSIS/Include/core_cm4.h **** #define SCB_ICSR_PENDSTSET_Msk             (1UL << SCB_ICSR_PENDSTSET_Pos)                /*!< SCB 
 388:/home/jonas/warwick/3dProfilometer/xpcc/ext/stm32f4xx_lib/CMSIS/Include/core_cm4.h **** 
 389:/home/jonas/warwick/3dProfilometer/xpcc/ext/stm32f4xx_lib/CMSIS/Include/core_cm4.h **** #define SCB_ICSR_PENDSTCLR_Pos             25                                             /*!< SCB 
 390:/home/jonas/warwick/3dProfilometer/xpcc/ext/stm32f4xx_lib/CMSIS/Include/core_cm4.h **** #define SCB_ICSR_PENDSTCLR_Msk             (1UL << SCB_ICSR_PENDSTCLR_Pos)                /*!< SCB 
 391:/home/jonas/warwick/3dProfilometer/xpcc/ext/stm32f4xx_lib/CMSIS/Include/core_cm4.h **** 
 392:/home/jonas/warwick/3dProfilometer/xpcc/ext/stm32f4xx_lib/CMSIS/Include/core_cm4.h **** #define SCB_ICSR_ISRPREEMPT_Pos            23                                             /*!< SCB 
 393:/home/jonas/warwick/3dProfilometer/xpcc/ext/stm32f4xx_lib/CMSIS/Include/core_cm4.h **** #define SCB_ICSR_ISRPREEMPT_Msk            (1UL << SCB_ICSR_ISRPREEMPT_Pos)               /*!< SCB 
 394:/home/jonas/warwick/3dProfilometer/xpcc/ext/stm32f4xx_lib/CMSIS/Include/core_cm4.h **** 
 395:/home/jonas/warwick/3dProfilometer/xpcc/ext/stm32f4xx_lib/CMSIS/Include/core_cm4.h **** #define SCB_ICSR_ISRPENDING_Pos            22                                             /*!< SCB 
 396:/home/jonas/warwick/3dProfilometer/xpcc/ext/stm32f4xx_lib/CMSIS/Include/core_cm4.h **** #define SCB_ICSR_ISRPENDING_Msk            (1UL << SCB_ICSR_ISRPENDING_Pos)               /*!< SCB 
 397:/home/jonas/warwick/3dProfilometer/xpcc/ext/stm32f4xx_lib/CMSIS/Include/core_cm4.h **** 
 398:/home/jonas/warwick/3dProfilometer/xpcc/ext/stm32f4xx_lib/CMSIS/Include/core_cm4.h **** #define SCB_ICSR_VECTPENDING_Pos           12                                             /*!< SCB 
 399:/home/jonas/warwick/3dProfilometer/xpcc/ext/stm32f4xx_lib/CMSIS/Include/core_cm4.h **** #define SCB_ICSR_VECTPENDING_Msk           (0x1FFUL << SCB_ICSR_VECTPENDING_Pos)          /*!< SCB 
 400:/home/jonas/warwick/3dProfilometer/xpcc/ext/stm32f4xx_lib/CMSIS/Include/core_cm4.h **** 
 401:/home/jonas/warwick/3dProfilometer/xpcc/ext/stm32f4xx_lib/CMSIS/Include/core_cm4.h **** #define SCB_ICSR_RETTOBASE_Pos             11                                             /*!< SCB 
 402:/home/jonas/warwick/3dProfilometer/xpcc/ext/stm32f4xx_lib/CMSIS/Include/core_cm4.h **** #define SCB_ICSR_RETTOBASE_Msk             (1UL << SCB_ICSR_RETTOBASE_Pos)                /*!< SCB 
 403:/home/jonas/warwick/3dProfilometer/xpcc/ext/stm32f4xx_lib/CMSIS/Include/core_cm4.h **** 
 404:/home/jonas/warwick/3dProfilometer/xpcc/ext/stm32f4xx_lib/CMSIS/Include/core_cm4.h **** #define SCB_ICSR_VECTACTIVE_Pos             0                                             /*!< SCB 
 405:/home/jonas/warwick/3dProfilometer/xpcc/ext/stm32f4xx_lib/CMSIS/Include/core_cm4.h **** #define SCB_ICSR_VECTACTIVE_Msk            (0x1FFUL << SCB_ICSR_VECTACTIVE_Pos)           /*!< SCB 
 406:/home/jonas/warwick/3dProfilometer/xpcc/ext/stm32f4xx_lib/CMSIS/Include/core_cm4.h **** 
 407:/home/jonas/warwick/3dProfilometer/xpcc/ext/stm32f4xx_lib/CMSIS/Include/core_cm4.h **** /* SCB Vector Table Offset Register Definitions */
 408:/home/jonas/warwick/3dProfilometer/xpcc/ext/stm32f4xx_lib/CMSIS/Include/core_cm4.h **** #define SCB_VTOR_TBLOFF_Pos                 7                                             /*!< SCB 
 409:/home/jonas/warwick/3dProfilometer/xpcc/ext/stm32f4xx_lib/CMSIS/Include/core_cm4.h **** #define SCB_VTOR_TBLOFF_Msk                (0x1FFFFFFUL << SCB_VTOR_TBLOFF_Pos)           /*!< SCB 
 410:/home/jonas/warwick/3dProfilometer/xpcc/ext/stm32f4xx_lib/CMSIS/Include/core_cm4.h **** 
 411:/home/jonas/warwick/3dProfilometer/xpcc/ext/stm32f4xx_lib/CMSIS/Include/core_cm4.h **** /* SCB Application Interrupt and Reset Control Register Definitions */
 412:/home/jonas/warwick/3dProfilometer/xpcc/ext/stm32f4xx_lib/CMSIS/Include/core_cm4.h **** #define SCB_AIRCR_VECTKEY_Pos              16                                             /*!< SCB 
 413:/home/jonas/warwick/3dProfilometer/xpcc/ext/stm32f4xx_lib/CMSIS/Include/core_cm4.h **** #define SCB_AIRCR_VECTKEY_Msk              (0xFFFFUL << SCB_AIRCR_VECTKEY_Pos)            /*!< SCB 
 414:/home/jonas/warwick/3dProfilometer/xpcc/ext/stm32f4xx_lib/CMSIS/Include/core_cm4.h **** 
 415:/home/jonas/warwick/3dProfilometer/xpcc/ext/stm32f4xx_lib/CMSIS/Include/core_cm4.h **** #define SCB_AIRCR_VECTKEYSTAT_Pos          16                                             /*!< SCB 
 416:/home/jonas/warwick/3dProfilometer/xpcc/ext/stm32f4xx_lib/CMSIS/Include/core_cm4.h **** #define SCB_AIRCR_VECTKEYSTAT_Msk          (0xFFFFUL << SCB_AIRCR_VECTKEYSTAT_Pos)        /*!< SCB 
 417:/home/jonas/warwick/3dProfilometer/xpcc/ext/stm32f4xx_lib/CMSIS/Include/core_cm4.h **** 
 418:/home/jonas/warwick/3dProfilometer/xpcc/ext/stm32f4xx_lib/CMSIS/Include/core_cm4.h **** #define SCB_AIRCR_ENDIANESS_Pos            15                                             /*!< SCB 
 419:/home/jonas/warwick/3dProfilometer/xpcc/ext/stm32f4xx_lib/CMSIS/Include/core_cm4.h **** #define SCB_AIRCR_ENDIANESS_Msk            (1UL << SCB_AIRCR_ENDIANESS_Pos)               /*!< SCB 
 420:/home/jonas/warwick/3dProfilometer/xpcc/ext/stm32f4xx_lib/CMSIS/Include/core_cm4.h **** 
 421:/home/jonas/warwick/3dProfilometer/xpcc/ext/stm32f4xx_lib/CMSIS/Include/core_cm4.h **** #define SCB_AIRCR_PRIGROUP_Pos              8                                             /*!< SCB 
 422:/home/jonas/warwick/3dProfilometer/xpcc/ext/stm32f4xx_lib/CMSIS/Include/core_cm4.h **** #define SCB_AIRCR_PRIGROUP_Msk             (7UL << SCB_AIRCR_PRIGROUP_Pos)                /*!< SCB 
 423:/home/jonas/warwick/3dProfilometer/xpcc/ext/stm32f4xx_lib/CMSIS/Include/core_cm4.h **** 
 424:/home/jonas/warwick/3dProfilometer/xpcc/ext/stm32f4xx_lib/CMSIS/Include/core_cm4.h **** #define SCB_AIRCR_SYSRESETREQ_Pos           2                                             /*!< SCB 
 425:/home/jonas/warwick/3dProfilometer/xpcc/ext/stm32f4xx_lib/CMSIS/Include/core_cm4.h **** #define SCB_AIRCR_SYSRESETREQ_Msk          (1UL << SCB_AIRCR_SYSRESETREQ_Pos)             /*!< SCB 
 426:/home/jonas/warwick/3dProfilometer/xpcc/ext/stm32f4xx_lib/CMSIS/Include/core_cm4.h **** 
 427:/home/jonas/warwick/3dProfilometer/xpcc/ext/stm32f4xx_lib/CMSIS/Include/core_cm4.h **** #define SCB_AIRCR_VECTCLRACTIVE_Pos         1                                             /*!< SCB 
 428:/home/jonas/warwick/3dProfilometer/xpcc/ext/stm32f4xx_lib/CMSIS/Include/core_cm4.h **** #define SCB_AIRCR_VECTCLRACTIVE_Msk        (1UL << SCB_AIRCR_VECTCLRACTIVE_Pos)           /*!< SCB 
 429:/home/jonas/warwick/3dProfilometer/xpcc/ext/stm32f4xx_lib/CMSIS/Include/core_cm4.h **** 
 430:/home/jonas/warwick/3dProfilometer/xpcc/ext/stm32f4xx_lib/CMSIS/Include/core_cm4.h **** #define SCB_AIRCR_VECTRESET_Pos             0                                             /*!< SCB 
 431:/home/jonas/warwick/3dProfilometer/xpcc/ext/stm32f4xx_lib/CMSIS/Include/core_cm4.h **** #define SCB_AIRCR_VECTRESET_Msk            (1UL << SCB_AIRCR_VECTRESET_Pos)               /*!< SCB 
 432:/home/jonas/warwick/3dProfilometer/xpcc/ext/stm32f4xx_lib/CMSIS/Include/core_cm4.h **** 
 433:/home/jonas/warwick/3dProfilometer/xpcc/ext/stm32f4xx_lib/CMSIS/Include/core_cm4.h **** /* SCB System Control Register Definitions */
 434:/home/jonas/warwick/3dProfilometer/xpcc/ext/stm32f4xx_lib/CMSIS/Include/core_cm4.h **** #define SCB_SCR_SEVONPEND_Pos               4                                             /*!< SCB 
 435:/home/jonas/warwick/3dProfilometer/xpcc/ext/stm32f4xx_lib/CMSIS/Include/core_cm4.h **** #define SCB_SCR_SEVONPEND_Msk              (1UL << SCB_SCR_SEVONPEND_Pos)                 /*!< SCB 
 436:/home/jonas/warwick/3dProfilometer/xpcc/ext/stm32f4xx_lib/CMSIS/Include/core_cm4.h **** 
 437:/home/jonas/warwick/3dProfilometer/xpcc/ext/stm32f4xx_lib/CMSIS/Include/core_cm4.h **** #define SCB_SCR_SLEEPDEEP_Pos               2                                             /*!< SCB 
 438:/home/jonas/warwick/3dProfilometer/xpcc/ext/stm32f4xx_lib/CMSIS/Include/core_cm4.h **** #define SCB_SCR_SLEEPDEEP_Msk              (1UL << SCB_SCR_SLEEPDEEP_Pos)                 /*!< SCB 
 439:/home/jonas/warwick/3dProfilometer/xpcc/ext/stm32f4xx_lib/CMSIS/Include/core_cm4.h **** 
 440:/home/jonas/warwick/3dProfilometer/xpcc/ext/stm32f4xx_lib/CMSIS/Include/core_cm4.h **** #define SCB_SCR_SLEEPONEXIT_Pos             1                                             /*!< SCB 
 441:/home/jonas/warwick/3dProfilometer/xpcc/ext/stm32f4xx_lib/CMSIS/Include/core_cm4.h **** #define SCB_SCR_SLEEPONEXIT_Msk            (1UL << SCB_SCR_SLEEPONEXIT_Pos)               /*!< SCB 
 442:/home/jonas/warwick/3dProfilometer/xpcc/ext/stm32f4xx_lib/CMSIS/Include/core_cm4.h **** 
 443:/home/jonas/warwick/3dProfilometer/xpcc/ext/stm32f4xx_lib/CMSIS/Include/core_cm4.h **** /* SCB Configuration Control Register Definitions */
 444:/home/jonas/warwick/3dProfilometer/xpcc/ext/stm32f4xx_lib/CMSIS/Include/core_cm4.h **** #define SCB_CCR_STKALIGN_Pos                9                                             /*!< SCB 
 445:/home/jonas/warwick/3dProfilometer/xpcc/ext/stm32f4xx_lib/CMSIS/Include/core_cm4.h **** #define SCB_CCR_STKALIGN_Msk               (1UL << SCB_CCR_STKALIGN_Pos)                  /*!< SCB 
 446:/home/jonas/warwick/3dProfilometer/xpcc/ext/stm32f4xx_lib/CMSIS/Include/core_cm4.h **** 
 447:/home/jonas/warwick/3dProfilometer/xpcc/ext/stm32f4xx_lib/CMSIS/Include/core_cm4.h **** #define SCB_CCR_BFHFNMIGN_Pos               8                                             /*!< SCB 
 448:/home/jonas/warwick/3dProfilometer/xpcc/ext/stm32f4xx_lib/CMSIS/Include/core_cm4.h **** #define SCB_CCR_BFHFNMIGN_Msk              (1UL << SCB_CCR_BFHFNMIGN_Pos)                 /*!< SCB 
 449:/home/jonas/warwick/3dProfilometer/xpcc/ext/stm32f4xx_lib/CMSIS/Include/core_cm4.h **** 
 450:/home/jonas/warwick/3dProfilometer/xpcc/ext/stm32f4xx_lib/CMSIS/Include/core_cm4.h **** #define SCB_CCR_DIV_0_TRP_Pos               4                                             /*!< SCB 
 451:/home/jonas/warwick/3dProfilometer/xpcc/ext/stm32f4xx_lib/CMSIS/Include/core_cm4.h **** #define SCB_CCR_DIV_0_TRP_Msk              (1UL << SCB_CCR_DIV_0_TRP_Pos)                 /*!< SCB 
 452:/home/jonas/warwick/3dProfilometer/xpcc/ext/stm32f4xx_lib/CMSIS/Include/core_cm4.h **** 
 453:/home/jonas/warwick/3dProfilometer/xpcc/ext/stm32f4xx_lib/CMSIS/Include/core_cm4.h **** #define SCB_CCR_UNALIGN_TRP_Pos             3                                             /*!< SCB 
 454:/home/jonas/warwick/3dProfilometer/xpcc/ext/stm32f4xx_lib/CMSIS/Include/core_cm4.h **** #define SCB_CCR_UNALIGN_TRP_Msk            (1UL << SCB_CCR_UNALIGN_TRP_Pos)               /*!< SCB 
 455:/home/jonas/warwick/3dProfilometer/xpcc/ext/stm32f4xx_lib/CMSIS/Include/core_cm4.h **** 
 456:/home/jonas/warwick/3dProfilometer/xpcc/ext/stm32f4xx_lib/CMSIS/Include/core_cm4.h **** #define SCB_CCR_USERSETMPEND_Pos            1                                             /*!< SCB 
 457:/home/jonas/warwick/3dProfilometer/xpcc/ext/stm32f4xx_lib/CMSIS/Include/core_cm4.h **** #define SCB_CCR_USERSETMPEND_Msk           (1UL << SCB_CCR_USERSETMPEND_Pos)              /*!< SCB 
 458:/home/jonas/warwick/3dProfilometer/xpcc/ext/stm32f4xx_lib/CMSIS/Include/core_cm4.h **** 
 459:/home/jonas/warwick/3dProfilometer/xpcc/ext/stm32f4xx_lib/CMSIS/Include/core_cm4.h **** #define SCB_CCR_NONBASETHRDENA_Pos          0                                             /*!< SCB 
 460:/home/jonas/warwick/3dProfilometer/xpcc/ext/stm32f4xx_lib/CMSIS/Include/core_cm4.h **** #define SCB_CCR_NONBASETHRDENA_Msk         (1UL << SCB_CCR_NONBASETHRDENA_Pos)            /*!< SCB 
 461:/home/jonas/warwick/3dProfilometer/xpcc/ext/stm32f4xx_lib/CMSIS/Include/core_cm4.h **** 
 462:/home/jonas/warwick/3dProfilometer/xpcc/ext/stm32f4xx_lib/CMSIS/Include/core_cm4.h **** /* SCB System Handler Control and State Register Definitions */
 463:/home/jonas/warwick/3dProfilometer/xpcc/ext/stm32f4xx_lib/CMSIS/Include/core_cm4.h **** #define SCB_SHCSR_USGFAULTENA_Pos          18                                             /*!< SCB 
 464:/home/jonas/warwick/3dProfilometer/xpcc/ext/stm32f4xx_lib/CMSIS/Include/core_cm4.h **** #define SCB_SHCSR_USGFAULTENA_Msk          (1UL << SCB_SHCSR_USGFAULTENA_Pos)             /*!< SCB 
 465:/home/jonas/warwick/3dProfilometer/xpcc/ext/stm32f4xx_lib/CMSIS/Include/core_cm4.h **** 
 466:/home/jonas/warwick/3dProfilometer/xpcc/ext/stm32f4xx_lib/CMSIS/Include/core_cm4.h **** #define SCB_SHCSR_BUSFAULTENA_Pos          17                                             /*!< SCB 
 467:/home/jonas/warwick/3dProfilometer/xpcc/ext/stm32f4xx_lib/CMSIS/Include/core_cm4.h **** #define SCB_SHCSR_BUSFAULTENA_Msk          (1UL << SCB_SHCSR_BUSFAULTENA_Pos)             /*!< SCB 
 468:/home/jonas/warwick/3dProfilometer/xpcc/ext/stm32f4xx_lib/CMSIS/Include/core_cm4.h **** 
 469:/home/jonas/warwick/3dProfilometer/xpcc/ext/stm32f4xx_lib/CMSIS/Include/core_cm4.h **** #define SCB_SHCSR_MEMFAULTENA_Pos          16                                             /*!< SCB 
 470:/home/jonas/warwick/3dProfilometer/xpcc/ext/stm32f4xx_lib/CMSIS/Include/core_cm4.h **** #define SCB_SHCSR_MEMFAULTENA_Msk          (1UL << SCB_SHCSR_MEMFAULTENA_Pos)             /*!< SCB 
 471:/home/jonas/warwick/3dProfilometer/xpcc/ext/stm32f4xx_lib/CMSIS/Include/core_cm4.h **** 
 472:/home/jonas/warwick/3dProfilometer/xpcc/ext/stm32f4xx_lib/CMSIS/Include/core_cm4.h **** #define SCB_SHCSR_SVCALLPENDED_Pos         15                                             /*!< SCB 
 473:/home/jonas/warwick/3dProfilometer/xpcc/ext/stm32f4xx_lib/CMSIS/Include/core_cm4.h **** #define SCB_SHCSR_SVCALLPENDED_Msk         (1UL << SCB_SHCSR_SVCALLPENDED_Pos)            /*!< SCB 
 474:/home/jonas/warwick/3dProfilometer/xpcc/ext/stm32f4xx_lib/CMSIS/Include/core_cm4.h **** 
 475:/home/jonas/warwick/3dProfilometer/xpcc/ext/stm32f4xx_lib/CMSIS/Include/core_cm4.h **** #define SCB_SHCSR_BUSFAULTPENDED_Pos       14                                             /*!< SCB 
 476:/home/jonas/warwick/3dProfilometer/xpcc/ext/stm32f4xx_lib/CMSIS/Include/core_cm4.h **** #define SCB_SHCSR_BUSFAULTPENDED_Msk       (1UL << SCB_SHCSR_BUSFAULTPENDED_Pos)          /*!< SCB 
 477:/home/jonas/warwick/3dProfilometer/xpcc/ext/stm32f4xx_lib/CMSIS/Include/core_cm4.h **** 
 478:/home/jonas/warwick/3dProfilometer/xpcc/ext/stm32f4xx_lib/CMSIS/Include/core_cm4.h **** #define SCB_SHCSR_MEMFAULTPENDED_Pos       13                                             /*!< SCB 
 479:/home/jonas/warwick/3dProfilometer/xpcc/ext/stm32f4xx_lib/CMSIS/Include/core_cm4.h **** #define SCB_SHCSR_MEMFAULTPENDED_Msk       (1UL << SCB_SHCSR_MEMFAULTPENDED_Pos)          /*!< SCB 
 480:/home/jonas/warwick/3dProfilometer/xpcc/ext/stm32f4xx_lib/CMSIS/Include/core_cm4.h **** 
 481:/home/jonas/warwick/3dProfilometer/xpcc/ext/stm32f4xx_lib/CMSIS/Include/core_cm4.h **** #define SCB_SHCSR_USGFAULTPENDED_Pos       12                                             /*!< SCB 
 482:/home/jonas/warwick/3dProfilometer/xpcc/ext/stm32f4xx_lib/CMSIS/Include/core_cm4.h **** #define SCB_SHCSR_USGFAULTPENDED_Msk       (1UL << SCB_SHCSR_USGFAULTPENDED_Pos)          /*!< SCB 
 483:/home/jonas/warwick/3dProfilometer/xpcc/ext/stm32f4xx_lib/CMSIS/Include/core_cm4.h **** 
 484:/home/jonas/warwick/3dProfilometer/xpcc/ext/stm32f4xx_lib/CMSIS/Include/core_cm4.h **** #define SCB_SHCSR_SYSTICKACT_Pos           11                                             /*!< SCB 
 485:/home/jonas/warwick/3dProfilometer/xpcc/ext/stm32f4xx_lib/CMSIS/Include/core_cm4.h **** #define SCB_SHCSR_SYSTICKACT_Msk           (1UL << SCB_SHCSR_SYSTICKACT_Pos)              /*!< SCB 
 486:/home/jonas/warwick/3dProfilometer/xpcc/ext/stm32f4xx_lib/CMSIS/Include/core_cm4.h **** 
 487:/home/jonas/warwick/3dProfilometer/xpcc/ext/stm32f4xx_lib/CMSIS/Include/core_cm4.h **** #define SCB_SHCSR_PENDSVACT_Pos            10                                             /*!< SCB 
 488:/home/jonas/warwick/3dProfilometer/xpcc/ext/stm32f4xx_lib/CMSIS/Include/core_cm4.h **** #define SCB_SHCSR_PENDSVACT_Msk            (1UL << SCB_SHCSR_PENDSVACT_Pos)               /*!< SCB 
 489:/home/jonas/warwick/3dProfilometer/xpcc/ext/stm32f4xx_lib/CMSIS/Include/core_cm4.h **** 
 490:/home/jonas/warwick/3dProfilometer/xpcc/ext/stm32f4xx_lib/CMSIS/Include/core_cm4.h **** #define SCB_SHCSR_MONITORACT_Pos            8                                             /*!< SCB 
 491:/home/jonas/warwick/3dProfilometer/xpcc/ext/stm32f4xx_lib/CMSIS/Include/core_cm4.h **** #define SCB_SHCSR_MONITORACT_Msk           (1UL << SCB_SHCSR_MONITORACT_Pos)              /*!< SCB 
 492:/home/jonas/warwick/3dProfilometer/xpcc/ext/stm32f4xx_lib/CMSIS/Include/core_cm4.h **** 
 493:/home/jonas/warwick/3dProfilometer/xpcc/ext/stm32f4xx_lib/CMSIS/Include/core_cm4.h **** #define SCB_SHCSR_SVCALLACT_Pos             7                                             /*!< SCB 
 494:/home/jonas/warwick/3dProfilometer/xpcc/ext/stm32f4xx_lib/CMSIS/Include/core_cm4.h **** #define SCB_SHCSR_SVCALLACT_Msk            (1UL << SCB_SHCSR_SVCALLACT_Pos)               /*!< SCB 
 495:/home/jonas/warwick/3dProfilometer/xpcc/ext/stm32f4xx_lib/CMSIS/Include/core_cm4.h **** 
 496:/home/jonas/warwick/3dProfilometer/xpcc/ext/stm32f4xx_lib/CMSIS/Include/core_cm4.h **** #define SCB_SHCSR_USGFAULTACT_Pos           3                                             /*!< SCB 
 497:/home/jonas/warwick/3dProfilometer/xpcc/ext/stm32f4xx_lib/CMSIS/Include/core_cm4.h **** #define SCB_SHCSR_USGFAULTACT_Msk          (1UL << SCB_SHCSR_USGFAULTACT_Pos)             /*!< SCB 
 498:/home/jonas/warwick/3dProfilometer/xpcc/ext/stm32f4xx_lib/CMSIS/Include/core_cm4.h **** 
 499:/home/jonas/warwick/3dProfilometer/xpcc/ext/stm32f4xx_lib/CMSIS/Include/core_cm4.h **** #define SCB_SHCSR_BUSFAULTACT_Pos           1                                             /*!< SCB 
 500:/home/jonas/warwick/3dProfilometer/xpcc/ext/stm32f4xx_lib/CMSIS/Include/core_cm4.h **** #define SCB_SHCSR_BUSFAULTACT_Msk          (1UL << SCB_SHCSR_BUSFAULTACT_Pos)             /*!< SCB 
 501:/home/jonas/warwick/3dProfilometer/xpcc/ext/stm32f4xx_lib/CMSIS/Include/core_cm4.h **** 
 502:/home/jonas/warwick/3dProfilometer/xpcc/ext/stm32f4xx_lib/CMSIS/Include/core_cm4.h **** #define SCB_SHCSR_MEMFAULTACT_Pos           0                                             /*!< SCB 
 503:/home/jonas/warwick/3dProfilometer/xpcc/ext/stm32f4xx_lib/CMSIS/Include/core_cm4.h **** #define SCB_SHCSR_MEMFAULTACT_Msk          (1UL << SCB_SHCSR_MEMFAULTACT_Pos)             /*!< SCB 
 504:/home/jonas/warwick/3dProfilometer/xpcc/ext/stm32f4xx_lib/CMSIS/Include/core_cm4.h **** 
 505:/home/jonas/warwick/3dProfilometer/xpcc/ext/stm32f4xx_lib/CMSIS/Include/core_cm4.h **** /* SCB Configurable Fault Status Registers Definitions */
 506:/home/jonas/warwick/3dProfilometer/xpcc/ext/stm32f4xx_lib/CMSIS/Include/core_cm4.h **** #define SCB_CFSR_USGFAULTSR_Pos            16                                             /*!< SCB 
 507:/home/jonas/warwick/3dProfilometer/xpcc/ext/stm32f4xx_lib/CMSIS/Include/core_cm4.h **** #define SCB_CFSR_USGFAULTSR_Msk            (0xFFFFUL << SCB_CFSR_USGFAULTSR_Pos)          /*!< SCB 
 508:/home/jonas/warwick/3dProfilometer/xpcc/ext/stm32f4xx_lib/CMSIS/Include/core_cm4.h **** 
 509:/home/jonas/warwick/3dProfilometer/xpcc/ext/stm32f4xx_lib/CMSIS/Include/core_cm4.h **** #define SCB_CFSR_BUSFAULTSR_Pos             8                                             /*!< SCB 
 510:/home/jonas/warwick/3dProfilometer/xpcc/ext/stm32f4xx_lib/CMSIS/Include/core_cm4.h **** #define SCB_CFSR_BUSFAULTSR_Msk            (0xFFUL << SCB_CFSR_BUSFAULTSR_Pos)            /*!< SCB 
 511:/home/jonas/warwick/3dProfilometer/xpcc/ext/stm32f4xx_lib/CMSIS/Include/core_cm4.h **** 
 512:/home/jonas/warwick/3dProfilometer/xpcc/ext/stm32f4xx_lib/CMSIS/Include/core_cm4.h **** #define SCB_CFSR_MEMFAULTSR_Pos             0                                             /*!< SCB 
 513:/home/jonas/warwick/3dProfilometer/xpcc/ext/stm32f4xx_lib/CMSIS/Include/core_cm4.h **** #define SCB_CFSR_MEMFAULTSR_Msk            (0xFFUL << SCB_CFSR_MEMFAULTSR_Pos)            /*!< SCB 
 514:/home/jonas/warwick/3dProfilometer/xpcc/ext/stm32f4xx_lib/CMSIS/Include/core_cm4.h **** 
 515:/home/jonas/warwick/3dProfilometer/xpcc/ext/stm32f4xx_lib/CMSIS/Include/core_cm4.h **** /* SCB Hard Fault Status Registers Definitions */
 516:/home/jonas/warwick/3dProfilometer/xpcc/ext/stm32f4xx_lib/CMSIS/Include/core_cm4.h **** #define SCB_HFSR_DEBUGEVT_Pos              31                                             /*!< SCB 
 517:/home/jonas/warwick/3dProfilometer/xpcc/ext/stm32f4xx_lib/CMSIS/Include/core_cm4.h **** #define SCB_HFSR_DEBUGEVT_Msk              (1UL << SCB_HFSR_DEBUGEVT_Pos)                 /*!< SCB 
 518:/home/jonas/warwick/3dProfilometer/xpcc/ext/stm32f4xx_lib/CMSIS/Include/core_cm4.h **** 
 519:/home/jonas/warwick/3dProfilometer/xpcc/ext/stm32f4xx_lib/CMSIS/Include/core_cm4.h **** #define SCB_HFSR_FORCED_Pos                30                                             /*!< SCB 
 520:/home/jonas/warwick/3dProfilometer/xpcc/ext/stm32f4xx_lib/CMSIS/Include/core_cm4.h **** #define SCB_HFSR_FORCED_Msk                (1UL << SCB_HFSR_FORCED_Pos)                   /*!< SCB 
 521:/home/jonas/warwick/3dProfilometer/xpcc/ext/stm32f4xx_lib/CMSIS/Include/core_cm4.h **** 
 522:/home/jonas/warwick/3dProfilometer/xpcc/ext/stm32f4xx_lib/CMSIS/Include/core_cm4.h **** #define SCB_HFSR_VECTTBL_Pos                1                                             /*!< SCB 
 523:/home/jonas/warwick/3dProfilometer/xpcc/ext/stm32f4xx_lib/CMSIS/Include/core_cm4.h **** #define SCB_HFSR_VECTTBL_Msk               (1UL << SCB_HFSR_VECTTBL_Pos)                  /*!< SCB 
 524:/home/jonas/warwick/3dProfilometer/xpcc/ext/stm32f4xx_lib/CMSIS/Include/core_cm4.h **** 
 525:/home/jonas/warwick/3dProfilometer/xpcc/ext/stm32f4xx_lib/CMSIS/Include/core_cm4.h **** /* SCB Debug Fault Status Register Definitions */
 526:/home/jonas/warwick/3dProfilometer/xpcc/ext/stm32f4xx_lib/CMSIS/Include/core_cm4.h **** #define SCB_DFSR_EXTERNAL_Pos               4                                             /*!< SCB 
 527:/home/jonas/warwick/3dProfilometer/xpcc/ext/stm32f4xx_lib/CMSIS/Include/core_cm4.h **** #define SCB_DFSR_EXTERNAL_Msk              (1UL << SCB_DFSR_EXTERNAL_Pos)                 /*!< SCB 
 528:/home/jonas/warwick/3dProfilometer/xpcc/ext/stm32f4xx_lib/CMSIS/Include/core_cm4.h **** 
 529:/home/jonas/warwick/3dProfilometer/xpcc/ext/stm32f4xx_lib/CMSIS/Include/core_cm4.h **** #define SCB_DFSR_VCATCH_Pos                 3                                             /*!< SCB 
 530:/home/jonas/warwick/3dProfilometer/xpcc/ext/stm32f4xx_lib/CMSIS/Include/core_cm4.h **** #define SCB_DFSR_VCATCH_Msk                (1UL << SCB_DFSR_VCATCH_Pos)                   /*!< SCB 
 531:/home/jonas/warwick/3dProfilometer/xpcc/ext/stm32f4xx_lib/CMSIS/Include/core_cm4.h **** 
 532:/home/jonas/warwick/3dProfilometer/xpcc/ext/stm32f4xx_lib/CMSIS/Include/core_cm4.h **** #define SCB_DFSR_DWTTRAP_Pos                2                                             /*!< SCB 
 533:/home/jonas/warwick/3dProfilometer/xpcc/ext/stm32f4xx_lib/CMSIS/Include/core_cm4.h **** #define SCB_DFSR_DWTTRAP_Msk               (1UL << SCB_DFSR_DWTTRAP_Pos)                  /*!< SCB 
 534:/home/jonas/warwick/3dProfilometer/xpcc/ext/stm32f4xx_lib/CMSIS/Include/core_cm4.h **** 
 535:/home/jonas/warwick/3dProfilometer/xpcc/ext/stm32f4xx_lib/CMSIS/Include/core_cm4.h **** #define SCB_DFSR_BKPT_Pos                   1                                             /*!< SCB 
 536:/home/jonas/warwick/3dProfilometer/xpcc/ext/stm32f4xx_lib/CMSIS/Include/core_cm4.h **** #define SCB_DFSR_BKPT_Msk                  (1UL << SCB_DFSR_BKPT_Pos)                     /*!< SCB 
 537:/home/jonas/warwick/3dProfilometer/xpcc/ext/stm32f4xx_lib/CMSIS/Include/core_cm4.h **** 
 538:/home/jonas/warwick/3dProfilometer/xpcc/ext/stm32f4xx_lib/CMSIS/Include/core_cm4.h **** #define SCB_DFSR_HALTED_Pos                 0                                             /*!< SCB 
 539:/home/jonas/warwick/3dProfilometer/xpcc/ext/stm32f4xx_lib/CMSIS/Include/core_cm4.h **** #define SCB_DFSR_HALTED_Msk                (1UL << SCB_DFSR_HALTED_Pos)                   /*!< SCB 
 540:/home/jonas/warwick/3dProfilometer/xpcc/ext/stm32f4xx_lib/CMSIS/Include/core_cm4.h **** 
 541:/home/jonas/warwick/3dProfilometer/xpcc/ext/stm32f4xx_lib/CMSIS/Include/core_cm4.h **** /*@} end of group CMSIS_SCB */
 542:/home/jonas/warwick/3dProfilometer/xpcc/ext/stm32f4xx_lib/CMSIS/Include/core_cm4.h **** 
 543:/home/jonas/warwick/3dProfilometer/xpcc/ext/stm32f4xx_lib/CMSIS/Include/core_cm4.h **** 
 544:/home/jonas/warwick/3dProfilometer/xpcc/ext/stm32f4xx_lib/CMSIS/Include/core_cm4.h **** /** \ingroup  CMSIS_core_register
 545:/home/jonas/warwick/3dProfilometer/xpcc/ext/stm32f4xx_lib/CMSIS/Include/core_cm4.h ****     \defgroup CMSIS_SCnSCB CMSIS System Control and ID Register not in the SCB
 546:/home/jonas/warwick/3dProfilometer/xpcc/ext/stm32f4xx_lib/CMSIS/Include/core_cm4.h ****   Type definitions for the Cortex-M System Control and ID Register not in the SCB
 547:/home/jonas/warwick/3dProfilometer/xpcc/ext/stm32f4xx_lib/CMSIS/Include/core_cm4.h ****   @{
 548:/home/jonas/warwick/3dProfilometer/xpcc/ext/stm32f4xx_lib/CMSIS/Include/core_cm4.h ****  */
 549:/home/jonas/warwick/3dProfilometer/xpcc/ext/stm32f4xx_lib/CMSIS/Include/core_cm4.h **** 
 550:/home/jonas/warwick/3dProfilometer/xpcc/ext/stm32f4xx_lib/CMSIS/Include/core_cm4.h **** /** \brief  Structure type to access the System Control and ID Register not in the SCB.
 551:/home/jonas/warwick/3dProfilometer/xpcc/ext/stm32f4xx_lib/CMSIS/Include/core_cm4.h ****  */
 552:/home/jonas/warwick/3dProfilometer/xpcc/ext/stm32f4xx_lib/CMSIS/Include/core_cm4.h **** typedef struct
 553:/home/jonas/warwick/3dProfilometer/xpcc/ext/stm32f4xx_lib/CMSIS/Include/core_cm4.h **** {
 554:/home/jonas/warwick/3dProfilometer/xpcc/ext/stm32f4xx_lib/CMSIS/Include/core_cm4.h ****        uint32_t RESERVED0[1];
 555:/home/jonas/warwick/3dProfilometer/xpcc/ext/stm32f4xx_lib/CMSIS/Include/core_cm4.h ****   __I  uint32_t ICTR;                    /*!< Offset: 0x004 (R/ )  Interrupt Controller Type Regist
 556:/home/jonas/warwick/3dProfilometer/xpcc/ext/stm32f4xx_lib/CMSIS/Include/core_cm4.h ****   __IO uint32_t ACTLR;                   /*!< Offset: 0x008 (R/W)  Auxiliary Control Register      
 557:/home/jonas/warwick/3dProfilometer/xpcc/ext/stm32f4xx_lib/CMSIS/Include/core_cm4.h **** } SCnSCB_Type;
 558:/home/jonas/warwick/3dProfilometer/xpcc/ext/stm32f4xx_lib/CMSIS/Include/core_cm4.h **** 
 559:/home/jonas/warwick/3dProfilometer/xpcc/ext/stm32f4xx_lib/CMSIS/Include/core_cm4.h **** /* Interrupt Controller Type Register Definitions */
 560:/home/jonas/warwick/3dProfilometer/xpcc/ext/stm32f4xx_lib/CMSIS/Include/core_cm4.h **** #define SCnSCB_ICTR_INTLINESNUM_Pos         0                                          /*!< ICTR: I
 561:/home/jonas/warwick/3dProfilometer/xpcc/ext/stm32f4xx_lib/CMSIS/Include/core_cm4.h **** #define SCnSCB_ICTR_INTLINESNUM_Msk        (0xFUL << SCnSCB_ICTR_INTLINESNUM_Pos)      /*!< ICTR: I
 562:/home/jonas/warwick/3dProfilometer/xpcc/ext/stm32f4xx_lib/CMSIS/Include/core_cm4.h **** 
 563:/home/jonas/warwick/3dProfilometer/xpcc/ext/stm32f4xx_lib/CMSIS/Include/core_cm4.h **** /* Auxiliary Control Register Definitions */
 564:/home/jonas/warwick/3dProfilometer/xpcc/ext/stm32f4xx_lib/CMSIS/Include/core_cm4.h **** #define SCnSCB_ACTLR_DISOOFP_Pos            9                                          /*!< ACTLR: 
 565:/home/jonas/warwick/3dProfilometer/xpcc/ext/stm32f4xx_lib/CMSIS/Include/core_cm4.h **** #define SCnSCB_ACTLR_DISOOFP_Msk           (1UL << SCnSCB_ACTLR_DISOOFP_Pos)           /*!< ACTLR: 
 566:/home/jonas/warwick/3dProfilometer/xpcc/ext/stm32f4xx_lib/CMSIS/Include/core_cm4.h **** 
 567:/home/jonas/warwick/3dProfilometer/xpcc/ext/stm32f4xx_lib/CMSIS/Include/core_cm4.h **** #define SCnSCB_ACTLR_DISFPCA_Pos            8                                          /*!< ACTLR: 
 568:/home/jonas/warwick/3dProfilometer/xpcc/ext/stm32f4xx_lib/CMSIS/Include/core_cm4.h **** #define SCnSCB_ACTLR_DISFPCA_Msk           (1UL << SCnSCB_ACTLR_DISFPCA_Pos)           /*!< ACTLR: 
 569:/home/jonas/warwick/3dProfilometer/xpcc/ext/stm32f4xx_lib/CMSIS/Include/core_cm4.h **** 
 570:/home/jonas/warwick/3dProfilometer/xpcc/ext/stm32f4xx_lib/CMSIS/Include/core_cm4.h **** #define SCnSCB_ACTLR_DISFOLD_Pos            2                                          /*!< ACTLR: 
 571:/home/jonas/warwick/3dProfilometer/xpcc/ext/stm32f4xx_lib/CMSIS/Include/core_cm4.h **** #define SCnSCB_ACTLR_DISFOLD_Msk           (1UL << SCnSCB_ACTLR_DISFOLD_Pos)           /*!< ACTLR: 
 572:/home/jonas/warwick/3dProfilometer/xpcc/ext/stm32f4xx_lib/CMSIS/Include/core_cm4.h **** 
 573:/home/jonas/warwick/3dProfilometer/xpcc/ext/stm32f4xx_lib/CMSIS/Include/core_cm4.h **** #define SCnSCB_ACTLR_DISDEFWBUF_Pos         1                                          /*!< ACTLR: 
 574:/home/jonas/warwick/3dProfilometer/xpcc/ext/stm32f4xx_lib/CMSIS/Include/core_cm4.h **** #define SCnSCB_ACTLR_DISDEFWBUF_Msk        (1UL << SCnSCB_ACTLR_DISDEFWBUF_Pos)        /*!< ACTLR: 
 575:/home/jonas/warwick/3dProfilometer/xpcc/ext/stm32f4xx_lib/CMSIS/Include/core_cm4.h **** 
 576:/home/jonas/warwick/3dProfilometer/xpcc/ext/stm32f4xx_lib/CMSIS/Include/core_cm4.h **** #define SCnSCB_ACTLR_DISMCYCINT_Pos         0                                          /*!< ACTLR: 
 577:/home/jonas/warwick/3dProfilometer/xpcc/ext/stm32f4xx_lib/CMSIS/Include/core_cm4.h **** #define SCnSCB_ACTLR_DISMCYCINT_Msk        (1UL << SCnSCB_ACTLR_DISMCYCINT_Pos)        /*!< ACTLR: 
 578:/home/jonas/warwick/3dProfilometer/xpcc/ext/stm32f4xx_lib/CMSIS/Include/core_cm4.h **** 
 579:/home/jonas/warwick/3dProfilometer/xpcc/ext/stm32f4xx_lib/CMSIS/Include/core_cm4.h **** /*@} end of group CMSIS_SCnotSCB */
 580:/home/jonas/warwick/3dProfilometer/xpcc/ext/stm32f4xx_lib/CMSIS/Include/core_cm4.h **** 
 581:/home/jonas/warwick/3dProfilometer/xpcc/ext/stm32f4xx_lib/CMSIS/Include/core_cm4.h **** 
 582:/home/jonas/warwick/3dProfilometer/xpcc/ext/stm32f4xx_lib/CMSIS/Include/core_cm4.h **** /** \ingroup  CMSIS_core_register
 583:/home/jonas/warwick/3dProfilometer/xpcc/ext/stm32f4xx_lib/CMSIS/Include/core_cm4.h ****     \defgroup CMSIS_SysTick CMSIS SysTick
 584:/home/jonas/warwick/3dProfilometer/xpcc/ext/stm32f4xx_lib/CMSIS/Include/core_cm4.h ****   Type definitions for the Cortex-M System Timer Registers
 585:/home/jonas/warwick/3dProfilometer/xpcc/ext/stm32f4xx_lib/CMSIS/Include/core_cm4.h ****   @{
 586:/home/jonas/warwick/3dProfilometer/xpcc/ext/stm32f4xx_lib/CMSIS/Include/core_cm4.h ****  */
 587:/home/jonas/warwick/3dProfilometer/xpcc/ext/stm32f4xx_lib/CMSIS/Include/core_cm4.h **** 
 588:/home/jonas/warwick/3dProfilometer/xpcc/ext/stm32f4xx_lib/CMSIS/Include/core_cm4.h **** /** \brief  Structure type to access the System Timer (SysTick).
 589:/home/jonas/warwick/3dProfilometer/xpcc/ext/stm32f4xx_lib/CMSIS/Include/core_cm4.h ****  */
 590:/home/jonas/warwick/3dProfilometer/xpcc/ext/stm32f4xx_lib/CMSIS/Include/core_cm4.h **** typedef struct
 591:/home/jonas/warwick/3dProfilometer/xpcc/ext/stm32f4xx_lib/CMSIS/Include/core_cm4.h **** {
 592:/home/jonas/warwick/3dProfilometer/xpcc/ext/stm32f4xx_lib/CMSIS/Include/core_cm4.h ****   __IO uint32_t CTRL;                    /*!< Offset: 0x000 (R/W)  SysTick Control and Status Regis
 593:/home/jonas/warwick/3dProfilometer/xpcc/ext/stm32f4xx_lib/CMSIS/Include/core_cm4.h ****   __IO uint32_t LOAD;                    /*!< Offset: 0x004 (R/W)  SysTick Reload Value Register   
 594:/home/jonas/warwick/3dProfilometer/xpcc/ext/stm32f4xx_lib/CMSIS/Include/core_cm4.h ****   __IO uint32_t VAL;                     /*!< Offset: 0x008 (R/W)  SysTick Current Value Register  
 595:/home/jonas/warwick/3dProfilometer/xpcc/ext/stm32f4xx_lib/CMSIS/Include/core_cm4.h ****   __I  uint32_t CALIB;                   /*!< Offset: 0x00C (R/ )  SysTick Calibration Register    
 596:/home/jonas/warwick/3dProfilometer/xpcc/ext/stm32f4xx_lib/CMSIS/Include/core_cm4.h **** } SysTick_Type;
 597:/home/jonas/warwick/3dProfilometer/xpcc/ext/stm32f4xx_lib/CMSIS/Include/core_cm4.h **** 
 598:/home/jonas/warwick/3dProfilometer/xpcc/ext/stm32f4xx_lib/CMSIS/Include/core_cm4.h **** /* SysTick Control / Status Register Definitions */
 599:/home/jonas/warwick/3dProfilometer/xpcc/ext/stm32f4xx_lib/CMSIS/Include/core_cm4.h **** #define SysTick_CTRL_COUNTFLAG_Pos         16                                             /*!< SysT
 600:/home/jonas/warwick/3dProfilometer/xpcc/ext/stm32f4xx_lib/CMSIS/Include/core_cm4.h **** #define SysTick_CTRL_COUNTFLAG_Msk         (1UL << SysTick_CTRL_COUNTFLAG_Pos)            /*!< SysT
 601:/home/jonas/warwick/3dProfilometer/xpcc/ext/stm32f4xx_lib/CMSIS/Include/core_cm4.h **** 
 602:/home/jonas/warwick/3dProfilometer/xpcc/ext/stm32f4xx_lib/CMSIS/Include/core_cm4.h **** #define SysTick_CTRL_CLKSOURCE_Pos          2                                             /*!< SysT
 603:/home/jonas/warwick/3dProfilometer/xpcc/ext/stm32f4xx_lib/CMSIS/Include/core_cm4.h **** #define SysTick_CTRL_CLKSOURCE_Msk         (1UL << SysTick_CTRL_CLKSOURCE_Pos)            /*!< SysT
 604:/home/jonas/warwick/3dProfilometer/xpcc/ext/stm32f4xx_lib/CMSIS/Include/core_cm4.h **** 
 605:/home/jonas/warwick/3dProfilometer/xpcc/ext/stm32f4xx_lib/CMSIS/Include/core_cm4.h **** #define SysTick_CTRL_TICKINT_Pos            1                                             /*!< SysT
 606:/home/jonas/warwick/3dProfilometer/xpcc/ext/stm32f4xx_lib/CMSIS/Include/core_cm4.h **** #define SysTick_CTRL_TICKINT_Msk           (1UL << SysTick_CTRL_TICKINT_Pos)              /*!< SysT
 607:/home/jonas/warwick/3dProfilometer/xpcc/ext/stm32f4xx_lib/CMSIS/Include/core_cm4.h **** 
 608:/home/jonas/warwick/3dProfilometer/xpcc/ext/stm32f4xx_lib/CMSIS/Include/core_cm4.h **** #define SysTick_CTRL_ENABLE_Pos             0                                             /*!< SysT
 609:/home/jonas/warwick/3dProfilometer/xpcc/ext/stm32f4xx_lib/CMSIS/Include/core_cm4.h **** #define SysTick_CTRL_ENABLE_Msk            (1UL << SysTick_CTRL_ENABLE_Pos)               /*!< SysT
 610:/home/jonas/warwick/3dProfilometer/xpcc/ext/stm32f4xx_lib/CMSIS/Include/core_cm4.h **** 
 611:/home/jonas/warwick/3dProfilometer/xpcc/ext/stm32f4xx_lib/CMSIS/Include/core_cm4.h **** /* SysTick Reload Register Definitions */
 612:/home/jonas/warwick/3dProfilometer/xpcc/ext/stm32f4xx_lib/CMSIS/Include/core_cm4.h **** #define SysTick_LOAD_RELOAD_Pos             0                                             /*!< SysT
 613:/home/jonas/warwick/3dProfilometer/xpcc/ext/stm32f4xx_lib/CMSIS/Include/core_cm4.h **** #define SysTick_LOAD_RELOAD_Msk            (0xFFFFFFUL << SysTick_LOAD_RELOAD_Pos)        /*!< SysT
 614:/home/jonas/warwick/3dProfilometer/xpcc/ext/stm32f4xx_lib/CMSIS/Include/core_cm4.h **** 
 615:/home/jonas/warwick/3dProfilometer/xpcc/ext/stm32f4xx_lib/CMSIS/Include/core_cm4.h **** /* SysTick Current Register Definitions */
 616:/home/jonas/warwick/3dProfilometer/xpcc/ext/stm32f4xx_lib/CMSIS/Include/core_cm4.h **** #define SysTick_VAL_CURRENT_Pos             0                                             /*!< SysT
 617:/home/jonas/warwick/3dProfilometer/xpcc/ext/stm32f4xx_lib/CMSIS/Include/core_cm4.h **** #define SysTick_VAL_CURRENT_Msk            (0xFFFFFFUL << SysTick_VAL_CURRENT_Pos)        /*!< SysT
 618:/home/jonas/warwick/3dProfilometer/xpcc/ext/stm32f4xx_lib/CMSIS/Include/core_cm4.h **** 
 619:/home/jonas/warwick/3dProfilometer/xpcc/ext/stm32f4xx_lib/CMSIS/Include/core_cm4.h **** /* SysTick Calibration Register Definitions */
 620:/home/jonas/warwick/3dProfilometer/xpcc/ext/stm32f4xx_lib/CMSIS/Include/core_cm4.h **** #define SysTick_CALIB_NOREF_Pos            31                                             /*!< SysT
 621:/home/jonas/warwick/3dProfilometer/xpcc/ext/stm32f4xx_lib/CMSIS/Include/core_cm4.h **** #define SysTick_CALIB_NOREF_Msk            (1UL << SysTick_CALIB_NOREF_Pos)               /*!< SysT
 622:/home/jonas/warwick/3dProfilometer/xpcc/ext/stm32f4xx_lib/CMSIS/Include/core_cm4.h **** 
 623:/home/jonas/warwick/3dProfilometer/xpcc/ext/stm32f4xx_lib/CMSIS/Include/core_cm4.h **** #define SysTick_CALIB_SKEW_Pos             30                                             /*!< SysT
 624:/home/jonas/warwick/3dProfilometer/xpcc/ext/stm32f4xx_lib/CMSIS/Include/core_cm4.h **** #define SysTick_CALIB_SKEW_Msk             (1UL << SysTick_CALIB_SKEW_Pos)                /*!< SysT
 625:/home/jonas/warwick/3dProfilometer/xpcc/ext/stm32f4xx_lib/CMSIS/Include/core_cm4.h **** 
 626:/home/jonas/warwick/3dProfilometer/xpcc/ext/stm32f4xx_lib/CMSIS/Include/core_cm4.h **** #define SysTick_CALIB_TENMS_Pos             0                                             /*!< SysT
 627:/home/jonas/warwick/3dProfilometer/xpcc/ext/stm32f4xx_lib/CMSIS/Include/core_cm4.h **** #define SysTick_CALIB_TENMS_Msk            (0xFFFFFFUL << SysTick_VAL_CURRENT_Pos)        /*!< SysT
 628:/home/jonas/warwick/3dProfilometer/xpcc/ext/stm32f4xx_lib/CMSIS/Include/core_cm4.h **** 
 629:/home/jonas/warwick/3dProfilometer/xpcc/ext/stm32f4xx_lib/CMSIS/Include/core_cm4.h **** /*@} end of group CMSIS_SysTick */
 630:/home/jonas/warwick/3dProfilometer/xpcc/ext/stm32f4xx_lib/CMSIS/Include/core_cm4.h **** 
 631:/home/jonas/warwick/3dProfilometer/xpcc/ext/stm32f4xx_lib/CMSIS/Include/core_cm4.h **** 
 632:/home/jonas/warwick/3dProfilometer/xpcc/ext/stm32f4xx_lib/CMSIS/Include/core_cm4.h **** /** \ingroup  CMSIS_core_register
 633:/home/jonas/warwick/3dProfilometer/xpcc/ext/stm32f4xx_lib/CMSIS/Include/core_cm4.h ****     \defgroup CMSIS_ITM CMSIS ITM
 634:/home/jonas/warwick/3dProfilometer/xpcc/ext/stm32f4xx_lib/CMSIS/Include/core_cm4.h ****   Type definitions for the Cortex-M Instrumentation Trace Macrocell (ITM)
 635:/home/jonas/warwick/3dProfilometer/xpcc/ext/stm32f4xx_lib/CMSIS/Include/core_cm4.h ****   @{
 636:/home/jonas/warwick/3dProfilometer/xpcc/ext/stm32f4xx_lib/CMSIS/Include/core_cm4.h ****  */
 637:/home/jonas/warwick/3dProfilometer/xpcc/ext/stm32f4xx_lib/CMSIS/Include/core_cm4.h **** 
 638:/home/jonas/warwick/3dProfilometer/xpcc/ext/stm32f4xx_lib/CMSIS/Include/core_cm4.h **** /** \brief  Structure type to access the Instrumentation Trace Macrocell Register (ITM).
 639:/home/jonas/warwick/3dProfilometer/xpcc/ext/stm32f4xx_lib/CMSIS/Include/core_cm4.h ****  */
 640:/home/jonas/warwick/3dProfilometer/xpcc/ext/stm32f4xx_lib/CMSIS/Include/core_cm4.h **** typedef struct
 641:/home/jonas/warwick/3dProfilometer/xpcc/ext/stm32f4xx_lib/CMSIS/Include/core_cm4.h **** {
 642:/home/jonas/warwick/3dProfilometer/xpcc/ext/stm32f4xx_lib/CMSIS/Include/core_cm4.h ****   __O  union
 643:/home/jonas/warwick/3dProfilometer/xpcc/ext/stm32f4xx_lib/CMSIS/Include/core_cm4.h ****   {
 644:/home/jonas/warwick/3dProfilometer/xpcc/ext/stm32f4xx_lib/CMSIS/Include/core_cm4.h ****     __O  uint8_t    u8;                  /*!< Offset: 0x000 ( /W)  ITM Stimulus Port 8-bit         
 645:/home/jonas/warwick/3dProfilometer/xpcc/ext/stm32f4xx_lib/CMSIS/Include/core_cm4.h ****     __O  uint16_t   u16;                 /*!< Offset: 0x000 ( /W)  ITM Stimulus Port 16-bit        
 646:/home/jonas/warwick/3dProfilometer/xpcc/ext/stm32f4xx_lib/CMSIS/Include/core_cm4.h ****     __O  uint32_t   u32;                 /*!< Offset: 0x000 ( /W)  ITM Stimulus Port 32-bit        
 647:/home/jonas/warwick/3dProfilometer/xpcc/ext/stm32f4xx_lib/CMSIS/Include/core_cm4.h ****   }  PORT [32];                          /*!< Offset: 0x000 ( /W)  ITM Stimulus Port Registers     
 648:/home/jonas/warwick/3dProfilometer/xpcc/ext/stm32f4xx_lib/CMSIS/Include/core_cm4.h ****        uint32_t RESERVED0[864];
 649:/home/jonas/warwick/3dProfilometer/xpcc/ext/stm32f4xx_lib/CMSIS/Include/core_cm4.h ****   __IO uint32_t TER;                     /*!< Offset: 0xE00 (R/W)  ITM Trace Enable Register       
 650:/home/jonas/warwick/3dProfilometer/xpcc/ext/stm32f4xx_lib/CMSIS/Include/core_cm4.h ****        uint32_t RESERVED1[15];
 651:/home/jonas/warwick/3dProfilometer/xpcc/ext/stm32f4xx_lib/CMSIS/Include/core_cm4.h ****   __IO uint32_t TPR;                     /*!< Offset: 0xE40 (R/W)  ITM Trace Privilege Register    
 652:/home/jonas/warwick/3dProfilometer/xpcc/ext/stm32f4xx_lib/CMSIS/Include/core_cm4.h ****        uint32_t RESERVED2[15];
 653:/home/jonas/warwick/3dProfilometer/xpcc/ext/stm32f4xx_lib/CMSIS/Include/core_cm4.h ****   __IO uint32_t TCR;                     /*!< Offset: 0xE80 (R/W)  ITM Trace Control Register      
 654:/home/jonas/warwick/3dProfilometer/xpcc/ext/stm32f4xx_lib/CMSIS/Include/core_cm4.h **** } ITM_Type;
 655:/home/jonas/warwick/3dProfilometer/xpcc/ext/stm32f4xx_lib/CMSIS/Include/core_cm4.h **** 
 656:/home/jonas/warwick/3dProfilometer/xpcc/ext/stm32f4xx_lib/CMSIS/Include/core_cm4.h **** /* ITM Trace Privilege Register Definitions */
 657:/home/jonas/warwick/3dProfilometer/xpcc/ext/stm32f4xx_lib/CMSIS/Include/core_cm4.h **** #define ITM_TPR_PRIVMASK_Pos                0                                          /*!< ITM TPR
 658:/home/jonas/warwick/3dProfilometer/xpcc/ext/stm32f4xx_lib/CMSIS/Include/core_cm4.h **** #define ITM_TPR_PRIVMASK_Msk               (0xFUL << ITM_TPR_PRIVMASK_Pos)             /*!< ITM TPR
 659:/home/jonas/warwick/3dProfilometer/xpcc/ext/stm32f4xx_lib/CMSIS/Include/core_cm4.h **** 
 660:/home/jonas/warwick/3dProfilometer/xpcc/ext/stm32f4xx_lib/CMSIS/Include/core_cm4.h **** /* ITM Trace Control Register Definitions */
 661:/home/jonas/warwick/3dProfilometer/xpcc/ext/stm32f4xx_lib/CMSIS/Include/core_cm4.h **** #define ITM_TCR_BUSY_Pos                   23                                          /*!< ITM TCR
 662:/home/jonas/warwick/3dProfilometer/xpcc/ext/stm32f4xx_lib/CMSIS/Include/core_cm4.h **** #define ITM_TCR_BUSY_Msk                   (1UL << ITM_TCR_BUSY_Pos)                   /*!< ITM TCR
 663:/home/jonas/warwick/3dProfilometer/xpcc/ext/stm32f4xx_lib/CMSIS/Include/core_cm4.h **** 
 664:/home/jonas/warwick/3dProfilometer/xpcc/ext/stm32f4xx_lib/CMSIS/Include/core_cm4.h **** #define ITM_TCR_TraceBusID_Pos             16                                          /*!< ITM TCR
 665:/home/jonas/warwick/3dProfilometer/xpcc/ext/stm32f4xx_lib/CMSIS/Include/core_cm4.h **** #define ITM_TCR_TraceBusID_Msk             (0x7FUL << ITM_TCR_TraceBusID_Pos)          /*!< ITM TCR
 666:/home/jonas/warwick/3dProfilometer/xpcc/ext/stm32f4xx_lib/CMSIS/Include/core_cm4.h **** 
 667:/home/jonas/warwick/3dProfilometer/xpcc/ext/stm32f4xx_lib/CMSIS/Include/core_cm4.h **** #define ITM_TCR_GTSFREQ_Pos                10                                          /*!< ITM TCR
 668:/home/jonas/warwick/3dProfilometer/xpcc/ext/stm32f4xx_lib/CMSIS/Include/core_cm4.h **** #define ITM_TCR_GTSFREQ_Msk                (3UL << ITM_TCR_GTSFREQ_Pos)                /*!< ITM TCR
 669:/home/jonas/warwick/3dProfilometer/xpcc/ext/stm32f4xx_lib/CMSIS/Include/core_cm4.h **** 
 670:/home/jonas/warwick/3dProfilometer/xpcc/ext/stm32f4xx_lib/CMSIS/Include/core_cm4.h **** #define ITM_TCR_TSPrescale_Pos              8                                          /*!< ITM TCR
 671:/home/jonas/warwick/3dProfilometer/xpcc/ext/stm32f4xx_lib/CMSIS/Include/core_cm4.h **** #define ITM_TCR_TSPrescale_Msk             (3UL << ITM_TCR_TSPrescale_Pos)             /*!< ITM TCR
 672:/home/jonas/warwick/3dProfilometer/xpcc/ext/stm32f4xx_lib/CMSIS/Include/core_cm4.h **** 
 673:/home/jonas/warwick/3dProfilometer/xpcc/ext/stm32f4xx_lib/CMSIS/Include/core_cm4.h **** #define ITM_TCR_SWOENA_Pos                  4                                          /*!< ITM TCR
 674:/home/jonas/warwick/3dProfilometer/xpcc/ext/stm32f4xx_lib/CMSIS/Include/core_cm4.h **** #define ITM_TCR_SWOENA_Msk                 (1UL << ITM_TCR_SWOENA_Pos)                 /*!< ITM TCR
 675:/home/jonas/warwick/3dProfilometer/xpcc/ext/stm32f4xx_lib/CMSIS/Include/core_cm4.h **** 
 676:/home/jonas/warwick/3dProfilometer/xpcc/ext/stm32f4xx_lib/CMSIS/Include/core_cm4.h **** #define ITM_TCR_TXENA_Pos                   3                                          /*!< ITM TCR
 677:/home/jonas/warwick/3dProfilometer/xpcc/ext/stm32f4xx_lib/CMSIS/Include/core_cm4.h **** #define ITM_TCR_TXENA_Msk                  (1UL << ITM_TCR_TXENA_Pos)                  /*!< ITM TCR
 678:/home/jonas/warwick/3dProfilometer/xpcc/ext/stm32f4xx_lib/CMSIS/Include/core_cm4.h **** 
 679:/home/jonas/warwick/3dProfilometer/xpcc/ext/stm32f4xx_lib/CMSIS/Include/core_cm4.h **** #define ITM_TCR_SYNCENA_Pos                 2                                          /*!< ITM TCR
 680:/home/jonas/warwick/3dProfilometer/xpcc/ext/stm32f4xx_lib/CMSIS/Include/core_cm4.h **** #define ITM_TCR_SYNCENA_Msk                (1UL << ITM_TCR_SYNCENA_Pos)                /*!< ITM TCR
 681:/home/jonas/warwick/3dProfilometer/xpcc/ext/stm32f4xx_lib/CMSIS/Include/core_cm4.h **** 
 682:/home/jonas/warwick/3dProfilometer/xpcc/ext/stm32f4xx_lib/CMSIS/Include/core_cm4.h **** #define ITM_TCR_TSENA_Pos                   1                                          /*!< ITM TCR
 683:/home/jonas/warwick/3dProfilometer/xpcc/ext/stm32f4xx_lib/CMSIS/Include/core_cm4.h **** #define ITM_TCR_TSENA_Msk                  (1UL << ITM_TCR_TSENA_Pos)                  /*!< ITM TCR
 684:/home/jonas/warwick/3dProfilometer/xpcc/ext/stm32f4xx_lib/CMSIS/Include/core_cm4.h **** 
 685:/home/jonas/warwick/3dProfilometer/xpcc/ext/stm32f4xx_lib/CMSIS/Include/core_cm4.h **** #define ITM_TCR_ITMENA_Pos                  0                                          /*!< ITM TCR
 686:/home/jonas/warwick/3dProfilometer/xpcc/ext/stm32f4xx_lib/CMSIS/Include/core_cm4.h **** #define ITM_TCR_ITMENA_Msk                 (1UL << ITM_TCR_ITMENA_Pos)                 /*!< ITM TCR
 687:/home/jonas/warwick/3dProfilometer/xpcc/ext/stm32f4xx_lib/CMSIS/Include/core_cm4.h **** 
 688:/home/jonas/warwick/3dProfilometer/xpcc/ext/stm32f4xx_lib/CMSIS/Include/core_cm4.h **** /*@}*/ /* end of group CMSIS_ITM */
 689:/home/jonas/warwick/3dProfilometer/xpcc/ext/stm32f4xx_lib/CMSIS/Include/core_cm4.h **** 
 690:/home/jonas/warwick/3dProfilometer/xpcc/ext/stm32f4xx_lib/CMSIS/Include/core_cm4.h **** 
 691:/home/jonas/warwick/3dProfilometer/xpcc/ext/stm32f4xx_lib/CMSIS/Include/core_cm4.h **** #if (__MPU_PRESENT == 1)
 692:/home/jonas/warwick/3dProfilometer/xpcc/ext/stm32f4xx_lib/CMSIS/Include/core_cm4.h **** /** \ingroup  CMSIS_core_register
 693:/home/jonas/warwick/3dProfilometer/xpcc/ext/stm32f4xx_lib/CMSIS/Include/core_cm4.h ****     \defgroup CMSIS_MPU CMSIS MPU
 694:/home/jonas/warwick/3dProfilometer/xpcc/ext/stm32f4xx_lib/CMSIS/Include/core_cm4.h ****   Type definitions for the Cortex-M Memory Protection Unit (MPU)
 695:/home/jonas/warwick/3dProfilometer/xpcc/ext/stm32f4xx_lib/CMSIS/Include/core_cm4.h ****   @{
 696:/home/jonas/warwick/3dProfilometer/xpcc/ext/stm32f4xx_lib/CMSIS/Include/core_cm4.h ****  */
 697:/home/jonas/warwick/3dProfilometer/xpcc/ext/stm32f4xx_lib/CMSIS/Include/core_cm4.h **** 
