   1              		.syntax unified
   2              		.cpu cortex-m4
   3              		.eabi_attribute 27, 3
   4              		.fpu fpv4-sp-d16
   5              		.eabi_attribute 20, 1
   6              		.eabi_attribute 21, 1
   7              		.eabi_attribute 23, 3
   8              		.eabi_attribute 24, 1
   9              		.eabi_attribute 25, 1
  10              		.eabi_attribute 26, 1
  11              		.eabi_attribute 30, 2
  12              		.eabi_attribute 34, 1
  13              		.eabi_attribute 18, 4
  14              		.thumb
  15              		.file	"error_report.cpp"
  16              		.text
  17              	.Ltext0:
  18              		.cfi_sections	.debug_frame
  19              		.section	.text._ZL17dummyErrorHandlert,"ax",%progbits
  20              		.align	2
  21              		.thumb
  22              		.thumb_func
  24              	_ZL17dummyErrorHandlert:
  25              	.LFB1:
  26              		.file 1 "/home/jonas/warwick/3dProfilometer/xpcc/src/xpcc/debug/error_report.cpp"
   1:/home/jonas/warwick/3dProfilometer/xpcc/src/xpcc/debug/error_report.cpp **** // coding: utf-8
   2:/home/jonas/warwick/3dProfilometer/xpcc/src/xpcc/debug/error_report.cpp **** // ----------------------------------------------------------------------------
   3:/home/jonas/warwick/3dProfilometer/xpcc/src/xpcc/debug/error_report.cpp **** /* Copyright (c) 2009, Roboterclub Aachen e.V.
   4:/home/jonas/warwick/3dProfilometer/xpcc/src/xpcc/debug/error_report.cpp ****  * All rights reserved.
   5:/home/jonas/warwick/3dProfilometer/xpcc/src/xpcc/debug/error_report.cpp ****  *
   6:/home/jonas/warwick/3dProfilometer/xpcc/src/xpcc/debug/error_report.cpp ****  * Redistribution and use in source and binary forms, with or without
   7:/home/jonas/warwick/3dProfilometer/xpcc/src/xpcc/debug/error_report.cpp ****  * modification, are permitted provided that the following conditions are met:
   8:/home/jonas/warwick/3dProfilometer/xpcc/src/xpcc/debug/error_report.cpp ****  *
   9:/home/jonas/warwick/3dProfilometer/xpcc/src/xpcc/debug/error_report.cpp ****  *     * Redistributions of source code must retain the above copyright
  10:/home/jonas/warwick/3dProfilometer/xpcc/src/xpcc/debug/error_report.cpp ****  *       notice, this list of conditions and the following disclaimer.
  11:/home/jonas/warwick/3dProfilometer/xpcc/src/xpcc/debug/error_report.cpp ****  *     * Redistributions in binary form must reproduce the above copyright
  12:/home/jonas/warwick/3dProfilometer/xpcc/src/xpcc/debug/error_report.cpp ****  *       notice, this list of conditions and the following disclaimer in the
  13:/home/jonas/warwick/3dProfilometer/xpcc/src/xpcc/debug/error_report.cpp ****  *       documentation and/or other materials provided with the distribution.
  14:/home/jonas/warwick/3dProfilometer/xpcc/src/xpcc/debug/error_report.cpp ****  *     * Neither the name of the Roboterclub Aachen e.V. nor the
  15:/home/jonas/warwick/3dProfilometer/xpcc/src/xpcc/debug/error_report.cpp ****  *       names of its contributors may be used to endorse or promote products
  16:/home/jonas/warwick/3dProfilometer/xpcc/src/xpcc/debug/error_report.cpp ****  *       derived from this software without specific prior written permission.
  17:/home/jonas/warwick/3dProfilometer/xpcc/src/xpcc/debug/error_report.cpp ****  *
  18:/home/jonas/warwick/3dProfilometer/xpcc/src/xpcc/debug/error_report.cpp ****  * THIS SOFTWARE IS PROVIDED BY ROBOTERCLUB AACHEN E.V. ''AS IS'' AND ANY
  19:/home/jonas/warwick/3dProfilometer/xpcc/src/xpcc/debug/error_report.cpp ****  * EXPRESS OR IMPLIED WARRANTIES, INCLUDING, BUT NOT LIMITED TO, THE IMPLIED
  20:/home/jonas/warwick/3dProfilometer/xpcc/src/xpcc/debug/error_report.cpp ****  * WARRANTIES OF MERCHANTABILITY AND FITNESS FOR A PARTICULAR PURPOSE ARE
  21:/home/jonas/warwick/3dProfilometer/xpcc/src/xpcc/debug/error_report.cpp ****  * DISCLAIMED. IN NO EVENT SHALL ROBOTERCLUB AACHEN E.V. BE LIABLE FOR ANY
  22:/home/jonas/warwick/3dProfilometer/xpcc/src/xpcc/debug/error_report.cpp ****  * DIRECT, INDIRECT, INCIDENTAL, SPECIAL, EXEMPLARY, OR CONSEQUENTIAL DAMAGES
  23:/home/jonas/warwick/3dProfilometer/xpcc/src/xpcc/debug/error_report.cpp ****  * (INCLUDING, BUT NOT LIMITED TO, PROCUREMENT OF SUBSTITUTE GOODS OR SERVICES;
  24:/home/jonas/warwick/3dProfilometer/xpcc/src/xpcc/debug/error_report.cpp ****  * LOSS OF USE, DATA, OR PROFITS; OR BUSINESS INTERRUPTION) HOWEVER CAUSED AND
  25:/home/jonas/warwick/3dProfilometer/xpcc/src/xpcc/debug/error_report.cpp ****  * ON ANY THEORY OF LIABILITY, WHETHER IN CONTRACT, STRICT LIABILITY, OR TORT
  26:/home/jonas/warwick/3dProfilometer/xpcc/src/xpcc/debug/error_report.cpp ****  * (INCLUDING NEGLIGENCE OR OTHERWISE) ARISING IN ANY WAY OUT OF THE USE OF
  27:/home/jonas/warwick/3dProfilometer/xpcc/src/xpcc/debug/error_report.cpp ****  * THIS SOFTWARE, EVEN IF ADVISED OF THE POSSIBILITY OF SUCH DAMAGE.
  28:/home/jonas/warwick/3dProfilometer/xpcc/src/xpcc/debug/error_report.cpp ****  */
  29:/home/jonas/warwick/3dProfilometer/xpcc/src/xpcc/debug/error_report.cpp **** // ----------------------------------------------------------------------------
  30:/home/jonas/warwick/3dProfilometer/xpcc/src/xpcc/debug/error_report.cpp **** 
  31:/home/jonas/warwick/3dProfilometer/xpcc/src/xpcc/debug/error_report.cpp **** #include "error_report.hpp"
  32:/home/jonas/warwick/3dProfilometer/xpcc/src/xpcc/debug/error_report.cpp **** 
  33:/home/jonas/warwick/3dProfilometer/xpcc/src/xpcc/debug/error_report.cpp **** static void
  34:/home/jonas/warwick/3dProfilometer/xpcc/src/xpcc/debug/error_report.cpp **** dummyErrorHandler(uint16_t)
  35:/home/jonas/warwick/3dProfilometer/xpcc/src/xpcc/debug/error_report.cpp **** {
  27              		.loc 1 35 0
  28              		.cfi_startproc
  29              		@ args = 0, pretend = 0, frame = 0
  30              		@ frame_needed = 0, uses_anonymous_args = 0
  31              		@ link register save eliminated.
  32 0000 7047     		bx	lr
  33              		.cfi_endproc
  34              	.LFE1:
  36 0002 00BF     		.section	.text._ZN4xpcc11ErrorReport6attachEPFvtE,"ax",%progbits
  37              		.align	2
  38              		.global	_ZN4xpcc11ErrorReport6attachEPFvtE
  39              		.thumb
  40              		.thumb_func
  42              	_ZN4xpcc11ErrorReport6attachEPFvtE:
  43              	.LFB2:
  36:/home/jonas/warwick/3dProfilometer/xpcc/src/xpcc/debug/error_report.cpp **** }
  37:/home/jonas/warwick/3dProfilometer/xpcc/src/xpcc/debug/error_report.cpp **** 
  38:/home/jonas/warwick/3dProfilometer/xpcc/src/xpcc/debug/error_report.cpp **** // ----------------------------------------------------------------------------
  39:/home/jonas/warwick/3dProfilometer/xpcc/src/xpcc/debug/error_report.cpp **** xpcc::ErrorReport::Handler xpcc::ErrorReport::globalErrorHandler = &dummyErrorHandler;
  40:/home/jonas/warwick/3dProfilometer/xpcc/src/xpcc/debug/error_report.cpp **** 
  41:/home/jonas/warwick/3dProfilometer/xpcc/src/xpcc/debug/error_report.cpp **** // ----------------------------------------------------------------------------
  42:/home/jonas/warwick/3dProfilometer/xpcc/src/xpcc/debug/error_report.cpp **** void
  43:/home/jonas/warwick/3dProfilometer/xpcc/src/xpcc/debug/error_report.cpp **** xpcc::ErrorReport::attach(Handler handler)
  44:/home/jonas/warwick/3dProfilometer/xpcc/src/xpcc/debug/error_report.cpp **** {
  44              		.loc 1 44 0
  45              		.cfi_startproc
  46              		@ args = 0, pretend = 0, frame = 0
  47              		@ frame_needed = 0, uses_anonymous_args = 0
  48              		@ link register save eliminated.
  49              	.LVL0:
  45:/home/jonas/warwick/3dProfilometer/xpcc/src/xpcc/debug/error_report.cpp **** 	globalErrorHandler = handler;
  50              		.loc 1 45 0
  51 0000 014B     		ldr	r3, .L3
  52 0002 1860     		str	r0, [r3, #0]
  53 0004 7047     		bx	lr
  54              	.L4:
  55 0006 00BF     		.align	2
  56              	.L3:
  57 0008 00000000 		.word	.LANCHOR0
  58              		.cfi_endproc
  59              	.LFE2:
  61              		.section	.text._ZN4xpcc11ErrorReport6detachEv,"ax",%progbits
  62              		.align	2
  63              		.global	_ZN4xpcc11ErrorReport6detachEv
  64              		.thumb
  65              		.thumb_func
  67              	_ZN4xpcc11ErrorReport6detachEv:
  68              	.LFB3:
  46:/home/jonas/warwick/3dProfilometer/xpcc/src/xpcc/debug/error_report.cpp **** }
  47:/home/jonas/warwick/3dProfilometer/xpcc/src/xpcc/debug/error_report.cpp **** 
  48:/home/jonas/warwick/3dProfilometer/xpcc/src/xpcc/debug/error_report.cpp **** void
  49:/home/jonas/warwick/3dProfilometer/xpcc/src/xpcc/debug/error_report.cpp **** xpcc::ErrorReport::detach()
  50:/home/jonas/warwick/3dProfilometer/xpcc/src/xpcc/debug/error_report.cpp **** {
  69              		.loc 1 50 0
  70              		.cfi_startproc
  71              		@ args = 0, pretend = 0, frame = 0
  72              		@ frame_needed = 0, uses_anonymous_args = 0
  73              		@ link register save eliminated.
  51:/home/jonas/warwick/3dProfilometer/xpcc/src/xpcc/debug/error_report.cpp **** 	globalErrorHandler = &dummyErrorHandler;
  74              		.loc 1 51 0
  75 0000 014A     		ldr	r2, .L6
  76 0002 024B     		ldr	r3, .L6+4
  77 0004 1A60     		str	r2, [r3, #0]
  78 0006 7047     		bx	lr
  79              	.L7:
  80              		.align	2
  81              	.L6:
  82 0008 00000000 		.word	_ZL17dummyErrorHandlert
  83 000c 00000000 		.word	.LANCHOR0
  84              		.cfi_endproc
  85              	.LFE3:
  87              		.global	_ZN4xpcc11ErrorReport18globalErrorHandlerE
  88              		.section	.data._ZN4xpcc11ErrorReport18globalErrorHandlerE,"aw",%progbits
  89              		.align	2
  90              		.set	.LANCHOR0,. + 0
  93              	_ZN4xpcc11ErrorReport18globalErrorHandlerE:
  94 0000 00000000 		.word	_ZL17dummyErrorHandlert
  95              		.text
  96              	.Letext0:
  97              		.file 2 "/opt/arm-2012.09/bin/../lib/gcc/arm-none-eabi/4.7.2/../../../../arm-none-eabi/include/std
  98              		.file 3 "/home/jonas/warwick/3dProfilometer/xpcc/src/xpcc/debug/error_report.hpp"