   1              		.syntax unified
   2              		.cpu cortex-m4
   3              		.eabi_attribute 27, 3
   4              		.fpu fpv4-sp-d16
   5              		.eabi_attribute 20, 1
   6              		.eabi_attribute 21, 1
   7              		.eabi_attribute 23, 3
   8              		.eabi_attribute 24, 1
   9              		.eabi_attribute 25, 1
  10              		.eabi_attribute 26, 1
  11              		.eabi_attribute 30, 2
  12              		.eabi_attribute 34, 1
  13              		.eabi_attribute 18, 4
  14              		.thumb
  15              		.file	"i2c_master_2.cpp"
  16              		.text
  17              	.Ltext0:
  18              		.cfi_sections	.debug_frame
  19              		.section	.text.I2C2_EV_IRQHandler,"ax",%progbits
  20              		.align	2
  21              		.global	I2C2_EV_IRQHandler
  22              		.thumb
  23              		.thumb_func
  25              	I2C2_EV_IRQHandler:
  26              	.LFB211:
  27              		.file 1 "/home/jonas/warwick/3dProfilometer/xpcc/src/xpcc/architecture/platform/cortex_m3/stm32/i2
   1:/home/jonas/warwick/3dProfilometer/xpcc/src/xpcc/architecture/platform/cortex_m3/stm32/i2c/i2c_master_2.cpp **** // coding: utf-8
   2:/home/jonas/warwick/3dProfilometer/xpcc/src/xpcc/architecture/platform/cortex_m3/stm32/i2c/i2c_master_2.cpp **** // ----------------------------------------------------------------------------
   3:/home/jonas/warwick/3dProfilometer/xpcc/src/xpcc/architecture/platform/cortex_m3/stm32/i2c/i2c_master_2.cpp **** /* Copyright (c) 2011, Roboterclub Aachen e.V.
   4:/home/jonas/warwick/3dProfilometer/xpcc/src/xpcc/architecture/platform/cortex_m3/stm32/i2c/i2c_master_2.cpp ****  * All rights reserved.
   5:/home/jonas/warwick/3dProfilometer/xpcc/src/xpcc/architecture/platform/cortex_m3/stm32/i2c/i2c_master_2.cpp ****  *
   6:/home/jonas/warwick/3dProfilometer/xpcc/src/xpcc/architecture/platform/cortex_m3/stm32/i2c/i2c_master_2.cpp ****  * Redistribution and use in source and binary forms, with or without
   7:/home/jonas/warwick/3dProfilometer/xpcc/src/xpcc/architecture/platform/cortex_m3/stm32/i2c/i2c_master_2.cpp ****  * modification, are permitted provided that the following conditions are met:
   8:/home/jonas/warwick/3dProfilometer/xpcc/src/xpcc/architecture/platform/cortex_m3/stm32/i2c/i2c_master_2.cpp ****  *
   9:/home/jonas/warwick/3dProfilometer/xpcc/src/xpcc/architecture/platform/cortex_m3/stm32/i2c/i2c_master_2.cpp ****  *     * Redistributions of source code must retain the above copyright
  10:/home/jonas/warwick/3dProfilometer/xpcc/src/xpcc/architecture/platform/cortex_m3/stm32/i2c/i2c_master_2.cpp ****  *       notice, this list of conditions and the following disclaimer.
  11:/home/jonas/warwick/3dProfilometer/xpcc/src/xpcc/architecture/platform/cortex_m3/stm32/i2c/i2c_master_2.cpp ****  *     * Redistributions in binary form must reproduce the above copyright
  12:/home/jonas/warwick/3dProfilometer/xpcc/src/xpcc/architecture/platform/cortex_m3/stm32/i2c/i2c_master_2.cpp ****  *       notice, this list of conditions and the following disclaimer in the
  13:/home/jonas/warwick/3dProfilometer/xpcc/src/xpcc/architecture/platform/cortex_m3/stm32/i2c/i2c_master_2.cpp ****  *       documentation and/or other materials provided with the distribution.
  14:/home/jonas/warwick/3dProfilometer/xpcc/src/xpcc/architecture/platform/cortex_m3/stm32/i2c/i2c_master_2.cpp ****  *     * Neither the name of the Roboterclub Aachen e.V. nor the
  15:/home/jonas/warwick/3dProfilometer/xpcc/src/xpcc/architecture/platform/cortex_m3/stm32/i2c/i2c_master_2.cpp ****  *       names of its contributors may be used to endorse or promote products
  16:/home/jonas/warwick/3dProfilometer/xpcc/src/xpcc/architecture/platform/cortex_m3/stm32/i2c/i2c_master_2.cpp ****  *       derived from this software without specific prior written permission.
  17:/home/jonas/warwick/3dProfilometer/xpcc/src/xpcc/architecture/platform/cortex_m3/stm32/i2c/i2c_master_2.cpp ****  *
  18:/home/jonas/warwick/3dProfilometer/xpcc/src/xpcc/architecture/platform/cortex_m3/stm32/i2c/i2c_master_2.cpp ****  * THIS SOFTWARE IS PROVIDED BY ROBOTERCLUB AACHEN E.V. ''AS IS'' AND ANY
  19:/home/jonas/warwick/3dProfilometer/xpcc/src/xpcc/architecture/platform/cortex_m3/stm32/i2c/i2c_master_2.cpp ****  * EXPRESS OR IMPLIED WARRANTIES, INCLUDING, BUT NOT LIMITED TO, THE IMPLIED
  20:/home/jonas/warwick/3dProfilometer/xpcc/src/xpcc/architecture/platform/cortex_m3/stm32/i2c/i2c_master_2.cpp ****  * WARRANTIES OF MERCHANTABILITY AND FITNESS FOR A PARTICULAR PURPOSE ARE
  21:/home/jonas/warwick/3dProfilometer/xpcc/src/xpcc/architecture/platform/cortex_m3/stm32/i2c/i2c_master_2.cpp ****  * DISCLAIMED. IN NO EVENT SHALL ROBOTERCLUB AACHEN E.V. BE LIABLE FOR ANY
  22:/home/jonas/warwick/3dProfilometer/xpcc/src/xpcc/architecture/platform/cortex_m3/stm32/i2c/i2c_master_2.cpp ****  * DIRECT, INDIRECT, INCIDENTAL, SPECIAL, EXEMPLARY, OR CONSEQUENTIAL DAMAGES
  23:/home/jonas/warwick/3dProfilometer/xpcc/src/xpcc/architecture/platform/cortex_m3/stm32/i2c/i2c_master_2.cpp ****  * (INCLUDING, BUT NOT LIMITED TO, PROCUREMENT OF SUBSTITUTE GOODS OR SERVICES;
  24:/home/jonas/warwick/3dProfilometer/xpcc/src/xpcc/architecture/platform/cortex_m3/stm32/i2c/i2c_master_2.cpp ****  * LOSS OF USE, DATA, OR PROFITS; OR BUSINESS INTERRUPTION) HOWEVER CAUSED AND
  25:/home/jonas/warwick/3dProfilometer/xpcc/src/xpcc/architecture/platform/cortex_m3/stm32/i2c/i2c_master_2.cpp ****  * ON ANY THEORY OF LIABILITY, WHETHER IN CONTRACT, STRICT LIABILITY, OR TORT
  26:/home/jonas/warwick/3dProfilometer/xpcc/src/xpcc/architecture/platform/cortex_m3/stm32/i2c/i2c_master_2.cpp ****  * (INCLUDING NEGLIGENCE OR OTHERWISE) ARISING IN ANY WAY OUT OF THE USE OF
  27:/home/jonas/warwick/3dProfilometer/xpcc/src/xpcc/architecture/platform/cortex_m3/stm32/i2c/i2c_master_2.cpp ****  * THIS SOFTWARE, EVEN IF ADVISED OF THE POSSIBILITY OF SUCH DAMAGE.
  28:/home/jonas/warwick/3dProfilometer/xpcc/src/xpcc/architecture/platform/cortex_m3/stm32/i2c/i2c_master_2.cpp ****  */
  29:/home/jonas/warwick/3dProfilometer/xpcc/src/xpcc/architecture/platform/cortex_m3/stm32/i2c/i2c_master_2.cpp **** // ----------------------------------------------------------------------------
  30:/home/jonas/warwick/3dProfilometer/xpcc/src/xpcc/architecture/platform/cortex_m3/stm32/i2c/i2c_master_2.cpp **** /*
  31:/home/jonas/warwick/3dProfilometer/xpcc/src/xpcc/architecture/platform/cortex_m3/stm32/i2c/i2c_master_2.cpp ****  * WARNING: This file is generated automatically, do not edit!
  32:/home/jonas/warwick/3dProfilometer/xpcc/src/xpcc/architecture/platform/cortex_m3/stm32/i2c/i2c_master_2.cpp ****  * Please modify the corresponding *.in file instead and rebuild this file. 
  33:/home/jonas/warwick/3dProfilometer/xpcc/src/xpcc/architecture/platform/cortex_m3/stm32/i2c/i2c_master_2.cpp ****  */
  34:/home/jonas/warwick/3dProfilometer/xpcc/src/xpcc/architecture/platform/cortex_m3/stm32/i2c/i2c_master_2.cpp **** // ----------------------------------------------------------------------------
  35:/home/jonas/warwick/3dProfilometer/xpcc/src/xpcc/architecture/platform/cortex_m3/stm32/i2c/i2c_master_2.cpp **** 
  36:/home/jonas/warwick/3dProfilometer/xpcc/src/xpcc/architecture/platform/cortex_m3/stm32/i2c/i2c_master_2.cpp **** #include <xpcc_config.hpp>
  37:/home/jonas/warwick/3dProfilometer/xpcc/src/xpcc/architecture/platform/cortex_m3/stm32/i2c/i2c_master_2.cpp **** 
  38:/home/jonas/warwick/3dProfilometer/xpcc/src/xpcc/architecture/platform/cortex_m3/stm32/i2c/i2c_master_2.cpp **** /*
  39:/home/jonas/warwick/3dProfilometer/xpcc/src/xpcc/architecture/platform/cortex_m3/stm32/i2c/i2c_master_2.cpp ****  * This driver was not so straight forward to implement, because the official
  40:/home/jonas/warwick/3dProfilometer/xpcc/src/xpcc/architecture/platform/cortex_m3/stm32/i2c/i2c_master_2.cpp ****  * documentation by ST is not so clear about the reading operation.
  41:/home/jonas/warwick/3dProfilometer/xpcc/src/xpcc/architecture/platform/cortex_m3/stm32/i2c/i2c_master_2.cpp ****  * So here is the easier to understand version (# = wait for next interrupt).
  42:/home/jonas/warwick/3dProfilometer/xpcc/src/xpcc/architecture/platform/cortex_m3/stm32/i2c/i2c_master_2.cpp ****  *
  43:/home/jonas/warwick/3dProfilometer/xpcc/src/xpcc/architecture/platform/cortex_m3/stm32/i2c/i2c_master_2.cpp ****  * Writing:
  44:/home/jonas/warwick/3dProfilometer/xpcc/src/xpcc/architecture/platform/cortex_m3/stm32/i2c/i2c_master_2.cpp ****  * --------
  45:/home/jonas/warwick/3dProfilometer/xpcc/src/xpcc/architecture/platform/cortex_m3/stm32/i2c/i2c_master_2.cpp ****  *	- set start bit
  46:/home/jonas/warwick/3dProfilometer/xpcc/src/xpcc/architecture/platform/cortex_m3/stm32/i2c/i2c_master_2.cpp ****  *	#
  47:/home/jonas/warwick/3dProfilometer/xpcc/src/xpcc/architecture/platform/cortex_m3/stm32/i2c/i2c_master_2.cpp ****  *	- check SB bit
  48:/home/jonas/warwick/3dProfilometer/xpcc/src/xpcc/architecture/platform/cortex_m3/stm32/i2c/i2c_master_2.cpp ****  *	- write address
  49:/home/jonas/warwick/3dProfilometer/xpcc/src/xpcc/architecture/platform/cortex_m3/stm32/i2c/i2c_master_2.cpp ****  *	#
  50:/home/jonas/warwick/3dProfilometer/xpcc/src/xpcc/architecture/platform/cortex_m3/stm32/i2c/i2c_master_2.cpp ****  *	- check ADDR bit
  51:/home/jonas/warwick/3dProfilometer/xpcc/src/xpcc/architecture/platform/cortex_m3/stm32/i2c/i2c_master_2.cpp ****  *	- clear ADDR bit
  52:/home/jonas/warwick/3dProfilometer/xpcc/src/xpcc/architecture/platform/cortex_m3/stm32/i2c/i2c_master_2.cpp ****  *	- if no bytes are to be written, check for next operation immidiately
  53:/home/jonas/warwick/3dProfilometer/xpcc/src/xpcc/architecture/platform/cortex_m3/stm32/i2c/i2c_master_2.cpp ****  *	#
  54:/home/jonas/warwick/3dProfilometer/xpcc/src/xpcc/architecture/platform/cortex_m3/stm32/i2c/i2c_master_2.cpp ****  *	- check TXE bit
  55:/home/jonas/warwick/3dProfilometer/xpcc/src/xpcc/architecture/platform/cortex_m3/stm32/i2c/i2c_master_2.cpp ****  *	- write data
  56:/home/jonas/warwick/3dProfilometer/xpcc/src/xpcc/architecture/platform/cortex_m3/stm32/i2c/i2c_master_2.cpp ****  *	- on write of last bytes, disable Buffer interrupt, and wait for BTF interrupt
  57:/home/jonas/warwick/3dProfilometer/xpcc/src/xpcc/architecture/platform/cortex_m3/stm32/i2c/i2c_master_2.cpp ****  *	#
  58:/home/jonas/warwick/3dProfilometer/xpcc/src/xpcc/architecture/platform/cortex_m3/stm32/i2c/i2c_master_2.cpp ****  *	- check BTF bit
  59:/home/jonas/warwick/3dProfilometer/xpcc/src/xpcc/architecture/platform/cortex_m3/stm32/i2c/i2c_master_2.cpp ****  *	- if no bytes left, check for next operation
  60:/home/jonas/warwick/3dProfilometer/xpcc/src/xpcc/architecture/platform/cortex_m3/stm32/i2c/i2c_master_2.cpp ****  *
  61:/home/jonas/warwick/3dProfilometer/xpcc/src/xpcc/architecture/platform/cortex_m3/stm32/i2c/i2c_master_2.cpp ****  * It if important to note, that we wait for the last byte transfer to complete
  62:/home/jonas/warwick/3dProfilometer/xpcc/src/xpcc/architecture/platform/cortex_m3/stm32/i2c/i2c_master_2.cpp ****  * before checking the next operation.
  63:/home/jonas/warwick/3dProfilometer/xpcc/src/xpcc/architecture/platform/cortex_m3/stm32/i2c/i2c_master_2.cpp ****  *
  64:/home/jonas/warwick/3dProfilometer/xpcc/src/xpcc/architecture/platform/cortex_m3/stm32/i2c/i2c_master_2.cpp ****  *
  65:/home/jonas/warwick/3dProfilometer/xpcc/src/xpcc/architecture/platform/cortex_m3/stm32/i2c/i2c_master_2.cpp ****  * Reading is a lot more complicated. In master read mode, the controller can
  66:/home/jonas/warwick/3dProfilometer/xpcc/src/xpcc/architecture/platform/cortex_m3/stm32/i2c/i2c_master_2.cpp ****  * stretch the SCL line low, while there is new received data in the registers.
  67:/home/jonas/warwick/3dProfilometer/xpcc/src/xpcc/architecture/platform/cortex_m3/stm32/i2c/i2c_master_2.cpp ****  * 
  68:/home/jonas/warwick/3dProfilometer/xpcc/src/xpcc/architecture/platform/cortex_m3/stm32/i2c/i2c_master_2.cpp ****  * The data and the shift register together hold two bytes, so we have to send
  69:/home/jonas/warwick/3dProfilometer/xpcc/src/xpcc/architecture/platform/cortex_m3/stm32/i2c/i2c_master_2.cpp ****  * NACK and the STOP condition two bytes in advance and then read both bytes!!!
  70:/home/jonas/warwick/3dProfilometer/xpcc/src/xpcc/architecture/platform/cortex_m3/stm32/i2c/i2c_master_2.cpp ****  *
  71:/home/jonas/warwick/3dProfilometer/xpcc/src/xpcc/architecture/platform/cortex_m3/stm32/i2c/i2c_master_2.cpp ****  * 1-byte read:
  72:/home/jonas/warwick/3dProfilometer/xpcc/src/xpcc/architecture/platform/cortex_m3/stm32/i2c/i2c_master_2.cpp ****  * ------------
  73:/home/jonas/warwick/3dProfilometer/xpcc/src/xpcc/architecture/platform/cortex_m3/stm32/i2c/i2c_master_2.cpp ****  *	- set start bit (RESTART!)
  74:/home/jonas/warwick/3dProfilometer/xpcc/src/xpcc/architecture/platform/cortex_m3/stm32/i2c/i2c_master_2.cpp ****  *	#
  75:/home/jonas/warwick/3dProfilometer/xpcc/src/xpcc/architecture/platform/cortex_m3/stm32/i2c/i2c_master_2.cpp ****  *	- check SB bit
  76:/home/jonas/warwick/3dProfilometer/xpcc/src/xpcc/architecture/platform/cortex_m3/stm32/i2c/i2c_master_2.cpp ****  *	- set ACK low
  77:/home/jonas/warwick/3dProfilometer/xpcc/src/xpcc/architecture/platform/cortex_m3/stm32/i2c/i2c_master_2.cpp ****  *	- write address
  78:/home/jonas/warwick/3dProfilometer/xpcc/src/xpcc/architecture/platform/cortex_m3/stm32/i2c/i2c_master_2.cpp ****  *	#
  79:/home/jonas/warwick/3dProfilometer/xpcc/src/xpcc/architecture/platform/cortex_m3/stm32/i2c/i2c_master_2.cpp ****  *	- check ADDR bit
  80:/home/jonas/warwick/3dProfilometer/xpcc/src/xpcc/architecture/platform/cortex_m3/stm32/i2c/i2c_master_2.cpp ****  *	- clear ADDR bit
  81:/home/jonas/warwick/3dProfilometer/xpcc/src/xpcc/architecture/platform/cortex_m3/stm32/i2c/i2c_master_2.cpp ****  *	- set STOP high
  82:/home/jonas/warwick/3dProfilometer/xpcc/src/xpcc/architecture/platform/cortex_m3/stm32/i2c/i2c_master_2.cpp ****  *	- (wait until STOP low)
  83:/home/jonas/warwick/3dProfilometer/xpcc/src/xpcc/architecture/platform/cortex_m3/stm32/i2c/i2c_master_2.cpp ****  *	- read data 1
  84:/home/jonas/warwick/3dProfilometer/xpcc/src/xpcc/architecture/platform/cortex_m3/stm32/i2c/i2c_master_2.cpp ****  *	- check for next operation
  85:/home/jonas/warwick/3dProfilometer/xpcc/src/xpcc/architecture/platform/cortex_m3/stm32/i2c/i2c_master_2.cpp ****  *
  86:/home/jonas/warwick/3dProfilometer/xpcc/src/xpcc/architecture/platform/cortex_m3/stm32/i2c/i2c_master_2.cpp ****  * 2-byte read:
  87:/home/jonas/warwick/3dProfilometer/xpcc/src/xpcc/architecture/platform/cortex_m3/stm32/i2c/i2c_master_2.cpp ****  * ------------
  88:/home/jonas/warwick/3dProfilometer/xpcc/src/xpcc/architecture/platform/cortex_m3/stm32/i2c/i2c_master_2.cpp ****  *	- set start bit (RESTART!)
  89:/home/jonas/warwick/3dProfilometer/xpcc/src/xpcc/architecture/platform/cortex_m3/stm32/i2c/i2c_master_2.cpp ****  *	#
  90:/home/jonas/warwick/3dProfilometer/xpcc/src/xpcc/architecture/platform/cortex_m3/stm32/i2c/i2c_master_2.cpp ****  *	- check SB bit
  91:/home/jonas/warwick/3dProfilometer/xpcc/src/xpcc/architecture/platform/cortex_m3/stm32/i2c/i2c_master_2.cpp ****  *	- set ACK low
  92:/home/jonas/warwick/3dProfilometer/xpcc/src/xpcc/architecture/platform/cortex_m3/stm32/i2c/i2c_master_2.cpp ****  *	- set POS high (must be used ONLY in two byte transfers, clear it afterwards!)
  93:/home/jonas/warwick/3dProfilometer/xpcc/src/xpcc/architecture/platform/cortex_m3/stm32/i2c/i2c_master_2.cpp ****  *	- write address
  94:/home/jonas/warwick/3dProfilometer/xpcc/src/xpcc/architecture/platform/cortex_m3/stm32/i2c/i2c_master_2.cpp ****  *	#
  95:/home/jonas/warwick/3dProfilometer/xpcc/src/xpcc/architecture/platform/cortex_m3/stm32/i2c/i2c_master_2.cpp ****  *	- check ADDR bit
  96:/home/jonas/warwick/3dProfilometer/xpcc/src/xpcc/architecture/platform/cortex_m3/stm32/i2c/i2c_master_2.cpp ****  *	- clear ADDR bit
  97:/home/jonas/warwick/3dProfilometer/xpcc/src/xpcc/architecture/platform/cortex_m3/stm32/i2c/i2c_master_2.cpp ****  *	#
  98:/home/jonas/warwick/3dProfilometer/xpcc/src/xpcc/architecture/platform/cortex_m3/stm32/i2c/i2c_master_2.cpp ****  *	- check BTF bit
  99:/home/jonas/warwick/3dProfilometer/xpcc/src/xpcc/architecture/platform/cortex_m3/stm32/i2c/i2c_master_2.cpp ****  *	- set STOP high
 100:/home/jonas/warwick/3dProfilometer/xpcc/src/xpcc/architecture/platform/cortex_m3/stm32/i2c/i2c_master_2.cpp ****  *	- read data 1
 101:/home/jonas/warwick/3dProfilometer/xpcc/src/xpcc/architecture/platform/cortex_m3/stm32/i2c/i2c_master_2.cpp ****  *	- (wait until STOP low)
 102:/home/jonas/warwick/3dProfilometer/xpcc/src/xpcc/architecture/platform/cortex_m3/stm32/i2c/i2c_master_2.cpp ****  *	- read data 2
 103:/home/jonas/warwick/3dProfilometer/xpcc/src/xpcc/architecture/platform/cortex_m3/stm32/i2c/i2c_master_2.cpp ****  *	- check for next operation
 104:/home/jonas/warwick/3dProfilometer/xpcc/src/xpcc/architecture/platform/cortex_m3/stm32/i2c/i2c_master_2.cpp ****  *
 105:/home/jonas/warwick/3dProfilometer/xpcc/src/xpcc/architecture/platform/cortex_m3/stm32/i2c/i2c_master_2.cpp ****  * 3-byte read:
 106:/home/jonas/warwick/3dProfilometer/xpcc/src/xpcc/architecture/platform/cortex_m3/stm32/i2c/i2c_master_2.cpp ****  * ------------
 107:/home/jonas/warwick/3dProfilometer/xpcc/src/xpcc/architecture/platform/cortex_m3/stm32/i2c/i2c_master_2.cpp ****  *	- set start bit (RESTART!)
 108:/home/jonas/warwick/3dProfilometer/xpcc/src/xpcc/architecture/platform/cortex_m3/stm32/i2c/i2c_master_2.cpp ****  *	#
 109:/home/jonas/warwick/3dProfilometer/xpcc/src/xpcc/architecture/platform/cortex_m3/stm32/i2c/i2c_master_2.cpp ****  *	- check SB bit
 110:/home/jonas/warwick/3dProfilometer/xpcc/src/xpcc/architecture/platform/cortex_m3/stm32/i2c/i2c_master_2.cpp ****  *	- write address
 111:/home/jonas/warwick/3dProfilometer/xpcc/src/xpcc/architecture/platform/cortex_m3/stm32/i2c/i2c_master_2.cpp ****  *	#
 112:/home/jonas/warwick/3dProfilometer/xpcc/src/xpcc/architecture/platform/cortex_m3/stm32/i2c/i2c_master_2.cpp ****  *	- check ADDR bit
 113:/home/jonas/warwick/3dProfilometer/xpcc/src/xpcc/architecture/platform/cortex_m3/stm32/i2c/i2c_master_2.cpp ****  *	- clear ADDR bit
 114:/home/jonas/warwick/3dProfilometer/xpcc/src/xpcc/architecture/platform/cortex_m3/stm32/i2c/i2c_master_2.cpp ****  *	#
 115:/home/jonas/warwick/3dProfilometer/xpcc/src/xpcc/architecture/platform/cortex_m3/stm32/i2c/i2c_master_2.cpp ****  *	- check BTF bit
 116:/home/jonas/warwick/3dProfilometer/xpcc/src/xpcc/architecture/platform/cortex_m3/stm32/i2c/i2c_master_2.cpp ****  *	- set ACK LOW
 117:/home/jonas/warwick/3dProfilometer/xpcc/src/xpcc/architecture/platform/cortex_m3/stm32/i2c/i2c_master_2.cpp ****  *	- read data 1
 118:/home/jonas/warwick/3dProfilometer/xpcc/src/xpcc/architecture/platform/cortex_m3/stm32/i2c/i2c_master_2.cpp ****  *	#
 119:/home/jonas/warwick/3dProfilometer/xpcc/src/xpcc/architecture/platform/cortex_m3/stm32/i2c/i2c_master_2.cpp ****  *	- check BTF bit
 120:/home/jonas/warwick/3dProfilometer/xpcc/src/xpcc/architecture/platform/cortex_m3/stm32/i2c/i2c_master_2.cpp ****  *	- set STOP high
 121:/home/jonas/warwick/3dProfilometer/xpcc/src/xpcc/architecture/platform/cortex_m3/stm32/i2c/i2c_master_2.cpp ****  *	- read data 1
 122:/home/jonas/warwick/3dProfilometer/xpcc/src/xpcc/architecture/platform/cortex_m3/stm32/i2c/i2c_master_2.cpp ****  *	- (wait until STOP low)
 123:/home/jonas/warwick/3dProfilometer/xpcc/src/xpcc/architecture/platform/cortex_m3/stm32/i2c/i2c_master_2.cpp ****  *	- read data 2
 124:/home/jonas/warwick/3dProfilometer/xpcc/src/xpcc/architecture/platform/cortex_m3/stm32/i2c/i2c_master_2.cpp ****  *	- check for next operation
 125:/home/jonas/warwick/3dProfilometer/xpcc/src/xpcc/architecture/platform/cortex_m3/stm32/i2c/i2c_master_2.cpp ****  *
 126:/home/jonas/warwick/3dProfilometer/xpcc/src/xpcc/architecture/platform/cortex_m3/stm32/i2c/i2c_master_2.cpp ****  * N-byte read:
 127:/home/jonas/warwick/3dProfilometer/xpcc/src/xpcc/architecture/platform/cortex_m3/stm32/i2c/i2c_master_2.cpp ****  * -------------
 128:/home/jonas/warwick/3dProfilometer/xpcc/src/xpcc/architecture/platform/cortex_m3/stm32/i2c/i2c_master_2.cpp ****  *	- set start bit (RESTART!)
 129:/home/jonas/warwick/3dProfilometer/xpcc/src/xpcc/architecture/platform/cortex_m3/stm32/i2c/i2c_master_2.cpp ****  *	#
 130:/home/jonas/warwick/3dProfilometer/xpcc/src/xpcc/architecture/platform/cortex_m3/stm32/i2c/i2c_master_2.cpp ****  *	- check SB bit
 131:/home/jonas/warwick/3dProfilometer/xpcc/src/xpcc/architecture/platform/cortex_m3/stm32/i2c/i2c_master_2.cpp ****  *	- write address
 132:/home/jonas/warwick/3dProfilometer/xpcc/src/xpcc/architecture/platform/cortex_m3/stm32/i2c/i2c_master_2.cpp ****  *	#
 133:/home/jonas/warwick/3dProfilometer/xpcc/src/xpcc/architecture/platform/cortex_m3/stm32/i2c/i2c_master_2.cpp ****  *	- check ADDR bit
 134:/home/jonas/warwick/3dProfilometer/xpcc/src/xpcc/architecture/platform/cortex_m3/stm32/i2c/i2c_master_2.cpp ****  *	- enable Buffer Interrupt
 135:/home/jonas/warwick/3dProfilometer/xpcc/src/xpcc/architecture/platform/cortex_m3/stm32/i2c/i2c_master_2.cpp ****  *	- clear ADDR bit
 136:/home/jonas/warwick/3dProfilometer/xpcc/src/xpcc/architecture/platform/cortex_m3/stm32/i2c/i2c_master_2.cpp ****  *	#
 137:/home/jonas/warwick/3dProfilometer/xpcc/src/xpcc/architecture/platform/cortex_m3/stm32/i2c/i2c_master_2.cpp ****  *	- check RXNE bit
 138:/home/jonas/warwick/3dProfilometer/xpcc/src/xpcc/architecture/platform/cortex_m3/stm32/i2c/i2c_master_2.cpp ****  *	- read data < N-3
 139:/home/jonas/warwick/3dProfilometer/xpcc/src/xpcc/architecture/platform/cortex_m3/stm32/i2c/i2c_master_2.cpp ****  *	#
 140:/home/jonas/warwick/3dProfilometer/xpcc/src/xpcc/architecture/platform/cortex_m3/stm32/i2c/i2c_master_2.cpp ****  *	- check RXNE bit
 141:/home/jonas/warwick/3dProfilometer/xpcc/src/xpcc/architecture/platform/cortex_m3/stm32/i2c/i2c_master_2.cpp ****  *	- read data N-3
 142:/home/jonas/warwick/3dProfilometer/xpcc/src/xpcc/architecture/platform/cortex_m3/stm32/i2c/i2c_master_2.cpp ****  *	- disable Buffer Interrupt
 143:/home/jonas/warwick/3dProfilometer/xpcc/src/xpcc/architecture/platform/cortex_m3/stm32/i2c/i2c_master_2.cpp ****  *	#
 144:/home/jonas/warwick/3dProfilometer/xpcc/src/xpcc/architecture/platform/cortex_m3/stm32/i2c/i2c_master_2.cpp ****  *	- check BTF bit
 145:/home/jonas/warwick/3dProfilometer/xpcc/src/xpcc/architecture/platform/cortex_m3/stm32/i2c/i2c_master_2.cpp ****  *	- set ACK low
 146:/home/jonas/warwick/3dProfilometer/xpcc/src/xpcc/architecture/platform/cortex_m3/stm32/i2c/i2c_master_2.cpp ****  *	- read data N-2
 147:/home/jonas/warwick/3dProfilometer/xpcc/src/xpcc/architecture/platform/cortex_m3/stm32/i2c/i2c_master_2.cpp ****  *	#
 148:/home/jonas/warwick/3dProfilometer/xpcc/src/xpcc/architecture/platform/cortex_m3/stm32/i2c/i2c_master_2.cpp ****  *	- check BTF bit
 149:/home/jonas/warwick/3dProfilometer/xpcc/src/xpcc/architecture/platform/cortex_m3/stm32/i2c/i2c_master_2.cpp ****  *	- set STOP high
 150:/home/jonas/warwick/3dProfilometer/xpcc/src/xpcc/architecture/platform/cortex_m3/stm32/i2c/i2c_master_2.cpp ****  *	- read data N-1
 151:/home/jonas/warwick/3dProfilometer/xpcc/src/xpcc/architecture/platform/cortex_m3/stm32/i2c/i2c_master_2.cpp ****  *	- (wait until STOP low)
 152:/home/jonas/warwick/3dProfilometer/xpcc/src/xpcc/architecture/platform/cortex_m3/stm32/i2c/i2c_master_2.cpp ****  *	- read data N
 153:/home/jonas/warwick/3dProfilometer/xpcc/src/xpcc/architecture/platform/cortex_m3/stm32/i2c/i2c_master_2.cpp ****  *	- check for next operation
 154:/home/jonas/warwick/3dProfilometer/xpcc/src/xpcc/architecture/platform/cortex_m3/stm32/i2c/i2c_master_2.cpp ****  *
 155:/home/jonas/warwick/3dProfilometer/xpcc/src/xpcc/architecture/platform/cortex_m3/stm32/i2c/i2c_master_2.cpp ****  * Please read the documentation of the driver before you attempt to fix this
 156:/home/jonas/warwick/3dProfilometer/xpcc/src/xpcc/architecture/platform/cortex_m3/stm32/i2c/i2c_master_2.cpp ****  * driver. I strongly recommend the use of an logic analizer or oscilloscope,
 157:/home/jonas/warwick/3dProfilometer/xpcc/src/xpcc/architecture/platform/cortex_m3/stm32/i2c/i2c_master_2.cpp ****  * to confirm the drivers behavior.
 158:/home/jonas/warwick/3dProfilometer/xpcc/src/xpcc/architecture/platform/cortex_m3/stm32/i2c/i2c_master_2.cpp ****  * The event states are labeled as 'EVn_m' in reference to the manual.
 159:/home/jonas/warwick/3dProfilometer/xpcc/src/xpcc/architecture/platform/cortex_m3/stm32/i2c/i2c_master_2.cpp ****  */
 160:/home/jonas/warwick/3dProfilometer/xpcc/src/xpcc/architecture/platform/cortex_m3/stm32/i2c/i2c_master_2.cpp **** 
 161:/home/jonas/warwick/3dProfilometer/xpcc/src/xpcc/architecture/platform/cortex_m3/stm32/i2c/i2c_master_2.cpp **** /* To debug the internal state of the driver, you can instantiate a
 162:/home/jonas/warwick/3dProfilometer/xpcc/src/xpcc/architecture/platform/cortex_m3/stm32/i2c/i2c_master_2.cpp ****  * xpcc::IOStream, which will then be used to dump state data of the operations
 163:/home/jonas/warwick/3dProfilometer/xpcc/src/xpcc/architecture/platform/cortex_m3/stm32/i2c/i2c_master_2.cpp ****  * via the serial port.
 164:/home/jonas/warwick/3dProfilometer/xpcc/src/xpcc/architecture/platform/cortex_m3/stm32/i2c/i2c_master_2.cpp ****  * Be advised, that a typical I2C read/write operation can take 10 to 100 longer
 165:/home/jonas/warwick/3dProfilometer/xpcc/src/xpcc/architecture/platform/cortex_m3/stm32/i2c/i2c_master_2.cpp ****  * because the strings have to be copied during the interrupt!
 166:/home/jonas/warwick/3dProfilometer/xpcc/src/xpcc/architecture/platform/cortex_m3/stm32/i2c/i2c_master_2.cpp ****  *
 167:/home/jonas/warwick/3dProfilometer/xpcc/src/xpcc/architecture/platform/cortex_m3/stm32/i2c/i2c_master_2.cpp ****  * You can enable serial debugging with this define.
 168:/home/jonas/warwick/3dProfilometer/xpcc/src/xpcc/architecture/platform/cortex_m3/stm32/i2c/i2c_master_2.cpp ****  */
 169:/home/jonas/warwick/3dProfilometer/xpcc/src/xpcc/architecture/platform/cortex_m3/stm32/i2c/i2c_master_2.cpp **** #define SERIAL_DEBUGGING 0
 170:/home/jonas/warwick/3dProfilometer/xpcc/src/xpcc/architecture/platform/cortex_m3/stm32/i2c/i2c_master_2.cpp **** 
 171:/home/jonas/warwick/3dProfilometer/xpcc/src/xpcc/architecture/platform/cortex_m3/stm32/i2c/i2c_master_2.cpp **** #if SERIAL_DEBUGGING
 172:/home/jonas/warwick/3dProfilometer/xpcc/src/xpcc/architecture/platform/cortex_m3/stm32/i2c/i2c_master_2.cpp **** #	include "../uart/uart_5.hpp"
 173:/home/jonas/warwick/3dProfilometer/xpcc/src/xpcc/architecture/platform/cortex_m3/stm32/i2c/i2c_master_2.cpp **** 	typedef xpcc::stm32::BufferedUart5 DebugUart;
 174:/home/jonas/warwick/3dProfilometer/xpcc/src/xpcc/architecture/platform/cortex_m3/stm32/i2c/i2c_master_2.cpp **** #	include <xpcc/io/iostream.hpp>
 175:/home/jonas/warwick/3dProfilometer/xpcc/src/xpcc/architecture/platform/cortex_m3/stm32/i2c/i2c_master_2.cpp **** 	extern xpcc::IOStream stream;
 176:/home/jonas/warwick/3dProfilometer/xpcc/src/xpcc/architecture/platform/cortex_m3/stm32/i2c/i2c_master_2.cpp **** #	define DEBUG_STREAM(x) //stream << x << "\n"
 177:/home/jonas/warwick/3dProfilometer/xpcc/src/xpcc/architecture/platform/cortex_m3/stm32/i2c/i2c_master_2.cpp **** #	define DEBUG(x) xpcc::stm32::BufferedUart5::write(x)
 178:/home/jonas/warwick/3dProfilometer/xpcc/src/xpcc/architecture/platform/cortex_m3/stm32/i2c/i2c_master_2.cpp **** #else
 179:/home/jonas/warwick/3dProfilometer/xpcc/src/xpcc/architecture/platform/cortex_m3/stm32/i2c/i2c_master_2.cpp **** #	define DEBUG_STREAM(x)
 180:/home/jonas/warwick/3dProfilometer/xpcc/src/xpcc/architecture/platform/cortex_m3/stm32/i2c/i2c_master_2.cpp **** #	define DEBUG(x)
 181:/home/jonas/warwick/3dProfilometer/xpcc/src/xpcc/architecture/platform/cortex_m3/stm32/i2c/i2c_master_2.cpp **** #endif
 182:/home/jonas/warwick/3dProfilometer/xpcc/src/xpcc/architecture/platform/cortex_m3/stm32/i2c/i2c_master_2.cpp **** 
 183:/home/jonas/warwick/3dProfilometer/xpcc/src/xpcc/architecture/platform/cortex_m3/stm32/i2c/i2c_master_2.cpp **** /*
 184:/home/jonas/warwick/3dProfilometer/xpcc/src/xpcc/architecture/platform/cortex_m3/stm32/i2c/i2c_master_2.cpp ****  * It is mildly recommended to wait for the STOP operation to finish, before
 185:/home/jonas/warwick/3dProfilometer/xpcc/src/xpcc/architecture/platform/cortex_m3/stm32/i2c/i2c_master_2.cpp ****  * reading the shift register, however since no interrupt is generated after a
 186:/home/jonas/warwick/3dProfilometer/xpcc/src/xpcc/architecture/platform/cortex_m3/stm32/i2c/i2c_master_2.cpp ****  * STOP condition, the only solution is to busy wait until the STOP bit is 
 187:/home/jonas/warwick/3dProfilometer/xpcc/src/xpcc/architecture/platform/cortex_m3/stm32/i2c/i2c_master_2.cpp ****  * cleared by hardware.
 188:/home/jonas/warwick/3dProfilometer/xpcc/src/xpcc/architecture/platform/cortex_m3/stm32/i2c/i2c_master_2.cpp ****  * Busy waiting in this interrupt is potentially dangerous and can make program
 189:/home/jonas/warwick/3dProfilometer/xpcc/src/xpcc/architecture/platform/cortex_m3/stm32/i2c/i2c_master_2.cpp ****  * behavior unpredictable and debugging very cumbersome.
 190:/home/jonas/warwick/3dProfilometer/xpcc/src/xpcc/architecture/platform/cortex_m3/stm32/i2c/i2c_master_2.cpp ****  * Therefore, this is disabled by default, you _can_ reenable it with this define.
 191:/home/jonas/warwick/3dProfilometer/xpcc/src/xpcc/architecture/platform/cortex_m3/stm32/i2c/i2c_master_2.cpp ****  */
 192:/home/jonas/warwick/3dProfilometer/xpcc/src/xpcc/architecture/platform/cortex_m3/stm32/i2c/i2c_master_2.cpp **** #define WAIT_FOR_STOP_LOW 0
 193:/home/jonas/warwick/3dProfilometer/xpcc/src/xpcc/architecture/platform/cortex_m3/stm32/i2c/i2c_master_2.cpp **** 
 194:/home/jonas/warwick/3dProfilometer/xpcc/src/xpcc/architecture/platform/cortex_m3/stm32/i2c/i2c_master_2.cpp **** #include "i2c_master_2.hpp"
 195:/home/jonas/warwick/3dProfilometer/xpcc/src/xpcc/architecture/platform/cortex_m3/stm32/i2c/i2c_master_2.cpp **** #include "../gpio.hpp"
 196:/home/jonas/warwick/3dProfilometer/xpcc/src/xpcc/architecture/platform/cortex_m3/stm32/i2c/i2c_master_2.cpp **** 
 197:/home/jonas/warwick/3dProfilometer/xpcc/src/xpcc/architecture/platform/cortex_m3/stm32/i2c/i2c_master_2.cpp **** 
 198:/home/jonas/warwick/3dProfilometer/xpcc/src/xpcc/architecture/platform/cortex_m3/stm32/i2c/i2c_master_2.cpp **** #if !defined(STM32F10X_LD)
 199:/home/jonas/warwick/3dProfilometer/xpcc/src/xpcc/architecture/platform/cortex_m3/stm32/i2c/i2c_master_2.cpp **** 
 200:/home/jonas/warwick/3dProfilometer/xpcc/src/xpcc/architecture/platform/cortex_m3/stm32/i2c/i2c_master_2.cpp **** namespace
 201:/home/jonas/warwick/3dProfilometer/xpcc/src/xpcc/architecture/platform/cortex_m3/stm32/i2c/i2c_master_2.cpp **** {
 202:/home/jonas/warwick/3dProfilometer/xpcc/src/xpcc/architecture/platform/cortex_m3/stm32/i2c/i2c_master_2.cpp **** 	GPIO__IO(SclB10, B, 10);
 203:/home/jonas/warwick/3dProfilometer/xpcc/src/xpcc/architecture/platform/cortex_m3/stm32/i2c/i2c_master_2.cpp **** 	GPIO__IO(SdaB11, B, 11);
 204:/home/jonas/warwick/3dProfilometer/xpcc/src/xpcc/architecture/platform/cortex_m3/stm32/i2c/i2c_master_2.cpp **** 	
 205:/home/jonas/warwick/3dProfilometer/xpcc/src/xpcc/architecture/platform/cortex_m3/stm32/i2c/i2c_master_2.cpp **** #if defined(STM32F2XX) || defined(STM32F4XX)
 206:/home/jonas/warwick/3dProfilometer/xpcc/src/xpcc/architecture/platform/cortex_m3/stm32/i2c/i2c_master_2.cpp **** 	GPIO__IO(SclF1, F, 1);
 207:/home/jonas/warwick/3dProfilometer/xpcc/src/xpcc/architecture/platform/cortex_m3/stm32/i2c/i2c_master_2.cpp **** 	GPIO__IO(SdaF0, F, 0);
 208:/home/jonas/warwick/3dProfilometer/xpcc/src/xpcc/architecture/platform/cortex_m3/stm32/i2c/i2c_master_2.cpp **** 	
 209:/home/jonas/warwick/3dProfilometer/xpcc/src/xpcc/architecture/platform/cortex_m3/stm32/i2c/i2c_master_2.cpp **** 	GPIO__IO(SclH4, H, 4);
 210:/home/jonas/warwick/3dProfilometer/xpcc/src/xpcc/architecture/platform/cortex_m3/stm32/i2c/i2c_master_2.cpp **** 	GPIO__IO(SdaH5, H, 5);
 211:/home/jonas/warwick/3dProfilometer/xpcc/src/xpcc/architecture/platform/cortex_m3/stm32/i2c/i2c_master_2.cpp **** #endif
 212:/home/jonas/warwick/3dProfilometer/xpcc/src/xpcc/architecture/platform/cortex_m3/stm32/i2c/i2c_master_2.cpp **** }
 213:/home/jonas/warwick/3dProfilometer/xpcc/src/xpcc/architecture/platform/cortex_m3/stm32/i2c/i2c_master_2.cpp **** 	
 214:/home/jonas/warwick/3dProfilometer/xpcc/src/xpcc/architecture/platform/cortex_m3/stm32/i2c/i2c_master_2.cpp **** namespace
 215:/home/jonas/warwick/3dProfilometer/xpcc/src/xpcc/architecture/platform/cortex_m3/stm32/i2c/i2c_master_2.cpp **** {
 216:/home/jonas/warwick/3dProfilometer/xpcc/src/xpcc/architecture/platform/cortex_m3/stm32/i2c/i2c_master_2.cpp **** 	// parameter advice
 217:/home/jonas/warwick/3dProfilometer/xpcc/src/xpcc/architecture/platform/cortex_m3/stm32/i2c/i2c_master_2.cpp **** 	static xpcc::i2c::Delegate::NextOperation nextOperation;
 218:/home/jonas/warwick/3dProfilometer/xpcc/src/xpcc/architecture/platform/cortex_m3/stm32/i2c/i2c_master_2.cpp **** 	enum CheckNextOperation
 219:/home/jonas/warwick/3dProfilometer/xpcc/src/xpcc/architecture/platform/cortex_m3/stm32/i2c/i2c_master_2.cpp **** 	{
 220:/home/jonas/warwick/3dProfilometer/xpcc/src/xpcc/architecture/platform/cortex_m3/stm32/i2c/i2c_master_2.cpp **** 		CHECK_NEXT_OPERATION_NO,
 221:/home/jonas/warwick/3dProfilometer/xpcc/src/xpcc/architecture/platform/cortex_m3/stm32/i2c/i2c_master_2.cpp **** 		CHECK_NEXT_OPERATION_NO_WAIT_FOR_BTF,
 222:/home/jonas/warwick/3dProfilometer/xpcc/src/xpcc/architecture/platform/cortex_m3/stm32/i2c/i2c_master_2.cpp **** 		CHECK_NEXT_OPERATION_YES,
 223:/home/jonas/warwick/3dProfilometer/xpcc/src/xpcc/architecture/platform/cortex_m3/stm32/i2c/i2c_master_2.cpp **** 		CHECK_NEXT_OPERATION_YES_NO_STOP_BIT,
 224:/home/jonas/warwick/3dProfilometer/xpcc/src/xpcc/architecture/platform/cortex_m3/stm32/i2c/i2c_master_2.cpp **** 		
 225:/home/jonas/warwick/3dProfilometer/xpcc/src/xpcc/architecture/platform/cortex_m3/stm32/i2c/i2c_master_2.cpp **** 	};
 226:/home/jonas/warwick/3dProfilometer/xpcc/src/xpcc/architecture/platform/cortex_m3/stm32/i2c/i2c_master_2.cpp **** 	CheckNextOperation checkNextOperation = CHECK_NEXT_OPERATION_NO;
 227:/home/jonas/warwick/3dProfilometer/xpcc/src/xpcc/architecture/platform/cortex_m3/stm32/i2c/i2c_master_2.cpp **** 	
 228:/home/jonas/warwick/3dProfilometer/xpcc/src/xpcc/architecture/platform/cortex_m3/stm32/i2c/i2c_master_2.cpp **** 	// buffer management
 229:/home/jonas/warwick/3dProfilometer/xpcc/src/xpcc/architecture/platform/cortex_m3/stm32/i2c/i2c_master_2.cpp **** 	static uint8_t *readPointer;
 230:/home/jonas/warwick/3dProfilometer/xpcc/src/xpcc/architecture/platform/cortex_m3/stm32/i2c/i2c_master_2.cpp **** 	static const uint8_t *writePointer;
 231:/home/jonas/warwick/3dProfilometer/xpcc/src/xpcc/architecture/platform/cortex_m3/stm32/i2c/i2c_master_2.cpp **** 	static std::size_t readBytesLeft = 0;
 232:/home/jonas/warwick/3dProfilometer/xpcc/src/xpcc/architecture/platform/cortex_m3/stm32/i2c/i2c_master_2.cpp **** 	static std::size_t writeBytesLeft = 0;
 233:/home/jonas/warwick/3dProfilometer/xpcc/src/xpcc/architecture/platform/cortex_m3/stm32/i2c/i2c_master_2.cpp **** 	
 234:/home/jonas/warwick/3dProfilometer/xpcc/src/xpcc/architecture/platform/cortex_m3/stm32/i2c/i2c_master_2.cpp **** 	// delegating
 235:/home/jonas/warwick/3dProfilometer/xpcc/src/xpcc/architecture/platform/cortex_m3/stm32/i2c/i2c_master_2.cpp **** 	static xpcc::i2c::Delegate *delegate = 0;
 236:/home/jonas/warwick/3dProfilometer/xpcc/src/xpcc/architecture/platform/cortex_m3/stm32/i2c/i2c_master_2.cpp **** 	static xpcc::stm32::I2cMaster2::ErrorState errorState(xpcc::stm32::I2cMaster2::NO_ERROR);
 237:/home/jonas/warwick/3dProfilometer/xpcc/src/xpcc/architecture/platform/cortex_m3/stm32/i2c/i2c_master_2.cpp **** 	
 238:/home/jonas/warwick/3dProfilometer/xpcc/src/xpcc/architecture/platform/cortex_m3/stm32/i2c/i2c_master_2.cpp **** 	static void
 239:/home/jonas/warwick/3dProfilometer/xpcc/src/xpcc/architecture/platform/cortex_m3/stm32/i2c/i2c_master_2.cpp **** 	initializeWrite(xpcc::i2c::Delegate::Writing w)
 240:/home/jonas/warwick/3dProfilometer/xpcc/src/xpcc/architecture/platform/cortex_m3/stm32/i2c/i2c_master_2.cpp **** 	{
 241:/home/jonas/warwick/3dProfilometer/xpcc/src/xpcc/architecture/platform/cortex_m3/stm32/i2c/i2c_master_2.cpp **** 		writePointer = w.buffer;
 242:/home/jonas/warwick/3dProfilometer/xpcc/src/xpcc/architecture/platform/cortex_m3/stm32/i2c/i2c_master_2.cpp **** 		writeBytesLeft = w.size;
 243:/home/jonas/warwick/3dProfilometer/xpcc/src/xpcc/architecture/platform/cortex_m3/stm32/i2c/i2c_master_2.cpp **** 		readBytesLeft = 0;
 244:/home/jonas/warwick/3dProfilometer/xpcc/src/xpcc/architecture/platform/cortex_m3/stm32/i2c/i2c_master_2.cpp **** 		nextOperation = static_cast<xpcc::i2c::Delegate::NextOperation>(w.next);
 245:/home/jonas/warwick/3dProfilometer/xpcc/src/xpcc/architecture/platform/cortex_m3/stm32/i2c/i2c_master_2.cpp **** 	}
 246:/home/jonas/warwick/3dProfilometer/xpcc/src/xpcc/architecture/platform/cortex_m3/stm32/i2c/i2c_master_2.cpp **** 	
 247:/home/jonas/warwick/3dProfilometer/xpcc/src/xpcc/architecture/platform/cortex_m3/stm32/i2c/i2c_master_2.cpp **** 	static void
 248:/home/jonas/warwick/3dProfilometer/xpcc/src/xpcc/architecture/platform/cortex_m3/stm32/i2c/i2c_master_2.cpp **** 	initializeRead(xpcc::i2c::Delegate::Reading r)
 249:/home/jonas/warwick/3dProfilometer/xpcc/src/xpcc/architecture/platform/cortex_m3/stm32/i2c/i2c_master_2.cpp **** 	{
 250:/home/jonas/warwick/3dProfilometer/xpcc/src/xpcc/architecture/platform/cortex_m3/stm32/i2c/i2c_master_2.cpp **** 		readPointer = r.buffer;
 251:/home/jonas/warwick/3dProfilometer/xpcc/src/xpcc/architecture/platform/cortex_m3/stm32/i2c/i2c_master_2.cpp **** 		readBytesLeft = r.size;
 252:/home/jonas/warwick/3dProfilometer/xpcc/src/xpcc/architecture/platform/cortex_m3/stm32/i2c/i2c_master_2.cpp **** 		writeBytesLeft = 0;
 253:/home/jonas/warwick/3dProfilometer/xpcc/src/xpcc/architecture/platform/cortex_m3/stm32/i2c/i2c_master_2.cpp **** 		nextOperation = static_cast<xpcc::i2c::Delegate::NextOperation>(r.next);
 254:/home/jonas/warwick/3dProfilometer/xpcc/src/xpcc/architecture/platform/cortex_m3/stm32/i2c/i2c_master_2.cpp **** 	}
 255:/home/jonas/warwick/3dProfilometer/xpcc/src/xpcc/architecture/platform/cortex_m3/stm32/i2c/i2c_master_2.cpp **** 	
 256:/home/jonas/warwick/3dProfilometer/xpcc/src/xpcc/architecture/platform/cortex_m3/stm32/i2c/i2c_master_2.cpp **** 	static void
 257:/home/jonas/warwick/3dProfilometer/xpcc/src/xpcc/architecture/platform/cortex_m3/stm32/i2c/i2c_master_2.cpp **** 	initializeStopAfterAddress()
 258:/home/jonas/warwick/3dProfilometer/xpcc/src/xpcc/architecture/platform/cortex_m3/stm32/i2c/i2c_master_2.cpp **** 	{
 259:/home/jonas/warwick/3dProfilometer/xpcc/src/xpcc/architecture/platform/cortex_m3/stm32/i2c/i2c_master_2.cpp **** 		writeBytesLeft = 0;
 260:/home/jonas/warwick/3dProfilometer/xpcc/src/xpcc/architecture/platform/cortex_m3/stm32/i2c/i2c_master_2.cpp **** 		readBytesLeft = 0;
 261:/home/jonas/warwick/3dProfilometer/xpcc/src/xpcc/architecture/platform/cortex_m3/stm32/i2c/i2c_master_2.cpp **** 		nextOperation = xpcc::i2c::Delegate::STOP_OP;
 262:/home/jonas/warwick/3dProfilometer/xpcc/src/xpcc/architecture/platform/cortex_m3/stm32/i2c/i2c_master_2.cpp **** 	}
 263:/home/jonas/warwick/3dProfilometer/xpcc/src/xpcc/architecture/platform/cortex_m3/stm32/i2c/i2c_master_2.cpp **** 	
 264:/home/jonas/warwick/3dProfilometer/xpcc/src/xpcc/architecture/platform/cortex_m3/stm32/i2c/i2c_master_2.cpp **** 	static void
 265:/home/jonas/warwick/3dProfilometer/xpcc/src/xpcc/architecture/platform/cortex_m3/stm32/i2c/i2c_master_2.cpp **** 	initializeRestartAfterAddress()
 266:/home/jonas/warwick/3dProfilometer/xpcc/src/xpcc/architecture/platform/cortex_m3/stm32/i2c/i2c_master_2.cpp **** 	{
 267:/home/jonas/warwick/3dProfilometer/xpcc/src/xpcc/architecture/platform/cortex_m3/stm32/i2c/i2c_master_2.cpp **** 		writeBytesLeft = 0;
 268:/home/jonas/warwick/3dProfilometer/xpcc/src/xpcc/architecture/platform/cortex_m3/stm32/i2c/i2c_master_2.cpp **** 		readBytesLeft = 0;
 269:/home/jonas/warwick/3dProfilometer/xpcc/src/xpcc/architecture/platform/cortex_m3/stm32/i2c/i2c_master_2.cpp **** 		nextOperation = xpcc::i2c::Delegate::RESTART_OP;
 270:/home/jonas/warwick/3dProfilometer/xpcc/src/xpcc/architecture/platform/cortex_m3/stm32/i2c/i2c_master_2.cpp **** 	}
 271:/home/jonas/warwick/3dProfilometer/xpcc/src/xpcc/architecture/platform/cortex_m3/stm32/i2c/i2c_master_2.cpp **** 	
 272:/home/jonas/warwick/3dProfilometer/xpcc/src/xpcc/architecture/platform/cortex_m3/stm32/i2c/i2c_master_2.cpp **** 	void
 273:/home/jonas/warwick/3dProfilometer/xpcc/src/xpcc/architecture/platform/cortex_m3/stm32/i2c/i2c_master_2.cpp **** 	callStarting()
 274:/home/jonas/warwick/3dProfilometer/xpcc/src/xpcc/architecture/platform/cortex_m3/stm32/i2c/i2c_master_2.cpp **** 	{
 275:/home/jonas/warwick/3dProfilometer/xpcc/src/xpcc/architecture/platform/cortex_m3/stm32/i2c/i2c_master_2.cpp **** 		DEBUG_STREAM("callStarting");
 276:/home/jonas/warwick/3dProfilometer/xpcc/src/xpcc/architecture/platform/cortex_m3/stm32/i2c/i2c_master_2.cpp **** 		
 277:/home/jonas/warwick/3dProfilometer/xpcc/src/xpcc/architecture/platform/cortex_m3/stm32/i2c/i2c_master_2.cpp **** 		I2C2->CR1 &= ~I2C_CR1_POS;
 278:/home/jonas/warwick/3dProfilometer/xpcc/src/xpcc/architecture/platform/cortex_m3/stm32/i2c/i2c_master_2.cpp **** 		I2C2->SR1 = 0;
 279:/home/jonas/warwick/3dProfilometer/xpcc/src/xpcc/architecture/platform/cortex_m3/stm32/i2c/i2c_master_2.cpp **** 		I2C2->SR2 = 0;
 280:/home/jonas/warwick/3dProfilometer/xpcc/src/xpcc/architecture/platform/cortex_m3/stm32/i2c/i2c_master_2.cpp **** 		
 281:/home/jonas/warwick/3dProfilometer/xpcc/src/xpcc/architecture/platform/cortex_m3/stm32/i2c/i2c_master_2.cpp **** 		// generate startcondition
 282:/home/jonas/warwick/3dProfilometer/xpcc/src/xpcc/architecture/platform/cortex_m3/stm32/i2c/i2c_master_2.cpp **** 		I2C2->CR1 |= I2C_CR1_START;
 283:/home/jonas/warwick/3dProfilometer/xpcc/src/xpcc/architecture/platform/cortex_m3/stm32/i2c/i2c_master_2.cpp **** 		checkNextOperation = CHECK_NEXT_OPERATION_NO;
 284:/home/jonas/warwick/3dProfilometer/xpcc/src/xpcc/architecture/platform/cortex_m3/stm32/i2c/i2c_master_2.cpp **** 		
 285:/home/jonas/warwick/3dProfilometer/xpcc/src/xpcc/architecture/platform/cortex_m3/stm32/i2c/i2c_master_2.cpp **** 		// and enable interrupts
 286:/home/jonas/warwick/3dProfilometer/xpcc/src/xpcc/architecture/platform/cortex_m3/stm32/i2c/i2c_master_2.cpp **** 		DEBUG_STREAM("enable interrupts");
 287:/home/jonas/warwick/3dProfilometer/xpcc/src/xpcc/architecture/platform/cortex_m3/stm32/i2c/i2c_master_2.cpp **** 		I2C2->CR2 &= ~I2C_CR2_ITBUFEN;
 288:/home/jonas/warwick/3dProfilometer/xpcc/src/xpcc/architecture/platform/cortex_m3/stm32/i2c/i2c_master_2.cpp **** 		I2C2->CR2 |= I2C_CR2_ITEVTEN | I2C_CR2_ITERREN;
 289:/home/jonas/warwick/3dProfilometer/xpcc/src/xpcc/architecture/platform/cortex_m3/stm32/i2c/i2c_master_2.cpp **** 	}
 290:/home/jonas/warwick/3dProfilometer/xpcc/src/xpcc/architecture/platform/cortex_m3/stm32/i2c/i2c_master_2.cpp **** }
 291:/home/jonas/warwick/3dProfilometer/xpcc/src/xpcc/architecture/platform/cortex_m3/stm32/i2c/i2c_master_2.cpp **** 	
 292:/home/jonas/warwick/3dProfilometer/xpcc/src/xpcc/architecture/platform/cortex_m3/stm32/i2c/i2c_master_2.cpp **** // ----------------------------------------------------------------------------
 293:/home/jonas/warwick/3dProfilometer/xpcc/src/xpcc/architecture/platform/cortex_m3/stm32/i2c/i2c_master_2.cpp **** extern "C" void
 294:/home/jonas/warwick/3dProfilometer/xpcc/src/xpcc/architecture/platform/cortex_m3/stm32/i2c/i2c_master_2.cpp **** I2C2_EV_IRQHandler(void)
 295:/home/jonas/warwick/3dProfilometer/xpcc/src/xpcc/architecture/platform/cortex_m3/stm32/i2c/i2c_master_2.cpp **** {
  28              		.loc 1 295 0
  29              		.cfi_startproc
  30              		@ args = 0, pretend = 0, frame = 48
  31              		@ frame_needed = 0, uses_anonymous_args = 0
  32 0000 F0B5     		push	{r4, r5, r6, r7, lr}
  33              	.LCFI0:
  34              		.cfi_def_cfa_offset 20
  35              		.cfi_offset 4, -20
  36              		.cfi_offset 5, -16
  37              		.cfi_offset 6, -12
  38              		.cfi_offset 7, -8
  39              		.cfi_offset 14, -4
  40              	.LBB106:
 296:/home/jonas/warwick/3dProfilometer/xpcc/src/xpcc/architecture/platform/cortex_m3/stm32/i2c/i2c_master_2.cpp **** 	DEBUG_STREAM("\n--- interrupt ---");
 297:/home/jonas/warwick/3dProfilometer/xpcc/src/xpcc/architecture/platform/cortex_m3/stm32/i2c/i2c_master_2.cpp **** 	
 298:/home/jonas/warwick/3dProfilometer/xpcc/src/xpcc/architecture/platform/cortex_m3/stm32/i2c/i2c_master_2.cpp **** 	uint16_t sr1 = I2C2->SR1;
  41              		.loc 1 298 0
  42 0002 994E     		ldr	r6, .L71
  43 0004 B48A     		ldrh	r4, [r6, #20]
  44 0006 A4B2     		uxth	r4, r4
  45              	.LVL0:
  46              	.LBB107:
 299:/home/jonas/warwick/3dProfilometer/xpcc/src/xpcc/architecture/platform/cortex_m3/stm32/i2c/i2c_master_2.cpp **** 	
 300:/home/jonas/warwick/3dProfilometer/xpcc/src/xpcc/architecture/platform/cortex_m3/stm32/i2c/i2c_master_2.cpp **** 	if (sr1 & I2C_SR1_SB)
  47              		.loc 1 300 0
  48 0008 E307     		lsls	r3, r4, #31
  49              	.LBE107:
  50              	.LBE106:
 295:/home/jonas/warwick/3dProfilometer/xpcc/src/xpcc/architecture/platform/cortex_m3/stm32/i2c/i2c_master_2.cpp **** {
  51              		.loc 1 295 0
  52 000a 8DB0     		sub	sp, sp, #52
  53              	.LCFI1:
  54              		.cfi_def_cfa_offset 72
  55              	.LBB191:
  56              	.LBB161:
  57              		.loc 1 300 0
  58 000c 74D4     		bmi	.L66
  59              	.LBB108:
 301:/home/jonas/warwick/3dProfilometer/xpcc/src/xpcc/architecture/platform/cortex_m3/stm32/i2c/i2c_master_2.cpp **** 	{
 302:/home/jonas/warwick/3dProfilometer/xpcc/src/xpcc/architecture/platform/cortex_m3/stm32/i2c/i2c_master_2.cpp **** 		// EV5: SB=1, cleared by reading SR1 register followed by writing DR register with Address.
 303:/home/jonas/warwick/3dProfilometer/xpcc/src/xpcc/architecture/platform/cortex_m3/stm32/i2c/i2c_master_2.cpp **** 		DEBUG_STREAM("startbit set");
 304:/home/jonas/warwick/3dProfilometer/xpcc/src/xpcc/architecture/platform/cortex_m3/stm32/i2c/i2c_master_2.cpp **** 		
 305:/home/jonas/warwick/3dProfilometer/xpcc/src/xpcc/architecture/platform/cortex_m3/stm32/i2c/i2c_master_2.cpp **** 		xpcc::i2c::Delegate::Starting s = delegate->started();
 306:/home/jonas/warwick/3dProfilometer/xpcc/src/xpcc/architecture/platform/cortex_m3/stm32/i2c/i2c_master_2.cpp **** 		uint8_t address;
 307:/home/jonas/warwick/3dProfilometer/xpcc/src/xpcc/architecture/platform/cortex_m3/stm32/i2c/i2c_master_2.cpp **** 		
 308:/home/jonas/warwick/3dProfilometer/xpcc/src/xpcc/architecture/platform/cortex_m3/stm32/i2c/i2c_master_2.cpp **** 		switch (s.next)
 309:/home/jonas/warwick/3dProfilometer/xpcc/src/xpcc/architecture/platform/cortex_m3/stm32/i2c/i2c_master_2.cpp **** 		{
 310:/home/jonas/warwick/3dProfilometer/xpcc/src/xpcc/architecture/platform/cortex_m3/stm32/i2c/i2c_master_2.cpp **** 			case xpcc::i2c::Delegate::READ_OP:
 311:/home/jonas/warwick/3dProfilometer/xpcc/src/xpcc/architecture/platform/cortex_m3/stm32/i2c/i2c_master_2.cpp **** 				address = (s.address & 0xfe) | xpcc::i2c::READ;
 312:/home/jonas/warwick/3dProfilometer/xpcc/src/xpcc/architecture/platform/cortex_m3/stm32/i2c/i2c_master_2.cpp **** 				initializeRead(delegate->reading());
 313:/home/jonas/warwick/3dProfilometer/xpcc/src/xpcc/architecture/platform/cortex_m3/stm32/i2c/i2c_master_2.cpp **** 				if (readBytesLeft <= 2)
 314:/home/jonas/warwick/3dProfilometer/xpcc/src/xpcc/architecture/platform/cortex_m3/stm32/i2c/i2c_master_2.cpp **** 				{
 315:/home/jonas/warwick/3dProfilometer/xpcc/src/xpcc/architecture/platform/cortex_m3/stm32/i2c/i2c_master_2.cpp **** 					DEBUG_STREAM("NACK");
 316:/home/jonas/warwick/3dProfilometer/xpcc/src/xpcc/architecture/platform/cortex_m3/stm32/i2c/i2c_master_2.cpp **** 					I2C2->CR1 &= ~I2C_CR1_ACK;
 317:/home/jonas/warwick/3dProfilometer/xpcc/src/xpcc/architecture/platform/cortex_m3/stm32/i2c/i2c_master_2.cpp **** 				}
 318:/home/jonas/warwick/3dProfilometer/xpcc/src/xpcc/architecture/platform/cortex_m3/stm32/i2c/i2c_master_2.cpp **** 				else
 319:/home/jonas/warwick/3dProfilometer/xpcc/src/xpcc/architecture/platform/cortex_m3/stm32/i2c/i2c_master_2.cpp **** 				{
 320:/home/jonas/warwick/3dProfilometer/xpcc/src/xpcc/architecture/platform/cortex_m3/stm32/i2c/i2c_master_2.cpp **** 					DEBUG_STREAM("ACK");
 321:/home/jonas/warwick/3dProfilometer/xpcc/src/xpcc/architecture/platform/cortex_m3/stm32/i2c/i2c_master_2.cpp **** 					I2C2->CR1 |= I2C_CR1_ACK;
 322:/home/jonas/warwick/3dProfilometer/xpcc/src/xpcc/architecture/platform/cortex_m3/stm32/i2c/i2c_master_2.cpp **** 				}
 323:/home/jonas/warwick/3dProfilometer/xpcc/src/xpcc/architecture/platform/cortex_m3/stm32/i2c/i2c_master_2.cpp **** 				if (readBytesLeft == 2)
 324:/home/jonas/warwick/3dProfilometer/xpcc/src/xpcc/architecture/platform/cortex_m3/stm32/i2c/i2c_master_2.cpp **** 				{
 325:/home/jonas/warwick/3dProfilometer/xpcc/src/xpcc/architecture/platform/cortex_m3/stm32/i2c/i2c_master_2.cpp **** 					DEBUG_STREAM("POS");
 326:/home/jonas/warwick/3dProfilometer/xpcc/src/xpcc/architecture/platform/cortex_m3/stm32/i2c/i2c_master_2.cpp **** 					I2C2->CR1 |= I2C_CR1_POS;
 327:/home/jonas/warwick/3dProfilometer/xpcc/src/xpcc/architecture/platform/cortex_m3/stm32/i2c/i2c_master_2.cpp **** 				}
 328:/home/jonas/warwick/3dProfilometer/xpcc/src/xpcc/architecture/platform/cortex_m3/stm32/i2c/i2c_master_2.cpp **** 				DEBUG_STREAM("read op: reading=" << readBytesLeft);
 329:/home/jonas/warwick/3dProfilometer/xpcc/src/xpcc/architecture/platform/cortex_m3/stm32/i2c/i2c_master_2.cpp **** 				break;
 330:/home/jonas/warwick/3dProfilometer/xpcc/src/xpcc/architecture/platform/cortex_m3/stm32/i2c/i2c_master_2.cpp **** 				
 331:/home/jonas/warwick/3dProfilometer/xpcc/src/xpcc/architecture/platform/cortex_m3/stm32/i2c/i2c_master_2.cpp **** 			case xpcc::i2c::Delegate::WRITE_OP:
 332:/home/jonas/warwick/3dProfilometer/xpcc/src/xpcc/architecture/platform/cortex_m3/stm32/i2c/i2c_master_2.cpp **** 				address = (s.address & 0xfe) | xpcc::i2c::WRITE;
 333:/home/jonas/warwick/3dProfilometer/xpcc/src/xpcc/architecture/platform/cortex_m3/stm32/i2c/i2c_master_2.cpp **** 				initializeWrite(delegate->writing());
 334:/home/jonas/warwick/3dProfilometer/xpcc/src/xpcc/architecture/platform/cortex_m3/stm32/i2c/i2c_master_2.cpp **** 				DEBUG_STREAM("write op: writing=" << writeBytesLeft);
 335:/home/jonas/warwick/3dProfilometer/xpcc/src/xpcc/architecture/platform/cortex_m3/stm32/i2c/i2c_master_2.cpp **** 				break;
 336:/home/jonas/warwick/3dProfilometer/xpcc/src/xpcc/architecture/platform/cortex_m3/stm32/i2c/i2c_master_2.cpp **** 				
 337:/home/jonas/warwick/3dProfilometer/xpcc/src/xpcc/architecture/platform/cortex_m3/stm32/i2c/i2c_master_2.cpp **** 			case xpcc::i2c::Delegate::RESTART_OP:
 338:/home/jonas/warwick/3dProfilometer/xpcc/src/xpcc/architecture/platform/cortex_m3/stm32/i2c/i2c_master_2.cpp **** 				address = (s.address & 0xfe) | xpcc::i2c::WRITE;
 339:/home/jonas/warwick/3dProfilometer/xpcc/src/xpcc/architecture/platform/cortex_m3/stm32/i2c/i2c_master_2.cpp **** 				initializeRestartAfterAddress();
 340:/home/jonas/warwick/3dProfilometer/xpcc/src/xpcc/architecture/platform/cortex_m3/stm32/i2c/i2c_master_2.cpp **** 				DEBUG_STREAM("restart op");
 341:/home/jonas/warwick/3dProfilometer/xpcc/src/xpcc/architecture/platform/cortex_m3/stm32/i2c/i2c_master_2.cpp **** 				break;
 342:/home/jonas/warwick/3dProfilometer/xpcc/src/xpcc/architecture/platform/cortex_m3/stm32/i2c/i2c_master_2.cpp **** 				
 343:/home/jonas/warwick/3dProfilometer/xpcc/src/xpcc/architecture/platform/cortex_m3/stm32/i2c/i2c_master_2.cpp **** 			default:
 344:/home/jonas/warwick/3dProfilometer/xpcc/src/xpcc/architecture/platform/cortex_m3/stm32/i2c/i2c_master_2.cpp **** 			case xpcc::i2c::Delegate::STOP_OP:
 345:/home/jonas/warwick/3dProfilometer/xpcc/src/xpcc/architecture/platform/cortex_m3/stm32/i2c/i2c_master_2.cpp **** 				address = (s.address & 0xfe) | xpcc::i2c::WRITE;
 346:/home/jonas/warwick/3dProfilometer/xpcc/src/xpcc/architecture/platform/cortex_m3/stm32/i2c/i2c_master_2.cpp **** 				initializeStopAfterAddress();
 347:/home/jonas/warwick/3dProfilometer/xpcc/src/xpcc/architecture/platform/cortex_m3/stm32/i2c/i2c_master_2.cpp **** 				DEBUG_STREAM("stop op");
 348:/home/jonas/warwick/3dProfilometer/xpcc/src/xpcc/architecture/platform/cortex_m3/stm32/i2c/i2c_master_2.cpp **** 				break;
 349:/home/jonas/warwick/3dProfilometer/xpcc/src/xpcc/architecture/platform/cortex_m3/stm32/i2c/i2c_master_2.cpp **** 		}
 350:/home/jonas/warwick/3dProfilometer/xpcc/src/xpcc/architecture/platform/cortex_m3/stm32/i2c/i2c_master_2.cpp **** 		
 351:/home/jonas/warwick/3dProfilometer/xpcc/src/xpcc/architecture/platform/cortex_m3/stm32/i2c/i2c_master_2.cpp **** 		I2C2->DR = address;
 352:/home/jonas/warwick/3dProfilometer/xpcc/src/xpcc/architecture/platform/cortex_m3/stm32/i2c/i2c_master_2.cpp **** 	}
 353:/home/jonas/warwick/3dProfilometer/xpcc/src/xpcc/architecture/platform/cortex_m3/stm32/i2c/i2c_master_2.cpp **** 	
 354:/home/jonas/warwick/3dProfilometer/xpcc/src/xpcc/architecture/platform/cortex_m3/stm32/i2c/i2c_master_2.cpp **** 	
 355:/home/jonas/warwick/3dProfilometer/xpcc/src/xpcc/architecture/platform/cortex_m3/stm32/i2c/i2c_master_2.cpp **** 	
 356:/home/jonas/warwick/3dProfilometer/xpcc/src/xpcc/architecture/platform/cortex_m3/stm32/i2c/i2c_master_2.cpp **** 	else if (sr1 & I2C_SR1_ADDR)
  60              		.loc 1 356 0
  61 000e 04F00203 		and	r3, r4, #2
  62 0012 9BB2     		uxth	r3, r3
  63 0014 002B     		cmp	r3, #0
  64 0016 56D0     		beq	.L11
  65              	.LBB109:
 357:/home/jonas/warwick/3dProfilometer/xpcc/src/xpcc/architecture/platform/cortex_m3/stm32/i2c/i2c_master_2.cpp **** 	{
 358:/home/jonas/warwick/3dProfilometer/xpcc/src/xpcc/architecture/platform/cortex_m3/stm32/i2c/i2c_master_2.cpp **** 		// EV6: ADDR=1, cleared by reading SR1 register followed by reading SR2.
 359:/home/jonas/warwick/3dProfilometer/xpcc/src/xpcc/architecture/platform/cortex_m3/stm32/i2c/i2c_master_2.cpp **** 		DEBUG_STREAM("address sent");
 360:/home/jonas/warwick/3dProfilometer/xpcc/src/xpcc/architecture/platform/cortex_m3/stm32/i2c/i2c_master_2.cpp **** 		DEBUG_STREAM("writeBytesLeft=" << writeBytesLeft);
 361:/home/jonas/warwick/3dProfilometer/xpcc/src/xpcc/architecture/platform/cortex_m3/stm32/i2c/i2c_master_2.cpp **** 		DEBUG_STREAM("readBytesLeft=" << readBytesLeft);
 362:/home/jonas/warwick/3dProfilometer/xpcc/src/xpcc/architecture/platform/cortex_m3/stm32/i2c/i2c_master_2.cpp **** 		
 363:/home/jonas/warwick/3dProfilometer/xpcc/src/xpcc/architecture/platform/cortex_m3/stm32/i2c/i2c_master_2.cpp **** 		if (writeBytesLeft > 0 || readBytesLeft > 3)
  66              		.loc 1 363 0
  67 0018 944B     		ldr	r3, .L71+4
  68 001a 1B68     		ldr	r3, [r3, #0]
  69 001c 002B     		cmp	r3, #0
  70 001e 00F09380 		beq	.L12
 364:/home/jonas/warwick/3dProfilometer/xpcc/src/xpcc/architecture/platform/cortex_m3/stm32/i2c/i2c_master_2.cpp **** 		{
 365:/home/jonas/warwick/3dProfilometer/xpcc/src/xpcc/architecture/platform/cortex_m3/stm32/i2c/i2c_master_2.cpp **** 			DEBUG_STREAM("enable buffers");
 366:/home/jonas/warwick/3dProfilometer/xpcc/src/xpcc/architecture/platform/cortex_m3/stm32/i2c/i2c_master_2.cpp **** 			I2C2->CR2 |= I2C_CR2_ITBUFEN;
  71              		.loc 1 366 0
  72 0022 B188     		ldrh	r1, [r6, #4]
  73 0024 924A     		ldr	r2, .L71+8
  74 0026 89B2     		uxth	r1, r1
  75 0028 1368     		ldr	r3, [r2, #0]
  76 002a 41F48061 		orr	r1, r1, #1024
  77 002e B180     		strh	r1, [r6, #4]	@ movhi
 367:/home/jonas/warwick/3dProfilometer/xpcc/src/xpcc/architecture/platform/cortex_m3/stm32/i2c/i2c_master_2.cpp **** 		}
 368:/home/jonas/warwick/3dProfilometer/xpcc/src/xpcc/architecture/platform/cortex_m3/stm32/i2c/i2c_master_2.cpp **** 		if (!readBytesLeft && !writeBytesLeft)
  78              		.loc 1 368 0
  79 0030 002B     		cmp	r3, #0
  80 0032 40F09180 		bne	.L14
  81 0036 8F4D     		ldr	r5, .L71+12
  82              	.L13:
 369:/home/jonas/warwick/3dProfilometer/xpcc/src/xpcc/architecture/platform/cortex_m3/stm32/i2c/i2c_master_2.cpp **** 		{
 370:/home/jonas/warwick/3dProfilometer/xpcc/src/xpcc/architecture/platform/cortex_m3/stm32/i2c/i2c_master_2.cpp **** 			checkNextOperation = CHECK_NEXT_OPERATION_YES;
 371:/home/jonas/warwick/3dProfilometer/xpcc/src/xpcc/architecture/platform/cortex_m3/stm32/i2c/i2c_master_2.cpp **** 		}
 372:/home/jonas/warwick/3dProfilometer/xpcc/src/xpcc/architecture/platform/cortex_m3/stm32/i2c/i2c_master_2.cpp **** 		
 373:/home/jonas/warwick/3dProfilometer/xpcc/src/xpcc/architecture/platform/cortex_m3/stm32/i2c/i2c_master_2.cpp **** 		
 374:/home/jonas/warwick/3dProfilometer/xpcc/src/xpcc/architecture/platform/cortex_m3/stm32/i2c/i2c_master_2.cpp **** 		DEBUG_STREAM("clearing ADDR");
 375:/home/jonas/warwick/3dProfilometer/xpcc/src/xpcc/architecture/platform/cortex_m3/stm32/i2c/i2c_master_2.cpp **** 		uint16_t sr2 = I2C2->SR2;
  83              		.loc 1 375 0
  84 0038 8B4B     		ldr	r3, .L71
  85 003a 1B8B     		ldrh	r3, [r3, #24]
  86              	.LVL1:
  87              	.L10:
  88              	.LBE109:
  89              	.LBE108:
  90              	.LBE161:
  91              	.LBB162:
 376:/home/jonas/warwick/3dProfilometer/xpcc/src/xpcc/architecture/platform/cortex_m3/stm32/i2c/i2c_master_2.cpp **** 		(void) sr2;
 377:/home/jonas/warwick/3dProfilometer/xpcc/src/xpcc/architecture/platform/cortex_m3/stm32/i2c/i2c_master_2.cpp **** 		
 378:/home/jonas/warwick/3dProfilometer/xpcc/src/xpcc/architecture/platform/cortex_m3/stm32/i2c/i2c_master_2.cpp **** 		
 379:/home/jonas/warwick/3dProfilometer/xpcc/src/xpcc/architecture/platform/cortex_m3/stm32/i2c/i2c_master_2.cpp **** 		if (readBytesLeft == 1)
 380:/home/jonas/warwick/3dProfilometer/xpcc/src/xpcc/architecture/platform/cortex_m3/stm32/i2c/i2c_master_2.cpp **** 		{
 381:/home/jonas/warwick/3dProfilometer/xpcc/src/xpcc/architecture/platform/cortex_m3/stm32/i2c/i2c_master_2.cpp **** 			DEBUG_STREAM("STOP");
 382:/home/jonas/warwick/3dProfilometer/xpcc/src/xpcc/architecture/platform/cortex_m3/stm32/i2c/i2c_master_2.cpp **** 			I2C2->CR1 |= I2C_CR1_STOP;
 383:/home/jonas/warwick/3dProfilometer/xpcc/src/xpcc/architecture/platform/cortex_m3/stm32/i2c/i2c_master_2.cpp **** 			
 384:/home/jonas/warwick/3dProfilometer/xpcc/src/xpcc/architecture/platform/cortex_m3/stm32/i2c/i2c_master_2.cpp **** #if WAIT_FOR_STOP_LOW
 385:/home/jonas/warwick/3dProfilometer/xpcc/src/xpcc/architecture/platform/cortex_m3/stm32/i2c/i2c_master_2.cpp **** 			DEBUG_STREAM("waiting for stop");
 386:/home/jonas/warwick/3dProfilometer/xpcc/src/xpcc/architecture/platform/cortex_m3/stm32/i2c/i2c_master_2.cpp **** 			while (I2C2->CR1 & I2C_CR1_STOP)
 387:/home/jonas/warwick/3dProfilometer/xpcc/src/xpcc/architecture/platform/cortex_m3/stm32/i2c/i2c_master_2.cpp **** 				;
 388:/home/jonas/warwick/3dProfilometer/xpcc/src/xpcc/architecture/platform/cortex_m3/stm32/i2c/i2c_master_2.cpp **** #endif
 389:/home/jonas/warwick/3dProfilometer/xpcc/src/xpcc/architecture/platform/cortex_m3/stm32/i2c/i2c_master_2.cpp **** 			
 390:/home/jonas/warwick/3dProfilometer/xpcc/src/xpcc/architecture/platform/cortex_m3/stm32/i2c/i2c_master_2.cpp **** 			uint16_t dr = I2C2->DR;
 391:/home/jonas/warwick/3dProfilometer/xpcc/src/xpcc/architecture/platform/cortex_m3/stm32/i2c/i2c_master_2.cpp **** 			*readPointer++ = dr & 0xff;
 392:/home/jonas/warwick/3dProfilometer/xpcc/src/xpcc/architecture/platform/cortex_m3/stm32/i2c/i2c_master_2.cpp **** 			readBytesLeft = 0;
 393:/home/jonas/warwick/3dProfilometer/xpcc/src/xpcc/architecture/platform/cortex_m3/stm32/i2c/i2c_master_2.cpp **** 			checkNextOperation = CHECK_NEXT_OPERATION_YES_NO_STOP_BIT;
 394:/home/jonas/warwick/3dProfilometer/xpcc/src/xpcc/architecture/platform/cortex_m3/stm32/i2c/i2c_master_2.cpp **** 		}
 395:/home/jonas/warwick/3dProfilometer/xpcc/src/xpcc/architecture/platform/cortex_m3/stm32/i2c/i2c_master_2.cpp **** 	}
 396:/home/jonas/warwick/3dProfilometer/xpcc/src/xpcc/architecture/platform/cortex_m3/stm32/i2c/i2c_master_2.cpp **** 	
 397:/home/jonas/warwick/3dProfilometer/xpcc/src/xpcc/architecture/platform/cortex_m3/stm32/i2c/i2c_master_2.cpp **** 	
 398:/home/jonas/warwick/3dProfilometer/xpcc/src/xpcc/architecture/platform/cortex_m3/stm32/i2c/i2c_master_2.cpp **** 	
 399:/home/jonas/warwick/3dProfilometer/xpcc/src/xpcc/architecture/platform/cortex_m3/stm32/i2c/i2c_master_2.cpp **** 	else if (sr1 & I2C_SR1_TXE)
 400:/home/jonas/warwick/3dProfilometer/xpcc/src/xpcc/architecture/platform/cortex_m3/stm32/i2c/i2c_master_2.cpp **** 	{
 401:/home/jonas/warwick/3dProfilometer/xpcc/src/xpcc/architecture/platform/cortex_m3/stm32/i2c/i2c_master_2.cpp **** 		// EV8_1: TxE=1, shift register empty, data register empty, write Data1 in DR
 402:/home/jonas/warwick/3dProfilometer/xpcc/src/xpcc/architecture/platform/cortex_m3/stm32/i2c/i2c_master_2.cpp **** 		// EV8: TxE=1, shift register not empty, data register empty, cleared by writing DR
 403:/home/jonas/warwick/3dProfilometer/xpcc/src/xpcc/architecture/platform/cortex_m3/stm32/i2c/i2c_master_2.cpp **** 		if (writeBytesLeft > 0)
 404:/home/jonas/warwick/3dProfilometer/xpcc/src/xpcc/architecture/platform/cortex_m3/stm32/i2c/i2c_master_2.cpp **** 		{
 405:/home/jonas/warwick/3dProfilometer/xpcc/src/xpcc/architecture/platform/cortex_m3/stm32/i2c/i2c_master_2.cpp **** 			DEBUG_STREAM("tx more bytes");
 406:/home/jonas/warwick/3dProfilometer/xpcc/src/xpcc/architecture/platform/cortex_m3/stm32/i2c/i2c_master_2.cpp **** 			I2C2->DR = *writePointer++; // write data
 407:/home/jonas/warwick/3dProfilometer/xpcc/src/xpcc/architecture/platform/cortex_m3/stm32/i2c/i2c_master_2.cpp **** 			writeBytesLeft--;
 408:/home/jonas/warwick/3dProfilometer/xpcc/src/xpcc/architecture/platform/cortex_m3/stm32/i2c/i2c_master_2.cpp **** 			
 409:/home/jonas/warwick/3dProfilometer/xpcc/src/xpcc/architecture/platform/cortex_m3/stm32/i2c/i2c_master_2.cpp **** 			DEBUG_STREAM("TXE: writeBytesLeft=" << writeBytesLeft);
 410:/home/jonas/warwick/3dProfilometer/xpcc/src/xpcc/architecture/platform/cortex_m3/stm32/i2c/i2c_master_2.cpp **** 			
 411:/home/jonas/warwick/3dProfilometer/xpcc/src/xpcc/architecture/platform/cortex_m3/stm32/i2c/i2c_master_2.cpp **** 			checkNextOperation = CHECK_NEXT_OPERATION_NO_WAIT_FOR_BTF;
 412:/home/jonas/warwick/3dProfilometer/xpcc/src/xpcc/architecture/platform/cortex_m3/stm32/i2c/i2c_master_2.cpp **** 		}
 413:/home/jonas/warwick/3dProfilometer/xpcc/src/xpcc/architecture/platform/cortex_m3/stm32/i2c/i2c_master_2.cpp **** 		// no else!
 414:/home/jonas/warwick/3dProfilometer/xpcc/src/xpcc/architecture/platform/cortex_m3/stm32/i2c/i2c_master_2.cpp **** 		if (writeBytesLeft == 0)
 415:/home/jonas/warwick/3dProfilometer/xpcc/src/xpcc/architecture/platform/cortex_m3/stm32/i2c/i2c_master_2.cpp **** 		{
 416:/home/jonas/warwick/3dProfilometer/xpcc/src/xpcc/architecture/platform/cortex_m3/stm32/i2c/i2c_master_2.cpp **** 			// disable TxE, and wait for EV8_2
 417:/home/jonas/warwick/3dProfilometer/xpcc/src/xpcc/architecture/platform/cortex_m3/stm32/i2c/i2c_master_2.cpp **** 			DEBUG_STREAM("last byte transmitted, wait for btf");
 418:/home/jonas/warwick/3dProfilometer/xpcc/src/xpcc/architecture/platform/cortex_m3/stm32/i2c/i2c_master_2.cpp **** 			I2C2->CR2 &= ~I2C_CR2_ITBUFEN;
 419:/home/jonas/warwick/3dProfilometer/xpcc/src/xpcc/architecture/platform/cortex_m3/stm32/i2c/i2c_master_2.cpp **** 		}
 420:/home/jonas/warwick/3dProfilometer/xpcc/src/xpcc/architecture/platform/cortex_m3/stm32/i2c/i2c_master_2.cpp **** 	}
 421:/home/jonas/warwick/3dProfilometer/xpcc/src/xpcc/architecture/platform/cortex_m3/stm32/i2c/i2c_master_2.cpp **** 	
 422:/home/jonas/warwick/3dProfilometer/xpcc/src/xpcc/architecture/platform/cortex_m3/stm32/i2c/i2c_master_2.cpp **** 	
 423:/home/jonas/warwick/3dProfilometer/xpcc/src/xpcc/architecture/platform/cortex_m3/stm32/i2c/i2c_master_2.cpp **** 	
 424:/home/jonas/warwick/3dProfilometer/xpcc/src/xpcc/architecture/platform/cortex_m3/stm32/i2c/i2c_master_2.cpp **** 	else if (sr1 & I2C_SR1_RXNE)
 425:/home/jonas/warwick/3dProfilometer/xpcc/src/xpcc/architecture/platform/cortex_m3/stm32/i2c/i2c_master_2.cpp **** 	{
 426:/home/jonas/warwick/3dProfilometer/xpcc/src/xpcc/architecture/platform/cortex_m3/stm32/i2c/i2c_master_2.cpp **** 		if (readBytesLeft > 3)
 427:/home/jonas/warwick/3dProfilometer/xpcc/src/xpcc/architecture/platform/cortex_m3/stm32/i2c/i2c_master_2.cpp **** 		{
 428:/home/jonas/warwick/3dProfilometer/xpcc/src/xpcc/architecture/platform/cortex_m3/stm32/i2c/i2c_master_2.cpp **** 			// EV7: RxNE=1, cleared by reading DR register
 429:/home/jonas/warwick/3dProfilometer/xpcc/src/xpcc/architecture/platform/cortex_m3/stm32/i2c/i2c_master_2.cpp **** 			uint16_t dr = I2C2->DR;
 430:/home/jonas/warwick/3dProfilometer/xpcc/src/xpcc/architecture/platform/cortex_m3/stm32/i2c/i2c_master_2.cpp **** 			*readPointer++ = dr & 0xff;
 431:/home/jonas/warwick/3dProfilometer/xpcc/src/xpcc/architecture/platform/cortex_m3/stm32/i2c/i2c_master_2.cpp **** 			readBytesLeft--;
 432:/home/jonas/warwick/3dProfilometer/xpcc/src/xpcc/architecture/platform/cortex_m3/stm32/i2c/i2c_master_2.cpp **** 			
 433:/home/jonas/warwick/3dProfilometer/xpcc/src/xpcc/architecture/platform/cortex_m3/stm32/i2c/i2c_master_2.cpp **** 			DEBUG_STREAM("RXNE: readBytesLeft=" << readBytesLeft);
 434:/home/jonas/warwick/3dProfilometer/xpcc/src/xpcc/architecture/platform/cortex_m3/stm32/i2c/i2c_master_2.cpp **** 		}
 435:/home/jonas/warwick/3dProfilometer/xpcc/src/xpcc/architecture/platform/cortex_m3/stm32/i2c/i2c_master_2.cpp **** 		
 436:/home/jonas/warwick/3dProfilometer/xpcc/src/xpcc/architecture/platform/cortex_m3/stm32/i2c/i2c_master_2.cpp **** 		if (readBytesLeft <= 3)
 437:/home/jonas/warwick/3dProfilometer/xpcc/src/xpcc/architecture/platform/cortex_m3/stm32/i2c/i2c_master_2.cpp **** 		{
 438:/home/jonas/warwick/3dProfilometer/xpcc/src/xpcc/architecture/platform/cortex_m3/stm32/i2c/i2c_master_2.cpp **** 			// disable RxNE, and wait for BTF
 439:/home/jonas/warwick/3dProfilometer/xpcc/src/xpcc/architecture/platform/cortex_m3/stm32/i2c/i2c_master_2.cpp **** 			DEBUG_STREAM("fourth last byte received, wait for btf");
 440:/home/jonas/warwick/3dProfilometer/xpcc/src/xpcc/architecture/platform/cortex_m3/stm32/i2c/i2c_master_2.cpp **** 			I2C2->CR2 &= ~I2C_CR2_ITBUFEN;
 441:/home/jonas/warwick/3dProfilometer/xpcc/src/xpcc/architecture/platform/cortex_m3/stm32/i2c/i2c_master_2.cpp **** 		}
 442:/home/jonas/warwick/3dProfilometer/xpcc/src/xpcc/architecture/platform/cortex_m3/stm32/i2c/i2c_master_2.cpp **** 	}
 443:/home/jonas/warwick/3dProfilometer/xpcc/src/xpcc/architecture/platform/cortex_m3/stm32/i2c/i2c_master_2.cpp **** 	
 444:/home/jonas/warwick/3dProfilometer/xpcc/src/xpcc/architecture/platform/cortex_m3/stm32/i2c/i2c_master_2.cpp **** 	
 445:/home/jonas/warwick/3dProfilometer/xpcc/src/xpcc/architecture/platform/cortex_m3/stm32/i2c/i2c_master_2.cpp **** 	
 446:/home/jonas/warwick/3dProfilometer/xpcc/src/xpcc/architecture/platform/cortex_m3/stm32/i2c/i2c_master_2.cpp **** 	if (sr1 & I2C_SR1_BTF)
  92              		.loc 1 446 0
  93 003c 04F00404 		and	r4, r4, #4
  94              	.LVL2:
  95 0040 A4B2     		uxth	r4, r4
  96 0042 002C     		cmp	r4, #0
  97 0044 56D0     		beq	.L24
  98              	.L69:
  99              	.LBB163:
 100              	.LBB164:
 447:/home/jonas/warwick/3dProfilometer/xpcc/src/xpcc/architecture/platform/cortex_m3/stm32/i2c/i2c_master_2.cpp **** 	{
 448:/home/jonas/warwick/3dProfilometer/xpcc/src/xpcc/architecture/platform/cortex_m3/stm32/i2c/i2c_master_2.cpp **** 		// EV8_2
 449:/home/jonas/warwick/3dProfilometer/xpcc/src/xpcc/architecture/platform/cortex_m3/stm32/i2c/i2c_master_2.cpp **** 		DEBUG_STREAM("BTF");
 450:/home/jonas/warwick/3dProfilometer/xpcc/src/xpcc/architecture/platform/cortex_m3/stm32/i2c/i2c_master_2.cpp **** 		
 451:/home/jonas/warwick/3dProfilometer/xpcc/src/xpcc/architecture/platform/cortex_m3/stm32/i2c/i2c_master_2.cpp **** 		if (readBytesLeft == 2)
 101              		.loc 1 451 0
 102 0046 8A49     		ldr	r1, .L71+8
 103 0048 0A68     		ldr	r2, [r1, #0]
 104 004a 022A     		cmp	r2, #2
 105 004c 00F02481 		beq	.L25
 106              	.LBE164:
 107              	.LBB166:
 452:/home/jonas/warwick/3dProfilometer/xpcc/src/xpcc/architecture/platform/cortex_m3/stm32/i2c/i2c_master_2.cpp **** 		{
 453:/home/jonas/warwick/3dProfilometer/xpcc/src/xpcc/architecture/platform/cortex_m3/stm32/i2c/i2c_master_2.cpp **** 			// EV7_1: RxNE=1, cleared by reading DR register, programming STOP=1
 454:/home/jonas/warwick/3dProfilometer/xpcc/src/xpcc/architecture/platform/cortex_m3/stm32/i2c/i2c_master_2.cpp **** 			DEBUG_STREAM("STOP");
 455:/home/jonas/warwick/3dProfilometer/xpcc/src/xpcc/architecture/platform/cortex_m3/stm32/i2c/i2c_master_2.cpp **** 			I2C2->CR1 |= I2C_CR1_STOP;
 456:/home/jonas/warwick/3dProfilometer/xpcc/src/xpcc/architecture/platform/cortex_m3/stm32/i2c/i2c_master_2.cpp **** 			
 457:/home/jonas/warwick/3dProfilometer/xpcc/src/xpcc/architecture/platform/cortex_m3/stm32/i2c/i2c_master_2.cpp **** 			DEBUG_STREAM("reading data1");
 458:/home/jonas/warwick/3dProfilometer/xpcc/src/xpcc/architecture/platform/cortex_m3/stm32/i2c/i2c_master_2.cpp **** 			uint16_t dr = I2C2->DR;
 459:/home/jonas/warwick/3dProfilometer/xpcc/src/xpcc/architecture/platform/cortex_m3/stm32/i2c/i2c_master_2.cpp **** 			*readPointer++ = dr & 0xff;
 460:/home/jonas/warwick/3dProfilometer/xpcc/src/xpcc/architecture/platform/cortex_m3/stm32/i2c/i2c_master_2.cpp **** 			
 461:/home/jonas/warwick/3dProfilometer/xpcc/src/xpcc/architecture/platform/cortex_m3/stm32/i2c/i2c_master_2.cpp **** #if WAIT_FOR_STOP_LOW
 462:/home/jonas/warwick/3dProfilometer/xpcc/src/xpcc/architecture/platform/cortex_m3/stm32/i2c/i2c_master_2.cpp **** 			DEBUG_STREAM("waiting for stop");
 463:/home/jonas/warwick/3dProfilometer/xpcc/src/xpcc/architecture/platform/cortex_m3/stm32/i2c/i2c_master_2.cpp **** 			while (I2C2->CR1 & I2C_CR1_STOP)
 464:/home/jonas/warwick/3dProfilometer/xpcc/src/xpcc/architecture/platform/cortex_m3/stm32/i2c/i2c_master_2.cpp **** 				;
 465:/home/jonas/warwick/3dProfilometer/xpcc/src/xpcc/architecture/platform/cortex_m3/stm32/i2c/i2c_master_2.cpp **** #endif
 466:/home/jonas/warwick/3dProfilometer/xpcc/src/xpcc/architecture/platform/cortex_m3/stm32/i2c/i2c_master_2.cpp **** 			
 467:/home/jonas/warwick/3dProfilometer/xpcc/src/xpcc/architecture/platform/cortex_m3/stm32/i2c/i2c_master_2.cpp **** 			DEBUG_STREAM("reading data2");
 468:/home/jonas/warwick/3dProfilometer/xpcc/src/xpcc/architecture/platform/cortex_m3/stm32/i2c/i2c_master_2.cpp **** 			dr = I2C2->DR;
 469:/home/jonas/warwick/3dProfilometer/xpcc/src/xpcc/architecture/platform/cortex_m3/stm32/i2c/i2c_master_2.cpp **** 			*readPointer++ = dr & 0xff;
 470:/home/jonas/warwick/3dProfilometer/xpcc/src/xpcc/architecture/platform/cortex_m3/stm32/i2c/i2c_master_2.cpp **** 			
 471:/home/jonas/warwick/3dProfilometer/xpcc/src/xpcc/architecture/platform/cortex_m3/stm32/i2c/i2c_master_2.cpp **** 			readBytesLeft = 0;
 472:/home/jonas/warwick/3dProfilometer/xpcc/src/xpcc/architecture/platform/cortex_m3/stm32/i2c/i2c_master_2.cpp **** 			checkNextOperation = CHECK_NEXT_OPERATION_YES_NO_STOP_BIT;
 473:/home/jonas/warwick/3dProfilometer/xpcc/src/xpcc/architecture/platform/cortex_m3/stm32/i2c/i2c_master_2.cpp **** 		}
 474:/home/jonas/warwick/3dProfilometer/xpcc/src/xpcc/architecture/platform/cortex_m3/stm32/i2c/i2c_master_2.cpp **** 		
 475:/home/jonas/warwick/3dProfilometer/xpcc/src/xpcc/architecture/platform/cortex_m3/stm32/i2c/i2c_master_2.cpp **** 		if (readBytesLeft == 3)
 108              		.loc 1 475 0
 109 0050 032A     		cmp	r2, #3
 110 0052 2B78     		ldrb	r3, [r5, #0]	@ zero_extendqisi2
 111 0054 0ED1     		bne	.L27
 112              	.LBB167:
 476:/home/jonas/warwick/3dProfilometer/xpcc/src/xpcc/architecture/platform/cortex_m3/stm32/i2c/i2c_master_2.cpp **** 		{
 477:/home/jonas/warwick/3dProfilometer/xpcc/src/xpcc/architecture/platform/cortex_m3/stm32/i2c/i2c_master_2.cpp **** 			// EV7_1: RxNE=1, cleared by reading DR register, programming ACK=0
 478:/home/jonas/warwick/3dProfilometer/xpcc/src/xpcc/architecture/platform/cortex_m3/stm32/i2c/i2c_master_2.cpp **** 			I2C2->CR1 &= ~I2C_CR1_ACK;
 113              		.loc 1 478 0
 114 0056 844C     		ldr	r4, .L71
 479:/home/jonas/warwick/3dProfilometer/xpcc/src/xpcc/architecture/platform/cortex_m3/stm32/i2c/i2c_master_2.cpp **** 			DEBUG_STREAM("NACK");
 480:/home/jonas/warwick/3dProfilometer/xpcc/src/xpcc/architecture/platform/cortex_m3/stm32/i2c/i2c_master_2.cpp **** 			
 481:/home/jonas/warwick/3dProfilometer/xpcc/src/xpcc/architecture/platform/cortex_m3/stm32/i2c/i2c_master_2.cpp **** 			uint16_t dr = I2C2->DR;
 482:/home/jonas/warwick/3dProfilometer/xpcc/src/xpcc/architecture/platform/cortex_m3/stm32/i2c/i2c_master_2.cpp **** 			*readPointer++ = dr & 0xff;
 115              		.loc 1 482 0
 116 0058 874E     		ldr	r6, .L71+16
 478:/home/jonas/warwick/3dProfilometer/xpcc/src/xpcc/architecture/platform/cortex_m3/stm32/i2c/i2c_master_2.cpp **** 			I2C2->CR1 &= ~I2C_CR1_ACK;
 117              		.loc 1 478 0
 118 005a 2288     		ldrh	r2, [r4, #0]
 119              		.loc 1 482 0
 120 005c 3068     		ldr	r0, [r6, #0]
 478:/home/jonas/warwick/3dProfilometer/xpcc/src/xpcc/architecture/platform/cortex_m3/stm32/i2c/i2c_master_2.cpp **** 			I2C2->CR1 &= ~I2C_CR1_ACK;
 121              		.loc 1 478 0
 122 005e 22F48062 		bic	r2, r2, #1024
 123 0062 1204     		lsls	r2, r2, #16
 124 0064 120C     		lsrs	r2, r2, #16
 125 0066 2280     		strh	r2, [r4, #0]	@ movhi
 481:/home/jonas/warwick/3dProfilometer/xpcc/src/xpcc/architecture/platform/cortex_m3/stm32/i2c/i2c_master_2.cpp **** 			uint16_t dr = I2C2->DR;
 126              		.loc 1 481 0
 127 0068 228A     		ldrh	r2, [r4, #16]
 128              	.LVL3:
 129              		.loc 1 482 0
 130 006a 00F8012B 		strb	r2, [r0], #1
 483:/home/jonas/warwick/3dProfilometer/xpcc/src/xpcc/architecture/platform/cortex_m3/stm32/i2c/i2c_master_2.cpp **** 			readBytesLeft--;
 131              		.loc 1 483 0
 132 006e 0222     		movs	r2, #2
 133              	.LVL4:
 482:/home/jonas/warwick/3dProfilometer/xpcc/src/xpcc/architecture/platform/cortex_m3/stm32/i2c/i2c_master_2.cpp **** 			*readPointer++ = dr & 0xff;
 134              		.loc 1 482 0
 135 0070 3060     		str	r0, [r6, #0]
 136              		.loc 1 483 0
 137 0072 0A60     		str	r2, [r1, #0]
 138              	.L27:
 139              	.LBE167:
 140              	.LBE166:
 484:/home/jonas/warwick/3dProfilometer/xpcc/src/xpcc/architecture/platform/cortex_m3/stm32/i2c/i2c_master_2.cpp **** 			
 485:/home/jonas/warwick/3dProfilometer/xpcc/src/xpcc/architecture/platform/cortex_m3/stm32/i2c/i2c_master_2.cpp **** 			DEBUG_STREAM("BTF: readBytesLeft=2");
 486:/home/jonas/warwick/3dProfilometer/xpcc/src/xpcc/architecture/platform/cortex_m3/stm32/i2c/i2c_master_2.cpp **** 		}
 487:/home/jonas/warwick/3dProfilometer/xpcc/src/xpcc/architecture/platform/cortex_m3/stm32/i2c/i2c_master_2.cpp **** 		
 488:/home/jonas/warwick/3dProfilometer/xpcc/src/xpcc/architecture/platform/cortex_m3/stm32/i2c/i2c_master_2.cpp **** 		if (checkNextOperation == CHECK_NEXT_OPERATION_NO_WAIT_FOR_BTF
 141              		.loc 1 488 0
 142 0074 012B     		cmp	r3, #1
 143 0076 00F00781 		beq	.L67
 144              	.L28:
 145              	.LBE163:
 146              	.LBE162:
 489:/home/jonas/warwick/3dProfilometer/xpcc/src/xpcc/architecture/platform/cortex_m3/stm32/i2c/i2c_master_2.cpp **** 			&& writeBytesLeft == 0)
 490:/home/jonas/warwick/3dProfilometer/xpcc/src/xpcc/architecture/platform/cortex_m3/stm32/i2c/i2c_master_2.cpp **** 		{
 491:/home/jonas/warwick/3dProfilometer/xpcc/src/xpcc/architecture/platform/cortex_m3/stm32/i2c/i2c_master_2.cpp **** 			// EV8_2: TxE=1, BTF = 1, Program Stop request.
 492:/home/jonas/warwick/3dProfilometer/xpcc/src/xpcc/architecture/platform/cortex_m3/stm32/i2c/i2c_master_2.cpp **** 			// TxE and BTF are cleared by hardware by the Stop condition
 493:/home/jonas/warwick/3dProfilometer/xpcc/src/xpcc/architecture/platform/cortex_m3/stm32/i2c/i2c_master_2.cpp **** 			DEBUG_STREAM("BTF, write=0");
 494:/home/jonas/warwick/3dProfilometer/xpcc/src/xpcc/architecture/platform/cortex_m3/stm32/i2c/i2c_master_2.cpp **** 			checkNextOperation = CHECK_NEXT_OPERATION_YES;
 495:/home/jonas/warwick/3dProfilometer/xpcc/src/xpcc/architecture/platform/cortex_m3/stm32/i2c/i2c_master_2.cpp **** 		}
 496:/home/jonas/warwick/3dProfilometer/xpcc/src/xpcc/architecture/platform/cortex_m3/stm32/i2c/i2c_master_2.cpp **** 	}
 497:/home/jonas/warwick/3dProfilometer/xpcc/src/xpcc/architecture/platform/cortex_m3/stm32/i2c/i2c_master_2.cpp **** 	
 498:/home/jonas/warwick/3dProfilometer/xpcc/src/xpcc/architecture/platform/cortex_m3/stm32/i2c/i2c_master_2.cpp **** 	
 499:/home/jonas/warwick/3dProfilometer/xpcc/src/xpcc/architecture/platform/cortex_m3/stm32/i2c/i2c_master_2.cpp **** 	
 500:/home/jonas/warwick/3dProfilometer/xpcc/src/xpcc/architecture/platform/cortex_m3/stm32/i2c/i2c_master_2.cpp **** 	if (checkNextOperation > CHECK_NEXT_OPERATION_NO_WAIT_FOR_BTF)
 147              		.loc 1 500 0
 148 007a 012B     		cmp	r3, #1
 149 007c 21D9     		bls	.L1
 150              	.L31:
 501:/home/jonas/warwick/3dProfilometer/xpcc/src/xpcc/architecture/platform/cortex_m3/stm32/i2c/i2c_master_2.cpp **** 	{
 502:/home/jonas/warwick/3dProfilometer/xpcc/src/xpcc/architecture/platform/cortex_m3/stm32/i2c/i2c_master_2.cpp **** 		switch (nextOperation)
 151              		.loc 1 502 0
 152 007e 7F4C     		ldr	r4, .L71+20
 153 0080 2278     		ldrb	r2, [r4, #0]	@ zero_extendqisi2
 154 0082 012A     		cmp	r2, #1
 155 0084 00F0D580 		beq	.L34
 156 0088 022A     		cmp	r2, #2
 157 008a 00F0B680 		beq	.L68
 503:/home/jonas/warwick/3dProfilometer/xpcc/src/xpcc/architecture/platform/cortex_m3/stm32/i2c/i2c_master_2.cpp **** 		{
 504:/home/jonas/warwick/3dProfilometer/xpcc/src/xpcc/architecture/platform/cortex_m3/stm32/i2c/i2c_master_2.cpp **** 			case xpcc::i2c::Delegate::WRITE_OP:
 505:/home/jonas/warwick/3dProfilometer/xpcc/src/xpcc/architecture/platform/cortex_m3/stm32/i2c/i2c_master_2.cpp **** 				if (checkNextOperation != CHECK_NEXT_OPERATION_YES_NO_STOP_BIT)
 506:/home/jonas/warwick/3dProfilometer/xpcc/src/xpcc/architecture/platform/cortex_m3/stm32/i2c/i2c_master_2.cpp **** 				{
 507:/home/jonas/warwick/3dProfilometer/xpcc/src/xpcc/architecture/platform/cortex_m3/stm32/i2c/i2c_master_2.cpp **** 					initializeWrite(delegate->writing());
 508:/home/jonas/warwick/3dProfilometer/xpcc/src/xpcc/architecture/platform/cortex_m3/stm32/i2c/i2c_master_2.cpp **** 					// reenable TXE
 509:/home/jonas/warwick/3dProfilometer/xpcc/src/xpcc/architecture/platform/cortex_m3/stm32/i2c/i2c_master_2.cpp **** 					I2C2->CR2 |= I2C_CR2_ITBUFEN;
 510:/home/jonas/warwick/3dProfilometer/xpcc/src/xpcc/architecture/platform/cortex_m3/stm32/i2c/i2c_master_2.cpp **** 					DEBUG_STREAM("write op");
 511:/home/jonas/warwick/3dProfilometer/xpcc/src/xpcc/architecture/platform/cortex_m3/stm32/i2c/i2c_master_2.cpp **** 				}
 512:/home/jonas/warwick/3dProfilometer/xpcc/src/xpcc/architecture/platform/cortex_m3/stm32/i2c/i2c_master_2.cpp **** 				break;
 513:/home/jonas/warwick/3dProfilometer/xpcc/src/xpcc/architecture/platform/cortex_m3/stm32/i2c/i2c_master_2.cpp **** 				
 514:/home/jonas/warwick/3dProfilometer/xpcc/src/xpcc/architecture/platform/cortex_m3/stm32/i2c/i2c_master_2.cpp **** 			case xpcc::i2c::Delegate::RESTART_OP:
 515:/home/jonas/warwick/3dProfilometer/xpcc/src/xpcc/architecture/platform/cortex_m3/stm32/i2c/i2c_master_2.cpp **** 				callStarting();
 516:/home/jonas/warwick/3dProfilometer/xpcc/src/xpcc/architecture/platform/cortex_m3/stm32/i2c/i2c_master_2.cpp **** 				DEBUG_STREAM("restart op");
 517:/home/jonas/warwick/3dProfilometer/xpcc/src/xpcc/architecture/platform/cortex_m3/stm32/i2c/i2c_master_2.cpp **** 				break;
 518:/home/jonas/warwick/3dProfilometer/xpcc/src/xpcc/architecture/platform/cortex_m3/stm32/i2c/i2c_master_2.cpp **** 				
 519:/home/jonas/warwick/3dProfilometer/xpcc/src/xpcc/architecture/platform/cortex_m3/stm32/i2c/i2c_master_2.cpp **** 			default:
 520:/home/jonas/warwick/3dProfilometer/xpcc/src/xpcc/architecture/platform/cortex_m3/stm32/i2c/i2c_master_2.cpp **** 				if (checkNextOperation != CHECK_NEXT_OPERATION_YES_NO_STOP_BIT)
 158              		.loc 1 520 0
 159 008e 032B     		cmp	r3, #3
 160 0090 05D0     		beq	.L37
 521:/home/jonas/warwick/3dProfilometer/xpcc/src/xpcc/architecture/platform/cortex_m3/stm32/i2c/i2c_master_2.cpp **** 				{
 522:/home/jonas/warwick/3dProfilometer/xpcc/src/xpcc/architecture/platform/cortex_m3/stm32/i2c/i2c_master_2.cpp **** 					I2C2->CR1 |= I2C_CR1_STOP;
 161              		.loc 1 522 0
 162 0092 754B     		ldr	r3, .L71
 163 0094 1A88     		ldrh	r2, [r3, #0]
 164 0096 92B2     		uxth	r2, r2
 165 0098 42F40072 		orr	r2, r2, #512
 166 009c 1A80     		strh	r2, [r3, #0]	@ movhi
 167              	.L37:
 523:/home/jonas/warwick/3dProfilometer/xpcc/src/xpcc/architecture/platform/cortex_m3/stm32/i2c/i2c_master_2.cpp **** 					DEBUG_STREAM("STOP");
 524:/home/jonas/warwick/3dProfilometer/xpcc/src/xpcc/architecture/platform/cortex_m3/stm32/i2c/i2c_master_2.cpp **** 				}
 525:/home/jonas/warwick/3dProfilometer/xpcc/src/xpcc/architecture/platform/cortex_m3/stm32/i2c/i2c_master_2.cpp **** 				
 526:/home/jonas/warwick/3dProfilometer/xpcc/src/xpcc/architecture/platform/cortex_m3/stm32/i2c/i2c_master_2.cpp **** 				DEBUG_STREAM("disable interrupts");
 527:/home/jonas/warwick/3dProfilometer/xpcc/src/xpcc/architecture/platform/cortex_m3/stm32/i2c/i2c_master_2.cpp **** 				I2C2->CR2 &= ~(I2C_CR2_ITEVTEN | I2C_CR2_ITBUFEN | I2C_CR2_ITERREN);
 168              		.loc 1 527 0
 169 009e 724A     		ldr	r2, .L71
 528:/home/jonas/warwick/3dProfilometer/xpcc/src/xpcc/architecture/platform/cortex_m3/stm32/i2c/i2c_master_2.cpp **** 				if (delegate) delegate->stopped(xpcc::i2c::Delegate::NORMAL_STOP);
 170              		.loc 1 528 0
 171 00a0 774C     		ldr	r4, .L71+24
 527:/home/jonas/warwick/3dProfilometer/xpcc/src/xpcc/architecture/platform/cortex_m3/stm32/i2c/i2c_master_2.cpp **** 				I2C2->CR2 &= ~(I2C_CR2_ITEVTEN | I2C_CR2_ITBUFEN | I2C_CR2_ITERREN);
 172              		.loc 1 527 0
 173 00a2 9388     		ldrh	r3, [r2, #4]
 174              		.loc 1 528 0
 175 00a4 2068     		ldr	r0, [r4, #0]
 527:/home/jonas/warwick/3dProfilometer/xpcc/src/xpcc/architecture/platform/cortex_m3/stm32/i2c/i2c_master_2.cpp **** 				I2C2->CR2 &= ~(I2C_CR2_ITEVTEN | I2C_CR2_ITBUFEN | I2C_CR2_ITERREN);
 176              		.loc 1 527 0
 177 00a6 23F4E063 		bic	r3, r3, #1792
 178 00aa 1B04     		lsls	r3, r3, #16
 179 00ac 1B0C     		lsrs	r3, r3, #16
 180 00ae 9380     		strh	r3, [r2, #4]	@ movhi
 181              		.loc 1 528 0
 182 00b0 18B1     		cbz	r0, .L38
 183              		.loc 1 528 0 is_stmt 0 discriminator 1
 184 00b2 0368     		ldr	r3, [r0, #0]
 185 00b4 0021     		movs	r1, #0
 186 00b6 1B69     		ldr	r3, [r3, #16]
 187 00b8 9847     		blx	r3
 188              	.LVL5:
 189              	.L38:
 529:/home/jonas/warwick/3dProfilometer/xpcc/src/xpcc/architecture/platform/cortex_m3/stm32/i2c/i2c_master_2.cpp **** 				delegate = 0;
 190              		.loc 1 529 0 is_stmt 1
 191 00ba 0023     		movs	r3, #0
 192 00bc 2360     		str	r3, [r4, #0]
 193              	.L36:
 530:/home/jonas/warwick/3dProfilometer/xpcc/src/xpcc/architecture/platform/cortex_m3/stm32/i2c/i2c_master_2.cpp **** 				DEBUG_STREAM("write finished");
 531:/home/jonas/warwick/3dProfilometer/xpcc/src/xpcc/architecture/platform/cortex_m3/stm32/i2c/i2c_master_2.cpp **** 				break;
 532:/home/jonas/warwick/3dProfilometer/xpcc/src/xpcc/architecture/platform/cortex_m3/stm32/i2c/i2c_master_2.cpp **** 		}
 533:/home/jonas/warwick/3dProfilometer/xpcc/src/xpcc/architecture/platform/cortex_m3/stm32/i2c/i2c_master_2.cpp **** 		checkNextOperation = CHECK_NEXT_OPERATION_NO;
 194              		.loc 1 533 0
 195 00be 0023     		movs	r3, #0
 196 00c0 2B70     		strb	r3, [r5, #0]
 197              	.L1:
 198              	.LBE191:
 534:/home/jonas/warwick/3dProfilometer/xpcc/src/xpcc/architecture/platform/cortex_m3/stm32/i2c/i2c_master_2.cpp **** 	}
 535:/home/jonas/warwick/3dProfilometer/xpcc/src/xpcc/architecture/platform/cortex_m3/stm32/i2c/i2c_master_2.cpp **** }
 199              		.loc 1 535 0
 200 00c2 0DB0     		add	sp, sp, #52
 201 00c4 F0BD     		pop	{r4, r5, r6, r7, pc}
 202              	.LVL6:
 203              	.L11:
 204              	.LBB192:
 205              	.LBB170:
 206              	.LBB135:
 207              	.LBB113:
 399:/home/jonas/warwick/3dProfilometer/xpcc/src/xpcc/architecture/platform/cortex_m3/stm32/i2c/i2c_master_2.cpp **** 	else if (sr1 & I2C_SR1_TXE)
 208              		.loc 1 399 0
 209 00c6 04F08003 		and	r3, r4, #128
 210 00ca 9BB2     		uxth	r3, r3
 211 00cc 002B     		cmp	r3, #0
 212 00ce 58D0     		beq	.L18
 403:/home/jonas/warwick/3dProfilometer/xpcc/src/xpcc/architecture/platform/cortex_m3/stm32/i2c/i2c_master_2.cpp **** 		if (writeBytesLeft > 0)
 213              		.loc 1 403 0
 214 00d0 664B     		ldr	r3, .L71+4
 215 00d2 1A68     		ldr	r2, [r3, #0]
 216 00d4 002A     		cmp	r2, #0
 217 00d6 40F0FC80 		bne	.L19
 218 00da 664D     		ldr	r5, .L71+12
 219              	.L20:
 418:/home/jonas/warwick/3dProfilometer/xpcc/src/xpcc/architecture/platform/cortex_m3/stm32/i2c/i2c_master_2.cpp **** 			I2C2->CR2 &= ~I2C_CR2_ITBUFEN;
 220              		.loc 1 418 0
 221 00dc 624A     		ldr	r2, .L71
 222              	.L63:
 223              	.LBB114:
 224              	.LBB115:
 440:/home/jonas/warwick/3dProfilometer/xpcc/src/xpcc/architecture/platform/cortex_m3/stm32/i2c/i2c_master_2.cpp **** 			I2C2->CR2 &= ~I2C_CR2_ITBUFEN;
 225              		.loc 1 440 0
 226 00de 9388     		ldrh	r3, [r2, #4]
 227 00e0 23F48063 		bic	r3, r3, #1024
 228 00e4 1B04     		lsls	r3, r3, #16
 229              	.LBE115:
 230              	.LBE114:
 231              	.LBE113:
 232              	.LBE135:
 233              	.LBE170:
 234              	.LBB171:
 446:/home/jonas/warwick/3dProfilometer/xpcc/src/xpcc/architecture/platform/cortex_m3/stm32/i2c/i2c_master_2.cpp **** 	if (sr1 & I2C_SR1_BTF)
 235              		.loc 1 446 0
 236 00e6 04F00404 		and	r4, r4, #4
 237              	.LVL7:
 238              	.LBE171:
 239              	.LBB172:
 240              	.LBB136:
 241              	.LBB128:
 242              	.LBB124:
 243              	.LBB120:
 440:/home/jonas/warwick/3dProfilometer/xpcc/src/xpcc/architecture/platform/cortex_m3/stm32/i2c/i2c_master_2.cpp **** 			I2C2->CR2 &= ~I2C_CR2_ITBUFEN;
 244              		.loc 1 440 0
 245 00ea 1B0C     		lsrs	r3, r3, #16
 246              	.LBE120:
 247              	.LBE124:
 248              	.LBE128:
 249              	.LBE136:
 250              	.LBE172:
 251              	.LBB173:
 446:/home/jonas/warwick/3dProfilometer/xpcc/src/xpcc/architecture/platform/cortex_m3/stm32/i2c/i2c_master_2.cpp **** 	if (sr1 & I2C_SR1_BTF)
 252              		.loc 1 446 0
 253 00ec A4B2     		uxth	r4, r4
 254              	.LBE173:
 255              	.LBB174:
 256              	.LBB137:
 257              	.LBB129:
 258              	.LBB125:
 259              	.LBB121:
 440:/home/jonas/warwick/3dProfilometer/xpcc/src/xpcc/architecture/platform/cortex_m3/stm32/i2c/i2c_master_2.cpp **** 			I2C2->CR2 &= ~I2C_CR2_ITBUFEN;
 260              		.loc 1 440 0
 261 00ee 9380     		strh	r3, [r2, #4]	@ movhi
 262              	.LBE121:
 263              	.LBE125:
 264              	.LBE129:
 265              	.LBE137:
 266              	.LBE174:
 267              	.LBB175:
 446:/home/jonas/warwick/3dProfilometer/xpcc/src/xpcc/architecture/platform/cortex_m3/stm32/i2c/i2c_master_2.cpp **** 	if (sr1 & I2C_SR1_BTF)
 268              		.loc 1 446 0
 269 00f0 002C     		cmp	r4, #0
 270 00f2 A8D1     		bne	.L69
 271              	.L24:
 272 00f4 2B78     		ldrb	r3, [r5, #0]	@ zero_extendqisi2
 273 00f6 C0E7     		b	.L28
 274              	.LVL8:
 275              	.L66:
 276              	.LBE175:
 277              	.LBB176:
 278              	.LBB138:
 305:/home/jonas/warwick/3dProfilometer/xpcc/src/xpcc/architecture/platform/cortex_m3/stm32/i2c/i2c_master_2.cpp **** 		xpcc::i2c::Delegate::Starting s = delegate->started();
 279              		.loc 1 305 0
 280 00f8 614D     		ldr	r5, .L71+24
 281 00fa 2868     		ldr	r0, [r5, #0]
 282 00fc 0368     		ldr	r3, [r0, #0]
 283 00fe 5B68     		ldr	r3, [r3, #4]
 284 0100 9847     		blx	r3
 285              	.LVL9:
 286 0102 00B2     		sxth	r0, r0
 287 0104 C0F30723 		ubfx	r3, r0, #8, #8
 288 0108 8DF80000 		strb	r0, [sp, #0]
 289 010c 8DF80130 		strb	r3, [sp, #1]
 290 0110 BDF80030 		ldrh	r3, [sp, #0]
 308:/home/jonas/warwick/3dProfilometer/xpcc/src/xpcc/architecture/platform/cortex_m3/stm32/i2c/i2c_master_2.cpp **** 		switch (s.next)
 291              		.loc 1 308 0
 292 0114 DAB2     		uxtb	r2, r3
 293 0116 022A     		cmp	r2, #2
 305:/home/jonas/warwick/3dProfilometer/xpcc/src/xpcc/architecture/platform/cortex_m3/stm32/i2c/i2c_master_2.cpp **** 		xpcc::i2c::Delegate::Starting s = delegate->started();
 294              		.loc 1 305 0
 295 0118 ADF80830 		strh	r3, [sp, #8]	@ movhi
 296 011c C3F30723 		ubfx	r3, r3, #8, #8
 297              	.LVL10:
 308:/home/jonas/warwick/3dProfilometer/xpcc/src/xpcc/architecture/platform/cortex_m3/stm32/i2c/i2c_master_2.cpp **** 		switch (s.next)
 298              		.loc 1 308 0
 299 0120 00F0E680 		beq	.L5
 300 0124 032A     		cmp	r2, #3
 301 0126 42D0     		beq	.L6
 302 0128 012A     		cmp	r2, #1
 303 012a 00F0F680 		beq	.L70
 345:/home/jonas/warwick/3dProfilometer/xpcc/src/xpcc/architecture/platform/cortex_m3/stm32/i2c/i2c_master_2.cpp **** 				address = (s.address & 0xfe) | xpcc::i2c::WRITE;
 304              		.loc 1 345 0
 305 012e 03F0FE07 		and	r7, r3, #254
 306              	.LVL11:
 307              	.LBB139:
 308              	.LBB140:
 259:/home/jonas/warwick/3dProfilometer/xpcc/src/xpcc/architecture/platform/cortex_m3/stm32/i2c/i2c_master_2.cpp **** 		writeBytesLeft = 0;
 309              		.loc 1 259 0
 310 0132 4E4B     		ldr	r3, .L71+4
 311              	.LVL12:
 312 0134 0022     		movs	r2, #0
 313 0136 1A60     		str	r2, [r3, #0]
 260:/home/jonas/warwick/3dProfilometer/xpcc/src/xpcc/architecture/platform/cortex_m3/stm32/i2c/i2c_master_2.cpp **** 		readBytesLeft = 0;
 314              		.loc 1 260 0
 315 0138 4D4B     		ldr	r3, .L71+8
 316 013a 1A60     		str	r2, [r3, #0]
 261:/home/jonas/warwick/3dProfilometer/xpcc/src/xpcc/architecture/platform/cortex_m3/stm32/i2c/i2c_master_2.cpp **** 		nextOperation = xpcc::i2c::Delegate::STOP_OP;
 317              		.loc 1 261 0
 318 013c 4F4B     		ldr	r3, .L71+20
 319 013e 1A70     		strb	r2, [r3, #0]
 320              	.LVL13:
 321              	.L9:
 322              	.LBE140:
 323              	.LBE139:
 351:/home/jonas/warwick/3dProfilometer/xpcc/src/xpcc/architecture/platform/cortex_m3/stm32/i2c/i2c_master_2.cpp **** 		I2C2->DR = address;
 324              		.loc 1 351 0
 325 0140 494A     		ldr	r2, .L71
 326 0142 4C4D     		ldr	r5, .L71+12
 327 0144 1782     		strh	r7, [r2, #16]	@ movhi
 328 0146 79E7     		b	.L10
 329              	.LVL14:
 330              	.L12:
 331              	.LBE138:
 332              	.LBB155:
 333              	.LBB130:
 363:/home/jonas/warwick/3dProfilometer/xpcc/src/xpcc/architecture/platform/cortex_m3/stm32/i2c/i2c_master_2.cpp **** 		if (writeBytesLeft > 0 || readBytesLeft > 3)
 334              		.loc 1 363 0 discriminator 1
 335 0148 494A     		ldr	r2, .L71+8
 336 014a 1368     		ldr	r3, [r2, #0]
 337 014c 032B     		cmp	r3, #3
 338 014e 00F2BA80 		bhi	.L15
 368:/home/jonas/warwick/3dProfilometer/xpcc/src/xpcc/architecture/platform/cortex_m3/stm32/i2c/i2c_master_2.cpp **** 		if (!readBytesLeft && !writeBytesLeft)
 339              		.loc 1 368 0
 340 0152 002B     		cmp	r3, #0
 341 0154 00F0B380 		beq	.L39
 342              	.L14:
 375:/home/jonas/warwick/3dProfilometer/xpcc/src/xpcc/architecture/platform/cortex_m3/stm32/i2c/i2c_master_2.cpp **** 		uint16_t sr2 = I2C2->SR2;
 343              		.loc 1 375 0
 344 0158 4349     		ldr	r1, .L71
 345              	.LBB110:
 379:/home/jonas/warwick/3dProfilometer/xpcc/src/xpcc/architecture/platform/cortex_m3/stm32/i2c/i2c_master_2.cpp **** 		if (readBytesLeft == 1)
 346              		.loc 1 379 0
 347 015a 012B     		cmp	r3, #1
 348              	.LBE110:
 375:/home/jonas/warwick/3dProfilometer/xpcc/src/xpcc/architecture/platform/cortex_m3/stm32/i2c/i2c_master_2.cpp **** 		uint16_t sr2 = I2C2->SR2;
 349              		.loc 1 375 0
 350 015c 088B     		ldrh	r0, [r1, #24]
 351              	.LBB112:
 379:/home/jonas/warwick/3dProfilometer/xpcc/src/xpcc/architecture/platform/cortex_m3/stm32/i2c/i2c_master_2.cpp **** 		if (readBytesLeft == 1)
 352              		.loc 1 379 0
 353 015e 24D1     		bne	.L64
 354              	.LBB111:
 382:/home/jonas/warwick/3dProfilometer/xpcc/src/xpcc/architecture/platform/cortex_m3/stm32/i2c/i2c_master_2.cpp **** 			I2C2->CR1 |= I2C_CR1_STOP;
 355              		.loc 1 382 0
 356 0160 0E88     		ldrh	r6, [r1, #0]
 391:/home/jonas/warwick/3dProfilometer/xpcc/src/xpcc/architecture/platform/cortex_m3/stm32/i2c/i2c_master_2.cpp **** 			*readPointer++ = dr & 0xff;
 357              		.loc 1 391 0
 358 0162 4548     		ldr	r0, .L71+16
 393:/home/jonas/warwick/3dProfilometer/xpcc/src/xpcc/architecture/platform/cortex_m3/stm32/i2c/i2c_master_2.cpp **** 			checkNextOperation = CHECK_NEXT_OPERATION_YES_NO_STOP_BIT;
 359              		.loc 1 393 0
 360 0164 434D     		ldr	r5, .L71+12
 391:/home/jonas/warwick/3dProfilometer/xpcc/src/xpcc/architecture/platform/cortex_m3/stm32/i2c/i2c_master_2.cpp **** 			*readPointer++ = dr & 0xff;
 361              		.loc 1 391 0
 362 0166 0368     		ldr	r3, [r0, #0]
 382:/home/jonas/warwick/3dProfilometer/xpcc/src/xpcc/architecture/platform/cortex_m3/stm32/i2c/i2c_master_2.cpp **** 			I2C2->CR1 |= I2C_CR1_STOP;
 363              		.loc 1 382 0
 364 0168 B6B2     		uxth	r6, r6
 365 016a 46F40076 		orr	r6, r6, #512
 366 016e 0E80     		strh	r6, [r1, #0]	@ movhi
 390:/home/jonas/warwick/3dProfilometer/xpcc/src/xpcc/architecture/platform/cortex_m3/stm32/i2c/i2c_master_2.cpp **** 			uint16_t dr = I2C2->DR;
 367              		.loc 1 390 0
 368 0170 098A     		ldrh	r1, [r1, #16]
 369              	.LVL15:
 391:/home/jonas/warwick/3dProfilometer/xpcc/src/xpcc/architecture/platform/cortex_m3/stm32/i2c/i2c_master_2.cpp **** 			*readPointer++ = dr & 0xff;
 370              		.loc 1 391 0
 371 0172 03F8011B 		strb	r1, [r3], #1
 372 0176 0360     		str	r3, [r0, #0]
 392:/home/jonas/warwick/3dProfilometer/xpcc/src/xpcc/architecture/platform/cortex_m3/stm32/i2c/i2c_master_2.cpp **** 			readBytesLeft = 0;
 373              		.loc 1 392 0
 374 0178 0023     		movs	r3, #0
 375 017a 1360     		str	r3, [r2, #0]
 393:/home/jonas/warwick/3dProfilometer/xpcc/src/xpcc/architecture/platform/cortex_m3/stm32/i2c/i2c_master_2.cpp **** 			checkNextOperation = CHECK_NEXT_OPERATION_YES_NO_STOP_BIT;
 376              		.loc 1 393 0
 377 017c 0323     		movs	r3, #3
 378 017e 2B70     		strb	r3, [r5, #0]
 379 0180 5CE7     		b	.L10
 380              	.LVL16:
 381              	.L18:
 382              	.LBE111:
 383              	.LBE112:
 384              	.LBE130:
 385              	.LBB131:
 386              	.LBB126:
 424:/home/jonas/warwick/3dProfilometer/xpcc/src/xpcc/architecture/platform/cortex_m3/stm32/i2c/i2c_master_2.cpp **** 	else if (sr1 & I2C_SR1_RXNE)
 387              		.loc 1 424 0
 388 0182 04F04003 		and	r3, r4, #64
 389 0186 9BB2     		uxth	r3, r3
 390 0188 7BB1     		cbz	r3, .L64
 391              	.LBB122:
 392              	.LBB116:
 426:/home/jonas/warwick/3dProfilometer/xpcc/src/xpcc/architecture/platform/cortex_m3/stm32/i2c/i2c_master_2.cpp **** 		if (readBytesLeft > 3)
 393              		.loc 1 426 0
 394 018a 394B     		ldr	r3, .L71+8
 395 018c 1A68     		ldr	r2, [r3, #0]
 396 018e 032A     		cmp	r2, #3
 397 0190 40F2CD80 		bls	.L23
 398              	.LBB117:
 430:/home/jonas/warwick/3dProfilometer/xpcc/src/xpcc/architecture/platform/cortex_m3/stm32/i2c/i2c_master_2.cpp **** 			*readPointer++ = dr & 0xff;
 399              		.loc 1 430 0
 400 0194 3848     		ldr	r0, .L71+16
 429:/home/jonas/warwick/3dProfilometer/xpcc/src/xpcc/architecture/platform/cortex_m3/stm32/i2c/i2c_master_2.cpp **** 			uint16_t dr = I2C2->DR;
 401              		.loc 1 429 0
 402 0196 358A     		ldrh	r5, [r6, #16]
 403              	.LVL17:
 430:/home/jonas/warwick/3dProfilometer/xpcc/src/xpcc/architecture/platform/cortex_m3/stm32/i2c/i2c_master_2.cpp **** 			*readPointer++ = dr & 0xff;
 404              		.loc 1 430 0
 405 0198 0168     		ldr	r1, [r0, #0]
 431:/home/jonas/warwick/3dProfilometer/xpcc/src/xpcc/architecture/platform/cortex_m3/stm32/i2c/i2c_master_2.cpp **** 			readBytesLeft--;
 406              		.loc 1 431 0
 407 019a 013A     		subs	r2, r2, #1
 430:/home/jonas/warwick/3dProfilometer/xpcc/src/xpcc/architecture/platform/cortex_m3/stm32/i2c/i2c_master_2.cpp **** 			*readPointer++ = dr & 0xff;
 408              		.loc 1 430 0
 409 019c 01F8015B 		strb	r5, [r1], #1
 410              	.LBE117:
 411              	.LBE116:
 436:/home/jonas/warwick/3dProfilometer/xpcc/src/xpcc/architecture/platform/cortex_m3/stm32/i2c/i2c_master_2.cpp **** 		if (readBytesLeft <= 3)
 412              		.loc 1 436 0
 413 01a0 032A     		cmp	r2, #3
 414              	.LBB119:
 415              	.LBB118:
 430:/home/jonas/warwick/3dProfilometer/xpcc/src/xpcc/architecture/platform/cortex_m3/stm32/i2c/i2c_master_2.cpp **** 			*readPointer++ = dr & 0xff;
 416              		.loc 1 430 0
 417 01a2 0160     		str	r1, [r0, #0]
 431:/home/jonas/warwick/3dProfilometer/xpcc/src/xpcc/architecture/platform/cortex_m3/stm32/i2c/i2c_master_2.cpp **** 			readBytesLeft--;
 418              		.loc 1 431 0
 419 01a4 1A60     		str	r2, [r3, #0]
 420              	.LBE118:
 421              	.LBE119:
 436:/home/jonas/warwick/3dProfilometer/xpcc/src/xpcc/architecture/platform/cortex_m3/stm32/i2c/i2c_master_2.cpp **** 		if (readBytesLeft <= 3)
 422              		.loc 1 436 0
 423 01a6 00F0C280 		beq	.L23
 424              	.LVL18:
 425              	.L64:
 426 01aa 324D     		ldr	r5, .L71+12
 427 01ac 46E7     		b	.L10
 428              	.LVL19:
 429              	.L6:
 430              	.LBE122:
 431              	.LBE126:
 432              	.LBE131:
 433              	.LBE155:
 434              	.LBB156:
 312:/home/jonas/warwick/3dProfilometer/xpcc/src/xpcc/architecture/platform/cortex_m3/stm32/i2c/i2c_master_2.cpp **** 				initializeRead(delegate->reading());
 435              		.loc 1 312 0
 436 01ae 2968     		ldr	r1, [r5, #0]
 437 01b0 0A68     		ldr	r2, [r1, #0]
 438 01b2 03A8     		add	r0, sp, #12
 439 01b4 9268     		ldr	r2, [r2, #8]
 311:/home/jonas/warwick/3dProfilometer/xpcc/src/xpcc/architecture/platform/cortex_m3/stm32/i2c/i2c_master_2.cpp **** 				address = (s.address & 0xfe) | xpcc::i2c::READ;
 440              		.loc 1 311 0
 441 01b6 43F00107 		orr	r7, r3, #1
 442              	.LVL20:
 312:/home/jonas/warwick/3dProfilometer/xpcc/src/xpcc/architecture/platform/cortex_m3/stm32/i2c/i2c_master_2.cpp **** 				initializeRead(delegate->reading());
 443              		.loc 1 312 0
 444 01ba 9047     		blx	r2
 445              	.LVL21:
 446              	.LBB141:
 447              	.LBB142:
 250:/home/jonas/warwick/3dProfilometer/xpcc/src/xpcc/architecture/platform/cortex_m3/stm32/i2c/i2c_master_2.cpp **** 		readPointer = r.buffer;
 448              		.loc 1 250 0
 449 01bc 049A     		ldr	r2, [sp, #16]
 450 01be 2E48     		ldr	r0, .L71+16
 451              	.LBE142:
 452              	.LBE141:
 536:/home/jonas/warwick/3dProfilometer/xpcc/src/xpcc/architecture/platform/cortex_m3/stm32/i2c/i2c_master_2.cpp **** 	
 537:/home/jonas/warwick/3dProfilometer/xpcc/src/xpcc/architecture/platform/cortex_m3/stm32/i2c/i2c_master_2.cpp **** // ----------------------------------------------------------------------------
 538:/home/jonas/warwick/3dProfilometer/xpcc/src/xpcc/architecture/platform/cortex_m3/stm32/i2c/i2c_master_2.cpp **** extern "C" void
 539:/home/jonas/warwick/3dProfilometer/xpcc/src/xpcc/architecture/platform/cortex_m3/stm32/i2c/i2c_master_2.cpp **** I2C2_ER_IRQHandler(void)
 540:/home/jonas/warwick/3dProfilometer/xpcc/src/xpcc/architecture/platform/cortex_m3/stm32/i2c/i2c_master_2.cpp **** {
 541:/home/jonas/warwick/3dProfilometer/xpcc/src/xpcc/architecture/platform/cortex_m3/stm32/i2c/i2c_master_2.cpp **** 	DEBUG_STREAM("ERROR!");
 542:/home/jonas/warwick/3dProfilometer/xpcc/src/xpcc/architecture/platform/cortex_m3/stm32/i2c/i2c_master_2.cpp **** 	uint16_t sr1 = I2C2->SR1;
 543:/home/jonas/warwick/3dProfilometer/xpcc/src/xpcc/architecture/platform/cortex_m3/stm32/i2c/i2c_master_2.cpp **** 	
 544:/home/jonas/warwick/3dProfilometer/xpcc/src/xpcc/architecture/platform/cortex_m3/stm32/i2c/i2c_master_2.cpp **** 	if (sr1 & I2C_SR1_BERR)
 545:/home/jonas/warwick/3dProfilometer/xpcc/src/xpcc/architecture/platform/cortex_m3/stm32/i2c/i2c_master_2.cpp **** 	{
 546:/home/jonas/warwick/3dProfilometer/xpcc/src/xpcc/architecture/platform/cortex_m3/stm32/i2c/i2c_master_2.cpp **** 		DEBUG_STREAM("BUS ERROR");
 547:/home/jonas/warwick/3dProfilometer/xpcc/src/xpcc/architecture/platform/cortex_m3/stm32/i2c/i2c_master_2.cpp **** 		I2C2->CR1 |= I2C_CR1_STOP;
 548:/home/jonas/warwick/3dProfilometer/xpcc/src/xpcc/architecture/platform/cortex_m3/stm32/i2c/i2c_master_2.cpp **** 		errorState = xpcc::stm32::I2cMaster2::BUS_ERROR;
 549:/home/jonas/warwick/3dProfilometer/xpcc/src/xpcc/architecture/platform/cortex_m3/stm32/i2c/i2c_master_2.cpp **** 	}
 550:/home/jonas/warwick/3dProfilometer/xpcc/src/xpcc/architecture/platform/cortex_m3/stm32/i2c/i2c_master_2.cpp **** 	else if (sr1 & I2C_SR1_AF)
 551:/home/jonas/warwick/3dProfilometer/xpcc/src/xpcc/architecture/platform/cortex_m3/stm32/i2c/i2c_master_2.cpp **** 	{	// acknowledge fail
 552:/home/jonas/warwick/3dProfilometer/xpcc/src/xpcc/architecture/platform/cortex_m3/stm32/i2c/i2c_master_2.cpp **** 		I2C2->CR1 |= I2C_CR1_STOP;
 553:/home/jonas/warwick/3dProfilometer/xpcc/src/xpcc/architecture/platform/cortex_m3/stm32/i2c/i2c_master_2.cpp **** 		DEBUG_STREAM("ACK FAIL");
 554:/home/jonas/warwick/3dProfilometer/xpcc/src/xpcc/architecture/platform/cortex_m3/stm32/i2c/i2c_master_2.cpp **** 		 // may also be ADDRESS_NACK
 555:/home/jonas/warwick/3dProfilometer/xpcc/src/xpcc/architecture/platform/cortex_m3/stm32/i2c/i2c_master_2.cpp **** 		errorState = xpcc::stm32::I2cMaster2::DATA_NACK;
 556:/home/jonas/warwick/3dProfilometer/xpcc/src/xpcc/architecture/platform/cortex_m3/stm32/i2c/i2c_master_2.cpp **** 	}
 557:/home/jonas/warwick/3dProfilometer/xpcc/src/xpcc/architecture/platform/cortex_m3/stm32/i2c/i2c_master_2.cpp **** 	else if (sr1 & I2C_SR1_ARLO)
 558:/home/jonas/warwick/3dProfilometer/xpcc/src/xpcc/architecture/platform/cortex_m3/stm32/i2c/i2c_master_2.cpp **** 	{	// arbitration lost
 559:/home/jonas/warwick/3dProfilometer/xpcc/src/xpcc/architecture/platform/cortex_m3/stm32/i2c/i2c_master_2.cpp **** 		DEBUG_STREAM("ARBITRATION LOST");
 560:/home/jonas/warwick/3dProfilometer/xpcc/src/xpcc/architecture/platform/cortex_m3/stm32/i2c/i2c_master_2.cpp **** 		errorState = xpcc::stm32::I2cMaster2::ARBITRATION_LOST;
 561:/home/jonas/warwick/3dProfilometer/xpcc/src/xpcc/architecture/platform/cortex_m3/stm32/i2c/i2c_master_2.cpp **** 	}
 562:/home/jonas/warwick/3dProfilometer/xpcc/src/xpcc/architecture/platform/cortex_m3/stm32/i2c/i2c_master_2.cpp **** 	else
 563:/home/jonas/warwick/3dProfilometer/xpcc/src/xpcc/architecture/platform/cortex_m3/stm32/i2c/i2c_master_2.cpp **** 	{
 564:/home/jonas/warwick/3dProfilometer/xpcc/src/xpcc/architecture/platform/cortex_m3/stm32/i2c/i2c_master_2.cpp **** 		DEBUG_STREAM("UNKNOWN");
 565:/home/jonas/warwick/3dProfilometer/xpcc/src/xpcc/architecture/platform/cortex_m3/stm32/i2c/i2c_master_2.cpp **** 		errorState = xpcc::stm32::I2cMaster2::UNKNOWN_ERROR;
 566:/home/jonas/warwick/3dProfilometer/xpcc/src/xpcc/architecture/platform/cortex_m3/stm32/i2c/i2c_master_2.cpp **** 	}
 567:/home/jonas/warwick/3dProfilometer/xpcc/src/xpcc/architecture/platform/cortex_m3/stm32/i2c/i2c_master_2.cpp **** 	
 568:/home/jonas/warwick/3dProfilometer/xpcc/src/xpcc/architecture/platform/cortex_m3/stm32/i2c/i2c_master_2.cpp **** 	if (delegate)
 569:/home/jonas/warwick/3dProfilometer/xpcc/src/xpcc/architecture/platform/cortex_m3/stm32/i2c/i2c_master_2.cpp **** 	{
 570:/home/jonas/warwick/3dProfilometer/xpcc/src/xpcc/architecture/platform/cortex_m3/stm32/i2c/i2c_master_2.cpp **** 		delegate->stopped(xpcc::i2c::Delegate::ERROR_CONDITION);
 571:/home/jonas/warwick/3dProfilometer/xpcc/src/xpcc/architecture/platform/cortex_m3/stm32/i2c/i2c_master_2.cpp **** 		delegate = 0;
 572:/home/jonas/warwick/3dProfilometer/xpcc/src/xpcc/architecture/platform/cortex_m3/stm32/i2c/i2c_master_2.cpp **** 	}
 573:/home/jonas/warwick/3dProfilometer/xpcc/src/xpcc/architecture/platform/cortex_m3/stm32/i2c/i2c_master_2.cpp **** 	
 574:/home/jonas/warwick/3dProfilometer/xpcc/src/xpcc/architecture/platform/cortex_m3/stm32/i2c/i2c_master_2.cpp **** 	// Overrun error is not handled here separately
 575:/home/jonas/warwick/3dProfilometer/xpcc/src/xpcc/architecture/platform/cortex_m3/stm32/i2c/i2c_master_2.cpp **** 	
 576:/home/jonas/warwick/3dProfilometer/xpcc/src/xpcc/architecture/platform/cortex_m3/stm32/i2c/i2c_master_2.cpp **** 	// Clear flags and interrupts
 577:/home/jonas/warwick/3dProfilometer/xpcc/src/xpcc/architecture/platform/cortex_m3/stm32/i2c/i2c_master_2.cpp **** 	I2C2->CR1 &= ~I2C_CR1_POS;
 578:/home/jonas/warwick/3dProfilometer/xpcc/src/xpcc/architecture/platform/cortex_m3/stm32/i2c/i2c_master_2.cpp **** 	I2C2->SR1 = 0;
 579:/home/jonas/warwick/3dProfilometer/xpcc/src/xpcc/architecture/platform/cortex_m3/stm32/i2c/i2c_master_2.cpp **** 	I2C2->SR2 = 0;
 580:/home/jonas/warwick/3dProfilometer/xpcc/src/xpcc/architecture/platform/cortex_m3/stm32/i2c/i2c_master_2.cpp **** 	writeBytesLeft = 0;
 581:/home/jonas/warwick/3dProfilometer/xpcc/src/xpcc/architecture/platform/cortex_m3/stm32/i2c/i2c_master_2.cpp **** 	readBytesLeft = 0;
 582:/home/jonas/warwick/3dProfilometer/xpcc/src/xpcc/architecture/platform/cortex_m3/stm32/i2c/i2c_master_2.cpp **** 	checkNextOperation = CHECK_NEXT_OPERATION_NO;
 583:/home/jonas/warwick/3dProfilometer/xpcc/src/xpcc/architecture/platform/cortex_m3/stm32/i2c/i2c_master_2.cpp **** 	
 584:/home/jonas/warwick/3dProfilometer/xpcc/src/xpcc/architecture/platform/cortex_m3/stm32/i2c/i2c_master_2.cpp **** 	DEBUG_STREAM("disable interrupts");
 585:/home/jonas/warwick/3dProfilometer/xpcc/src/xpcc/architecture/platform/cortex_m3/stm32/i2c/i2c_master_2.cpp **** 	I2C2->CR2 &= ~(I2C_CR2_ITEVTEN | I2C_CR2_ITBUFEN | I2C_CR2_ITERREN);
 586:/home/jonas/warwick/3dProfilometer/xpcc/src/xpcc/architecture/platform/cortex_m3/stm32/i2c/i2c_master_2.cpp **** }
 587:/home/jonas/warwick/3dProfilometer/xpcc/src/xpcc/architecture/platform/cortex_m3/stm32/i2c/i2c_master_2.cpp **** 	
 588:/home/jonas/warwick/3dProfilometer/xpcc/src/xpcc/architecture/platform/cortex_m3/stm32/i2c/i2c_master_2.cpp **** // ----------------------------------------------------------------------------
 589:/home/jonas/warwick/3dProfilometer/xpcc/src/xpcc/architecture/platform/cortex_m3/stm32/i2c/i2c_master_2.cpp **** void
 590:/home/jonas/warwick/3dProfilometer/xpcc/src/xpcc/architecture/platform/cortex_m3/stm32/i2c/i2c_master_2.cpp **** xpcc::stm32::I2cMaster2::configurePins(Mapping mapping)
 591:/home/jonas/warwick/3dProfilometer/xpcc/src/xpcc/architecture/platform/cortex_m3/stm32/i2c/i2c_master_2.cpp **** {
 592:/home/jonas/warwick/3dProfilometer/xpcc/src/xpcc/architecture/platform/cortex_m3/stm32/i2c/i2c_master_2.cpp **** 	// Enable clock
 593:/home/jonas/warwick/3dProfilometer/xpcc/src/xpcc/architecture/platform/cortex_m3/stm32/i2c/i2c_master_2.cpp **** 	RCC->APB1ENR |= RCC_APB1ENR_I2C2EN;
 594:/home/jonas/warwick/3dProfilometer/xpcc/src/xpcc/architecture/platform/cortex_m3/stm32/i2c/i2c_master_2.cpp **** 	
 595:/home/jonas/warwick/3dProfilometer/xpcc/src/xpcc/architecture/platform/cortex_m3/stm32/i2c/i2c_master_2.cpp **** 	// Initialize IO pins
 596:/home/jonas/warwick/3dProfilometer/xpcc/src/xpcc/architecture/platform/cortex_m3/stm32/i2c/i2c_master_2.cpp **** #if defined(STM32F2XX) || defined(STM32F4XX)
 597:/home/jonas/warwick/3dProfilometer/xpcc/src/xpcc/architecture/platform/cortex_m3/stm32/i2c/i2c_master_2.cpp **** 	if (mapping == REMAP_PB10_PB11) {
 598:/home/jonas/warwick/3dProfilometer/xpcc/src/xpcc/architecture/platform/cortex_m3/stm32/i2c/i2c_master_2.cpp **** 		SclB10::setAlternateFunction(AF_I2C2, xpcc::stm32::OPEN_DRAIN);
 599:/home/jonas/warwick/3dProfilometer/xpcc/src/xpcc/architecture/platform/cortex_m3/stm32/i2c/i2c_master_2.cpp **** 		SdaB11::setAlternateFunction(AF_I2C2, xpcc::stm32::OPEN_DRAIN);
 600:/home/jonas/warwick/3dProfilometer/xpcc/src/xpcc/architecture/platform/cortex_m3/stm32/i2c/i2c_master_2.cpp **** 	}
 601:/home/jonas/warwick/3dProfilometer/xpcc/src/xpcc/architecture/platform/cortex_m3/stm32/i2c/i2c_master_2.cpp **** 	if (mapping == REMAP_PF1_PF0) {
 602:/home/jonas/warwick/3dProfilometer/xpcc/src/xpcc/architecture/platform/cortex_m3/stm32/i2c/i2c_master_2.cpp **** 		SclF1::setAlternateFunction(AF_I2C2, xpcc::stm32::OPEN_DRAIN);
 603:/home/jonas/warwick/3dProfilometer/xpcc/src/xpcc/architecture/platform/cortex_m3/stm32/i2c/i2c_master_2.cpp **** 		SdaF0::setAlternateFunction(AF_I2C2, xpcc::stm32::OPEN_DRAIN);
 604:/home/jonas/warwick/3dProfilometer/xpcc/src/xpcc/architecture/platform/cortex_m3/stm32/i2c/i2c_master_2.cpp **** 	}
 605:/home/jonas/warwick/3dProfilometer/xpcc/src/xpcc/architecture/platform/cortex_m3/stm32/i2c/i2c_master_2.cpp **** 	else {
 606:/home/jonas/warwick/3dProfilometer/xpcc/src/xpcc/architecture/platform/cortex_m3/stm32/i2c/i2c_master_2.cpp **** 		SclH4::setAlternateFunction(AF_I2C2, xpcc::stm32::OPEN_DRAIN);
 607:/home/jonas/warwick/3dProfilometer/xpcc/src/xpcc/architecture/platform/cortex_m3/stm32/i2c/i2c_master_2.cpp **** 		SdaH5::setAlternateFunction(AF_I2C2, xpcc::stm32::OPEN_DRAIN);
 608:/home/jonas/warwick/3dProfilometer/xpcc/src/xpcc/architecture/platform/cortex_m3/stm32/i2c/i2c_master_2.cpp **** 	}
 609:/home/jonas/warwick/3dProfilometer/xpcc/src/xpcc/architecture/platform/cortex_m3/stm32/i2c/i2c_master_2.cpp **** #else
 610:/home/jonas/warwick/3dProfilometer/xpcc/src/xpcc/architecture/platform/cortex_m3/stm32/i2c/i2c_master_2.cpp **** 	(void) mapping;		// avoid compiler warning
 611:/home/jonas/warwick/3dProfilometer/xpcc/src/xpcc/architecture/platform/cortex_m3/stm32/i2c/i2c_master_2.cpp **** 	
 612:/home/jonas/warwick/3dProfilometer/xpcc/src/xpcc/architecture/platform/cortex_m3/stm32/i2c/i2c_master_2.cpp **** 	SclB10::setAlternateFunction(xpcc::stm32::OPEN_DRAIN);
 613:/home/jonas/warwick/3dProfilometer/xpcc/src/xpcc/architecture/platform/cortex_m3/stm32/i2c/i2c_master_2.cpp **** 	SdaB11::setAlternateFunction(xpcc::stm32::OPEN_DRAIN);
 614:/home/jonas/warwick/3dProfilometer/xpcc/src/xpcc/architecture/platform/cortex_m3/stm32/i2c/i2c_master_2.cpp **** #endif
 615:/home/jonas/warwick/3dProfilometer/xpcc/src/xpcc/architecture/platform/cortex_m3/stm32/i2c/i2c_master_2.cpp **** }
 616:/home/jonas/warwick/3dProfilometer/xpcc/src/xpcc/architecture/platform/cortex_m3/stm32/i2c/i2c_master_2.cpp **** 	
 617:/home/jonas/warwick/3dProfilometer/xpcc/src/xpcc/architecture/platform/cortex_m3/stm32/i2c/i2c_master_2.cpp **** void
 618:/home/jonas/warwick/3dProfilometer/xpcc/src/xpcc/architecture/platform/cortex_m3/stm32/i2c/i2c_master_2.cpp **** xpcc::stm32::I2cMaster2::initialize(uint16_t ccrPrescaler)
 619:/home/jonas/warwick/3dProfilometer/xpcc/src/xpcc/architecture/platform/cortex_m3/stm32/i2c/i2c_master_2.cpp **** {
 620:/home/jonas/warwick/3dProfilometer/xpcc/src/xpcc/architecture/platform/cortex_m3/stm32/i2c/i2c_master_2.cpp **** 	reset();
 621:/home/jonas/warwick/3dProfilometer/xpcc/src/xpcc/architecture/platform/cortex_m3/stm32/i2c/i2c_master_2.cpp **** 	// Enable clock
 622:/home/jonas/warwick/3dProfilometer/xpcc/src/xpcc/architecture/platform/cortex_m3/stm32/i2c/i2c_master_2.cpp **** 	RCC->APB1ENR |= RCC_APB1ENR_I2C2EN;
 623:/home/jonas/warwick/3dProfilometer/xpcc/src/xpcc/architecture/platform/cortex_m3/stm32/i2c/i2c_master_2.cpp **** 	
 624:/home/jonas/warwick/3dProfilometer/xpcc/src/xpcc/architecture/platform/cortex_m3/stm32/i2c/i2c_master_2.cpp **** 	I2C2->CR1 = I2C_CR1_SWRST; 		// reset module
 625:/home/jonas/warwick/3dProfilometer/xpcc/src/xpcc/architecture/platform/cortex_m3/stm32/i2c/i2c_master_2.cpp **** 	I2C2->CR1 = 0;
 626:/home/jonas/warwick/3dProfilometer/xpcc/src/xpcc/architecture/platform/cortex_m3/stm32/i2c/i2c_master_2.cpp **** 	
 627:/home/jonas/warwick/3dProfilometer/xpcc/src/xpcc/architecture/platform/cortex_m3/stm32/i2c/i2c_master_2.cpp **** 	NVIC_EnableIRQ(I2C2_ER_IRQn);
 628:/home/jonas/warwick/3dProfilometer/xpcc/src/xpcc/architecture/platform/cortex_m3/stm32/i2c/i2c_master_2.cpp **** 	NVIC_EnableIRQ(I2C2_EV_IRQn);
 629:/home/jonas/warwick/3dProfilometer/xpcc/src/xpcc/architecture/platform/cortex_m3/stm32/i2c/i2c_master_2.cpp **** 	
 630:/home/jonas/warwick/3dProfilometer/xpcc/src/xpcc/architecture/platform/cortex_m3/stm32/i2c/i2c_master_2.cpp **** 	I2C2->CR2 = STM32_APB1_FREQUENCY/1000000;
 631:/home/jonas/warwick/3dProfilometer/xpcc/src/xpcc/architecture/platform/cortex_m3/stm32/i2c/i2c_master_2.cpp **** 	I2C2->CCR = ccrPrescaler;
 632:/home/jonas/warwick/3dProfilometer/xpcc/src/xpcc/architecture/platform/cortex_m3/stm32/i2c/i2c_master_2.cpp **** 	DEBUG_STREAM("ccrPrescaler=" << ccrPrescaler);
 633:/home/jonas/warwick/3dProfilometer/xpcc/src/xpcc/architecture/platform/cortex_m3/stm32/i2c/i2c_master_2.cpp **** 	I2C2->TRISE = 0x09;
 634:/home/jonas/warwick/3dProfilometer/xpcc/src/xpcc/architecture/platform/cortex_m3/stm32/i2c/i2c_master_2.cpp **** 	
 635:/home/jonas/warwick/3dProfilometer/xpcc/src/xpcc/architecture/platform/cortex_m3/stm32/i2c/i2c_master_2.cpp **** 	I2C2->CR1 |= I2C_CR1_PE; // Enable peripheral
 636:/home/jonas/warwick/3dProfilometer/xpcc/src/xpcc/architecture/platform/cortex_m3/stm32/i2c/i2c_master_2.cpp **** }
 637:/home/jonas/warwick/3dProfilometer/xpcc/src/xpcc/architecture/platform/cortex_m3/stm32/i2c/i2c_master_2.cpp **** 	
 638:/home/jonas/warwick/3dProfilometer/xpcc/src/xpcc/architecture/platform/cortex_m3/stm32/i2c/i2c_master_2.cpp **** void
 639:/home/jonas/warwick/3dProfilometer/xpcc/src/xpcc/architecture/platform/cortex_m3/stm32/i2c/i2c_master_2.cpp **** xpcc::stm32::I2cMaster2::reset(bool error)
 640:/home/jonas/warwick/3dProfilometer/xpcc/src/xpcc/architecture/platform/cortex_m3/stm32/i2c/i2c_master_2.cpp **** {
 641:/home/jonas/warwick/3dProfilometer/xpcc/src/xpcc/architecture/platform/cortex_m3/stm32/i2c/i2c_master_2.cpp **** 	readBytesLeft = 0;
 642:/home/jonas/warwick/3dProfilometer/xpcc/src/xpcc/architecture/platform/cortex_m3/stm32/i2c/i2c_master_2.cpp **** 	writeBytesLeft = 0;
 643:/home/jonas/warwick/3dProfilometer/xpcc/src/xpcc/architecture/platform/cortex_m3/stm32/i2c/i2c_master_2.cpp **** 	if (delegate) delegate->stopped(error ? xpcc::i2c::Delegate::ERROR_CONDITION : xpcc::i2c::Delegate
 644:/home/jonas/warwick/3dProfilometer/xpcc/src/xpcc/architecture/platform/cortex_m3/stm32/i2c/i2c_master_2.cpp **** 	delegate = 0;
 645:/home/jonas/warwick/3dProfilometer/xpcc/src/xpcc/architecture/platform/cortex_m3/stm32/i2c/i2c_master_2.cpp **** }
 646:/home/jonas/warwick/3dProfilometer/xpcc/src/xpcc/architecture/platform/cortex_m3/stm32/i2c/i2c_master_2.cpp **** 	
 647:/home/jonas/warwick/3dProfilometer/xpcc/src/xpcc/architecture/platform/cortex_m3/stm32/i2c/i2c_master_2.cpp **** // MARK: - ownership
 648:/home/jonas/warwick/3dProfilometer/xpcc/src/xpcc/architecture/platform/cortex_m3/stm32/i2c/i2c_master_2.cpp **** bool
 649:/home/jonas/warwick/3dProfilometer/xpcc/src/xpcc/architecture/platform/cortex_m3/stm32/i2c/i2c_master_2.cpp **** xpcc::stm32::I2cMaster2::start(xpcc::i2c::Delegate *delegate)
 650:/home/jonas/warwick/3dProfilometer/xpcc/src/xpcc/architecture/platform/cortex_m3/stm32/i2c/i2c_master_2.cpp **** {
 651:/home/jonas/warwick/3dProfilometer/xpcc/src/xpcc/architecture/platform/cortex_m3/stm32/i2c/i2c_master_2.cpp **** 	if (!::delegate && delegate && delegate->attaching())
 652:/home/jonas/warwick/3dProfilometer/xpcc/src/xpcc/architecture/platform/cortex_m3/stm32/i2c/i2c_master_2.cpp **** 	{
 653:/home/jonas/warwick/3dProfilometer/xpcc/src/xpcc/architecture/platform/cortex_m3/stm32/i2c/i2c_master_2.cpp **** 		DEBUG_STREAM("\n###\n");
 654:/home/jonas/warwick/3dProfilometer/xpcc/src/xpcc/architecture/platform/cortex_m3/stm32/i2c/i2c_master_2.cpp **** 		::delegate = delegate;
 655:/home/jonas/warwick/3dProfilometer/xpcc/src/xpcc/architecture/platform/cortex_m3/stm32/i2c/i2c_master_2.cpp **** 		callStarting();
 656:/home/jonas/warwick/3dProfilometer/xpcc/src/xpcc/architecture/platform/cortex_m3/stm32/i2c/i2c_master_2.cpp **** 		
 657:/home/jonas/warwick/3dProfilometer/xpcc/src/xpcc/architecture/platform/cortex_m3/stm32/i2c/i2c_master_2.cpp **** 		return true;
 658:/home/jonas/warwick/3dProfilometer/xpcc/src/xpcc/architecture/platform/cortex_m3/stm32/i2c/i2c_master_2.cpp **** 	}
 659:/home/jonas/warwick/3dProfilometer/xpcc/src/xpcc/architecture/platform/cortex_m3/stm32/i2c/i2c_master_2.cpp **** 	return false;
 660:/home/jonas/warwick/3dProfilometer/xpcc/src/xpcc/architecture/platform/cortex_m3/stm32/i2c/i2c_master_2.cpp **** }
 661:/home/jonas/warwick/3dProfilometer/xpcc/src/xpcc/architecture/platform/cortex_m3/stm32/i2c/i2c_master_2.cpp **** 	
 662:/home/jonas/warwick/3dProfilometer/xpcc/src/xpcc/architecture/platform/cortex_m3/stm32/i2c/i2c_master_2.cpp **** bool
 663:/home/jonas/warwick/3dProfilometer/xpcc/src/xpcc/architecture/platform/cortex_m3/stm32/i2c/i2c_master_2.cpp **** xpcc::stm32::I2cMaster2::startSync(xpcc::i2c::Delegate *delegate)
 664:/home/jonas/warwick/3dProfilometer/xpcc/src/xpcc/architecture/platform/cortex_m3/stm32/i2c/i2c_master_2.cpp **** {
 665:/home/jonas/warwick/3dProfilometer/xpcc/src/xpcc/architecture/platform/cortex_m3/stm32/i2c/i2c_master_2.cpp **** 	if (!::delegate && delegate && delegate->attaching())
 666:/home/jonas/warwick/3dProfilometer/xpcc/src/xpcc/architecture/platform/cortex_m3/stm32/i2c/i2c_master_2.cpp **** 	{
 667:/home/jonas/warwick/3dProfilometer/xpcc/src/xpcc/architecture/platform/cortex_m3/stm32/i2c/i2c_master_2.cpp **** 		DEBUG_STREAM("\n###\n");
 668:/home/jonas/warwick/3dProfilometer/xpcc/src/xpcc/architecture/platform/cortex_m3/stm32/i2c/i2c_master_2.cpp **** 		::delegate = delegate;
 669:/home/jonas/warwick/3dProfilometer/xpcc/src/xpcc/architecture/platform/cortex_m3/stm32/i2c/i2c_master_2.cpp **** 		callStarting();
 670:/home/jonas/warwick/3dProfilometer/xpcc/src/xpcc/architecture/platform/cortex_m3/stm32/i2c/i2c_master_2.cpp **** 		
 671:/home/jonas/warwick/3dProfilometer/xpcc/src/xpcc/architecture/platform/cortex_m3/stm32/i2c/i2c_master_2.cpp **** 		// memory barrier, yes you really need it
 672:/home/jonas/warwick/3dProfilometer/xpcc/src/xpcc/architecture/platform/cortex_m3/stm32/i2c/i2c_master_2.cpp **** 		__asm__ volatile ("dmb" ::: "memory");
 673:/home/jonas/warwick/3dProfilometer/xpcc/src/xpcc/architecture/platform/cortex_m3/stm32/i2c/i2c_master_2.cpp **** 		
 674:/home/jonas/warwick/3dProfilometer/xpcc/src/xpcc/architecture/platform/cortex_m3/stm32/i2c/i2c_master_2.cpp **** 		while(::delegate != 0)
 675:/home/jonas/warwick/3dProfilometer/xpcc/src/xpcc/architecture/platform/cortex_m3/stm32/i2c/i2c_master_2.cpp **** 			;
 676:/home/jonas/warwick/3dProfilometer/xpcc/src/xpcc/architecture/platform/cortex_m3/stm32/i2c/i2c_master_2.cpp **** 		
 677:/home/jonas/warwick/3dProfilometer/xpcc/src/xpcc/architecture/platform/cortex_m3/stm32/i2c/i2c_master_2.cpp **** 		return true;
 678:/home/jonas/warwick/3dProfilometer/xpcc/src/xpcc/architecture/platform/cortex_m3/stm32/i2c/i2c_master_2.cpp **** 	}
 679:/home/jonas/warwick/3dProfilometer/xpcc/src/xpcc/architecture/platform/cortex_m3/stm32/i2c/i2c_master_2.cpp **** 	return false;
 680:/home/jonas/warwick/3dProfilometer/xpcc/src/xpcc/architecture/platform/cortex_m3/stm32/i2c/i2c_master_2.cpp **** }
 681:/home/jonas/warwick/3dProfilometer/xpcc/src/xpcc/architecture/platform/cortex_m3/stm32/i2c/i2c_master_2.cpp **** 	
 682:/home/jonas/warwick/3dProfilometer/xpcc/src/xpcc/architecture/platform/cortex_m3/stm32/i2c/i2c_master_2.cpp **** uint8_t
 683:/home/jonas/warwick/3dProfilometer/xpcc/src/xpcc/architecture/platform/cortex_m3/stm32/i2c/i2c_master_2.cpp **** xpcc::stm32::I2cMaster2::getErrorState()
 684:/home/jonas/warwick/3dProfilometer/xpcc/src/xpcc/architecture/platform/cortex_m3/stm32/i2c/i2c_master_2.cpp **** {
 685:/home/jonas/warwick/3dProfilometer/xpcc/src/xpcc/architecture/platform/cortex_m3/stm32/i2c/i2c_master_2.cpp **** 	return errorState;
 686:/home/jonas/warwick/3dProfilometer/xpcc/src/xpcc/architecture/platform/cortex_m3/stm32/i2c/i2c_master_2.cpp **** }
 453              		.loc 1 686 0
 454 01c0 059B     		ldr	r3, [sp, #20]
 455              	.LBB146:
 456              	.LBB143:
 250:/home/jonas/warwick/3dProfilometer/xpcc/src/xpcc/architecture/platform/cortex_m3/stm32/i2c/i2c_master_2.cpp **** 		readPointer = r.buffer;
 457              		.loc 1 250 0
 458 01c2 0260     		str	r2, [r0, #0]
 251:/home/jonas/warwick/3dProfilometer/xpcc/src/xpcc/architecture/platform/cortex_m3/stm32/i2c/i2c_master_2.cpp **** 		readBytesLeft = r.size;
 459              		.loc 1 251 0
 460 01c4 2A4A     		ldr	r2, .L71+8
 461              	.LBE143:
 462              	.LBE146:
 463              		.loc 1 686 0
 464 01c6 9DF80C10 		ldrb	r1, [sp, #12]	@ zero_extendqisi2
 465              	.LBB147:
 466              	.LBB144:
 251:/home/jonas/warwick/3dProfilometer/xpcc/src/xpcc/architecture/platform/cortex_m3/stm32/i2c/i2c_master_2.cpp **** 		readBytesLeft = r.size;
 467              		.loc 1 251 0
 468 01ca 1360     		str	r3, [r2, #0]
 252:/home/jonas/warwick/3dProfilometer/xpcc/src/xpcc/architecture/platform/cortex_m3/stm32/i2c/i2c_master_2.cpp **** 		writeBytesLeft = 0;
 469              		.loc 1 252 0
 470 01cc 274A     		ldr	r2, .L71+4
 471 01ce 0020     		movs	r0, #0
 472 01d0 1060     		str	r0, [r2, #0]
 253:/home/jonas/warwick/3dProfilometer/xpcc/src/xpcc/architecture/platform/cortex_m3/stm32/i2c/i2c_master_2.cpp **** 		nextOperation = static_cast<xpcc::i2c::Delegate::NextOperation>(r.next);
 473              		.loc 1 253 0
 474 01d2 2A4A     		ldr	r2, .L71+20
 475              	.LBE144:
 476              	.LBE147:
 313:/home/jonas/warwick/3dProfilometer/xpcc/src/xpcc/architecture/platform/cortex_m3/stm32/i2c/i2c_master_2.cpp **** 				if (readBytesLeft <= 2)
 477              		.loc 1 313 0
 478 01d4 022B     		cmp	r3, #2
 479              	.LBB148:
 480              	.LBB145:
 253:/home/jonas/warwick/3dProfilometer/xpcc/src/xpcc/architecture/platform/cortex_m3/stm32/i2c/i2c_master_2.cpp **** 		nextOperation = static_cast<xpcc::i2c::Delegate::NextOperation>(r.next);
 481              		.loc 1 253 0
 482 01d6 1170     		strb	r1, [r2, #0]
 483              	.LBE145:
 484              	.LBE148:
 316:/home/jonas/warwick/3dProfilometer/xpcc/src/xpcc/architecture/platform/cortex_m3/stm32/i2c/i2c_master_2.cpp **** 					I2C2->CR1 &= ~I2C_CR1_ACK;
 485              		.loc 1 316 0
 486 01d8 3388     		ldrh	r3, [r6, #0]
 313:/home/jonas/warwick/3dProfilometer/xpcc/src/xpcc/architecture/platform/cortex_m3/stm32/i2c/i2c_master_2.cpp **** 				if (readBytesLeft <= 2)
 487              		.loc 1 313 0
 488 01da 00F2AB80 		bhi	.L7
 316:/home/jonas/warwick/3dProfilometer/xpcc/src/xpcc/architecture/platform/cortex_m3/stm32/i2c/i2c_master_2.cpp **** 					I2C2->CR1 &= ~I2C_CR1_ACK;
 489              		.loc 1 316 0
 490 01de 23F48063 		bic	r3, r3, #1024
 491 01e2 4FEA0343 		lsl	r3, r3, #16
 492 01e6 4FEA1343 		lsr	r3, r3, #16
 493 01ea 3380     		strh	r3, [r6, #0]	@ movhi
 323:/home/jonas/warwick/3dProfilometer/xpcc/src/xpcc/architecture/platform/cortex_m3/stm32/i2c/i2c_master_2.cpp **** 				if (readBytesLeft == 2)
 494              		.loc 1 323 0
 495 01ec A8D1     		bne	.L9
 326:/home/jonas/warwick/3dProfilometer/xpcc/src/xpcc/architecture/platform/cortex_m3/stm32/i2c/i2c_master_2.cpp **** 					I2C2->CR1 |= I2C_CR1_POS;
 496              		.loc 1 326 0
 497 01ee 3388     		ldrh	r3, [r6, #0]
 498 01f0 9BB2     		uxth	r3, r3
 499 01f2 43F40063 		orr	r3, r3, #2048
 500 01f6 3380     		strh	r3, [r6, #0]	@ movhi
 501 01f8 A2E7     		b	.L9
 502              	.LVL22:
 503              	.L68:
 504              	.LBE156:
 505              	.LBE176:
 505:/home/jonas/warwick/3dProfilometer/xpcc/src/xpcc/architecture/platform/cortex_m3/stm32/i2c/i2c_master_2.cpp **** 				if (checkNextOperation != CHECK_NEXT_OPERATION_YES_NO_STOP_BIT)
 506              		.loc 1 505 0
 507 01fa 032B     		cmp	r3, #3
 508 01fc 3FF45FAF 		beq	.L36
 507:/home/jonas/warwick/3dProfilometer/xpcc/src/xpcc/architecture/platform/cortex_m3/stm32/i2c/i2c_master_2.cpp **** 					initializeWrite(delegate->writing());
 509              		.loc 1 507 0
 510 0200 1F4B     		ldr	r3, .L71+24
 511              	.LBB177:
 512              	.LBB178:
 241:/home/jonas/warwick/3dProfilometer/xpcc/src/xpcc/architecture/platform/cortex_m3/stm32/i2c/i2c_master_2.cpp **** 		writePointer = w.buffer;
 513              		.loc 1 241 0
 514 0202 204E     		ldr	r6, .L71+28
 515              	.LBE178:
 516              	.LBE177:
 507:/home/jonas/warwick/3dProfilometer/xpcc/src/xpcc/architecture/platform/cortex_m3/stm32/i2c/i2c_master_2.cpp **** 					initializeWrite(delegate->writing());
 517              		.loc 1 507 0
 518 0204 1968     		ldr	r1, [r3, #0]
 519 0206 0B68     		ldr	r3, [r1, #0]
 520 0208 09A8     		add	r0, sp, #36
 521 020a DB68     		ldr	r3, [r3, #12]
 522 020c 9847     		blx	r3
 523              	.LVL23:
 524              	.LBB183:
 525              	.LBB179:
 241:/home/jonas/warwick/3dProfilometer/xpcc/src/xpcc/architecture/platform/cortex_m3/stm32/i2c/i2c_master_2.cpp **** 		writePointer = w.buffer;
 526              		.loc 1 241 0
 527 020e 0A9A     		ldr	r2, [sp, #40]
 528              	.LBE179:
 529              	.LBE183:
 509:/home/jonas/warwick/3dProfilometer/xpcc/src/xpcc/architecture/platform/cortex_m3/stm32/i2c/i2c_master_2.cpp **** 					I2C2->CR2 |= I2C_CR2_ITBUFEN;
 530              		.loc 1 509 0
 531 0210 154B     		ldr	r3, .L71
 532              		.loc 1 686 0
 533 0212 9DF82400 		ldrb	r0, [sp, #36]	@ zero_extendqisi2
 509:/home/jonas/warwick/3dProfilometer/xpcc/src/xpcc/architecture/platform/cortex_m3/stm32/i2c/i2c_master_2.cpp **** 					I2C2->CR2 |= I2C_CR2_ITBUFEN;
 534              		.loc 1 509 0
 535 0216 9988     		ldrh	r1, [r3, #4]
 536              	.LBB184:
 537              	.LBB180:
 241:/home/jonas/warwick/3dProfilometer/xpcc/src/xpcc/architecture/platform/cortex_m3/stm32/i2c/i2c_master_2.cpp **** 		writePointer = w.buffer;
 538              		.loc 1 241 0
 539 0218 3260     		str	r2, [r6, #0]
 242:/home/jonas/warwick/3dProfilometer/xpcc/src/xpcc/architecture/platform/cortex_m3/stm32/i2c/i2c_master_2.cpp **** 		writeBytesLeft = w.size;
 540              		.loc 1 242 0
 541 021a 0B9A     		ldr	r2, [sp, #44]
 542 021c 134E     		ldr	r6, .L71+4
 244:/home/jonas/warwick/3dProfilometer/xpcc/src/xpcc/architecture/platform/cortex_m3/stm32/i2c/i2c_master_2.cpp **** 		nextOperation = static_cast<xpcc::i2c::Delegate::NextOperation>(w.next);
 543              		.loc 1 244 0
 544 021e 2070     		strb	r0, [r4, #0]
 242:/home/jonas/warwick/3dProfilometer/xpcc/src/xpcc/architecture/platform/cortex_m3/stm32/i2c/i2c_master_2.cpp **** 		writeBytesLeft = w.size;
 545              		.loc 1 242 0
 546 0220 3260     		str	r2, [r6, #0]
 547              	.LBE180:
 548              	.LBE184:
 509:/home/jonas/warwick/3dProfilometer/xpcc/src/xpcc/architecture/platform/cortex_m3/stm32/i2c/i2c_master_2.cpp **** 					I2C2->CR2 |= I2C_CR2_ITBUFEN;
 549              		.loc 1 509 0
 550 0222 89B2     		uxth	r1, r1
 551              	.LBB185:
 552              	.LBB181:
 243:/home/jonas/warwick/3dProfilometer/xpcc/src/xpcc/architecture/platform/cortex_m3/stm32/i2c/i2c_master_2.cpp **** 		readBytesLeft = 0;
 553              		.loc 1 243 0
 554 0224 124A     		ldr	r2, .L71+8
 555              	.LBE181:
 556              	.LBE185:
 509:/home/jonas/warwick/3dProfilometer/xpcc/src/xpcc/architecture/platform/cortex_m3/stm32/i2c/i2c_master_2.cpp **** 					I2C2->CR2 |= I2C_CR2_ITBUFEN;
 557              		.loc 1 509 0
 558 0226 41F48061 		orr	r1, r1, #1024
 559              	.LBB186:
 560              	.LBB182:
 243:/home/jonas/warwick/3dProfilometer/xpcc/src/xpcc/architecture/platform/cortex_m3/stm32/i2c/i2c_master_2.cpp **** 		readBytesLeft = 0;
 561              		.loc 1 243 0
 562 022a 0026     		movs	r6, #0
 563 022c 1660     		str	r6, [r2, #0]
 564              	.LBE182:
 565              	.LBE186:
 509:/home/jonas/warwick/3dProfilometer/xpcc/src/xpcc/architecture/platform/cortex_m3/stm32/i2c/i2c_master_2.cpp **** 					I2C2->CR2 |= I2C_CR2_ITBUFEN;
 566              		.loc 1 509 0
 567 022e 9980     		strh	r1, [r3, #4]	@ movhi
 568 0230 45E7     		b	.L36
 569              	.L34:
 570              	.LBB187:
 571              	.LBB188:
 277:/home/jonas/warwick/3dProfilometer/xpcc/src/xpcc/architecture/platform/cortex_m3/stm32/i2c/i2c_master_2.cpp **** 		I2C2->CR1 &= ~I2C_CR1_POS;
 572              		.loc 1 277 0
 573 0232 0D4B     		ldr	r3, .L71
 574 0234 1A88     		ldrh	r2, [r3, #0]
 575 0236 22F40062 		bic	r2, r2, #2048
 576 023a 1204     		lsls	r2, r2, #16
 278:/home/jonas/warwick/3dProfilometer/xpcc/src/xpcc/architecture/platform/cortex_m3/stm32/i2c/i2c_master_2.cpp **** 		I2C2->SR1 = 0;
 577              		.loc 1 278 0
 578 023c 0021     		movs	r1, #0
 277:/home/jonas/warwick/3dProfilometer/xpcc/src/xpcc/architecture/platform/cortex_m3/stm32/i2c/i2c_master_2.cpp **** 		I2C2->CR1 &= ~I2C_CR1_POS;
 579              		.loc 1 277 0
 580 023e 120C     		lsrs	r2, r2, #16
 581 0240 1A80     		strh	r2, [r3, #0]	@ movhi
 278:/home/jonas/warwick/3dProfilometer/xpcc/src/xpcc/architecture/platform/cortex_m3/stm32/i2c/i2c_master_2.cpp **** 		I2C2->SR1 = 0;
 582              		.loc 1 278 0
 583 0242 9982     		strh	r1, [r3, #20]	@ movhi
 279:/home/jonas/warwick/3dProfilometer/xpcc/src/xpcc/architecture/platform/cortex_m3/stm32/i2c/i2c_master_2.cpp **** 		I2C2->SR2 = 0;
 584              		.loc 1 279 0
 585 0244 1983     		strh	r1, [r3, #24]	@ movhi
 282:/home/jonas/warwick/3dProfilometer/xpcc/src/xpcc/architecture/platform/cortex_m3/stm32/i2c/i2c_master_2.cpp **** 		I2C2->CR1 |= I2C_CR1_START;
 586              		.loc 1 282 0
 587 0246 1A88     		ldrh	r2, [r3, #0]
 588 0248 92B2     		uxth	r2, r2
 589 024a 42F48072 		orr	r2, r2, #256
 590 024e 1A80     		strh	r2, [r3, #0]	@ movhi
 287:/home/jonas/warwick/3dProfilometer/xpcc/src/xpcc/architecture/platform/cortex_m3/stm32/i2c/i2c_master_2.cpp **** 		I2C2->CR2 &= ~I2C_CR2_ITBUFEN;
 591              		.loc 1 287 0
 592 0250 9A88     		ldrh	r2, [r3, #4]
 593 0252 22F48062 		bic	r2, r2, #1024
 594 0256 1204     		lsls	r2, r2, #16
 595 0258 120C     		lsrs	r2, r2, #16
 596 025a 9A80     		strh	r2, [r3, #4]	@ movhi
 288:/home/jonas/warwick/3dProfilometer/xpcc/src/xpcc/architecture/platform/cortex_m3/stm32/i2c/i2c_master_2.cpp **** 		I2C2->CR2 |= I2C_CR2_ITEVTEN | I2C_CR2_ITERREN;
 597              		.loc 1 288 0
 598 025c 9A88     		ldrh	r2, [r3, #4]
 599 025e 92B2     		uxth	r2, r2
 600 0260 42F44072 		orr	r2, r2, #768
 601 0264 9A80     		strh	r2, [r3, #4]	@ movhi
 602 0266 2AE7     		b	.L36
 603              	.L72:
 604              		.align	2
 605              	.L71:
 606 0268 00580040 		.word	1073764352
 607 026c 00000000 		.word	.LANCHOR3
 608 0270 00000000 		.word	.LANCHOR2
 609 0274 00000000 		.word	.LANCHOR6
 610 0278 00000000 		.word	.LANCHOR1
 611 027c 00000000 		.word	.LANCHOR4
 612 0280 00000000 		.word	.LANCHOR0
 613 0284 00000000 		.word	.LANCHOR5
 614              	.L67:
 615              	.LBE188:
 616              	.LBE187:
 617              	.LBB189:
 618              	.LBB169:
 488:/home/jonas/warwick/3dProfilometer/xpcc/src/xpcc/architecture/platform/cortex_m3/stm32/i2c/i2c_master_2.cpp **** 		if (checkNextOperation == CHECK_NEXT_OPERATION_NO_WAIT_FOR_BTF
 619              		.loc 1 488 0 discriminator 1
 620 0288 2D4B     		ldr	r3, .L73
 621 028a 1B68     		ldr	r3, [r3, #0]
 622 028c 002B     		cmp	r3, #0
 623 028e 7FF418AF 		bne	.L1
 494:/home/jonas/warwick/3dProfilometer/xpcc/src/xpcc/architecture/platform/cortex_m3/stm32/i2c/i2c_master_2.cpp **** 			checkNextOperation = CHECK_NEXT_OPERATION_YES;
 624              		.loc 1 494 0
 625 0292 0223     		movs	r3, #2
 626 0294 2B70     		strb	r3, [r5, #0]
 627 0296 F2E6     		b	.L31
 628              	.L25:
 629              	.LBB168:
 630              	.LBB165:
 455:/home/jonas/warwick/3dProfilometer/xpcc/src/xpcc/architecture/platform/cortex_m3/stm32/i2c/i2c_master_2.cpp **** 			I2C2->CR1 |= I2C_CR1_STOP;
 631              		.loc 1 455 0
 632 0298 2A4B     		ldr	r3, .L73+4
 459:/home/jonas/warwick/3dProfilometer/xpcc/src/xpcc/architecture/platform/cortex_m3/stm32/i2c/i2c_master_2.cpp **** 			*readPointer++ = dr & 0xff;
 633              		.loc 1 459 0
 634 029a 2B48     		ldr	r0, .L73+8
 455:/home/jonas/warwick/3dProfilometer/xpcc/src/xpcc/architecture/platform/cortex_m3/stm32/i2c/i2c_master_2.cpp **** 			I2C2->CR1 |= I2C_CR1_STOP;
 635              		.loc 1 455 0
 636 029c 1C88     		ldrh	r4, [r3, #0]
 459:/home/jonas/warwick/3dProfilometer/xpcc/src/xpcc/architecture/platform/cortex_m3/stm32/i2c/i2c_master_2.cpp **** 			*readPointer++ = dr & 0xff;
 637              		.loc 1 459 0
 638 029e 0268     		ldr	r2, [r0, #0]
 455:/home/jonas/warwick/3dProfilometer/xpcc/src/xpcc/architecture/platform/cortex_m3/stm32/i2c/i2c_master_2.cpp **** 			I2C2->CR1 |= I2C_CR1_STOP;
 639              		.loc 1 455 0
 640 02a0 A4B2     		uxth	r4, r4
 641 02a2 44F40074 		orr	r4, r4, #512
 642 02a6 1C80     		strh	r4, [r3, #0]	@ movhi
 458:/home/jonas/warwick/3dProfilometer/xpcc/src/xpcc/architecture/platform/cortex_m3/stm32/i2c/i2c_master_2.cpp **** 			uint16_t dr = I2C2->DR;
 643              		.loc 1 458 0
 644 02a8 1C8A     		ldrh	r4, [r3, #16]
 645              	.LVL24:
 459:/home/jonas/warwick/3dProfilometer/xpcc/src/xpcc/architecture/platform/cortex_m3/stm32/i2c/i2c_master_2.cpp **** 			*readPointer++ = dr & 0xff;
 646              		.loc 1 459 0
 647 02aa 1470     		strb	r4, [r2, #0]
 468:/home/jonas/warwick/3dProfilometer/xpcc/src/xpcc/architecture/platform/cortex_m3/stm32/i2c/i2c_master_2.cpp **** 			dr = I2C2->DR;
 648              		.loc 1 468 0
 649 02ac 1E8A     		ldrh	r6, [r3, #16]
 650              	.LVL25:
 469:/home/jonas/warwick/3dProfilometer/xpcc/src/xpcc/architecture/platform/cortex_m3/stm32/i2c/i2c_master_2.cpp **** 			*readPointer++ = dr & 0xff;
 651              		.loc 1 469 0
 652 02ae 941C     		adds	r4, r2, #2
 472:/home/jonas/warwick/3dProfilometer/xpcc/src/xpcc/architecture/platform/cortex_m3/stm32/i2c/i2c_master_2.cpp **** 			checkNextOperation = CHECK_NEXT_OPERATION_YES_NO_STOP_BIT;
 653              		.loc 1 472 0
 654 02b0 0323     		movs	r3, #3
 469:/home/jonas/warwick/3dProfilometer/xpcc/src/xpcc/architecture/platform/cortex_m3/stm32/i2c/i2c_master_2.cpp **** 			*readPointer++ = dr & 0xff;
 655              		.loc 1 469 0
 656 02b2 5670     		strb	r6, [r2, #1]
 471:/home/jonas/warwick/3dProfilometer/xpcc/src/xpcc/architecture/platform/cortex_m3/stm32/i2c/i2c_master_2.cpp **** 			readBytesLeft = 0;
 657              		.loc 1 471 0
 658 02b4 0022     		movs	r2, #0
 469:/home/jonas/warwick/3dProfilometer/xpcc/src/xpcc/architecture/platform/cortex_m3/stm32/i2c/i2c_master_2.cpp **** 			*readPointer++ = dr & 0xff;
 659              		.loc 1 469 0
 660 02b6 0460     		str	r4, [r0, #0]
 471:/home/jonas/warwick/3dProfilometer/xpcc/src/xpcc/architecture/platform/cortex_m3/stm32/i2c/i2c_master_2.cpp **** 			readBytesLeft = 0;
 661              		.loc 1 471 0
 662 02b8 0A60     		str	r2, [r1, #0]
 472:/home/jonas/warwick/3dProfilometer/xpcc/src/xpcc/architecture/platform/cortex_m3/stm32/i2c/i2c_master_2.cpp **** 			checkNextOperation = CHECK_NEXT_OPERATION_YES_NO_STOP_BIT;
 663              		.loc 1 472 0
 664 02ba 2B70     		strb	r3, [r5, #0]
 665 02bc DFE6     		b	.L31
 666              	.LVL26:
 667              	.L39:
 668              	.LBE165:
 669              	.LBE168:
 670              	.LBE169:
 671              	.LBE189:
 672              	.LBB190:
 673              	.LBB157:
 674              	.LBB132:
 370:/home/jonas/warwick/3dProfilometer/xpcc/src/xpcc/architecture/platform/cortex_m3/stm32/i2c/i2c_master_2.cpp **** 			checkNextOperation = CHECK_NEXT_OPERATION_YES;
 675              		.loc 1 370 0
 676 02be 234D     		ldr	r5, .L73+12
 677 02c0 0223     		movs	r3, #2
 678 02c2 2B70     		strb	r3, [r5, #0]
 679 02c4 B8E6     		b	.L13
 680              	.L15:
 366:/home/jonas/warwick/3dProfilometer/xpcc/src/xpcc/architecture/platform/cortex_m3/stm32/i2c/i2c_master_2.cpp **** 			I2C2->CR2 |= I2C_CR2_ITBUFEN;
 681              		.loc 1 366 0
 682 02c6 B188     		ldrh	r1, [r6, #4]
 683 02c8 89B2     		uxth	r1, r1
 684 02ca 41F48061 		orr	r1, r1, #1024
 685 02ce B180     		strh	r1, [r6, #4]	@ movhi
 686 02d0 42E7     		b	.L14
 687              	.L19:
 688              	.LBE132:
 689              	.LBB133:
 406:/home/jonas/warwick/3dProfilometer/xpcc/src/xpcc/architecture/platform/cortex_m3/stm32/i2c/i2c_master_2.cpp **** 			I2C2->DR = *writePointer++; // write data
 690              		.loc 1 406 0
 691 02d2 1F48     		ldr	r0, .L73+16
 411:/home/jonas/warwick/3dProfilometer/xpcc/src/xpcc/architecture/platform/cortex_m3/stm32/i2c/i2c_master_2.cpp **** 			checkNextOperation = CHECK_NEXT_OPERATION_NO_WAIT_FOR_BTF;
 692              		.loc 1 411 0
 693 02d4 1D4D     		ldr	r5, .L73+12
 406:/home/jonas/warwick/3dProfilometer/xpcc/src/xpcc/architecture/platform/cortex_m3/stm32/i2c/i2c_master_2.cpp **** 			I2C2->DR = *writePointer++; // write data
 694              		.loc 1 406 0
 695 02d6 0168     		ldr	r1, [r0, #0]
 696 02d8 11F8017B 		ldrb	r7, [r1], #1	@ zero_extendqisi2
 407:/home/jonas/warwick/3dProfilometer/xpcc/src/xpcc/architecture/platform/cortex_m3/stm32/i2c/i2c_master_2.cpp **** 			writeBytesLeft--;
 697              		.loc 1 407 0
 698 02dc 013A     		subs	r2, r2, #1
 406:/home/jonas/warwick/3dProfilometer/xpcc/src/xpcc/architecture/platform/cortex_m3/stm32/i2c/i2c_master_2.cpp **** 			I2C2->DR = *writePointer++; // write data
 699              		.loc 1 406 0
 700 02de 3782     		strh	r7, [r6, #16]	@ movhi
 407:/home/jonas/warwick/3dProfilometer/xpcc/src/xpcc/architecture/platform/cortex_m3/stm32/i2c/i2c_master_2.cpp **** 			writeBytesLeft--;
 701              		.loc 1 407 0
 702 02e0 1A60     		str	r2, [r3, #0]
 411:/home/jonas/warwick/3dProfilometer/xpcc/src/xpcc/architecture/platform/cortex_m3/stm32/i2c/i2c_master_2.cpp **** 			checkNextOperation = CHECK_NEXT_OPERATION_NO_WAIT_FOR_BTF;
 703              		.loc 1 411 0
 704 02e2 0123     		movs	r3, #1
 406:/home/jonas/warwick/3dProfilometer/xpcc/src/xpcc/architecture/platform/cortex_m3/stm32/i2c/i2c_master_2.cpp **** 			I2C2->DR = *writePointer++; // write data
 705              		.loc 1 406 0
 706 02e4 0160     		str	r1, [r0, #0]
 411:/home/jonas/warwick/3dProfilometer/xpcc/src/xpcc/architecture/platform/cortex_m3/stm32/i2c/i2c_master_2.cpp **** 			checkNextOperation = CHECK_NEXT_OPERATION_NO_WAIT_FOR_BTF;
 707              		.loc 1 411 0
 708 02e6 2B70     		strb	r3, [r5, #0]
 414:/home/jonas/warwick/3dProfilometer/xpcc/src/xpcc/architecture/platform/cortex_m3/stm32/i2c/i2c_master_2.cpp **** 		if (writeBytesLeft == 0)
 709              		.loc 1 414 0
 710 02e8 002A     		cmp	r2, #0
 711 02ea 7FF4A7AE 		bne	.L10
 712 02ee F5E6     		b	.L20
 713              	.LVL27:
 714              	.L5:
 715              	.LBE133:
 716              	.LBE157:
 717              	.LBB158:
 333:/home/jonas/warwick/3dProfilometer/xpcc/src/xpcc/architecture/platform/cortex_m3/stm32/i2c/i2c_master_2.cpp **** 				initializeWrite(delegate->writing());
 718              		.loc 1 333 0
 719 02f0 2968     		ldr	r1, [r5, #0]
 720 02f2 0A68     		ldr	r2, [r1, #0]
 721 02f4 06A8     		add	r0, sp, #24
 722 02f6 D268     		ldr	r2, [r2, #12]
 332:/home/jonas/warwick/3dProfilometer/xpcc/src/xpcc/architecture/platform/cortex_m3/stm32/i2c/i2c_master_2.cpp **** 				address = (s.address & 0xfe) | xpcc::i2c::WRITE;
 723              		.loc 1 332 0
 724 02f8 03F0FE07 		and	r7, r3, #254
 725              	.LVL28:
 333:/home/jonas/warwick/3dProfilometer/xpcc/src/xpcc/architecture/platform/cortex_m3/stm32/i2c/i2c_master_2.cpp **** 				initializeWrite(delegate->writing());
 726              		.loc 1 333 0
 727 02fc 9047     		blx	r2
 728              	.LVL29:
 729              	.LBB149:
 730              	.LBB150:
 241:/home/jonas/warwick/3dProfilometer/xpcc/src/xpcc/architecture/platform/cortex_m3/stm32/i2c/i2c_master_2.cpp **** 		writePointer = w.buffer;
 731              		.loc 1 241 0
 732 02fe 079B     		ldr	r3, [sp, #28]
 733 0300 1349     		ldr	r1, .L73+16
 734              	.LBE150:
 735              	.LBE149:
 736              		.loc 1 686 0
 737 0302 9DF81820 		ldrb	r2, [sp, #24]	@ zero_extendqisi2
 738              	.LBB152:
 739              	.LBB151:
 241:/home/jonas/warwick/3dProfilometer/xpcc/src/xpcc/architecture/platform/cortex_m3/stm32/i2c/i2c_master_2.cpp **** 		writePointer = w.buffer;
 740              		.loc 1 241 0
 741 0306 0B60     		str	r3, [r1, #0]
 242:/home/jonas/warwick/3dProfilometer/xpcc/src/xpcc/architecture/platform/cortex_m3/stm32/i2c/i2c_master_2.cpp **** 		writeBytesLeft = w.size;
 742              		.loc 1 242 0
 743 0308 0D49     		ldr	r1, .L73
 744 030a 089B     		ldr	r3, [sp, #32]
 745 030c 0B60     		str	r3, [r1, #0]
 243:/home/jonas/warwick/3dProfilometer/xpcc/src/xpcc/architecture/platform/cortex_m3/stm32/i2c/i2c_master_2.cpp **** 		readBytesLeft = 0;
 746              		.loc 1 243 0
 747 030e 114B     		ldr	r3, .L73+20
 748 0310 0021     		movs	r1, #0
 749 0312 1960     		str	r1, [r3, #0]
 244:/home/jonas/warwick/3dProfilometer/xpcc/src/xpcc/architecture/platform/cortex_m3/stm32/i2c/i2c_master_2.cpp **** 		nextOperation = static_cast<xpcc::i2c::Delegate::NextOperation>(w.next);
 750              		.loc 1 244 0
 751 0314 104B     		ldr	r3, .L73+24
 752 0316 1A70     		strb	r2, [r3, #0]
 753 0318 12E7     		b	.L9
 754              	.LVL30:
 755              	.L70:
 756              	.LBE151:
 757              	.LBE152:
 338:/home/jonas/warwick/3dProfilometer/xpcc/src/xpcc/architecture/platform/cortex_m3/stm32/i2c/i2c_master_2.cpp **** 				address = (s.address & 0xfe) | xpcc::i2c::WRITE;
 758              		.loc 1 338 0
 759 031a 03F0FE07 		and	r7, r3, #254
 760              	.LVL31:
 761              	.LBB153:
 762              	.LBB154:
 267:/home/jonas/warwick/3dProfilometer/xpcc/src/xpcc/architecture/platform/cortex_m3/stm32/i2c/i2c_master_2.cpp **** 		writeBytesLeft = 0;
 763              		.loc 1 267 0
 764 031e 084B     		ldr	r3, .L73
 765              	.LVL32:
 766 0320 0021     		movs	r1, #0
 767 0322 1960     		str	r1, [r3, #0]
 268:/home/jonas/warwick/3dProfilometer/xpcc/src/xpcc/architecture/platform/cortex_m3/stm32/i2c/i2c_master_2.cpp **** 		readBytesLeft = 0;
 768              		.loc 1 268 0
 769 0324 0B4B     		ldr	r3, .L73+20
 770 0326 1960     		str	r1, [r3, #0]
 269:/home/jonas/warwick/3dProfilometer/xpcc/src/xpcc/architecture/platform/cortex_m3/stm32/i2c/i2c_master_2.cpp **** 		nextOperation = xpcc::i2c::Delegate::RESTART_OP;
 771              		.loc 1 269 0
 772 0328 0B4B     		ldr	r3, .L73+24
 773 032a 1A70     		strb	r2, [r3, #0]
 774 032c 08E7     		b	.L9
 775              	.LVL33:
 776              	.L23:
 777              	.LBE154:
 778              	.LBE153:
 779              	.LBE158:
 780              	.LBB159:
 781              	.LBB134:
 782              	.LBB127:
 783              	.LBB123:
 440:/home/jonas/warwick/3dProfilometer/xpcc/src/xpcc/architecture/platform/cortex_m3/stm32/i2c/i2c_master_2.cpp **** 			I2C2->CR2 &= ~I2C_CR2_ITBUFEN;
 784              		.loc 1 440 0
 785 032e 054A     		ldr	r2, .L73+4
 786 0330 064D     		ldr	r5, .L73+12
 787 0332 D4E6     		b	.L63
 788              	.LVL34:
 789              	.L7:
 790              	.LBE123:
 791              	.LBE127:
 792              	.LBE134:
 793              	.LBE159:
 794              	.LBB160:
 321:/home/jonas/warwick/3dProfilometer/xpcc/src/xpcc/architecture/platform/cortex_m3/stm32/i2c/i2c_master_2.cpp **** 					I2C2->CR1 |= I2C_CR1_ACK;
 795              		.loc 1 321 0
 796 0334 9BB2     		uxth	r3, r3
 797 0336 43F48063 		orr	r3, r3, #1024
 798 033a 3380     		strh	r3, [r6, #0]	@ movhi
 799 033c 00E7     		b	.L9
 800              	.L74:
 801 033e 00BF     		.align	2
 802              	.L73:
 803 0340 00000000 		.word	.LANCHOR3
 804 0344 00580040 		.word	1073764352
 805 0348 00000000 		.word	.LANCHOR1
 806 034c 00000000 		.word	.LANCHOR6
 807 0350 00000000 		.word	.LANCHOR5
 808 0354 00000000 		.word	.LANCHOR2
 809 0358 00000000 		.word	.LANCHOR4
 810              	.LBE160:
 811              	.LBE190:
 812              	.LBE192:
 813              		.cfi_endproc
 814              	.LFE211:
 816              		.section	.text.I2C2_ER_IRQHandler,"ax",%progbits
 817              		.align	2
 818              		.global	I2C2_ER_IRQHandler
 819              		.thumb
 820              		.thumb_func
 822              	I2C2_ER_IRQHandler:
 823              	.LFB212:
 540:/home/jonas/warwick/3dProfilometer/xpcc/src/xpcc/architecture/platform/cortex_m3/stm32/i2c/i2c_master_2.cpp **** {
 824              		.loc 1 540 0
 825              		.cfi_startproc
 826              		@ args = 0, pretend = 0, frame = 0
 827              		@ frame_needed = 0, uses_anonymous_args = 0
 828              	.LBB193:
 542:/home/jonas/warwick/3dProfilometer/xpcc/src/xpcc/architecture/platform/cortex_m3/stm32/i2c/i2c_master_2.cpp **** 	uint16_t sr1 = I2C2->SR1;
 829              		.loc 1 542 0
 830 0000 244B     		ldr	r3, .L84
 831 0002 9A8A     		ldrh	r2, [r3, #20]
 832              	.LVL35:
 544:/home/jonas/warwick/3dProfilometer/xpcc/src/xpcc/architecture/platform/cortex_m3/stm32/i2c/i2c_master_2.cpp **** 	if (sr1 & I2C_SR1_BERR)
 833              		.loc 1 544 0
 834 0004 02F48071 		and	r1, r2, #256
 835 0008 89B2     		uxth	r1, r1
 836              	.LBE193:
 540:/home/jonas/warwick/3dProfilometer/xpcc/src/xpcc/architecture/platform/cortex_m3/stm32/i2c/i2c_master_2.cpp **** {
 837              		.loc 1 540 0
 838 000a 10B5     		push	{r4, lr}
 839              	.LCFI2:
 840              		.cfi_def_cfa_offset 8
 841              		.cfi_offset 4, -8
 842              		.cfi_offset 14, -4
 843              	.LBB194:
 544:/home/jonas/warwick/3dProfilometer/xpcc/src/xpcc/architecture/platform/cortex_m3/stm32/i2c/i2c_master_2.cpp **** 	if (sr1 & I2C_SR1_BERR)
 844              		.loc 1 544 0
 845 000c 0029     		cmp	r1, #0
 846 000e 28D0     		beq	.L76
 547:/home/jonas/warwick/3dProfilometer/xpcc/src/xpcc/architecture/platform/cortex_m3/stm32/i2c/i2c_master_2.cpp **** 		I2C2->CR1 |= I2C_CR1_STOP;
 847              		.loc 1 547 0
 848 0010 1A88     		ldrh	r2, [r3, #0]
 849              	.LVL36:
 850 0012 92B2     		uxth	r2, r2
 851 0014 42F40072 		orr	r2, r2, #512
 852 0018 1A80     		strh	r2, [r3, #0]	@ movhi
 548:/home/jonas/warwick/3dProfilometer/xpcc/src/xpcc/architecture/platform/cortex_m3/stm32/i2c/i2c_master_2.cpp **** 		errorState = xpcc::stm32::I2cMaster2::BUS_ERROR;
 853              		.loc 1 548 0
 854 001a 1F4B     		ldr	r3, .L84+4
 855 001c 0322     		movs	r2, #3
 856 001e 1A70     		strb	r2, [r3, #0]
 857              	.L77:
 568:/home/jonas/warwick/3dProfilometer/xpcc/src/xpcc/architecture/platform/cortex_m3/stm32/i2c/i2c_master_2.cpp **** 	if (delegate)
 858              		.loc 1 568 0
 859 0020 1E4C     		ldr	r4, .L84+8
 860 0022 2068     		ldr	r0, [r4, #0]
 861 0024 28B1     		cbz	r0, .L80
 570:/home/jonas/warwick/3dProfilometer/xpcc/src/xpcc/architecture/platform/cortex_m3/stm32/i2c/i2c_master_2.cpp **** 		delegate->stopped(xpcc::i2c::Delegate::ERROR_CONDITION);
 862              		.loc 1 570 0
 863 0026 0368     		ldr	r3, [r0, #0]
 864 0028 0121     		movs	r1, #1
 865 002a 1B69     		ldr	r3, [r3, #16]
 866 002c 9847     		blx	r3
 867              	.LVL37:
 571:/home/jonas/warwick/3dProfilometer/xpcc/src/xpcc/architecture/platform/cortex_m3/stm32/i2c/i2c_master_2.cpp **** 		delegate = 0;
 868              		.loc 1 571 0
 869 002e 0023     		movs	r3, #0
 870 0030 2360     		str	r3, [r4, #0]
 871              	.L80:
 577:/home/jonas/warwick/3dProfilometer/xpcc/src/xpcc/architecture/platform/cortex_m3/stm32/i2c/i2c_master_2.cpp **** 	I2C2->CR1 &= ~I2C_CR1_POS;
 872              		.loc 1 577 0
 873 0032 184B     		ldr	r3, .L84
 580:/home/jonas/warwick/3dProfilometer/xpcc/src/xpcc/architecture/platform/cortex_m3/stm32/i2c/i2c_master_2.cpp **** 	writeBytesLeft = 0;
 874              		.loc 1 580 0
 875 0034 1A48     		ldr	r0, .L84+12
 577:/home/jonas/warwick/3dProfilometer/xpcc/src/xpcc/architecture/platform/cortex_m3/stm32/i2c/i2c_master_2.cpp **** 	I2C2->CR1 &= ~I2C_CR1_POS;
 876              		.loc 1 577 0
 877 0036 1A88     		ldrh	r2, [r3, #0]
 581:/home/jonas/warwick/3dProfilometer/xpcc/src/xpcc/architecture/platform/cortex_m3/stm32/i2c/i2c_master_2.cpp **** 	readBytesLeft = 0;
 878              		.loc 1 581 0
 879 0038 1A4C     		ldr	r4, .L84+16
 577:/home/jonas/warwick/3dProfilometer/xpcc/src/xpcc/architecture/platform/cortex_m3/stm32/i2c/i2c_master_2.cpp **** 	I2C2->CR1 &= ~I2C_CR1_POS;
 880              		.loc 1 577 0
 881 003a 22F40062 		bic	r2, r2, #2048
 882 003e 1204     		lsls	r2, r2, #16
 578:/home/jonas/warwick/3dProfilometer/xpcc/src/xpcc/architecture/platform/cortex_m3/stm32/i2c/i2c_master_2.cpp **** 	I2C2->SR1 = 0;
 883              		.loc 1 578 0
 884 0040 0021     		movs	r1, #0
 577:/home/jonas/warwick/3dProfilometer/xpcc/src/xpcc/architecture/platform/cortex_m3/stm32/i2c/i2c_master_2.cpp **** 	I2C2->CR1 &= ~I2C_CR1_POS;
 885              		.loc 1 577 0
 886 0042 120C     		lsrs	r2, r2, #16
 887 0044 1A80     		strh	r2, [r3, #0]	@ movhi
 578:/home/jonas/warwick/3dProfilometer/xpcc/src/xpcc/architecture/platform/cortex_m3/stm32/i2c/i2c_master_2.cpp **** 	I2C2->SR1 = 0;
 888              		.loc 1 578 0
 889 0046 9982     		strh	r1, [r3, #20]	@ movhi
 579:/home/jonas/warwick/3dProfilometer/xpcc/src/xpcc/architecture/platform/cortex_m3/stm32/i2c/i2c_master_2.cpp **** 	I2C2->SR2 = 0;
 890              		.loc 1 579 0
 891 0048 1983     		strh	r1, [r3, #24]	@ movhi
 585:/home/jonas/warwick/3dProfilometer/xpcc/src/xpcc/architecture/platform/cortex_m3/stm32/i2c/i2c_master_2.cpp **** 	I2C2->CR2 &= ~(I2C_CR2_ITEVTEN | I2C_CR2_ITBUFEN | I2C_CR2_ITERREN);
 892              		.loc 1 585 0
 893 004a 9A88     		ldrh	r2, [r3, #4]
 580:/home/jonas/warwick/3dProfilometer/xpcc/src/xpcc/architecture/platform/cortex_m3/stm32/i2c/i2c_master_2.cpp **** 	writeBytesLeft = 0;
 894              		.loc 1 580 0
 895 004c 0160     		str	r1, [r0, #0]
 585:/home/jonas/warwick/3dProfilometer/xpcc/src/xpcc/architecture/platform/cortex_m3/stm32/i2c/i2c_master_2.cpp **** 	I2C2->CR2 &= ~(I2C_CR2_ITEVTEN | I2C_CR2_ITBUFEN | I2C_CR2_ITERREN);
 896              		.loc 1 585 0
 897 004e 22F4E062 		bic	r2, r2, #1792
 578:/home/jonas/warwick/3dProfilometer/xpcc/src/xpcc/architecture/platform/cortex_m3/stm32/i2c/i2c_master_2.cpp **** 	I2C2->SR1 = 0;
 898              		.loc 1 578 0
 899 0052 0846     		mov	r0, r1	@ movhi
 581:/home/jonas/warwick/3dProfilometer/xpcc/src/xpcc/architecture/platform/cortex_m3/stm32/i2c/i2c_master_2.cpp **** 	readBytesLeft = 0;
 900              		.loc 1 581 0
 901 0054 2160     		str	r1, [r4, #0]
 585:/home/jonas/warwick/3dProfilometer/xpcc/src/xpcc/architecture/platform/cortex_m3/stm32/i2c/i2c_master_2.cpp **** 	I2C2->CR2 &= ~(I2C_CR2_ITEVTEN | I2C_CR2_ITBUFEN | I2C_CR2_ITERREN);
 902              		.loc 1 585 0
 903 0056 1204     		lsls	r2, r2, #16
 582:/home/jonas/warwick/3dProfilometer/xpcc/src/xpcc/architecture/platform/cortex_m3/stm32/i2c/i2c_master_2.cpp **** 	checkNextOperation = CHECK_NEXT_OPERATION_NO;
 904              		.loc 1 582 0
 905 0058 1349     		ldr	r1, .L84+20
 585:/home/jonas/warwick/3dProfilometer/xpcc/src/xpcc/architecture/platform/cortex_m3/stm32/i2c/i2c_master_2.cpp **** 	I2C2->CR2 &= ~(I2C_CR2_ITEVTEN | I2C_CR2_ITBUFEN | I2C_CR2_ITERREN);
 906              		.loc 1 585 0
 907 005a 120C     		lsrs	r2, r2, #16
 582:/home/jonas/warwick/3dProfilometer/xpcc/src/xpcc/architecture/platform/cortex_m3/stm32/i2c/i2c_master_2.cpp **** 	checkNextOperation = CHECK_NEXT_OPERATION_NO;
 908              		.loc 1 582 0
 909 005c 0870     		strb	r0, [r1, #0]
 585:/home/jonas/warwick/3dProfilometer/xpcc/src/xpcc/architecture/platform/cortex_m3/stm32/i2c/i2c_master_2.cpp **** 	I2C2->CR2 &= ~(I2C_CR2_ITEVTEN | I2C_CR2_ITBUFEN | I2C_CR2_ITERREN);
 910              		.loc 1 585 0
 911 005e 9A80     		strh	r2, [r3, #4]	@ movhi
 912 0060 10BD     		pop	{r4, pc}
 913              	.LVL38:
 914              	.L76:
 550:/home/jonas/warwick/3dProfilometer/xpcc/src/xpcc/architecture/platform/cortex_m3/stm32/i2c/i2c_master_2.cpp **** 	else if (sr1 & I2C_SR1_AF)
 915              		.loc 1 550 0
 916 0062 02F48061 		and	r1, r2, #1024
 917 0066 89B2     		uxth	r1, r1
 918 0068 41B1     		cbz	r1, .L78
 552:/home/jonas/warwick/3dProfilometer/xpcc/src/xpcc/architecture/platform/cortex_m3/stm32/i2c/i2c_master_2.cpp **** 		I2C2->CR1 |= I2C_CR1_STOP;
 919              		.loc 1 552 0
 920 006a 1A88     		ldrh	r2, [r3, #0]
 921              	.LVL39:
 922 006c 92B2     		uxth	r2, r2
 923 006e 42F40072 		orr	r2, r2, #512
 924 0072 1A80     		strh	r2, [r3, #0]	@ movhi
 555:/home/jonas/warwick/3dProfilometer/xpcc/src/xpcc/architecture/platform/cortex_m3/stm32/i2c/i2c_master_2.cpp **** 		errorState = xpcc::stm32::I2cMaster2::DATA_NACK;
 925              		.loc 1 555 0
 926 0074 084B     		ldr	r3, .L84+4
 927 0076 0122     		movs	r2, #1
 928 0078 1A70     		strb	r2, [r3, #0]
 929 007a D1E7     		b	.L77
 930              	.LVL40:
 931              	.L78:
 557:/home/jonas/warwick/3dProfilometer/xpcc/src/xpcc/architecture/platform/cortex_m3/stm32/i2c/i2c_master_2.cpp **** 	else if (sr1 & I2C_SR1_ARLO)
 932              		.loc 1 557 0
 933 007c 02F40072 		and	r2, r2, #512
 934              	.LVL41:
 935 0080 92B2     		uxth	r2, r2
 936 0082 1AB1     		cbz	r2, .L79
 560:/home/jonas/warwick/3dProfilometer/xpcc/src/xpcc/architecture/platform/cortex_m3/stm32/i2c/i2c_master_2.cpp **** 		errorState = xpcc::stm32::I2cMaster2::ARBITRATION_LOST;
 937              		.loc 1 560 0
 938 0084 044B     		ldr	r3, .L84+4
 939 0086 0222     		movs	r2, #2
 940 0088 1A70     		strb	r2, [r3, #0]
 941 008a C9E7     		b	.L77
 942              	.L79:
 565:/home/jonas/warwick/3dProfilometer/xpcc/src/xpcc/architecture/platform/cortex_m3/stm32/i2c/i2c_master_2.cpp **** 		errorState = xpcc::stm32::I2cMaster2::UNKNOWN_ERROR;
 943              		.loc 1 565 0
 944 008c 024B     		ldr	r3, .L84+4
 945 008e 0422     		movs	r2, #4
 946 0090 1A70     		strb	r2, [r3, #0]
 947 0092 C5E7     		b	.L77
 948              	.L85:
 949              		.align	2
 950              	.L84:
 951 0094 00580040 		.word	1073764352
 952 0098 00000000 		.word	.LANCHOR7
 953 009c 00000000 		.word	.LANCHOR0
 954 00a0 00000000 		.word	.LANCHOR3
 955 00a4 00000000 		.word	.LANCHOR2
 956 00a8 00000000 		.word	.LANCHOR6
 957              	.LBE194:
 958              		.cfi_endproc
 959              	.LFE212:
 961              		.section	.text._ZN4xpcc5stm3210I2cMaster213configurePinsENS1_7MappingE,"ax",%progbits
 962              		.align	2
 963              		.global	_ZN4xpcc5stm3210I2cMaster213configurePinsENS1_7MappingE
 964              		.thumb
 965              		.thumb_func
 967              	_ZN4xpcc5stm3210I2cMaster213configurePinsENS1_7MappingE:
 968              	.LFB213:
 591:/home/jonas/warwick/3dProfilometer/xpcc/src/xpcc/architecture/platform/cortex_m3/stm32/i2c/i2c_master_2.cpp **** {
 969              		.loc 1 591 0
 970              		.cfi_startproc
 971              		@ args = 0, pretend = 0, frame = 0
 972              		@ frame_needed = 0, uses_anonymous_args = 0
 973              		@ link register save eliminated.
 974              	.LVL42:
 593:/home/jonas/warwick/3dProfilometer/xpcc/src/xpcc/architecture/platform/cortex_m3/stm32/i2c/i2c_master_2.cpp **** 	RCC->APB1ENR |= RCC_APB1ENR_I2C2EN;
 975              		.loc 1 593 0
 976 0000 554B     		ldr	r3, .L90
 977 0002 1A6C     		ldr	r2, [r3, #64]
 978 0004 42F48002 		orr	r2, r2, #4194304
 979 0008 1A64     		str	r2, [r3, #64]
 597:/home/jonas/warwick/3dProfilometer/xpcc/src/xpcc/architecture/platform/cortex_m3/stm32/i2c/i2c_master_2.cpp **** 	if (mapping == REMAP_PB10_PB11) {
 980              		.loc 1 597 0
 981 000a 0028     		cmp	r0, #0
 982 000c 6BD1     		bne	.L87
 983              	.LVL43:
 984              	.LBB195:
 985              	.LBB196:
 202:/home/jonas/warwick/3dProfilometer/xpcc/src/xpcc/architecture/platform/cortex_m3/stm32/i2c/i2c_master_2.cpp **** 	GPIO__IO(SclB10, B, 10);
 986              		.loc 1 202 0
 987 000e A3F55053 		sub	r3, r3, #13312
 988 0012 1A68     		ldr	r2, [r3, #0]
 989 0014 22F44012 		bic	r2, r2, #3145728
 990 0018 42F40012 		orr	r2, r2, #2097152
 991 001c 1A60     		str	r2, [r3, #0]
 992              	.LVL44:
 993              	.LBB197:
 994              	.LBB198:
 995              		.file 2 "/home/jonas/warwick/3dProfilometer/xpcc/src/xpcc/architecture/platform/cortex_m3/stm32/i2
   1:/home/jonas/warwick/3dProfilometer/xpcc/src/xpcc/architecture/platform/cortex_m3/stm32/i2c/../stm32f2_4/gpio.hpp **** // coding: utf-8
   2:/home/jonas/warwick/3dProfilometer/xpcc/src/xpcc/architecture/platform/cortex_m3/stm32/i2c/../stm32f2_4/gpio.hpp **** // ----------------------------------------------------------------------------
   3:/home/jonas/warwick/3dProfilometer/xpcc/src/xpcc/architecture/platform/cortex_m3/stm32/i2c/../stm32f2_4/gpio.hpp **** /* Copyright (c) 2011, Roboterclub Aachen e.V.
   4:/home/jonas/warwick/3dProfilometer/xpcc/src/xpcc/architecture/platform/cortex_m3/stm32/i2c/../stm32f2_4/gpio.hpp ****  * All rights reserved.
   5:/home/jonas/warwick/3dProfilometer/xpcc/src/xpcc/architecture/platform/cortex_m3/stm32/i2c/../stm32f2_4/gpio.hpp ****  *
   6:/home/jonas/warwick/3dProfilometer/xpcc/src/xpcc/architecture/platform/cortex_m3/stm32/i2c/../stm32f2_4/gpio.hpp ****  * Redistribution and use in source and binary forms, with or without
   7:/home/jonas/warwick/3dProfilometer/xpcc/src/xpcc/architecture/platform/cortex_m3/stm32/i2c/../stm32f2_4/gpio.hpp ****  * modification, are permitted provided that the following conditions are met:
   8:/home/jonas/warwick/3dProfilometer/xpcc/src/xpcc/architecture/platform/cortex_m3/stm32/i2c/../stm32f2_4/gpio.hpp ****  *
   9:/home/jonas/warwick/3dProfilometer/xpcc/src/xpcc/architecture/platform/cortex_m3/stm32/i2c/../stm32f2_4/gpio.hpp ****  *     * Redistributions of source code must retain the above copyright
  10:/home/jonas/warwick/3dProfilometer/xpcc/src/xpcc/architecture/platform/cortex_m3/stm32/i2c/../stm32f2_4/gpio.hpp ****  *       notice, this list of conditions and the following disclaimer.
  11:/home/jonas/warwick/3dProfilometer/xpcc/src/xpcc/architecture/platform/cortex_m3/stm32/i2c/../stm32f2_4/gpio.hpp ****  *     * Redistributions in binary form must reproduce the above copyright
  12:/home/jonas/warwick/3dProfilometer/xpcc/src/xpcc/architecture/platform/cortex_m3/stm32/i2c/../stm32f2_4/gpio.hpp ****  *       notice, this list of conditions and the following disclaimer in the
  13:/home/jonas/warwick/3dProfilometer/xpcc/src/xpcc/architecture/platform/cortex_m3/stm32/i2c/../stm32f2_4/gpio.hpp ****  *       documentation and/or other materials provided with the distribution.
  14:/home/jonas/warwick/3dProfilometer/xpcc/src/xpcc/architecture/platform/cortex_m3/stm32/i2c/../stm32f2_4/gpio.hpp ****  *     * Neither the name of the Roboterclub Aachen e.V. nor the
  15:/home/jonas/warwick/3dProfilometer/xpcc/src/xpcc/architecture/platform/cortex_m3/stm32/i2c/../stm32f2_4/gpio.hpp ****  *       names of its contributors may be used to endorse or promote products
  16:/home/jonas/warwick/3dProfilometer/xpcc/src/xpcc/architecture/platform/cortex_m3/stm32/i2c/../stm32f2_4/gpio.hpp ****  *       derived from this software without specific prior written permission.
  17:/home/jonas/warwick/3dProfilometer/xpcc/src/xpcc/architecture/platform/cortex_m3/stm32/i2c/../stm32f2_4/gpio.hpp ****  *
  18:/home/jonas/warwick/3dProfilometer/xpcc/src/xpcc/architecture/platform/cortex_m3/stm32/i2c/../stm32f2_4/gpio.hpp ****  * THIS SOFTWARE IS PROVIDED BY ROBOTERCLUB AACHEN E.V. ''AS IS'' AND ANY
  19:/home/jonas/warwick/3dProfilometer/xpcc/src/xpcc/architecture/platform/cortex_m3/stm32/i2c/../stm32f2_4/gpio.hpp ****  * EXPRESS OR IMPLIED WARRANTIES, INCLUDING, BUT NOT LIMITED TO, THE IMPLIED
  20:/home/jonas/warwick/3dProfilometer/xpcc/src/xpcc/architecture/platform/cortex_m3/stm32/i2c/../stm32f2_4/gpio.hpp ****  * WARRANTIES OF MERCHANTABILITY AND FITNESS FOR A PARTICULAR PURPOSE ARE
  21:/home/jonas/warwick/3dProfilometer/xpcc/src/xpcc/architecture/platform/cortex_m3/stm32/i2c/../stm32f2_4/gpio.hpp ****  * DISCLAIMED. IN NO EVENT SHALL ROBOTERCLUB AACHEN E.V. BE LIABLE FOR ANY
  22:/home/jonas/warwick/3dProfilometer/xpcc/src/xpcc/architecture/platform/cortex_m3/stm32/i2c/../stm32f2_4/gpio.hpp ****  * DIRECT, INDIRECT, INCIDENTAL, SPECIAL, EXEMPLARY, OR CONSEQUENTIAL DAMAGES
  23:/home/jonas/warwick/3dProfilometer/xpcc/src/xpcc/architecture/platform/cortex_m3/stm32/i2c/../stm32f2_4/gpio.hpp ****  * (INCLUDING, BUT NOT LIMITED TO, PROCUREMENT OF SUBSTITUTE GOODS OR SERVICES;
  24:/home/jonas/warwick/3dProfilometer/xpcc/src/xpcc/architecture/platform/cortex_m3/stm32/i2c/../stm32f2_4/gpio.hpp ****  * LOSS OF USE, DATA, OR PROFITS; OR BUSINESS INTERRUPTION) HOWEVER CAUSED AND
  25:/home/jonas/warwick/3dProfilometer/xpcc/src/xpcc/architecture/platform/cortex_m3/stm32/i2c/../stm32f2_4/gpio.hpp ****  * ON ANY THEORY OF LIABILITY, WHETHER IN CONTRACT, STRICT LIABILITY, OR TORT
  26:/home/jonas/warwick/3dProfilometer/xpcc/src/xpcc/architecture/platform/cortex_m3/stm32/i2c/../stm32f2_4/gpio.hpp ****  * (INCLUDING NEGLIGENCE OR OTHERWISE) ARISING IN ANY WAY OUT OF THE USE OF
  27:/home/jonas/warwick/3dProfilometer/xpcc/src/xpcc/architecture/platform/cortex_m3/stm32/i2c/../stm32f2_4/gpio.hpp ****  * THIS SOFTWARE, EVEN IF ADVISED OF THE POSSIBILITY OF SUCH DAMAGE.
  28:/home/jonas/warwick/3dProfilometer/xpcc/src/xpcc/architecture/platform/cortex_m3/stm32/i2c/../stm32f2_4/gpio.hpp ****  */
  29:/home/jonas/warwick/3dProfilometer/xpcc/src/xpcc/architecture/platform/cortex_m3/stm32/i2c/../stm32f2_4/gpio.hpp **** // ----------------------------------------------------------------------------
  30:/home/jonas/warwick/3dProfilometer/xpcc/src/xpcc/architecture/platform/cortex_m3/stm32/i2c/../stm32f2_4/gpio.hpp **** 
  31:/home/jonas/warwick/3dProfilometer/xpcc/src/xpcc/architecture/platform/cortex_m3/stm32/i2c/../stm32f2_4/gpio.hpp **** #ifndef XPCC_STM32F2__GPIO_HPP
  32:/home/jonas/warwick/3dProfilometer/xpcc/src/xpcc/architecture/platform/cortex_m3/stm32/i2c/../stm32f2_4/gpio.hpp **** #define XPCC_STM32F2__GPIO_HPP
  33:/home/jonas/warwick/3dProfilometer/xpcc/src/xpcc/architecture/platform/cortex_m3/stm32/i2c/../stm32f2_4/gpio.hpp **** 
  34:/home/jonas/warwick/3dProfilometer/xpcc/src/xpcc/architecture/platform/cortex_m3/stm32/i2c/../stm32f2_4/gpio.hpp **** #include <xpcc/architecture/driver/gpio.hpp>
  35:/home/jonas/warwick/3dProfilometer/xpcc/src/xpcc/architecture/platform/cortex_m3/stm32/i2c/../stm32f2_4/gpio.hpp **** #include "../device.h"
  36:/home/jonas/warwick/3dProfilometer/xpcc/src/xpcc/architecture/platform/cortex_m3/stm32/i2c/../stm32f2_4/gpio.hpp **** 
  37:/home/jonas/warwick/3dProfilometer/xpcc/src/xpcc/architecture/platform/cortex_m3/stm32/i2c/../stm32f2_4/gpio.hpp **** /* 
  38:/home/jonas/warwick/3dProfilometer/xpcc/src/xpcc/architecture/platform/cortex_m3/stm32/i2c/../stm32f2_4/gpio.hpp ****  * GPIO Ports
  39:/home/jonas/warwick/3dProfilometer/xpcc/src/xpcc/architecture/platform/cortex_m3/stm32/i2c/../stm32f2_4/gpio.hpp ****  * ==========
  40:/home/jonas/warwick/3dProfilometer/xpcc/src/xpcc/architecture/platform/cortex_m3/stm32/i2c/../stm32f2_4/gpio.hpp ****  * 
  41:/home/jonas/warwick/3dProfilometer/xpcc/src/xpcc/architecture/platform/cortex_m3/stm32/i2c/../stm32f2_4/gpio.hpp ****  * Each port bit of the General Purpose IO (GPIO) Ports, can be
  42:/home/jonas/warwick/3dProfilometer/xpcc/src/xpcc/architecture/platform/cortex_m3/stm32/i2c/../stm32f2_4/gpio.hpp ****  * individually configured by software in several modes:
  43:/home/jonas/warwick/3dProfilometer/xpcc/src/xpcc/architecture/platform/cortex_m3/stm32/i2c/../stm32f2_4/gpio.hpp ****  * - Input floating
  44:/home/jonas/warwick/3dProfilometer/xpcc/src/xpcc/architecture/platform/cortex_m3/stm32/i2c/../stm32f2_4/gpio.hpp ****  * - Input (with pull-up or pull-down)
  45:/home/jonas/warwick/3dProfilometer/xpcc/src/xpcc/architecture/platform/cortex_m3/stm32/i2c/../stm32f2_4/gpio.hpp ****  * - Analog
  46:/home/jonas/warwick/3dProfilometer/xpcc/src/xpcc/architecture/platform/cortex_m3/stm32/i2c/../stm32f2_4/gpio.hpp ****  * - Output open-drain (with pull-up or pull-down)
  47:/home/jonas/warwick/3dProfilometer/xpcc/src/xpcc/architecture/platform/cortex_m3/stm32/i2c/../stm32f2_4/gpio.hpp ****  * - Output push-pull (with pull-up or pull-down)
  48:/home/jonas/warwick/3dProfilometer/xpcc/src/xpcc/architecture/platform/cortex_m3/stm32/i2c/../stm32f2_4/gpio.hpp ****  * - Alternate function push-pull (with pull-up or pull-down)
  49:/home/jonas/warwick/3dProfilometer/xpcc/src/xpcc/architecture/platform/cortex_m3/stm32/i2c/../stm32f2_4/gpio.hpp ****  * - Alternate function open-drain (with pull-up or pull-down)
  50:/home/jonas/warwick/3dProfilometer/xpcc/src/xpcc/architecture/platform/cortex_m3/stm32/i2c/../stm32f2_4/gpio.hpp ****  * 
  51:/home/jonas/warwick/3dProfilometer/xpcc/src/xpcc/architecture/platform/cortex_m3/stm32/i2c/../stm32f2_4/gpio.hpp ****  * GPIOx_MODER (32-bit)
  52:/home/jonas/warwick/3dProfilometer/xpcc/src/xpcc/architecture/platform/cortex_m3/stm32/i2c/../stm32f2_4/gpio.hpp ****  *   00: Input
  53:/home/jonas/warwick/3dProfilometer/xpcc/src/xpcc/architecture/platform/cortex_m3/stm32/i2c/../stm32f2_4/gpio.hpp ****  *   01: General purpose output mode
  54:/home/jonas/warwick/3dProfilometer/xpcc/src/xpcc/architecture/platform/cortex_m3/stm32/i2c/../stm32f2_4/gpio.hpp ****  *   10: Alternate function mode
  55:/home/jonas/warwick/3dProfilometer/xpcc/src/xpcc/architecture/platform/cortex_m3/stm32/i2c/../stm32f2_4/gpio.hpp ****  *   11: Analog mode
  56:/home/jonas/warwick/3dProfilometer/xpcc/src/xpcc/architecture/platform/cortex_m3/stm32/i2c/../stm32f2_4/gpio.hpp ****  * GPIOx_OTYPER (16-bit)
  57:/home/jonas/warwick/3dProfilometer/xpcc/src/xpcc/architecture/platform/cortex_m3/stm32/i2c/../stm32f2_4/gpio.hpp ****  *   0: Output push-pull
  58:/home/jonas/warwick/3dProfilometer/xpcc/src/xpcc/architecture/platform/cortex_m3/stm32/i2c/../stm32f2_4/gpio.hpp ****  *   1: Output open-drain
  59:/home/jonas/warwick/3dProfilometer/xpcc/src/xpcc/architecture/platform/cortex_m3/stm32/i2c/../stm32f2_4/gpio.hpp ****  * GPIOx_OSPEEDR (32-bit)
  60:/home/jonas/warwick/3dProfilometer/xpcc/src/xpcc/architecture/platform/cortex_m3/stm32/i2c/../stm32f2_4/gpio.hpp ****  *   00: 2 MHz
  61:/home/jonas/warwick/3dProfilometer/xpcc/src/xpcc/architecture/platform/cortex_m3/stm32/i2c/../stm32f2_4/gpio.hpp ****  *   01: 25 MHz
  62:/home/jonas/warwick/3dProfilometer/xpcc/src/xpcc/architecture/platform/cortex_m3/stm32/i2c/../stm32f2_4/gpio.hpp ****  *   10: 50 MHz
  63:/home/jonas/warwick/3dProfilometer/xpcc/src/xpcc/architecture/platform/cortex_m3/stm32/i2c/../stm32f2_4/gpio.hpp ****  *   11: 100 MHz
  64:/home/jonas/warwick/3dProfilometer/xpcc/src/xpcc/architecture/platform/cortex_m3/stm32/i2c/../stm32f2_4/gpio.hpp ****  * GPIOx_PUPDR (32-bit)
  65:/home/jonas/warwick/3dProfilometer/xpcc/src/xpcc/architecture/platform/cortex_m3/stm32/i2c/../stm32f2_4/gpio.hpp ****  *   00: No pull-up, pull-down
  66:/home/jonas/warwick/3dProfilometer/xpcc/src/xpcc/architecture/platform/cortex_m3/stm32/i2c/../stm32f2_4/gpio.hpp ****  *   01: Pull-up
  67:/home/jonas/warwick/3dProfilometer/xpcc/src/xpcc/architecture/platform/cortex_m3/stm32/i2c/../stm32f2_4/gpio.hpp ****  *   10: Pull-down
  68:/home/jonas/warwick/3dProfilometer/xpcc/src/xpcc/architecture/platform/cortex_m3/stm32/i2c/../stm32f2_4/gpio.hpp ****  *   11: Reserved
  69:/home/jonas/warwick/3dProfilometer/xpcc/src/xpcc/architecture/platform/cortex_m3/stm32/i2c/../stm32f2_4/gpio.hpp ****  * 
  70:/home/jonas/warwick/3dProfilometer/xpcc/src/xpcc/architecture/platform/cortex_m3/stm32/i2c/../stm32f2_4/gpio.hpp ****  * GPIOx_IDR = input state (read-only) (16-bit)
  71:/home/jonas/warwick/3dProfilometer/xpcc/src/xpcc/architecture/platform/cortex_m3/stm32/i2c/../stm32f2_4/gpio.hpp ****  * GPIOx_ODR = output state (16-bit)
  72:/home/jonas/warwick/3dProfilometer/xpcc/src/xpcc/architecture/platform/cortex_m3/stm32/i2c/../stm32f2_4/gpio.hpp ****  * 
  73:/home/jonas/warwick/3dProfilometer/xpcc/src/xpcc/architecture/platform/cortex_m3/stm32/i2c/../stm32f2_4/gpio.hpp ****  * GPIOx_BSRR = set and reset register (32-bit)
  74:/home/jonas/warwick/3dProfilometer/xpcc/src/xpcc/architecture/platform/cortex_m3/stm32/i2c/../stm32f2_4/gpio.hpp ****  * - BSRR(i) sets
  75:/home/jonas/warwick/3dProfilometer/xpcc/src/xpcc/architecture/platform/cortex_m3/stm32/i2c/../stm32f2_4/gpio.hpp ****  * - BSRR(i+16) resets
  76:/home/jonas/warwick/3dProfilometer/xpcc/src/xpcc/architecture/platform/cortex_m3/stm32/i2c/../stm32f2_4/gpio.hpp ****  */
  77:/home/jonas/warwick/3dProfilometer/xpcc/src/xpcc/architecture/platform/cortex_m3/stm32/i2c/../stm32f2_4/gpio.hpp **** 
  78:/home/jonas/warwick/3dProfilometer/xpcc/src/xpcc/architecture/platform/cortex_m3/stm32/i2c/../stm32f2_4/gpio.hpp **** namespace xpcc
  79:/home/jonas/warwick/3dProfilometer/xpcc/src/xpcc/architecture/platform/cortex_m3/stm32/i2c/../stm32f2_4/gpio.hpp **** {
  80:/home/jonas/warwick/3dProfilometer/xpcc/src/xpcc/architecture/platform/cortex_m3/stm32/i2c/../stm32f2_4/gpio.hpp **** 	namespace stm32
  81:/home/jonas/warwick/3dProfilometer/xpcc/src/xpcc/architecture/platform/cortex_m3/stm32/i2c/../stm32f2_4/gpio.hpp **** 	{
  82:/home/jonas/warwick/3dProfilometer/xpcc/src/xpcc/architecture/platform/cortex_m3/stm32/i2c/../stm32f2_4/gpio.hpp **** 		/**
  83:/home/jonas/warwick/3dProfilometer/xpcc/src/xpcc/architecture/platform/cortex_m3/stm32/i2c/../stm32f2_4/gpio.hpp **** 		 * \ingroup	stm32f2
  84:/home/jonas/warwick/3dProfilometer/xpcc/src/xpcc/architecture/platform/cortex_m3/stm32/i2c/../stm32f2_4/gpio.hpp **** 		 */
  85:/home/jonas/warwick/3dProfilometer/xpcc/src/xpcc/architecture/platform/cortex_m3/stm32/i2c/../stm32f2_4/gpio.hpp **** 		enum PullType
  86:/home/jonas/warwick/3dProfilometer/xpcc/src/xpcc/architecture/platform/cortex_m3/stm32/i2c/../stm32f2_4/gpio.hpp **** 		{
  87:/home/jonas/warwick/3dProfilometer/xpcc/src/xpcc/architecture/platform/cortex_m3/stm32/i2c/../stm32f2_4/gpio.hpp **** 			FLOATING = 0x0,
  88:/home/jonas/warwick/3dProfilometer/xpcc/src/xpcc/architecture/platform/cortex_m3/stm32/i2c/../stm32f2_4/gpio.hpp **** 			PULLUP = 0x1,
  89:/home/jonas/warwick/3dProfilometer/xpcc/src/xpcc/architecture/platform/cortex_m3/stm32/i2c/../stm32f2_4/gpio.hpp **** 			PULLDOWN = 0x2,
  90:/home/jonas/warwick/3dProfilometer/xpcc/src/xpcc/architecture/platform/cortex_m3/stm32/i2c/../stm32f2_4/gpio.hpp **** 		};
  91:/home/jonas/warwick/3dProfilometer/xpcc/src/xpcc/architecture/platform/cortex_m3/stm32/i2c/../stm32f2_4/gpio.hpp **** 		
  92:/home/jonas/warwick/3dProfilometer/xpcc/src/xpcc/architecture/platform/cortex_m3/stm32/i2c/../stm32f2_4/gpio.hpp **** 		/**
  93:/home/jonas/warwick/3dProfilometer/xpcc/src/xpcc/architecture/platform/cortex_m3/stm32/i2c/../stm32f2_4/gpio.hpp **** 		 * \ingroup	stm32f2
  94:/home/jonas/warwick/3dProfilometer/xpcc/src/xpcc/architecture/platform/cortex_m3/stm32/i2c/../stm32f2_4/gpio.hpp **** 		 */
  95:/home/jonas/warwick/3dProfilometer/xpcc/src/xpcc/architecture/platform/cortex_m3/stm32/i2c/../stm32f2_4/gpio.hpp **** 		enum OutputType
  96:/home/jonas/warwick/3dProfilometer/xpcc/src/xpcc/architecture/platform/cortex_m3/stm32/i2c/../stm32f2_4/gpio.hpp **** 		{
  97:/home/jonas/warwick/3dProfilometer/xpcc/src/xpcc/architecture/platform/cortex_m3/stm32/i2c/../stm32f2_4/gpio.hpp **** 			PUSH_PULL = 0x0,
  98:/home/jonas/warwick/3dProfilometer/xpcc/src/xpcc/architecture/platform/cortex_m3/stm32/i2c/../stm32f2_4/gpio.hpp **** 			OPEN_DRAIN = 0x1,
  99:/home/jonas/warwick/3dProfilometer/xpcc/src/xpcc/architecture/platform/cortex_m3/stm32/i2c/../stm32f2_4/gpio.hpp **** 		};
 100:/home/jonas/warwick/3dProfilometer/xpcc/src/xpcc/architecture/platform/cortex_m3/stm32/i2c/../stm32f2_4/gpio.hpp **** 		
 101:/home/jonas/warwick/3dProfilometer/xpcc/src/xpcc/architecture/platform/cortex_m3/stm32/i2c/../stm32f2_4/gpio.hpp **** 		/**
 102:/home/jonas/warwick/3dProfilometer/xpcc/src/xpcc/architecture/platform/cortex_m3/stm32/i2c/../stm32f2_4/gpio.hpp **** 		 * \ingroup	stm32f2
 103:/home/jonas/warwick/3dProfilometer/xpcc/src/xpcc/architecture/platform/cortex_m3/stm32/i2c/../stm32f2_4/gpio.hpp **** 		 */
 104:/home/jonas/warwick/3dProfilometer/xpcc/src/xpcc/architecture/platform/cortex_m3/stm32/i2c/../stm32f2_4/gpio.hpp **** 		enum OutputSpeed
 105:/home/jonas/warwick/3dProfilometer/xpcc/src/xpcc/architecture/platform/cortex_m3/stm32/i2c/../stm32f2_4/gpio.hpp **** 		{
 106:/home/jonas/warwick/3dProfilometer/xpcc/src/xpcc/architecture/platform/cortex_m3/stm32/i2c/../stm32f2_4/gpio.hpp **** 			SPEED_2MHZ = 0x0,
 107:/home/jonas/warwick/3dProfilometer/xpcc/src/xpcc/architecture/platform/cortex_m3/stm32/i2c/../stm32f2_4/gpio.hpp **** 			SPEED_25MHZ = 0x1,
 108:/home/jonas/warwick/3dProfilometer/xpcc/src/xpcc/architecture/platform/cortex_m3/stm32/i2c/../stm32f2_4/gpio.hpp **** 			SPEED_50MHZ = 0x1,
 109:/home/jonas/warwick/3dProfilometer/xpcc/src/xpcc/architecture/platform/cortex_m3/stm32/i2c/../stm32f2_4/gpio.hpp **** 			SPEED_100MHZ = 0x3,
 110:/home/jonas/warwick/3dProfilometer/xpcc/src/xpcc/architecture/platform/cortex_m3/stm32/i2c/../stm32f2_4/gpio.hpp **** 		};
 111:/home/jonas/warwick/3dProfilometer/xpcc/src/xpcc/architecture/platform/cortex_m3/stm32/i2c/../stm32f2_4/gpio.hpp **** 		
 112:/home/jonas/warwick/3dProfilometer/xpcc/src/xpcc/architecture/platform/cortex_m3/stm32/i2c/../stm32f2_4/gpio.hpp **** 		/**
 113:/home/jonas/warwick/3dProfilometer/xpcc/src/xpcc/architecture/platform/cortex_m3/stm32/i2c/../stm32f2_4/gpio.hpp **** 		 * \ingroup	stm32f2
 114:/home/jonas/warwick/3dProfilometer/xpcc/src/xpcc/architecture/platform/cortex_m3/stm32/i2c/../stm32f2_4/gpio.hpp **** 		 */
 115:/home/jonas/warwick/3dProfilometer/xpcc/src/xpcc/architecture/platform/cortex_m3/stm32/i2c/../stm32f2_4/gpio.hpp **** 		// 0..7 = AFRL[31:0]
 116:/home/jonas/warwick/3dProfilometer/xpcc/src/xpcc/architecture/platform/cortex_m3/stm32/i2c/../stm32f2_4/gpio.hpp **** 		// 8..15 = AFRH[31:0]
 117:/home/jonas/warwick/3dProfilometer/xpcc/src/xpcc/architecture/platform/cortex_m3/stm32/i2c/../stm32f2_4/gpio.hpp **** 		enum AlternateFunction
 118:/home/jonas/warwick/3dProfilometer/xpcc/src/xpcc/architecture/platform/cortex_m3/stm32/i2c/../stm32f2_4/gpio.hpp **** 		{
 119:/home/jonas/warwick/3dProfilometer/xpcc/src/xpcc/architecture/platform/cortex_m3/stm32/i2c/../stm32f2_4/gpio.hpp **** 			AF_RTC_50Hz = 0x00,	///< RTC_50Hz Alternate Function mapping
 120:/home/jonas/warwick/3dProfilometer/xpcc/src/xpcc/architecture/platform/cortex_m3/stm32/i2c/../stm32f2_4/gpio.hpp **** 			AF_MCO = 0x00,		///< MCO (MCO1 and MCO2) Alternate Function mapping
 121:/home/jonas/warwick/3dProfilometer/xpcc/src/xpcc/architecture/platform/cortex_m3/stm32/i2c/../stm32f2_4/gpio.hpp **** 			AF_TAMPER = 0x00,	///< TAMPER (TAMPER_1 and TAMPER_2) Alternate Function mapping
 122:/home/jonas/warwick/3dProfilometer/xpcc/src/xpcc/architecture/platform/cortex_m3/stm32/i2c/../stm32f2_4/gpio.hpp **** 			AF_SWJ = 0x00,		///< SWJ (SWD and JTAG) Alternate Function mapping
 123:/home/jonas/warwick/3dProfilometer/xpcc/src/xpcc/architecture/platform/cortex_m3/stm32/i2c/../stm32f2_4/gpio.hpp **** 			AF_TRACE = 0x00,	///< TRACE Alternate Function mapping
 124:/home/jonas/warwick/3dProfilometer/xpcc/src/xpcc/architecture/platform/cortex_m3/stm32/i2c/../stm32f2_4/gpio.hpp **** 			
 125:/home/jonas/warwick/3dProfilometer/xpcc/src/xpcc/architecture/platform/cortex_m3/stm32/i2c/../stm32f2_4/gpio.hpp **** 			// AF 1 selection  
 126:/home/jonas/warwick/3dProfilometer/xpcc/src/xpcc/architecture/platform/cortex_m3/stm32/i2c/../stm32f2_4/gpio.hpp **** 			AF_TIM1 = 0x01,		///< TIM1 Alternate Function mapping
 127:/home/jonas/warwick/3dProfilometer/xpcc/src/xpcc/architecture/platform/cortex_m3/stm32/i2c/../stm32f2_4/gpio.hpp **** 			AF_TIM2 = 0x01,		///< TIM2 Alternate Function mapping
 128:/home/jonas/warwick/3dProfilometer/xpcc/src/xpcc/architecture/platform/cortex_m3/stm32/i2c/../stm32f2_4/gpio.hpp **** 			
 129:/home/jonas/warwick/3dProfilometer/xpcc/src/xpcc/architecture/platform/cortex_m3/stm32/i2c/../stm32f2_4/gpio.hpp **** 			// AF 2 selection  
 130:/home/jonas/warwick/3dProfilometer/xpcc/src/xpcc/architecture/platform/cortex_m3/stm32/i2c/../stm32f2_4/gpio.hpp **** 			AF_TIM3 = 0x02,		///< TIM3 Alternate Function mapping
 131:/home/jonas/warwick/3dProfilometer/xpcc/src/xpcc/architecture/platform/cortex_m3/stm32/i2c/../stm32f2_4/gpio.hpp **** 			AF_TIM4 = 0x02,		///< TIM4 Alternate Function mapping
 132:/home/jonas/warwick/3dProfilometer/xpcc/src/xpcc/architecture/platform/cortex_m3/stm32/i2c/../stm32f2_4/gpio.hpp **** 			AF_TIM5 = 0x02,		///< TIM5 Alternate Function mapping
 133:/home/jonas/warwick/3dProfilometer/xpcc/src/xpcc/architecture/platform/cortex_m3/stm32/i2c/../stm32f2_4/gpio.hpp **** 			
 134:/home/jonas/warwick/3dProfilometer/xpcc/src/xpcc/architecture/platform/cortex_m3/stm32/i2c/../stm32f2_4/gpio.hpp **** 			// AF 3 selection  
 135:/home/jonas/warwick/3dProfilometer/xpcc/src/xpcc/architecture/platform/cortex_m3/stm32/i2c/../stm32f2_4/gpio.hpp **** 			AF_TIM8 = 0x03,		///< TIM8 Alternate Function mapping
 136:/home/jonas/warwick/3dProfilometer/xpcc/src/xpcc/architecture/platform/cortex_m3/stm32/i2c/../stm32f2_4/gpio.hpp **** 			AF_TIM9 = 0x03,		///< TIM9 Alternate Function mapping
 137:/home/jonas/warwick/3dProfilometer/xpcc/src/xpcc/architecture/platform/cortex_m3/stm32/i2c/../stm32f2_4/gpio.hpp **** 			AF_TIM10 = 0x03,	///< TIM10 Alternate Function mapping
 138:/home/jonas/warwick/3dProfilometer/xpcc/src/xpcc/architecture/platform/cortex_m3/stm32/i2c/../stm32f2_4/gpio.hpp **** 			AF_TIM11 = 0x03,	///< TIM11 Alternate Function mapping
 139:/home/jonas/warwick/3dProfilometer/xpcc/src/xpcc/architecture/platform/cortex_m3/stm32/i2c/../stm32f2_4/gpio.hpp **** 			
 140:/home/jonas/warwick/3dProfilometer/xpcc/src/xpcc/architecture/platform/cortex_m3/stm32/i2c/../stm32f2_4/gpio.hpp **** 			// AF 4 selection  
 141:/home/jonas/warwick/3dProfilometer/xpcc/src/xpcc/architecture/platform/cortex_m3/stm32/i2c/../stm32f2_4/gpio.hpp **** 			AF_I2C1 = 0x04,		///< I2C1 Alternate Function mapping
 142:/home/jonas/warwick/3dProfilometer/xpcc/src/xpcc/architecture/platform/cortex_m3/stm32/i2c/../stm32f2_4/gpio.hpp **** 			AF_I2C2 = 0x04,		///< I2C2 Alternate Function mapping
 143:/home/jonas/warwick/3dProfilometer/xpcc/src/xpcc/architecture/platform/cortex_m3/stm32/i2c/../stm32f2_4/gpio.hpp **** 			AF_I2C3 = 0x04,		///< I2C3 Alternate Function mapping
 144:/home/jonas/warwick/3dProfilometer/xpcc/src/xpcc/architecture/platform/cortex_m3/stm32/i2c/../stm32f2_4/gpio.hpp **** 			
 145:/home/jonas/warwick/3dProfilometer/xpcc/src/xpcc/architecture/platform/cortex_m3/stm32/i2c/../stm32f2_4/gpio.hpp **** 			// AF 5 selection  
 146:/home/jonas/warwick/3dProfilometer/xpcc/src/xpcc/architecture/platform/cortex_m3/stm32/i2c/../stm32f2_4/gpio.hpp **** 			AF_SPI1 = 0x05,		///< SPI1 Alternate Function mapping
 147:/home/jonas/warwick/3dProfilometer/xpcc/src/xpcc/architecture/platform/cortex_m3/stm32/i2c/../stm32f2_4/gpio.hpp **** 			AF_SPI2 = 0x05,		///< SPI2/I2S2 Alternate Function mapping
 148:/home/jonas/warwick/3dProfilometer/xpcc/src/xpcc/architecture/platform/cortex_m3/stm32/i2c/../stm32f2_4/gpio.hpp **** 			
 149:/home/jonas/warwick/3dProfilometer/xpcc/src/xpcc/architecture/platform/cortex_m3/stm32/i2c/../stm32f2_4/gpio.hpp **** 			// AF 6 selection  
 150:/home/jonas/warwick/3dProfilometer/xpcc/src/xpcc/architecture/platform/cortex_m3/stm32/i2c/../stm32f2_4/gpio.hpp **** 			AF_SPI3 = 0x06,		///< SPI3/I2S3 Alternate Function mapping
 151:/home/jonas/warwick/3dProfilometer/xpcc/src/xpcc/architecture/platform/cortex_m3/stm32/i2c/../stm32f2_4/gpio.hpp **** 			
 152:/home/jonas/warwick/3dProfilometer/xpcc/src/xpcc/architecture/platform/cortex_m3/stm32/i2c/../stm32f2_4/gpio.hpp **** 			// AF 7 selection  
 153:/home/jonas/warwick/3dProfilometer/xpcc/src/xpcc/architecture/platform/cortex_m3/stm32/i2c/../stm32f2_4/gpio.hpp **** 			AF_USART1 = 0x07,	///< USART1 Alternate Function mapping
 154:/home/jonas/warwick/3dProfilometer/xpcc/src/xpcc/architecture/platform/cortex_m3/stm32/i2c/../stm32f2_4/gpio.hpp **** 			AF_USART2 = 0x07,	///< USART2 Alternate Function mapping
 155:/home/jonas/warwick/3dProfilometer/xpcc/src/xpcc/architecture/platform/cortex_m3/stm32/i2c/../stm32f2_4/gpio.hpp **** 			AF_USART3 = 0x07,	///< USART3 Alternate Function mapping
 156:/home/jonas/warwick/3dProfilometer/xpcc/src/xpcc/architecture/platform/cortex_m3/stm32/i2c/../stm32f2_4/gpio.hpp **** 			
 157:/home/jonas/warwick/3dProfilometer/xpcc/src/xpcc/architecture/platform/cortex_m3/stm32/i2c/../stm32f2_4/gpio.hpp **** 			// AF 8 selection  
 158:/home/jonas/warwick/3dProfilometer/xpcc/src/xpcc/architecture/platform/cortex_m3/stm32/i2c/../stm32f2_4/gpio.hpp **** 			AF_UART4 = 0x08,	///< UART4 Alternate Function mapping
 159:/home/jonas/warwick/3dProfilometer/xpcc/src/xpcc/architecture/platform/cortex_m3/stm32/i2c/../stm32f2_4/gpio.hpp **** 			AF_UART5 = 0x08,	///< UART5 Alternate Function mapping
 160:/home/jonas/warwick/3dProfilometer/xpcc/src/xpcc/architecture/platform/cortex_m3/stm32/i2c/../stm32f2_4/gpio.hpp **** 			AF_USART6 = 0x08,	///< USART6 Alternate Function mapping
 161:/home/jonas/warwick/3dProfilometer/xpcc/src/xpcc/architecture/platform/cortex_m3/stm32/i2c/../stm32f2_4/gpio.hpp **** 			
 162:/home/jonas/warwick/3dProfilometer/xpcc/src/xpcc/architecture/platform/cortex_m3/stm32/i2c/../stm32f2_4/gpio.hpp **** 			// AF 9 selection 
 163:/home/jonas/warwick/3dProfilometer/xpcc/src/xpcc/architecture/platform/cortex_m3/stm32/i2c/../stm32f2_4/gpio.hpp **** 			AF_CAN1 = 0x09,		///< CAN1 Alternate Function mapping
 164:/home/jonas/warwick/3dProfilometer/xpcc/src/xpcc/architecture/platform/cortex_m3/stm32/i2c/../stm32f2_4/gpio.hpp **** 			AF_CAN2 = 0x09,		///< CAN2 Alternate Function mapping
 165:/home/jonas/warwick/3dProfilometer/xpcc/src/xpcc/architecture/platform/cortex_m3/stm32/i2c/../stm32f2_4/gpio.hpp **** 			AF_TIM12 = 0x09,	///< TIM12 Alternate Function mapping
 166:/home/jonas/warwick/3dProfilometer/xpcc/src/xpcc/architecture/platform/cortex_m3/stm32/i2c/../stm32f2_4/gpio.hpp **** 			AF_TIM13 = 0x09,	///< TIM13 Alternate Function mapping
 167:/home/jonas/warwick/3dProfilometer/xpcc/src/xpcc/architecture/platform/cortex_m3/stm32/i2c/../stm32f2_4/gpio.hpp **** 			AF_TIM14 = 0x09,	///< TIM14 Alternate Function mapping
 168:/home/jonas/warwick/3dProfilometer/xpcc/src/xpcc/architecture/platform/cortex_m3/stm32/i2c/../stm32f2_4/gpio.hpp **** 			
 169:/home/jonas/warwick/3dProfilometer/xpcc/src/xpcc/architecture/platform/cortex_m3/stm32/i2c/../stm32f2_4/gpio.hpp **** 			// AF 10 selection  
 170:/home/jonas/warwick/3dProfilometer/xpcc/src/xpcc/architecture/platform/cortex_m3/stm32/i2c/../stm32f2_4/gpio.hpp **** 			AF_OTG_FS = 0xA,	///< OTG_FS Alternate Function mapping
 171:/home/jonas/warwick/3dProfilometer/xpcc/src/xpcc/architecture/platform/cortex_m3/stm32/i2c/../stm32f2_4/gpio.hpp **** 			AF_OTG_HS = 0xA,	///< OTG_HS Alternate Function mapping
 172:/home/jonas/warwick/3dProfilometer/xpcc/src/xpcc/architecture/platform/cortex_m3/stm32/i2c/../stm32f2_4/gpio.hpp **** 			
 173:/home/jonas/warwick/3dProfilometer/xpcc/src/xpcc/architecture/platform/cortex_m3/stm32/i2c/../stm32f2_4/gpio.hpp **** 			// AF 11 selection  
 174:/home/jonas/warwick/3dProfilometer/xpcc/src/xpcc/architecture/platform/cortex_m3/stm32/i2c/../stm32f2_4/gpio.hpp **** 			AF_ETH = 0x0B,		///< ETHERNET Alternate Function mapping
 175:/home/jonas/warwick/3dProfilometer/xpcc/src/xpcc/architecture/platform/cortex_m3/stm32/i2c/../stm32f2_4/gpio.hpp **** 			
 176:/home/jonas/warwick/3dProfilometer/xpcc/src/xpcc/architecture/platform/cortex_m3/stm32/i2c/../stm32f2_4/gpio.hpp **** 			// AF 12 selection  
 177:/home/jonas/warwick/3dProfilometer/xpcc/src/xpcc/architecture/platform/cortex_m3/stm32/i2c/../stm32f2_4/gpio.hpp **** 			AF_FSMC = 0xC,		///< FSMC Alternate Function mapping
 178:/home/jonas/warwick/3dProfilometer/xpcc/src/xpcc/architecture/platform/cortex_m3/stm32/i2c/../stm32f2_4/gpio.hpp **** 			AF_OTG_HS_FS = 0xC,	///< OTG HS configured in FS, Alternate Function mapping
 179:/home/jonas/warwick/3dProfilometer/xpcc/src/xpcc/architecture/platform/cortex_m3/stm32/i2c/../stm32f2_4/gpio.hpp **** 			AF_SDIO = 0xC,		///< SDIO Alternate Function mapping
 180:/home/jonas/warwick/3dProfilometer/xpcc/src/xpcc/architecture/platform/cortex_m3/stm32/i2c/../stm32f2_4/gpio.hpp **** 			
 181:/home/jonas/warwick/3dProfilometer/xpcc/src/xpcc/architecture/platform/cortex_m3/stm32/i2c/../stm32f2_4/gpio.hpp **** 			// AF 13 selection  
 182:/home/jonas/warwick/3dProfilometer/xpcc/src/xpcc/architecture/platform/cortex_m3/stm32/i2c/../stm32f2_4/gpio.hpp **** 			AF_DCMI = 0x0D,		///< DCMI Alternate Function mapping
 183:/home/jonas/warwick/3dProfilometer/xpcc/src/xpcc/architecture/platform/cortex_m3/stm32/i2c/../stm32f2_4/gpio.hpp **** 			
 184:/home/jonas/warwick/3dProfilometer/xpcc/src/xpcc/architecture/platform/cortex_m3/stm32/i2c/../stm32f2_4/gpio.hpp **** 			// AF 15 selection  
 185:/home/jonas/warwick/3dProfilometer/xpcc/src/xpcc/architecture/platform/cortex_m3/stm32/i2c/../stm32f2_4/gpio.hpp **** 			AF_EVENTOUT = 0x0F,	///< EVENTOUT Alternate Function mapping
 186:/home/jonas/warwick/3dProfilometer/xpcc/src/xpcc/architecture/platform/cortex_m3/stm32/i2c/../stm32f2_4/gpio.hpp **** 			
 187:/home/jonas/warwick/3dProfilometer/xpcc/src/xpcc/architecture/platform/cortex_m3/stm32/i2c/../stm32f2_4/gpio.hpp **** 			AF_0 = 0x00,		///< System
 188:/home/jonas/warwick/3dProfilometer/xpcc/src/xpcc/architecture/platform/cortex_m3/stm32/i2c/../stm32f2_4/gpio.hpp **** 			AF_1 = 0x01,		///< TIM1/2
 189:/home/jonas/warwick/3dProfilometer/xpcc/src/xpcc/architecture/platform/cortex_m3/stm32/i2c/../stm32f2_4/gpio.hpp **** 			AF_2 = 0x02,		///< TIM3..5
 190:/home/jonas/warwick/3dProfilometer/xpcc/src/xpcc/architecture/platform/cortex_m3/stm32/i2c/../stm32f2_4/gpio.hpp **** 			AF_3 = 0x03,		///< TIM8...11
 191:/home/jonas/warwick/3dProfilometer/xpcc/src/xpcc/architecture/platform/cortex_m3/stm32/i2c/../stm32f2_4/gpio.hpp **** 			AF_4 = 0x04,		///< I2C1..3
 192:/home/jonas/warwick/3dProfilometer/xpcc/src/xpcc/architecture/platform/cortex_m3/stm32/i2c/../stm32f2_4/gpio.hpp **** 			AF_5 = 0x05,		///< SPI1/2
 193:/home/jonas/warwick/3dProfilometer/xpcc/src/xpcc/architecture/platform/cortex_m3/stm32/i2c/../stm32f2_4/gpio.hpp **** 			AF_6 = 0x06,		///< SPI3
 194:/home/jonas/warwick/3dProfilometer/xpcc/src/xpcc/architecture/platform/cortex_m3/stm32/i2c/../stm32f2_4/gpio.hpp **** 			AF_7 = 0x07,		///< USART1..3
 195:/home/jonas/warwick/3dProfilometer/xpcc/src/xpcc/architecture/platform/cortex_m3/stm32/i2c/../stm32f2_4/gpio.hpp **** 			AF_8 = 0x08,		///< USART4..6
 196:/home/jonas/warwick/3dProfilometer/xpcc/src/xpcc/architecture/platform/cortex_m3/stm32/i2c/../stm32f2_4/gpio.hpp **** 			AF_9 = 0x09,		///< CAN1/2, TIM12..14
 197:/home/jonas/warwick/3dProfilometer/xpcc/src/xpcc/architecture/platform/cortex_m3/stm32/i2c/../stm32f2_4/gpio.hpp **** 			AF_10 = 0x0a,		///< OTG_FS, OTG_HS
 198:/home/jonas/warwick/3dProfilometer/xpcc/src/xpcc/architecture/platform/cortex_m3/stm32/i2c/../stm32f2_4/gpio.hpp **** 			AF_11 = 0x0b,		///< ETH
 199:/home/jonas/warwick/3dProfilometer/xpcc/src/xpcc/architecture/platform/cortex_m3/stm32/i2c/../stm32f2_4/gpio.hpp **** 			AF_12 = 0x0c,		///< FSMC, SDIO, OTG_HS (configured as FS)
 200:/home/jonas/warwick/3dProfilometer/xpcc/src/xpcc/architecture/platform/cortex_m3/stm32/i2c/../stm32f2_4/gpio.hpp **** 			AF_13 = 0x0d,		///< DCMI
 201:/home/jonas/warwick/3dProfilometer/xpcc/src/xpcc/architecture/platform/cortex_m3/stm32/i2c/../stm32f2_4/gpio.hpp **** 			AF_14 = 0x0e,		///< Reserved
 202:/home/jonas/warwick/3dProfilometer/xpcc/src/xpcc/architecture/platform/cortex_m3/stm32/i2c/../stm32f2_4/gpio.hpp **** 			AF_15 = 0x0f,		///< EVENTOUT
 203:/home/jonas/warwick/3dProfilometer/xpcc/src/xpcc/architecture/platform/cortex_m3/stm32/i2c/../stm32f2_4/gpio.hpp **** 		};
 204:/home/jonas/warwick/3dProfilometer/xpcc/src/xpcc/architecture/platform/cortex_m3/stm32/i2c/../stm32f2_4/gpio.hpp **** 		
 205:/home/jonas/warwick/3dProfilometer/xpcc/src/xpcc/architecture/platform/cortex_m3/stm32/i2c/../stm32f2_4/gpio.hpp **** 		/** \internal */
 206:/home/jonas/warwick/3dProfilometer/xpcc/src/xpcc/architecture/platform/cortex_m3/stm32/i2c/../stm32f2_4/gpio.hpp **** 		template<unsigned int P, unsigned char N, bool = (N >= 8)>
 207:/home/jonas/warwick/3dProfilometer/xpcc/src/xpcc/architecture/platform/cortex_m3/stm32/i2c/../stm32f2_4/gpio.hpp **** 		struct AlternateMode {
 208:/home/jonas/warwick/3dProfilometer/xpcc/src/xpcc/architecture/platform/cortex_m3/stm32/i2c/../stm32f2_4/gpio.hpp **** 			ALWAYS_INLINE static void setMode(AlternateFunction m) {
 209:/home/jonas/warwick/3dProfilometer/xpcc/src/xpcc/architecture/platform/cortex_m3/stm32/i2c/../stm32f2_4/gpio.hpp **** 				uint32_t tmp = reinterpret_cast<GPIO_TypeDef*>(P)->AFR[1];
 996              		.loc 2 209 0
 997 001e 5A6A     		ldr	r2, [r3, #36]
 998              	.LVL45:
 210:/home/jonas/warwick/3dProfilometer/xpcc/src/xpcc/architecture/platform/cortex_m3/stm32/i2c/../stm32f2_4/gpio.hpp **** 				tmp &= ~(0xf << ((N - 8) * 4));
 999              		.loc 2 210 0
 1000 0020 22F47062 		bic	r2, r2, #3840
 1001              	.LVL46:
 211:/home/jonas/warwick/3dProfilometer/xpcc/src/xpcc/architecture/platform/cortex_m3/stm32/i2c/../stm32f2_4/gpio.hpp **** 				tmp |= (m << ((N - 8) * 4));
 1002              		.loc 2 211 0
 1003 0024 42F48062 		orr	r2, r2, #1024
 1004              	.LVL47:
 212:/home/jonas/warwick/3dProfilometer/xpcc/src/xpcc/architecture/platform/cortex_m3/stm32/i2c/../stm32f2_4/gpio.hpp **** 				reinterpret_cast<GPIO_TypeDef*>(P)->AFR[1] = tmp;
 1005              		.loc 2 212 0
 1006 0028 5A62     		str	r2, [r3, #36]
 1007              	.LBE198:
 1008              	.LBE197:
 202:/home/jonas/warwick/3dProfilometer/xpcc/src/xpcc/architecture/platform/cortex_m3/stm32/i2c/i2c_master_2.cpp **** 	GPIO__IO(SclB10, B, 10);
 1009              		.loc 1 202 0
 1010 002a 5A68     		ldr	r2, [r3, #4]
 1011              	.LVL48:
 1012 002c 42F48062 		orr	r2, r2, #1024
 1013 0030 5A60     		str	r2, [r3, #4]
 1014 0032 9A68     		ldr	r2, [r3, #8]
 1015 0034 22F44012 		bic	r2, r2, #3145728
 1016 0038 42F48012 		orr	r2, r2, #1048576
 1017 003c 9A60     		str	r2, [r3, #8]
 1018 003e DA68     		ldr	r2, [r3, #12]
 1019 0040 22F44012 		bic	r2, r2, #3145728
 1020 0044 DA60     		str	r2, [r3, #12]
 1021              	.LVL49:
 1022              	.LBE196:
 1023              	.LBE195:
 1024              	.LBB199:
 1025              	.LBB200:
 203:/home/jonas/warwick/3dProfilometer/xpcc/src/xpcc/architecture/platform/cortex_m3/stm32/i2c/i2c_master_2.cpp **** 	GPIO__IO(SdaB11, B, 11);
 1026              		.loc 1 203 0
 1027 0046 1A68     		ldr	r2, [r3, #0]
 1028 0048 22F44002 		bic	r2, r2, #12582912
 1029 004c 42F40002 		orr	r2, r2, #8388608
 1030 0050 1A60     		str	r2, [r3, #0]
 1031              	.LVL50:
 1032              	.LBB201:
 1033              	.LBB202:
 209:/home/jonas/warwick/3dProfilometer/xpcc/src/xpcc/architecture/platform/cortex_m3/stm32/i2c/../stm32f2_4/gpio.hpp **** 				uint32_t tmp = reinterpret_cast<GPIO_TypeDef*>(P)->AFR[1];
 1034              		.loc 2 209 0
 1035 0052 5A6A     		ldr	r2, [r3, #36]
 1036              	.LVL51:
 210:/home/jonas/warwick/3dProfilometer/xpcc/src/xpcc/architecture/platform/cortex_m3/stm32/i2c/../stm32f2_4/gpio.hpp **** 				tmp &= ~(0xf << ((N - 8) * 4));
 1037              		.loc 2 210 0
 1038 0054 22F47042 		bic	r2, r2, #61440
 1039              	.LVL52:
 211:/home/jonas/warwick/3dProfilometer/xpcc/src/xpcc/architecture/platform/cortex_m3/stm32/i2c/../stm32f2_4/gpio.hpp **** 				tmp |= (m << ((N - 8) * 4));
 1040              		.loc 2 211 0
 1041 0058 42F48042 		orr	r2, r2, #16384
 1042              	.LVL53:
 1043              		.loc 2 212 0
 1044 005c 5A62     		str	r2, [r3, #36]
 1045              	.LBE202:
 1046              	.LBE201:
 203:/home/jonas/warwick/3dProfilometer/xpcc/src/xpcc/architecture/platform/cortex_m3/stm32/i2c/i2c_master_2.cpp **** 	GPIO__IO(SdaB11, B, 11);
 1047              		.loc 1 203 0
 1048 005e 5A68     		ldr	r2, [r3, #4]
 1049              	.LVL54:
 1050 0060 42F40062 		orr	r2, r2, #2048
 1051 0064 5A60     		str	r2, [r3, #4]
 1052 0066 9A68     		ldr	r2, [r3, #8]
 1053 0068 22F44002 		bic	r2, r2, #12582912
 1054 006c 42F48002 		orr	r2, r2, #4194304
 1055 0070 9A60     		str	r2, [r3, #8]
 1056 0072 DA68     		ldr	r2, [r3, #12]
 1057 0074 22F44002 		bic	r2, r2, #12582912
 1058 0078 DA60     		str	r2, [r3, #12]
 1059              	.LVL55:
 1060              	.L88:
 1061              	.LBE200:
 1062              	.LBE199:
 1063              	.LBB203:
 1064              	.LBB204:
 209:/home/jonas/warwick/3dProfilometer/xpcc/src/xpcc/architecture/platform/cortex_m3/stm32/i2c/i2c_master_2.cpp **** 	GPIO__IO(SclH4, H, 4);
 1065              		.loc 1 209 0
 1066 007a 384B     		ldr	r3, .L90+4
 1067 007c 1A68     		ldr	r2, [r3, #0]
 1068 007e 22F44072 		bic	r2, r2, #768
 1069 0082 42F40072 		orr	r2, r2, #512
 1070 0086 1A60     		str	r2, [r3, #0]
 1071              	.LVL56:
 1072              	.LBB205:
 1073              	.LBB206:
 213:/home/jonas/warwick/3dProfilometer/xpcc/src/xpcc/architecture/platform/cortex_m3/stm32/i2c/../stm32f2_4/gpio.hpp **** 			}
 214:/home/jonas/warwick/3dProfilometer/xpcc/src/xpcc/architecture/platform/cortex_m3/stm32/i2c/../stm32f2_4/gpio.hpp **** 		};
 215:/home/jonas/warwick/3dProfilometer/xpcc/src/xpcc/architecture/platform/cortex_m3/stm32/i2c/../stm32f2_4/gpio.hpp **** 		
 216:/home/jonas/warwick/3dProfilometer/xpcc/src/xpcc/architecture/platform/cortex_m3/stm32/i2c/../stm32f2_4/gpio.hpp **** 		/** \internal */
 217:/home/jonas/warwick/3dProfilometer/xpcc/src/xpcc/architecture/platform/cortex_m3/stm32/i2c/../stm32f2_4/gpio.hpp **** 		template<unsigned int P, unsigned char N>
 218:/home/jonas/warwick/3dProfilometer/xpcc/src/xpcc/architecture/platform/cortex_m3/stm32/i2c/../stm32f2_4/gpio.hpp **** 		struct AlternateMode<P, N, false> {
 219:/home/jonas/warwick/3dProfilometer/xpcc/src/xpcc/architecture/platform/cortex_m3/stm32/i2c/../stm32f2_4/gpio.hpp **** 			ALWAYS_INLINE static void setMode(AlternateFunction m) {
 220:/home/jonas/warwick/3dProfilometer/xpcc/src/xpcc/architecture/platform/cortex_m3/stm32/i2c/../stm32f2_4/gpio.hpp **** 				uint32_t tmp = reinterpret_cast<GPIO_TypeDef*>(P)->AFR[0];
 1074              		.loc 2 220 0
 1075 0088 1A6A     		ldr	r2, [r3, #32]
 1076              	.LVL57:
 221:/home/jonas/warwick/3dProfilometer/xpcc/src/xpcc/architecture/platform/cortex_m3/stm32/i2c/../stm32f2_4/gpio.hpp **** 				tmp &= ~(0xf << (N * 4));
 1077              		.loc 2 221 0
 1078 008a 22F47022 		bic	r2, r2, #983040
 1079              	.LVL58:
 222:/home/jonas/warwick/3dProfilometer/xpcc/src/xpcc/architecture/platform/cortex_m3/stm32/i2c/../stm32f2_4/gpio.hpp **** 				tmp |= m << (N * 4);
 1080              		.loc 2 222 0
 1081 008e 42F48022 		orr	r2, r2, #262144
 1082              	.LVL59:
 223:/home/jonas/warwick/3dProfilometer/xpcc/src/xpcc/architecture/platform/cortex_m3/stm32/i2c/../stm32f2_4/gpio.hpp **** 				reinterpret_cast<GPIO_TypeDef*>(P)->AFR[0] = tmp;
 1083              		.loc 2 223 0
 1084 0092 1A62     		str	r2, [r3, #32]
 1085              	.LBE206:
 1086              	.LBE205:
 209:/home/jonas/warwick/3dProfilometer/xpcc/src/xpcc/architecture/platform/cortex_m3/stm32/i2c/i2c_master_2.cpp **** 	GPIO__IO(SclH4, H, 4);
 1087              		.loc 1 209 0
 1088 0094 5A68     		ldr	r2, [r3, #4]
 1089              	.LVL60:
 1090 0096 42F01002 		orr	r2, r2, #16
 1091 009a 5A60     		str	r2, [r3, #4]
 1092 009c 9A68     		ldr	r2, [r3, #8]
 1093 009e 22F44072 		bic	r2, r2, #768
 1094 00a2 42F48072 		orr	r2, r2, #256
 1095 00a6 9A60     		str	r2, [r3, #8]
 1096 00a8 DA68     		ldr	r2, [r3, #12]
 1097 00aa 22F44072 		bic	r2, r2, #768
 1098 00ae DA60     		str	r2, [r3, #12]
 1099              	.LVL61:
 1100              	.LBE204:
 1101              	.LBE203:
 1102              	.LBB207:
 1103              	.LBB208:
 210:/home/jonas/warwick/3dProfilometer/xpcc/src/xpcc/architecture/platform/cortex_m3/stm32/i2c/i2c_master_2.cpp **** 	GPIO__IO(SdaH5, H, 5);
 1104              		.loc 1 210 0
 1105 00b0 1A68     		ldr	r2, [r3, #0]
 1106 00b2 22F44062 		bic	r2, r2, #3072
 1107 00b6 42F40062 		orr	r2, r2, #2048
 1108 00ba 1A60     		str	r2, [r3, #0]
 1109              	.LVL62:
 1110              	.LBB209:
 1111              	.LBB210:
 220:/home/jonas/warwick/3dProfilometer/xpcc/src/xpcc/architecture/platform/cortex_m3/stm32/i2c/../stm32f2_4/gpio.hpp **** 				uint32_t tmp = reinterpret_cast<GPIO_TypeDef*>(P)->AFR[0];
 1112              		.loc 2 220 0
 1113 00bc 1A6A     		ldr	r2, [r3, #32]
 1114              	.LVL63:
 221:/home/jonas/warwick/3dProfilometer/xpcc/src/xpcc/architecture/platform/cortex_m3/stm32/i2c/../stm32f2_4/gpio.hpp **** 				tmp &= ~(0xf << (N * 4));
 1115              		.loc 2 221 0
 1116 00be 22F47002 		bic	r2, r2, #15728640
 1117              	.LVL64:
 222:/home/jonas/warwick/3dProfilometer/xpcc/src/xpcc/architecture/platform/cortex_m3/stm32/i2c/../stm32f2_4/gpio.hpp **** 				tmp |= m << (N * 4);
 1118              		.loc 2 222 0
 1119 00c2 42F48002 		orr	r2, r2, #4194304
 1120              	.LVL65:
 1121              		.loc 2 223 0
 1122 00c6 1A62     		str	r2, [r3, #32]
 1123              	.LBE210:
 1124              	.LBE209:
 210:/home/jonas/warwick/3dProfilometer/xpcc/src/xpcc/architecture/platform/cortex_m3/stm32/i2c/i2c_master_2.cpp **** 	GPIO__IO(SdaH5, H, 5);
 1125              		.loc 1 210 0
 1126 00c8 5A68     		ldr	r2, [r3, #4]
 1127              	.LVL66:
 1128 00ca 42F02002 		orr	r2, r2, #32
 1129 00ce 5A60     		str	r2, [r3, #4]
 1130 00d0 9A68     		ldr	r2, [r3, #8]
 1131 00d2 22F44062 		bic	r2, r2, #3072
 1132 00d6 42F48062 		orr	r2, r2, #1024
 1133 00da 9A60     		str	r2, [r3, #8]
 1134 00dc DA68     		ldr	r2, [r3, #12]
 1135 00de 22F44062 		bic	r2, r2, #3072
 1136 00e2 DA60     		str	r2, [r3, #12]
 1137 00e4 7047     		bx	lr
 1138              	.LVL67:
 1139              	.L87:
 1140              	.LBE208:
 1141              	.LBE207:
 601:/home/jonas/warwick/3dProfilometer/xpcc/src/xpcc/architecture/platform/cortex_m3/stm32/i2c/i2c_master_2.cpp **** 	if (mapping == REMAP_PF1_PF0) {
 1142              		.loc 1 601 0
 1143 00e6 0128     		cmp	r0, #1
 1144 00e8 C7D1     		bne	.L88
 1145              	.LVL68:
 1146              	.LBB211:
 1147              	.LBB212:
 206:/home/jonas/warwick/3dProfilometer/xpcc/src/xpcc/architecture/platform/cortex_m3/stm32/i2c/i2c_master_2.cpp **** 	GPIO__IO(SclF1, F, 1);
 1148              		.loc 1 206 0
 1149 00ea 1D4B     		ldr	r3, .L90+8
 1150 00ec 1A68     		ldr	r2, [r3, #0]
 1151 00ee 22F00C02 		bic	r2, r2, #12
 1152 00f2 42F00802 		orr	r2, r2, #8
 1153 00f6 1A60     		str	r2, [r3, #0]
 1154              	.LVL69:
 1155              	.LBB213:
 1156              	.LBB214:
 220:/home/jonas/warwick/3dProfilometer/xpcc/src/xpcc/architecture/platform/cortex_m3/stm32/i2c/../stm32f2_4/gpio.hpp **** 				uint32_t tmp = reinterpret_cast<GPIO_TypeDef*>(P)->AFR[0];
 1157              		.loc 2 220 0
 1158 00f8 1A6A     		ldr	r2, [r3, #32]
 1159              	.LVL70:
 221:/home/jonas/warwick/3dProfilometer/xpcc/src/xpcc/architecture/platform/cortex_m3/stm32/i2c/../stm32f2_4/gpio.hpp **** 				tmp &= ~(0xf << (N * 4));
 1160              		.loc 2 221 0
 1161 00fa 22F0F002 		bic	r2, r2, #240
 1162              	.LVL71:
 222:/home/jonas/warwick/3dProfilometer/xpcc/src/xpcc/architecture/platform/cortex_m3/stm32/i2c/../stm32f2_4/gpio.hpp **** 				tmp |= m << (N * 4);
 1163              		.loc 2 222 0
 1164 00fe 42F04002 		orr	r2, r2, #64
 1165              	.LVL72:
 1166              		.loc 2 223 0
 1167 0102 1A62     		str	r2, [r3, #32]
 1168              	.LBE214:
 1169              	.LBE213:
 206:/home/jonas/warwick/3dProfilometer/xpcc/src/xpcc/architecture/platform/cortex_m3/stm32/i2c/i2c_master_2.cpp **** 	GPIO__IO(SclF1, F, 1);
 1170              		.loc 1 206 0
 1171 0104 5A68     		ldr	r2, [r3, #4]
 1172              	.LVL73:
 1173 0106 42F00202 		orr	r2, r2, #2
 1174 010a 5A60     		str	r2, [r3, #4]
 1175 010c 9A68     		ldr	r2, [r3, #8]
 1176 010e 22F00C02 		bic	r2, r2, #12
 1177 0112 42F00402 		orr	r2, r2, #4
 1178 0116 9A60     		str	r2, [r3, #8]
 1179 0118 DA68     		ldr	r2, [r3, #12]
 1180 011a 22F00C02 		bic	r2, r2, #12
 1181 011e DA60     		str	r2, [r3, #12]
 1182              	.LVL74:
 1183              	.LBE212:
 1184              	.LBE211:
 1185              	.LBB215:
 1186              	.LBB216:
 207:/home/jonas/warwick/3dProfilometer/xpcc/src/xpcc/architecture/platform/cortex_m3/stm32/i2c/i2c_master_2.cpp **** 	GPIO__IO(SdaF0, F, 0);
 1187              		.loc 1 207 0
 1188 0120 1A68     		ldr	r2, [r3, #0]
 1189 0122 22F00302 		bic	r2, r2, #3
 1190 0126 42F00202 		orr	r2, r2, #2
 1191 012a 1A60     		str	r2, [r3, #0]
 1192              	.LVL75:
 1193              	.LBB217:
 1194              	.LBB218:
 220:/home/jonas/warwick/3dProfilometer/xpcc/src/xpcc/architecture/platform/cortex_m3/stm32/i2c/../stm32f2_4/gpio.hpp **** 				uint32_t tmp = reinterpret_cast<GPIO_TypeDef*>(P)->AFR[0];
 1195              		.loc 2 220 0
 1196 012c 1A6A     		ldr	r2, [r3, #32]
 1197              	.LVL76:
 221:/home/jonas/warwick/3dProfilometer/xpcc/src/xpcc/architecture/platform/cortex_m3/stm32/i2c/../stm32f2_4/gpio.hpp **** 				tmp &= ~(0xf << (N * 4));
 1198              		.loc 2 221 0
 1199 012e 22F00F02 		bic	r2, r2, #15
 1200              	.LVL77:
 222:/home/jonas/warwick/3dProfilometer/xpcc/src/xpcc/architecture/platform/cortex_m3/stm32/i2c/../stm32f2_4/gpio.hpp **** 				tmp |= m << (N * 4);
 1201              		.loc 2 222 0
 1202 0132 42F00402 		orr	r2, r2, #4
 1203              	.LVL78:
 1204              		.loc 2 223 0
 1205 0136 1A62     		str	r2, [r3, #32]
 1206              	.LBE218:
 1207              	.LBE217:
 207:/home/jonas/warwick/3dProfilometer/xpcc/src/xpcc/architecture/platform/cortex_m3/stm32/i2c/i2c_master_2.cpp **** 	GPIO__IO(SdaF0, F, 0);
 1208              		.loc 1 207 0
 1209 0138 5A68     		ldr	r2, [r3, #4]
 1210              	.LVL79:
 1211 013a 42F00102 		orr	r2, r2, #1
 1212 013e 5A60     		str	r2, [r3, #4]
 1213 0140 9A68     		ldr	r2, [r3, #8]
 1214 0142 22F00302 		bic	r2, r2, #3
 1215 0146 42F00102 		orr	r2, r2, #1
 1216 014a 9A60     		str	r2, [r3, #8]
 1217 014c DA68     		ldr	r2, [r3, #12]
 1218 014e 22F00302 		bic	r2, r2, #3
 1219 0152 DA60     		str	r2, [r3, #12]
 1220 0154 7047     		bx	lr
 1221              	.L91:
 1222 0156 00BF     		.align	2
 1223              	.L90:
 1224 0158 00380240 		.word	1073887232
 1225 015c 001C0240 		.word	1073880064
 1226 0160 00140240 		.word	1073878016
 1227              	.LBE216:
 1228              	.LBE215:
 1229              		.cfi_endproc
 1230              	.LFE213:
 1232              		.section	.text._ZN4xpcc5stm3210I2cMaster210initializeEt,"ax",%progbits
 1233              		.align	2
 1234              		.global	_ZN4xpcc5stm3210I2cMaster210initializeEt
 1235              		.thumb
 1236              		.thumb_func
 1238              	_ZN4xpcc5stm3210I2cMaster210initializeEt:
 1239              	.LFB214:
 619:/home/jonas/warwick/3dProfilometer/xpcc/src/xpcc/architecture/platform/cortex_m3/stm32/i2c/i2c_master_2.cpp **** {
 1240              		.loc 1 619 0
 1241              		.cfi_startproc
 1242              		@ args = 0, pretend = 0, frame = 0
 1243              		@ frame_needed = 0, uses_anonymous_args = 0
 1244              	.LVL80:
 1245 0000 70B5     		push	{r4, r5, r6, lr}
 1246              	.LCFI3:
 1247              		.cfi_def_cfa_offset 16
 1248              		.cfi_offset 4, -16
 1249              		.cfi_offset 5, -12
 1250              		.cfi_offset 6, -8
 1251              		.cfi_offset 14, -4
 1252              	.LBB225:
 1253              	.LBB226:
 641:/home/jonas/warwick/3dProfilometer/xpcc/src/xpcc/architecture/platform/cortex_m3/stm32/i2c/i2c_master_2.cpp **** 	readBytesLeft = 0;
 1254              		.loc 1 641 0
 1255 0002 1549     		ldr	r1, .L97
 643:/home/jonas/warwick/3dProfilometer/xpcc/src/xpcc/architecture/platform/cortex_m3/stm32/i2c/i2c_master_2.cpp **** 	if (delegate) delegate->stopped(error ? xpcc::i2c::Delegate::ERROR_CONDITION : xpcc::i2c::Delegate
 1256              		.loc 1 643 0
 1257 0004 154C     		ldr	r4, .L97+4
 641:/home/jonas/warwick/3dProfilometer/xpcc/src/xpcc/architecture/platform/cortex_m3/stm32/i2c/i2c_master_2.cpp **** 	readBytesLeft = 0;
 1258              		.loc 1 641 0
 1259 0006 0022     		movs	r2, #0
 1260 0008 0A60     		str	r2, [r1, #0]
 643:/home/jonas/warwick/3dProfilometer/xpcc/src/xpcc/architecture/platform/cortex_m3/stm32/i2c/i2c_master_2.cpp **** 	if (delegate) delegate->stopped(error ? xpcc::i2c::Delegate::ERROR_CONDITION : xpcc::i2c::Delegate
 1261              		.loc 1 643 0
 1262 000a 2368     		ldr	r3, [r4, #0]
 642:/home/jonas/warwick/3dProfilometer/xpcc/src/xpcc/architecture/platform/cortex_m3/stm32/i2c/i2c_master_2.cpp **** 	writeBytesLeft = 0;
 1263              		.loc 1 642 0
 1264 000c 1449     		ldr	r1, .L97+8
 1265              	.LBE226:
 1266              	.LBE225:
 619:/home/jonas/warwick/3dProfilometer/xpcc/src/xpcc/architecture/platform/cortex_m3/stm32/i2c/i2c_master_2.cpp **** {
 1267              		.loc 1 619 0
 1268 000e 0646     		mov	r6, r0
 1269              	.LBB230:
 1270              	.LBB227:
 642:/home/jonas/warwick/3dProfilometer/xpcc/src/xpcc/architecture/platform/cortex_m3/stm32/i2c/i2c_master_2.cpp **** 	writeBytesLeft = 0;
 1271              		.loc 1 642 0
 1272 0010 0A60     		str	r2, [r1, #0]
 643:/home/jonas/warwick/3dProfilometer/xpcc/src/xpcc/architecture/platform/cortex_m3/stm32/i2c/i2c_master_2.cpp **** 	if (delegate) delegate->stopped(error ? xpcc::i2c::Delegate::ERROR_CONDITION : xpcc::i2c::Delegate
 1273              		.loc 1 643 0
 1274 0012 23B1     		cbz	r3, .L93
 1275 0014 1A68     		ldr	r2, [r3, #0]
 1276 0016 1846     		mov	r0, r3
 1277              	.LVL81:
 1278 0018 0221     		movs	r1, #2
 1279 001a 1369     		ldr	r3, [r2, #16]
 1280 001c 9847     		blx	r3
 1281              	.LVL82:
 1282              	.L93:
 1283              	.LBE227:
 1284              	.LBE230:
 622:/home/jonas/warwick/3dProfilometer/xpcc/src/xpcc/architecture/platform/cortex_m3/stm32/i2c/i2c_master_2.cpp **** 	RCC->APB1ENR |= RCC_APB1ENR_I2C2EN;
 1285              		.loc 1 622 0
 1286 001e 114D     		ldr	r5, .L97+12
 624:/home/jonas/warwick/3dProfilometer/xpcc/src/xpcc/architecture/platform/cortex_m3/stm32/i2c/i2c_master_2.cpp **** 	I2C2->CR1 = I2C_CR1_SWRST; 		// reset module
 1287              		.loc 1 624 0
 1288 0020 114B     		ldr	r3, .L97+16
 622:/home/jonas/warwick/3dProfilometer/xpcc/src/xpcc/architecture/platform/cortex_m3/stm32/i2c/i2c_master_2.cpp **** 	RCC->APB1ENR |= RCC_APB1ENR_I2C2EN;
 1289              		.loc 1 622 0
 1290 0022 286C     		ldr	r0, [r5, #64]
 1291              	.LBB231:
 1292              	.LBB232:
 1293              		.file 3 "/home/jonas/warwick/3dProfilometer/xpcc/ext/stm32f4xx_lib/CMSIS/Include/core_cm4.h"
   1:/home/jonas/warwick/3dProfilometer/xpcc/ext/stm32f4xx_lib/CMSIS/Include/core_cm4.h **** /**************************************************************************//**
   2:/home/jonas/warwick/3dProfilometer/xpcc/ext/stm32f4xx_lib/CMSIS/Include/core_cm4.h ****  * @file     core_cm4.h
   3:/home/jonas/warwick/3dProfilometer/xpcc/ext/stm32f4xx_lib/CMSIS/Include/core_cm4.h ****  * @brief    CMSIS Cortex-M4 Core Peripheral Access Layer Header File
   4:/home/jonas/warwick/3dProfilometer/xpcc/ext/stm32f4xx_lib/CMSIS/Include/core_cm4.h ****  * @version  V2.10
   5:/home/jonas/warwick/3dProfilometer/xpcc/ext/stm32f4xx_lib/CMSIS/Include/core_cm4.h ****  * @date     19. July 2011
   6:/home/jonas/warwick/3dProfilometer/xpcc/ext/stm32f4xx_lib/CMSIS/Include/core_cm4.h ****  *
   7:/home/jonas/warwick/3dProfilometer/xpcc/ext/stm32f4xx_lib/CMSIS/Include/core_cm4.h ****  * @note
   8:/home/jonas/warwick/3dProfilometer/xpcc/ext/stm32f4xx_lib/CMSIS/Include/core_cm4.h ****  * Copyright (C) 2009-2011 ARM Limited. All rights reserved.
   9:/home/jonas/warwick/3dProfilometer/xpcc/ext/stm32f4xx_lib/CMSIS/Include/core_cm4.h ****  *
  10:/home/jonas/warwick/3dProfilometer/xpcc/ext/stm32f4xx_lib/CMSIS/Include/core_cm4.h ****  * @par
  11:/home/jonas/warwick/3dProfilometer/xpcc/ext/stm32f4xx_lib/CMSIS/Include/core_cm4.h ****  * ARM Limited (ARM) is supplying this software for use with Cortex-M
  12:/home/jonas/warwick/3dProfilometer/xpcc/ext/stm32f4xx_lib/CMSIS/Include/core_cm4.h ****  * processor based microcontrollers.  This file can be freely distributed
  13:/home/jonas/warwick/3dProfilometer/xpcc/ext/stm32f4xx_lib/CMSIS/Include/core_cm4.h ****  * within development tools that are supporting such ARM based processors.
  14:/home/jonas/warwick/3dProfilometer/xpcc/ext/stm32f4xx_lib/CMSIS/Include/core_cm4.h ****  *
  15:/home/jonas/warwick/3dProfilometer/xpcc/ext/stm32f4xx_lib/CMSIS/Include/core_cm4.h ****  * @par
  16:/home/jonas/warwick/3dProfilometer/xpcc/ext/stm32f4xx_lib/CMSIS/Include/core_cm4.h ****  * THIS SOFTWARE IS PROVIDED "AS IS".  NO WARRANTIES, WHETHER EXPRESS, IMPLIED
  17:/home/jonas/warwick/3dProfilometer/xpcc/ext/stm32f4xx_lib/CMSIS/Include/core_cm4.h ****  * OR STATUTORY, INCLUDING, BUT NOT LIMITED TO, IMPLIED WARRANTIES OF
  18:/home/jonas/warwick/3dProfilometer/xpcc/ext/stm32f4xx_lib/CMSIS/Include/core_cm4.h ****  * MERCHANTABILITY AND FITNESS FOR A PARTICULAR PURPOSE APPLY TO THIS SOFTWARE.
  19:/home/jonas/warwick/3dProfilometer/xpcc/ext/stm32f4xx_lib/CMSIS/Include/core_cm4.h ****  * ARM SHALL NOT, IN ANY CIRCUMSTANCES, BE LIABLE FOR SPECIAL, INCIDENTAL, OR
  20:/home/jonas/warwick/3dProfilometer/xpcc/ext/stm32f4xx_lib/CMSIS/Include/core_cm4.h ****  * CONSEQUENTIAL DAMAGES, FOR ANY REASON WHATSOEVER.
  21:/home/jonas/warwick/3dProfilometer/xpcc/ext/stm32f4xx_lib/CMSIS/Include/core_cm4.h ****  *
  22:/home/jonas/warwick/3dProfilometer/xpcc/ext/stm32f4xx_lib/CMSIS/Include/core_cm4.h ****  ******************************************************************************/
  23:/home/jonas/warwick/3dProfilometer/xpcc/ext/stm32f4xx_lib/CMSIS/Include/core_cm4.h **** #if defined ( __ICCARM__ )
  24:/home/jonas/warwick/3dProfilometer/xpcc/ext/stm32f4xx_lib/CMSIS/Include/core_cm4.h ****  #pragma system_include  /* treat file as system include file for MISRA check */
  25:/home/jonas/warwick/3dProfilometer/xpcc/ext/stm32f4xx_lib/CMSIS/Include/core_cm4.h **** #endif
  26:/home/jonas/warwick/3dProfilometer/xpcc/ext/stm32f4xx_lib/CMSIS/Include/core_cm4.h **** 
  27:/home/jonas/warwick/3dProfilometer/xpcc/ext/stm32f4xx_lib/CMSIS/Include/core_cm4.h **** #ifdef __cplusplus
  28:/home/jonas/warwick/3dProfilometer/xpcc/ext/stm32f4xx_lib/CMSIS/Include/core_cm4.h ****  extern "C" {
  29:/home/jonas/warwick/3dProfilometer/xpcc/ext/stm32f4xx_lib/CMSIS/Include/core_cm4.h **** #endif
  30:/home/jonas/warwick/3dProfilometer/xpcc/ext/stm32f4xx_lib/CMSIS/Include/core_cm4.h **** 
  31:/home/jonas/warwick/3dProfilometer/xpcc/ext/stm32f4xx_lib/CMSIS/Include/core_cm4.h **** #ifndef __CORE_CM4_H_GENERIC
  32:/home/jonas/warwick/3dProfilometer/xpcc/ext/stm32f4xx_lib/CMSIS/Include/core_cm4.h **** #define __CORE_CM4_H_GENERIC
  33:/home/jonas/warwick/3dProfilometer/xpcc/ext/stm32f4xx_lib/CMSIS/Include/core_cm4.h **** 
  34:/home/jonas/warwick/3dProfilometer/xpcc/ext/stm32f4xx_lib/CMSIS/Include/core_cm4.h **** 
  35:/home/jonas/warwick/3dProfilometer/xpcc/ext/stm32f4xx_lib/CMSIS/Include/core_cm4.h **** /** \mainpage CMSIS Cortex-M4
  36:/home/jonas/warwick/3dProfilometer/xpcc/ext/stm32f4xx_lib/CMSIS/Include/core_cm4.h **** 
  37:/home/jonas/warwick/3dProfilometer/xpcc/ext/stm32f4xx_lib/CMSIS/Include/core_cm4.h ****   This documentation describes the CMSIS Cortex-M Core Peripheral Access Layer.
  38:/home/jonas/warwick/3dProfilometer/xpcc/ext/stm32f4xx_lib/CMSIS/Include/core_cm4.h ****   It consists of:
  39:/home/jonas/warwick/3dProfilometer/xpcc/ext/stm32f4xx_lib/CMSIS/Include/core_cm4.h **** 
  40:/home/jonas/warwick/3dProfilometer/xpcc/ext/stm32f4xx_lib/CMSIS/Include/core_cm4.h ****      - Cortex-M Core Register Definitions
  41:/home/jonas/warwick/3dProfilometer/xpcc/ext/stm32f4xx_lib/CMSIS/Include/core_cm4.h ****      - Cortex-M functions
  42:/home/jonas/warwick/3dProfilometer/xpcc/ext/stm32f4xx_lib/CMSIS/Include/core_cm4.h ****      - Cortex-M instructions
  43:/home/jonas/warwick/3dProfilometer/xpcc/ext/stm32f4xx_lib/CMSIS/Include/core_cm4.h ****      - Cortex-M SIMD instructions
  44:/home/jonas/warwick/3dProfilometer/xpcc/ext/stm32f4xx_lib/CMSIS/Include/core_cm4.h **** 
  45:/home/jonas/warwick/3dProfilometer/xpcc/ext/stm32f4xx_lib/CMSIS/Include/core_cm4.h ****   The CMSIS Cortex-M4 Core Peripheral Access Layer contains C and assembly functions that ease
  46:/home/jonas/warwick/3dProfilometer/xpcc/ext/stm32f4xx_lib/CMSIS/Include/core_cm4.h ****   access to the Cortex-M Core
  47:/home/jonas/warwick/3dProfilometer/xpcc/ext/stm32f4xx_lib/CMSIS/Include/core_cm4.h ****  */
  48:/home/jonas/warwick/3dProfilometer/xpcc/ext/stm32f4xx_lib/CMSIS/Include/core_cm4.h **** 
  49:/home/jonas/warwick/3dProfilometer/xpcc/ext/stm32f4xx_lib/CMSIS/Include/core_cm4.h **** /** \defgroup CMSIS_MISRA_Exceptions  CMSIS MISRA-C:2004 Compliance Exceptions
  50:/home/jonas/warwick/3dProfilometer/xpcc/ext/stm32f4xx_lib/CMSIS/Include/core_cm4.h ****   CMSIS violates following MISRA-C2004 Rules:
  51:/home/jonas/warwick/3dProfilometer/xpcc/ext/stm32f4xx_lib/CMSIS/Include/core_cm4.h ****   
  52:/home/jonas/warwick/3dProfilometer/xpcc/ext/stm32f4xx_lib/CMSIS/Include/core_cm4.h ****    - Violates MISRA 2004 Required Rule 8.5, object/function definition in header file.<br>
  53:/home/jonas/warwick/3dProfilometer/xpcc/ext/stm32f4xx_lib/CMSIS/Include/core_cm4.h ****      Function definitions in header files are used to allow 'inlining'. 
  54:/home/jonas/warwick/3dProfilometer/xpcc/ext/stm32f4xx_lib/CMSIS/Include/core_cm4.h **** 
  55:/home/jonas/warwick/3dProfilometer/xpcc/ext/stm32f4xx_lib/CMSIS/Include/core_cm4.h ****    - Violates MISRA 2004 Required Rule 18.4, declaration of union type or object of union type: '{.
  56:/home/jonas/warwick/3dProfilometer/xpcc/ext/stm32f4xx_lib/CMSIS/Include/core_cm4.h ****      Unions are used for effective representation of core registers.
  57:/home/jonas/warwick/3dProfilometer/xpcc/ext/stm32f4xx_lib/CMSIS/Include/core_cm4.h ****    
  58:/home/jonas/warwick/3dProfilometer/xpcc/ext/stm32f4xx_lib/CMSIS/Include/core_cm4.h ****    - Violates MISRA 2004 Advisory Rule 19.7, Function-like macro defined.<br>
  59:/home/jonas/warwick/3dProfilometer/xpcc/ext/stm32f4xx_lib/CMSIS/Include/core_cm4.h ****      Function-like macros are used to allow more efficient code. 
  60:/home/jonas/warwick/3dProfilometer/xpcc/ext/stm32f4xx_lib/CMSIS/Include/core_cm4.h **** 
  61:/home/jonas/warwick/3dProfilometer/xpcc/ext/stm32f4xx_lib/CMSIS/Include/core_cm4.h ****  */
  62:/home/jonas/warwick/3dProfilometer/xpcc/ext/stm32f4xx_lib/CMSIS/Include/core_cm4.h **** 
  63:/home/jonas/warwick/3dProfilometer/xpcc/ext/stm32f4xx_lib/CMSIS/Include/core_cm4.h **** 
  64:/home/jonas/warwick/3dProfilometer/xpcc/ext/stm32f4xx_lib/CMSIS/Include/core_cm4.h **** /*******************************************************************************
  65:/home/jonas/warwick/3dProfilometer/xpcc/ext/stm32f4xx_lib/CMSIS/Include/core_cm4.h ****  *                 CMSIS definitions
  66:/home/jonas/warwick/3dProfilometer/xpcc/ext/stm32f4xx_lib/CMSIS/Include/core_cm4.h ****  ******************************************************************************/
  67:/home/jonas/warwick/3dProfilometer/xpcc/ext/stm32f4xx_lib/CMSIS/Include/core_cm4.h **** /** \defgroup CMSIS_core_definitions CMSIS Core Definitions
  68:/home/jonas/warwick/3dProfilometer/xpcc/ext/stm32f4xx_lib/CMSIS/Include/core_cm4.h ****   This file defines all structures and symbols for CMSIS core:
  69:/home/jonas/warwick/3dProfilometer/xpcc/ext/stm32f4xx_lib/CMSIS/Include/core_cm4.h ****    - CMSIS version number
  70:/home/jonas/warwick/3dProfilometer/xpcc/ext/stm32f4xx_lib/CMSIS/Include/core_cm4.h ****    - Cortex-M core
  71:/home/jonas/warwick/3dProfilometer/xpcc/ext/stm32f4xx_lib/CMSIS/Include/core_cm4.h ****    - Cortex-M core Revision Number
  72:/home/jonas/warwick/3dProfilometer/xpcc/ext/stm32f4xx_lib/CMSIS/Include/core_cm4.h ****   @{
  73:/home/jonas/warwick/3dProfilometer/xpcc/ext/stm32f4xx_lib/CMSIS/Include/core_cm4.h ****  */
  74:/home/jonas/warwick/3dProfilometer/xpcc/ext/stm32f4xx_lib/CMSIS/Include/core_cm4.h **** 
  75:/home/jonas/warwick/3dProfilometer/xpcc/ext/stm32f4xx_lib/CMSIS/Include/core_cm4.h **** /*  CMSIS CM4 definitions */
  76:/home/jonas/warwick/3dProfilometer/xpcc/ext/stm32f4xx_lib/CMSIS/Include/core_cm4.h **** #define __CM4_CMSIS_VERSION_MAIN  (0x02)                                                       /*!<
  77:/home/jonas/warwick/3dProfilometer/xpcc/ext/stm32f4xx_lib/CMSIS/Include/core_cm4.h **** #define __CM4_CMSIS_VERSION_SUB   (0x10)                                                       /*!<
  78:/home/jonas/warwick/3dProfilometer/xpcc/ext/stm32f4xx_lib/CMSIS/Include/core_cm4.h **** #define __CM4_CMSIS_VERSION       ((__CM4_CMSIS_VERSION_MAIN << 16) | __CM4_CMSIS_VERSION_SUB) /*!<
  79:/home/jonas/warwick/3dProfilometer/xpcc/ext/stm32f4xx_lib/CMSIS/Include/core_cm4.h **** 
  80:/home/jonas/warwick/3dProfilometer/xpcc/ext/stm32f4xx_lib/CMSIS/Include/core_cm4.h **** #define __CORTEX_M                (0x04)                                                       /*!<
  81:/home/jonas/warwick/3dProfilometer/xpcc/ext/stm32f4xx_lib/CMSIS/Include/core_cm4.h **** 
  82:/home/jonas/warwick/3dProfilometer/xpcc/ext/stm32f4xx_lib/CMSIS/Include/core_cm4.h **** 
  83:/home/jonas/warwick/3dProfilometer/xpcc/ext/stm32f4xx_lib/CMSIS/Include/core_cm4.h **** #if   defined ( __CC_ARM )
  84:/home/jonas/warwick/3dProfilometer/xpcc/ext/stm32f4xx_lib/CMSIS/Include/core_cm4.h ****   #define __ASM            __asm                                      /*!< asm keyword for ARM Comp
  85:/home/jonas/warwick/3dProfilometer/xpcc/ext/stm32f4xx_lib/CMSIS/Include/core_cm4.h ****   #define __INLINE         __inline                                   /*!< inline keyword for ARM C
  86:/home/jonas/warwick/3dProfilometer/xpcc/ext/stm32f4xx_lib/CMSIS/Include/core_cm4.h **** 
  87:/home/jonas/warwick/3dProfilometer/xpcc/ext/stm32f4xx_lib/CMSIS/Include/core_cm4.h **** #elif defined ( __ICCARM__ )
  88:/home/jonas/warwick/3dProfilometer/xpcc/ext/stm32f4xx_lib/CMSIS/Include/core_cm4.h ****   #define __ASM           __asm                                       /*!< asm keyword for IAR Comp
  89:/home/jonas/warwick/3dProfilometer/xpcc/ext/stm32f4xx_lib/CMSIS/Include/core_cm4.h ****   #define __INLINE        inline                                      /*!< inline keyword for IAR C
  90:/home/jonas/warwick/3dProfilometer/xpcc/ext/stm32f4xx_lib/CMSIS/Include/core_cm4.h **** 
  91:/home/jonas/warwick/3dProfilometer/xpcc/ext/stm32f4xx_lib/CMSIS/Include/core_cm4.h **** #elif defined ( __GNUC__ )
  92:/home/jonas/warwick/3dProfilometer/xpcc/ext/stm32f4xx_lib/CMSIS/Include/core_cm4.h ****   #define __ASM            __asm                                      /*!< asm keyword for GNU Comp
  93:/home/jonas/warwick/3dProfilometer/xpcc/ext/stm32f4xx_lib/CMSIS/Include/core_cm4.h ****   #define __INLINE         inline                                     /*!< inline keyword for GNU C
  94:/home/jonas/warwick/3dProfilometer/xpcc/ext/stm32f4xx_lib/CMSIS/Include/core_cm4.h **** 
  95:/home/jonas/warwick/3dProfilometer/xpcc/ext/stm32f4xx_lib/CMSIS/Include/core_cm4.h **** #elif defined ( __TASKING__ )
  96:/home/jonas/warwick/3dProfilometer/xpcc/ext/stm32f4xx_lib/CMSIS/Include/core_cm4.h ****   #define __ASM            __asm                                      /*!< asm keyword for TASKING 
  97:/home/jonas/warwick/3dProfilometer/xpcc/ext/stm32f4xx_lib/CMSIS/Include/core_cm4.h ****   #define __INLINE         inline                                     /*!< inline keyword for TASKI
  98:/home/jonas/warwick/3dProfilometer/xpcc/ext/stm32f4xx_lib/CMSIS/Include/core_cm4.h **** 
  99:/home/jonas/warwick/3dProfilometer/xpcc/ext/stm32f4xx_lib/CMSIS/Include/core_cm4.h **** #endif
 100:/home/jonas/warwick/3dProfilometer/xpcc/ext/stm32f4xx_lib/CMSIS/Include/core_cm4.h **** 
 101:/home/jonas/warwick/3dProfilometer/xpcc/ext/stm32f4xx_lib/CMSIS/Include/core_cm4.h **** /*!< __FPU_USED to be checked prior to making use of FPU specific registers and functions */
 102:/home/jonas/warwick/3dProfilometer/xpcc/ext/stm32f4xx_lib/CMSIS/Include/core_cm4.h **** #if defined ( __CC_ARM )
 103:/home/jonas/warwick/3dProfilometer/xpcc/ext/stm32f4xx_lib/CMSIS/Include/core_cm4.h ****   #if defined __TARGET_FPU_VFP
 104:/home/jonas/warwick/3dProfilometer/xpcc/ext/stm32f4xx_lib/CMSIS/Include/core_cm4.h ****     #if (__FPU_PRESENT == 1)
 105:/home/jonas/warwick/3dProfilometer/xpcc/ext/stm32f4xx_lib/CMSIS/Include/core_cm4.h ****       #define __FPU_USED       1
 106:/home/jonas/warwick/3dProfilometer/xpcc/ext/stm32f4xx_lib/CMSIS/Include/core_cm4.h ****     #else
 107:/home/jonas/warwick/3dProfilometer/xpcc/ext/stm32f4xx_lib/CMSIS/Include/core_cm4.h ****       #warning "Compiler generates FPU instructions for a device without an FPU (check __FPU_PRESEN
 108:/home/jonas/warwick/3dProfilometer/xpcc/ext/stm32f4xx_lib/CMSIS/Include/core_cm4.h ****       #define __FPU_USED       0
 109:/home/jonas/warwick/3dProfilometer/xpcc/ext/stm32f4xx_lib/CMSIS/Include/core_cm4.h ****     #endif
 110:/home/jonas/warwick/3dProfilometer/xpcc/ext/stm32f4xx_lib/CMSIS/Include/core_cm4.h ****   #else
 111:/home/jonas/warwick/3dProfilometer/xpcc/ext/stm32f4xx_lib/CMSIS/Include/core_cm4.h ****     #define __FPU_USED         0
 112:/home/jonas/warwick/3dProfilometer/xpcc/ext/stm32f4xx_lib/CMSIS/Include/core_cm4.h ****   #endif
 113:/home/jonas/warwick/3dProfilometer/xpcc/ext/stm32f4xx_lib/CMSIS/Include/core_cm4.h **** 
 114:/home/jonas/warwick/3dProfilometer/xpcc/ext/stm32f4xx_lib/CMSIS/Include/core_cm4.h **** #elif defined ( __ICCARM__ )
 115:/home/jonas/warwick/3dProfilometer/xpcc/ext/stm32f4xx_lib/CMSIS/Include/core_cm4.h ****   #if defined __ARMVFP__
 116:/home/jonas/warwick/3dProfilometer/xpcc/ext/stm32f4xx_lib/CMSIS/Include/core_cm4.h ****     #if (__FPU_PRESENT == 1)
 117:/home/jonas/warwick/3dProfilometer/xpcc/ext/stm32f4xx_lib/CMSIS/Include/core_cm4.h ****       #define __FPU_USED       1
 118:/home/jonas/warwick/3dProfilometer/xpcc/ext/stm32f4xx_lib/CMSIS/Include/core_cm4.h ****     #else
 119:/home/jonas/warwick/3dProfilometer/xpcc/ext/stm32f4xx_lib/CMSIS/Include/core_cm4.h ****       #warning "Compiler generates FPU instructions for a device without an FPU (check __FPU_PRESEN
 120:/home/jonas/warwick/3dProfilometer/xpcc/ext/stm32f4xx_lib/CMSIS/Include/core_cm4.h ****       #define __FPU_USED       0
 121:/home/jonas/warwick/3dProfilometer/xpcc/ext/stm32f4xx_lib/CMSIS/Include/core_cm4.h ****     #endif
 122:/home/jonas/warwick/3dProfilometer/xpcc/ext/stm32f4xx_lib/CMSIS/Include/core_cm4.h ****   #else
 123:/home/jonas/warwick/3dProfilometer/xpcc/ext/stm32f4xx_lib/CMSIS/Include/core_cm4.h ****     #define __FPU_USED         0
 124:/home/jonas/warwick/3dProfilometer/xpcc/ext/stm32f4xx_lib/CMSIS/Include/core_cm4.h ****   #endif
 125:/home/jonas/warwick/3dProfilometer/xpcc/ext/stm32f4xx_lib/CMSIS/Include/core_cm4.h **** 
 126:/home/jonas/warwick/3dProfilometer/xpcc/ext/stm32f4xx_lib/CMSIS/Include/core_cm4.h **** #elif defined ( __GNUC__ )
 127:/home/jonas/warwick/3dProfilometer/xpcc/ext/stm32f4xx_lib/CMSIS/Include/core_cm4.h ****   #if defined (__VFP_FP__) && !defined(__SOFTFP__)
 128:/home/jonas/warwick/3dProfilometer/xpcc/ext/stm32f4xx_lib/CMSIS/Include/core_cm4.h ****     #if (__FPU_PRESENT == 1)
 129:/home/jonas/warwick/3dProfilometer/xpcc/ext/stm32f4xx_lib/CMSIS/Include/core_cm4.h ****       #define __FPU_USED       1
 130:/home/jonas/warwick/3dProfilometer/xpcc/ext/stm32f4xx_lib/CMSIS/Include/core_cm4.h ****     #else
 131:/home/jonas/warwick/3dProfilometer/xpcc/ext/stm32f4xx_lib/CMSIS/Include/core_cm4.h ****       #warning "Compiler generates FPU instructions for a device without an FPU (check __FPU_PRESEN
 132:/home/jonas/warwick/3dProfilometer/xpcc/ext/stm32f4xx_lib/CMSIS/Include/core_cm4.h ****       #define __FPU_USED       0
 133:/home/jonas/warwick/3dProfilometer/xpcc/ext/stm32f4xx_lib/CMSIS/Include/core_cm4.h ****     #endif
 134:/home/jonas/warwick/3dProfilometer/xpcc/ext/stm32f4xx_lib/CMSIS/Include/core_cm4.h ****   #else
 135:/home/jonas/warwick/3dProfilometer/xpcc/ext/stm32f4xx_lib/CMSIS/Include/core_cm4.h ****     #define __FPU_USED         0
 136:/home/jonas/warwick/3dProfilometer/xpcc/ext/stm32f4xx_lib/CMSIS/Include/core_cm4.h ****   #endif
 137:/home/jonas/warwick/3dProfilometer/xpcc/ext/stm32f4xx_lib/CMSIS/Include/core_cm4.h **** 
 138:/home/jonas/warwick/3dProfilometer/xpcc/ext/stm32f4xx_lib/CMSIS/Include/core_cm4.h **** #elif defined ( __TASKING__ )
 139:/home/jonas/warwick/3dProfilometer/xpcc/ext/stm32f4xx_lib/CMSIS/Include/core_cm4.h ****     /* add preprocessor checks to define __FPU_USED */
 140:/home/jonas/warwick/3dProfilometer/xpcc/ext/stm32f4xx_lib/CMSIS/Include/core_cm4.h ****     #define __FPU_USED         0
 141:/home/jonas/warwick/3dProfilometer/xpcc/ext/stm32f4xx_lib/CMSIS/Include/core_cm4.h **** #endif
 142:/home/jonas/warwick/3dProfilometer/xpcc/ext/stm32f4xx_lib/CMSIS/Include/core_cm4.h **** 
 143:/home/jonas/warwick/3dProfilometer/xpcc/ext/stm32f4xx_lib/CMSIS/Include/core_cm4.h **** #include <stdint.h>                      /*!< standard types definitions                      */
 144:/home/jonas/warwick/3dProfilometer/xpcc/ext/stm32f4xx_lib/CMSIS/Include/core_cm4.h **** #include <core_cmInstr.h>                /*!< Core Instruction Access                         */
 145:/home/jonas/warwick/3dProfilometer/xpcc/ext/stm32f4xx_lib/CMSIS/Include/core_cm4.h **** #include <core_cmFunc.h>                 /*!< Core Function Access                            */
 146:/home/jonas/warwick/3dProfilometer/xpcc/ext/stm32f4xx_lib/CMSIS/Include/core_cm4.h **** #include <core_cm4_simd.h>               /*!< Compiler specific SIMD Intrinsics               */
 147:/home/jonas/warwick/3dProfilometer/xpcc/ext/stm32f4xx_lib/CMSIS/Include/core_cm4.h **** 
 148:/home/jonas/warwick/3dProfilometer/xpcc/ext/stm32f4xx_lib/CMSIS/Include/core_cm4.h **** #endif /* __CORE_CM4_H_GENERIC */
 149:/home/jonas/warwick/3dProfilometer/xpcc/ext/stm32f4xx_lib/CMSIS/Include/core_cm4.h **** 
 150:/home/jonas/warwick/3dProfilometer/xpcc/ext/stm32f4xx_lib/CMSIS/Include/core_cm4.h **** #ifndef __CMSIS_GENERIC
 151:/home/jonas/warwick/3dProfilometer/xpcc/ext/stm32f4xx_lib/CMSIS/Include/core_cm4.h **** 
 152:/home/jonas/warwick/3dProfilometer/xpcc/ext/stm32f4xx_lib/CMSIS/Include/core_cm4.h **** #ifndef __CORE_CM4_H_DEPENDANT
 153:/home/jonas/warwick/3dProfilometer/xpcc/ext/stm32f4xx_lib/CMSIS/Include/core_cm4.h **** #define __CORE_CM4_H_DEPENDANT
 154:/home/jonas/warwick/3dProfilometer/xpcc/ext/stm32f4xx_lib/CMSIS/Include/core_cm4.h **** 
 155:/home/jonas/warwick/3dProfilometer/xpcc/ext/stm32f4xx_lib/CMSIS/Include/core_cm4.h **** /* check device defines and use defaults */
 156:/home/jonas/warwick/3dProfilometer/xpcc/ext/stm32f4xx_lib/CMSIS/Include/core_cm4.h **** #if defined __CHECK_DEVICE_DEFINES
 157:/home/jonas/warwick/3dProfilometer/xpcc/ext/stm32f4xx_lib/CMSIS/Include/core_cm4.h ****   #ifndef __CM4_REV
 158:/home/jonas/warwick/3dProfilometer/xpcc/ext/stm32f4xx_lib/CMSIS/Include/core_cm4.h ****     #define __CM4_REV               0x0000
 159:/home/jonas/warwick/3dProfilometer/xpcc/ext/stm32f4xx_lib/CMSIS/Include/core_cm4.h ****     #warning "__CM4_REV not defined in device header file; using default!"
 160:/home/jonas/warwick/3dProfilometer/xpcc/ext/stm32f4xx_lib/CMSIS/Include/core_cm4.h ****   #endif
 161:/home/jonas/warwick/3dProfilometer/xpcc/ext/stm32f4xx_lib/CMSIS/Include/core_cm4.h **** 
 162:/home/jonas/warwick/3dProfilometer/xpcc/ext/stm32f4xx_lib/CMSIS/Include/core_cm4.h ****   #ifndef __FPU_PRESENT
 163:/home/jonas/warwick/3dProfilometer/xpcc/ext/stm32f4xx_lib/CMSIS/Include/core_cm4.h ****     #define __FPU_PRESENT             0
 164:/home/jonas/warwick/3dProfilometer/xpcc/ext/stm32f4xx_lib/CMSIS/Include/core_cm4.h ****     #warning "__FPU_PRESENT not defined in device header file; using default!"
 165:/home/jonas/warwick/3dProfilometer/xpcc/ext/stm32f4xx_lib/CMSIS/Include/core_cm4.h ****   #endif
 166:/home/jonas/warwick/3dProfilometer/xpcc/ext/stm32f4xx_lib/CMSIS/Include/core_cm4.h **** 
 167:/home/jonas/warwick/3dProfilometer/xpcc/ext/stm32f4xx_lib/CMSIS/Include/core_cm4.h ****   #ifndef __MPU_PRESENT
 168:/home/jonas/warwick/3dProfilometer/xpcc/ext/stm32f4xx_lib/CMSIS/Include/core_cm4.h ****     #define __MPU_PRESENT             0
 169:/home/jonas/warwick/3dProfilometer/xpcc/ext/stm32f4xx_lib/CMSIS/Include/core_cm4.h ****     #warning "__MPU_PRESENT not defined in device header file; using default!"
 170:/home/jonas/warwick/3dProfilometer/xpcc/ext/stm32f4xx_lib/CMSIS/Include/core_cm4.h ****   #endif
 171:/home/jonas/warwick/3dProfilometer/xpcc/ext/stm32f4xx_lib/CMSIS/Include/core_cm4.h **** 
 172:/home/jonas/warwick/3dProfilometer/xpcc/ext/stm32f4xx_lib/CMSIS/Include/core_cm4.h ****   #ifndef __NVIC_PRIO_BITS
 173:/home/jonas/warwick/3dProfilometer/xpcc/ext/stm32f4xx_lib/CMSIS/Include/core_cm4.h ****     #define __NVIC_PRIO_BITS          4
 174:/home/jonas/warwick/3dProfilometer/xpcc/ext/stm32f4xx_lib/CMSIS/Include/core_cm4.h ****     #warning "__NVIC_PRIO_BITS not defined in device header file; using default!"
 175:/home/jonas/warwick/3dProfilometer/xpcc/ext/stm32f4xx_lib/CMSIS/Include/core_cm4.h ****   #endif
 176:/home/jonas/warwick/3dProfilometer/xpcc/ext/stm32f4xx_lib/CMSIS/Include/core_cm4.h **** 
 177:/home/jonas/warwick/3dProfilometer/xpcc/ext/stm32f4xx_lib/CMSIS/Include/core_cm4.h ****   #ifndef __Vendor_SysTickConfig
 178:/home/jonas/warwick/3dProfilometer/xpcc/ext/stm32f4xx_lib/CMSIS/Include/core_cm4.h ****     #define __Vendor_SysTickConfig    0
 179:/home/jonas/warwick/3dProfilometer/xpcc/ext/stm32f4xx_lib/CMSIS/Include/core_cm4.h ****     #warning "__Vendor_SysTickConfig not defined in device header file; using default!"
 180:/home/jonas/warwick/3dProfilometer/xpcc/ext/stm32f4xx_lib/CMSIS/Include/core_cm4.h ****   #endif
 181:/home/jonas/warwick/3dProfilometer/xpcc/ext/stm32f4xx_lib/CMSIS/Include/core_cm4.h **** #endif
 182:/home/jonas/warwick/3dProfilometer/xpcc/ext/stm32f4xx_lib/CMSIS/Include/core_cm4.h **** 
 183:/home/jonas/warwick/3dProfilometer/xpcc/ext/stm32f4xx_lib/CMSIS/Include/core_cm4.h **** /* IO definitions (access restrictions to peripheral registers) */
 184:/home/jonas/warwick/3dProfilometer/xpcc/ext/stm32f4xx_lib/CMSIS/Include/core_cm4.h **** #ifdef __cplusplus
 185:/home/jonas/warwick/3dProfilometer/xpcc/ext/stm32f4xx_lib/CMSIS/Include/core_cm4.h ****   #define   __I     volatile             /*!< defines 'read only' permissions                 */
 186:/home/jonas/warwick/3dProfilometer/xpcc/ext/stm32f4xx_lib/CMSIS/Include/core_cm4.h **** #else
 187:/home/jonas/warwick/3dProfilometer/xpcc/ext/stm32f4xx_lib/CMSIS/Include/core_cm4.h ****   #define   __I     volatile const       /*!< defines 'read only' permissions                 */
 188:/home/jonas/warwick/3dProfilometer/xpcc/ext/stm32f4xx_lib/CMSIS/Include/core_cm4.h **** #endif
 189:/home/jonas/warwick/3dProfilometer/xpcc/ext/stm32f4xx_lib/CMSIS/Include/core_cm4.h **** #define     __O     volatile             /*!< defines 'write only' permissions                */
 190:/home/jonas/warwick/3dProfilometer/xpcc/ext/stm32f4xx_lib/CMSIS/Include/core_cm4.h **** #define     __IO    volatile             /*!< defines 'read / write' permissions              */
 191:/home/jonas/warwick/3dProfilometer/xpcc/ext/stm32f4xx_lib/CMSIS/Include/core_cm4.h **** 
 192:/home/jonas/warwick/3dProfilometer/xpcc/ext/stm32f4xx_lib/CMSIS/Include/core_cm4.h **** /*@} end of group CMSIS_core_definitions */
 193:/home/jonas/warwick/3dProfilometer/xpcc/ext/stm32f4xx_lib/CMSIS/Include/core_cm4.h **** 
 194:/home/jonas/warwick/3dProfilometer/xpcc/ext/stm32f4xx_lib/CMSIS/Include/core_cm4.h **** 
 195:/home/jonas/warwick/3dProfilometer/xpcc/ext/stm32f4xx_lib/CMSIS/Include/core_cm4.h **** 
 196:/home/jonas/warwick/3dProfilometer/xpcc/ext/stm32f4xx_lib/CMSIS/Include/core_cm4.h **** /*******************************************************************************
 197:/home/jonas/warwick/3dProfilometer/xpcc/ext/stm32f4xx_lib/CMSIS/Include/core_cm4.h ****  *                 Register Abstraction
 198:/home/jonas/warwick/3dProfilometer/xpcc/ext/stm32f4xx_lib/CMSIS/Include/core_cm4.h ****  ******************************************************************************/
 199:/home/jonas/warwick/3dProfilometer/xpcc/ext/stm32f4xx_lib/CMSIS/Include/core_cm4.h **** /** \defgroup CMSIS_core_register CMSIS Core Register
 200:/home/jonas/warwick/3dProfilometer/xpcc/ext/stm32f4xx_lib/CMSIS/Include/core_cm4.h ****   Core Register contain:
 201:/home/jonas/warwick/3dProfilometer/xpcc/ext/stm32f4xx_lib/CMSIS/Include/core_cm4.h ****   - Core Register
 202:/home/jonas/warwick/3dProfilometer/xpcc/ext/stm32f4xx_lib/CMSIS/Include/core_cm4.h ****   - Core NVIC Register
 203:/home/jonas/warwick/3dProfilometer/xpcc/ext/stm32f4xx_lib/CMSIS/Include/core_cm4.h ****   - Core SCB Register
 204:/home/jonas/warwick/3dProfilometer/xpcc/ext/stm32f4xx_lib/CMSIS/Include/core_cm4.h ****   - Core SysTick Register
 205:/home/jonas/warwick/3dProfilometer/xpcc/ext/stm32f4xx_lib/CMSIS/Include/core_cm4.h ****   - Core Debug Register
 206:/home/jonas/warwick/3dProfilometer/xpcc/ext/stm32f4xx_lib/CMSIS/Include/core_cm4.h ****   - Core MPU Register
 207:/home/jonas/warwick/3dProfilometer/xpcc/ext/stm32f4xx_lib/CMSIS/Include/core_cm4.h ****   - Core FPU Register
 208:/home/jonas/warwick/3dProfilometer/xpcc/ext/stm32f4xx_lib/CMSIS/Include/core_cm4.h **** */
 209:/home/jonas/warwick/3dProfilometer/xpcc/ext/stm32f4xx_lib/CMSIS/Include/core_cm4.h **** 
 210:/home/jonas/warwick/3dProfilometer/xpcc/ext/stm32f4xx_lib/CMSIS/Include/core_cm4.h **** /** \ingroup  CMSIS_core_register
 211:/home/jonas/warwick/3dProfilometer/xpcc/ext/stm32f4xx_lib/CMSIS/Include/core_cm4.h ****     \defgroup CMSIS_CORE CMSIS Core
 212:/home/jonas/warwick/3dProfilometer/xpcc/ext/stm32f4xx_lib/CMSIS/Include/core_cm4.h ****   Type definitions for the Cortex-M Core Registers
 213:/home/jonas/warwick/3dProfilometer/xpcc/ext/stm32f4xx_lib/CMSIS/Include/core_cm4.h ****   @{
 214:/home/jonas/warwick/3dProfilometer/xpcc/ext/stm32f4xx_lib/CMSIS/Include/core_cm4.h ****  */
 215:/home/jonas/warwick/3dProfilometer/xpcc/ext/stm32f4xx_lib/CMSIS/Include/core_cm4.h **** 
 216:/home/jonas/warwick/3dProfilometer/xpcc/ext/stm32f4xx_lib/CMSIS/Include/core_cm4.h **** /** \brief  Union type to access the Application Program Status Register (APSR).
 217:/home/jonas/warwick/3dProfilometer/xpcc/ext/stm32f4xx_lib/CMSIS/Include/core_cm4.h ****  */
 218:/home/jonas/warwick/3dProfilometer/xpcc/ext/stm32f4xx_lib/CMSIS/Include/core_cm4.h **** typedef union
 219:/home/jonas/warwick/3dProfilometer/xpcc/ext/stm32f4xx_lib/CMSIS/Include/core_cm4.h **** {
 220:/home/jonas/warwick/3dProfilometer/xpcc/ext/stm32f4xx_lib/CMSIS/Include/core_cm4.h ****   struct
 221:/home/jonas/warwick/3dProfilometer/xpcc/ext/stm32f4xx_lib/CMSIS/Include/core_cm4.h ****   {
 222:/home/jonas/warwick/3dProfilometer/xpcc/ext/stm32f4xx_lib/CMSIS/Include/core_cm4.h **** #if (__CORTEX_M != 0x04)
 223:/home/jonas/warwick/3dProfilometer/xpcc/ext/stm32f4xx_lib/CMSIS/Include/core_cm4.h ****     uint32_t _reserved0:27;              /*!< bit:  0..26  Reserved                           */
 224:/home/jonas/warwick/3dProfilometer/xpcc/ext/stm32f4xx_lib/CMSIS/Include/core_cm4.h **** #else
 225:/home/jonas/warwick/3dProfilometer/xpcc/ext/stm32f4xx_lib/CMSIS/Include/core_cm4.h ****     uint32_t _reserved0:16;              /*!< bit:  0..15  Reserved                           */
 226:/home/jonas/warwick/3dProfilometer/xpcc/ext/stm32f4xx_lib/CMSIS/Include/core_cm4.h ****     uint32_t GE:4;                       /*!< bit: 16..19  Greater than or Equal flags        */
 227:/home/jonas/warwick/3dProfilometer/xpcc/ext/stm32f4xx_lib/CMSIS/Include/core_cm4.h ****     uint32_t _reserved1:7;               /*!< bit: 20..26  Reserved                           */
 228:/home/jonas/warwick/3dProfilometer/xpcc/ext/stm32f4xx_lib/CMSIS/Include/core_cm4.h **** #endif
 229:/home/jonas/warwick/3dProfilometer/xpcc/ext/stm32f4xx_lib/CMSIS/Include/core_cm4.h ****     uint32_t Q:1;                        /*!< bit:     27  Saturation condition flag          */
 230:/home/jonas/warwick/3dProfilometer/xpcc/ext/stm32f4xx_lib/CMSIS/Include/core_cm4.h ****     uint32_t V:1;                        /*!< bit:     28  Overflow condition code flag       */
 231:/home/jonas/warwick/3dProfilometer/xpcc/ext/stm32f4xx_lib/CMSIS/Include/core_cm4.h ****     uint32_t C:1;                        /*!< bit:     29  Carry condition code flag          */
 232:/home/jonas/warwick/3dProfilometer/xpcc/ext/stm32f4xx_lib/CMSIS/Include/core_cm4.h ****     uint32_t Z:1;                        /*!< bit:     30  Zero condition code flag           */
 233:/home/jonas/warwick/3dProfilometer/xpcc/ext/stm32f4xx_lib/CMSIS/Include/core_cm4.h ****     uint32_t N:1;                        /*!< bit:     31  Negative condition code flag       */
 234:/home/jonas/warwick/3dProfilometer/xpcc/ext/stm32f4xx_lib/CMSIS/Include/core_cm4.h ****   } b;                                   /*!< Structure used for bit  access                  */
 235:/home/jonas/warwick/3dProfilometer/xpcc/ext/stm32f4xx_lib/CMSIS/Include/core_cm4.h ****   uint32_t w;                            /*!< Type      used for word access                  */
 236:/home/jonas/warwick/3dProfilometer/xpcc/ext/stm32f4xx_lib/CMSIS/Include/core_cm4.h **** } APSR_Type;
 237:/home/jonas/warwick/3dProfilometer/xpcc/ext/stm32f4xx_lib/CMSIS/Include/core_cm4.h **** 
 238:/home/jonas/warwick/3dProfilometer/xpcc/ext/stm32f4xx_lib/CMSIS/Include/core_cm4.h **** 
 239:/home/jonas/warwick/3dProfilometer/xpcc/ext/stm32f4xx_lib/CMSIS/Include/core_cm4.h **** /** \brief  Union type to access the Interrupt Program Status Register (IPSR).
 240:/home/jonas/warwick/3dProfilometer/xpcc/ext/stm32f4xx_lib/CMSIS/Include/core_cm4.h ****  */
 241:/home/jonas/warwick/3dProfilometer/xpcc/ext/stm32f4xx_lib/CMSIS/Include/core_cm4.h **** typedef union
 242:/home/jonas/warwick/3dProfilometer/xpcc/ext/stm32f4xx_lib/CMSIS/Include/core_cm4.h **** {
 243:/home/jonas/warwick/3dProfilometer/xpcc/ext/stm32f4xx_lib/CMSIS/Include/core_cm4.h ****   struct
 244:/home/jonas/warwick/3dProfilometer/xpcc/ext/stm32f4xx_lib/CMSIS/Include/core_cm4.h ****   {
 245:/home/jonas/warwick/3dProfilometer/xpcc/ext/stm32f4xx_lib/CMSIS/Include/core_cm4.h ****     uint32_t ISR:9;                      /*!< bit:  0.. 8  Exception number                   */
 246:/home/jonas/warwick/3dProfilometer/xpcc/ext/stm32f4xx_lib/CMSIS/Include/core_cm4.h ****     uint32_t _reserved0:23;              /*!< bit:  9..31  Reserved                           */
 247:/home/jonas/warwick/3dProfilometer/xpcc/ext/stm32f4xx_lib/CMSIS/Include/core_cm4.h ****   } b;                                   /*!< Structure used for bit  access                  */
 248:/home/jonas/warwick/3dProfilometer/xpcc/ext/stm32f4xx_lib/CMSIS/Include/core_cm4.h ****   uint32_t w;                            /*!< Type      used for word access                  */
 249:/home/jonas/warwick/3dProfilometer/xpcc/ext/stm32f4xx_lib/CMSIS/Include/core_cm4.h **** } IPSR_Type;
 250:/home/jonas/warwick/3dProfilometer/xpcc/ext/stm32f4xx_lib/CMSIS/Include/core_cm4.h **** 
 251:/home/jonas/warwick/3dProfilometer/xpcc/ext/stm32f4xx_lib/CMSIS/Include/core_cm4.h **** 
 252:/home/jonas/warwick/3dProfilometer/xpcc/ext/stm32f4xx_lib/CMSIS/Include/core_cm4.h **** /** \brief  Union type to access the Special-Purpose Program Status Registers (xPSR).
 253:/home/jonas/warwick/3dProfilometer/xpcc/ext/stm32f4xx_lib/CMSIS/Include/core_cm4.h ****  */
 254:/home/jonas/warwick/3dProfilometer/xpcc/ext/stm32f4xx_lib/CMSIS/Include/core_cm4.h **** typedef union
 255:/home/jonas/warwick/3dProfilometer/xpcc/ext/stm32f4xx_lib/CMSIS/Include/core_cm4.h **** {
 256:/home/jonas/warwick/3dProfilometer/xpcc/ext/stm32f4xx_lib/CMSIS/Include/core_cm4.h ****   struct
 257:/home/jonas/warwick/3dProfilometer/xpcc/ext/stm32f4xx_lib/CMSIS/Include/core_cm4.h ****   {
 258:/home/jonas/warwick/3dProfilometer/xpcc/ext/stm32f4xx_lib/CMSIS/Include/core_cm4.h ****     uint32_t ISR:9;                      /*!< bit:  0.. 8  Exception number                   */
 259:/home/jonas/warwick/3dProfilometer/xpcc/ext/stm32f4xx_lib/CMSIS/Include/core_cm4.h **** #if (__CORTEX_M != 0x04)
 260:/home/jonas/warwick/3dProfilometer/xpcc/ext/stm32f4xx_lib/CMSIS/Include/core_cm4.h ****     uint32_t _reserved0:15;              /*!< bit:  9..23  Reserved                           */
 261:/home/jonas/warwick/3dProfilometer/xpcc/ext/stm32f4xx_lib/CMSIS/Include/core_cm4.h **** #else
 262:/home/jonas/warwick/3dProfilometer/xpcc/ext/stm32f4xx_lib/CMSIS/Include/core_cm4.h ****     uint32_t _reserved0:7;               /*!< bit:  9..15  Reserved                           */
 263:/home/jonas/warwick/3dProfilometer/xpcc/ext/stm32f4xx_lib/CMSIS/Include/core_cm4.h ****     uint32_t GE:4;                       /*!< bit: 16..19  Greater than or Equal flags        */
 264:/home/jonas/warwick/3dProfilometer/xpcc/ext/stm32f4xx_lib/CMSIS/Include/core_cm4.h ****     uint32_t _reserved1:4;               /*!< bit: 20..23  Reserved                           */
 265:/home/jonas/warwick/3dProfilometer/xpcc/ext/stm32f4xx_lib/CMSIS/Include/core_cm4.h **** #endif
 266:/home/jonas/warwick/3dProfilometer/xpcc/ext/stm32f4xx_lib/CMSIS/Include/core_cm4.h ****     uint32_t T:1;                        /*!< bit:     24  Thumb bit        (read 0)          */
 267:/home/jonas/warwick/3dProfilometer/xpcc/ext/stm32f4xx_lib/CMSIS/Include/core_cm4.h ****     uint32_t IT:2;                       /*!< bit: 25..26  saved IT state   (read 0)          */
 268:/home/jonas/warwick/3dProfilometer/xpcc/ext/stm32f4xx_lib/CMSIS/Include/core_cm4.h ****     uint32_t Q:1;                        /*!< bit:     27  Saturation condition flag          */
 269:/home/jonas/warwick/3dProfilometer/xpcc/ext/stm32f4xx_lib/CMSIS/Include/core_cm4.h ****     uint32_t V:1;                        /*!< bit:     28  Overflow condition code flag       */
 270:/home/jonas/warwick/3dProfilometer/xpcc/ext/stm32f4xx_lib/CMSIS/Include/core_cm4.h ****     uint32_t C:1;                        /*!< bit:     29  Carry condition code flag          */
 271:/home/jonas/warwick/3dProfilometer/xpcc/ext/stm32f4xx_lib/CMSIS/Include/core_cm4.h ****     uint32_t Z:1;                        /*!< bit:     30  Zero condition code flag           */
 272:/home/jonas/warwick/3dProfilometer/xpcc/ext/stm32f4xx_lib/CMSIS/Include/core_cm4.h ****     uint32_t N:1;                        /*!< bit:     31  Negative condition code flag       */
 273:/home/jonas/warwick/3dProfilometer/xpcc/ext/stm32f4xx_lib/CMSIS/Include/core_cm4.h ****   } b;                                   /*!< Structure used for bit  access                  */
 274:/home/jonas/warwick/3dProfilometer/xpcc/ext/stm32f4xx_lib/CMSIS/Include/core_cm4.h ****   uint32_t w;                            /*!< Type      used for word access                  */
 275:/home/jonas/warwick/3dProfilometer/xpcc/ext/stm32f4xx_lib/CMSIS/Include/core_cm4.h **** } xPSR_Type;
 276:/home/jonas/warwick/3dProfilometer/xpcc/ext/stm32f4xx_lib/CMSIS/Include/core_cm4.h **** 
 277:/home/jonas/warwick/3dProfilometer/xpcc/ext/stm32f4xx_lib/CMSIS/Include/core_cm4.h **** 
 278:/home/jonas/warwick/3dProfilometer/xpcc/ext/stm32f4xx_lib/CMSIS/Include/core_cm4.h **** /** \brief  Union type to access the Control Registers (CONTROL).
 279:/home/jonas/warwick/3dProfilometer/xpcc/ext/stm32f4xx_lib/CMSIS/Include/core_cm4.h ****  */
 280:/home/jonas/warwick/3dProfilometer/xpcc/ext/stm32f4xx_lib/CMSIS/Include/core_cm4.h **** typedef union
 281:/home/jonas/warwick/3dProfilometer/xpcc/ext/stm32f4xx_lib/CMSIS/Include/core_cm4.h **** {
 282:/home/jonas/warwick/3dProfilometer/xpcc/ext/stm32f4xx_lib/CMSIS/Include/core_cm4.h ****   struct
 283:/home/jonas/warwick/3dProfilometer/xpcc/ext/stm32f4xx_lib/CMSIS/Include/core_cm4.h ****   {
 284:/home/jonas/warwick/3dProfilometer/xpcc/ext/stm32f4xx_lib/CMSIS/Include/core_cm4.h ****     uint32_t nPRIV:1;                    /*!< bit:      0  Execution privilege in Thread mode */
 285:/home/jonas/warwick/3dProfilometer/xpcc/ext/stm32f4xx_lib/CMSIS/Include/core_cm4.h ****     uint32_t SPSEL:1;                    /*!< bit:      1  Stack to be used                   */
 286:/home/jonas/warwick/3dProfilometer/xpcc/ext/stm32f4xx_lib/CMSIS/Include/core_cm4.h ****     uint32_t FPCA:1;                     /*!< bit:      2  FP extension active flag           */
 287:/home/jonas/warwick/3dProfilometer/xpcc/ext/stm32f4xx_lib/CMSIS/Include/core_cm4.h ****     uint32_t _reserved0:29;              /*!< bit:  3..31  Reserved                           */
 288:/home/jonas/warwick/3dProfilometer/xpcc/ext/stm32f4xx_lib/CMSIS/Include/core_cm4.h ****   } b;                                   /*!< Structure used for bit  access                  */
 289:/home/jonas/warwick/3dProfilometer/xpcc/ext/stm32f4xx_lib/CMSIS/Include/core_cm4.h ****   uint32_t w;                            /*!< Type      used for word access                  */
 290:/home/jonas/warwick/3dProfilometer/xpcc/ext/stm32f4xx_lib/CMSIS/Include/core_cm4.h **** } CONTROL_Type;
 291:/home/jonas/warwick/3dProfilometer/xpcc/ext/stm32f4xx_lib/CMSIS/Include/core_cm4.h **** 
 292:/home/jonas/warwick/3dProfilometer/xpcc/ext/stm32f4xx_lib/CMSIS/Include/core_cm4.h **** /*@} end of group CMSIS_CORE */
 293:/home/jonas/warwick/3dProfilometer/xpcc/ext/stm32f4xx_lib/CMSIS/Include/core_cm4.h **** 
 294:/home/jonas/warwick/3dProfilometer/xpcc/ext/stm32f4xx_lib/CMSIS/Include/core_cm4.h **** 
 295:/home/jonas/warwick/3dProfilometer/xpcc/ext/stm32f4xx_lib/CMSIS/Include/core_cm4.h **** /** \ingroup  CMSIS_core_register
 296:/home/jonas/warwick/3dProfilometer/xpcc/ext/stm32f4xx_lib/CMSIS/Include/core_cm4.h ****     \defgroup CMSIS_NVIC CMSIS NVIC
 297:/home/jonas/warwick/3dProfilometer/xpcc/ext/stm32f4xx_lib/CMSIS/Include/core_cm4.h ****   Type definitions for the Cortex-M NVIC Registers
 298:/home/jonas/warwick/3dProfilometer/xpcc/ext/stm32f4xx_lib/CMSIS/Include/core_cm4.h ****   @{
 299:/home/jonas/warwick/3dProfilometer/xpcc/ext/stm32f4xx_lib/CMSIS/Include/core_cm4.h ****  */
 300:/home/jonas/warwick/3dProfilometer/xpcc/ext/stm32f4xx_lib/CMSIS/Include/core_cm4.h **** 
 301:/home/jonas/warwick/3dProfilometer/xpcc/ext/stm32f4xx_lib/CMSIS/Include/core_cm4.h **** /** \brief  Structure type to access the Nested Vectored Interrupt Controller (NVIC).
 302:/home/jonas/warwick/3dProfilometer/xpcc/ext/stm32f4xx_lib/CMSIS/Include/core_cm4.h ****  */
 303:/home/jonas/warwick/3dProfilometer/xpcc/ext/stm32f4xx_lib/CMSIS/Include/core_cm4.h **** typedef struct
 304:/home/jonas/warwick/3dProfilometer/xpcc/ext/stm32f4xx_lib/CMSIS/Include/core_cm4.h **** {
 305:/home/jonas/warwick/3dProfilometer/xpcc/ext/stm32f4xx_lib/CMSIS/Include/core_cm4.h ****   __IO uint32_t ISER[8];                 /*!< Offset: 0x000 (R/W)  Interrupt Set Enable Register   
 306:/home/jonas/warwick/3dProfilometer/xpcc/ext/stm32f4xx_lib/CMSIS/Include/core_cm4.h ****        uint32_t RESERVED0[24];
 307:/home/jonas/warwick/3dProfilometer/xpcc/ext/stm32f4xx_lib/CMSIS/Include/core_cm4.h ****   __IO uint32_t ICER[8];                 /*!< Offset: 0x080 (R/W)  Interrupt Clear Enable Register 
 308:/home/jonas/warwick/3dProfilometer/xpcc/ext/stm32f4xx_lib/CMSIS/Include/core_cm4.h ****        uint32_t RSERVED1[24];
