   1              		.syntax unified
   2              		.cpu cortex-m4
   3              		.eabi_attribute 27, 3
   4              		.fpu fpv4-sp-d16
   5              		.eabi_attribute 20, 1
   6              		.eabi_attribute 21, 1
   7              		.eabi_attribute 23, 3
   8              		.eabi_attribute 24, 1
   9              		.eabi_attribute 25, 1
  10              		.eabi_attribute 26, 1
  11              		.eabi_attribute 30, 2
  12              		.eabi_attribute 34, 1
  13              		.eabi_attribute 18, 4
  14              		.thumb
  15              		.file	"mock_master.cpp"
  16              		.text
  17              	.Ltext0:
  18              		.cfi_sections	.debug_frame
  19              		.section	.text._ZN4xpcc3i2c10MockMaster10initializeENS1_11SlaveDeviceENS1_8BehaviorE,"ax",%progbit
  20              		.align	2
  21              		.global	_ZN4xpcc3i2c10MockMaster10initializeENS1_11SlaveDeviceENS1_8BehaviorE
  22              		.thumb
  23              		.thumb_func
  25              	_ZN4xpcc3i2c10MockMaster10initializeENS1_11SlaveDeviceENS1_8BehaviorE:
  26              	.LFB1:
  27              		.file 1 "/home/jonas/warwick/3dProfilometer/xpcc/src/xpcc/driver/connectivity/i2c/mock_master.cpp"
   1:/home/jonas/warwick/3dProfilometer/xpcc/src/xpcc/driver/connectivity/i2c/mock_master.cpp **** // coding: utf-8
   2:/home/jonas/warwick/3dProfilometer/xpcc/src/xpcc/driver/connectivity/i2c/mock_master.cpp **** // ----------------------------------------------------------------------------
   3:/home/jonas/warwick/3dProfilometer/xpcc/src/xpcc/driver/connectivity/i2c/mock_master.cpp **** /* Copyright (c) 2009, Roboterclub Aachen e.V.
   4:/home/jonas/warwick/3dProfilometer/xpcc/src/xpcc/driver/connectivity/i2c/mock_master.cpp ****  * All rights reserved.
   5:/home/jonas/warwick/3dProfilometer/xpcc/src/xpcc/driver/connectivity/i2c/mock_master.cpp ****  *
   6:/home/jonas/warwick/3dProfilometer/xpcc/src/xpcc/driver/connectivity/i2c/mock_master.cpp ****  * Redistribution and use in source and binary forms, with or without
   7:/home/jonas/warwick/3dProfilometer/xpcc/src/xpcc/driver/connectivity/i2c/mock_master.cpp ****  * modification, are permitted provided that the following conditions are met:
   8:/home/jonas/warwick/3dProfilometer/xpcc/src/xpcc/driver/connectivity/i2c/mock_master.cpp ****  *
   9:/home/jonas/warwick/3dProfilometer/xpcc/src/xpcc/driver/connectivity/i2c/mock_master.cpp ****  *     * Redistributions of source code must retain the above copyright
  10:/home/jonas/warwick/3dProfilometer/xpcc/src/xpcc/driver/connectivity/i2c/mock_master.cpp ****  *       notice, this list of conditions and the following disclaimer.
  11:/home/jonas/warwick/3dProfilometer/xpcc/src/xpcc/driver/connectivity/i2c/mock_master.cpp ****  *     * Redistributions in binary form must reproduce the above copyright
  12:/home/jonas/warwick/3dProfilometer/xpcc/src/xpcc/driver/connectivity/i2c/mock_master.cpp ****  *       notice, this list of conditions and the following disclaimer in the
  13:/home/jonas/warwick/3dProfilometer/xpcc/src/xpcc/driver/connectivity/i2c/mock_master.cpp ****  *       documentation and/or other materials provided with the distribution.
  14:/home/jonas/warwick/3dProfilometer/xpcc/src/xpcc/driver/connectivity/i2c/mock_master.cpp ****  *     * Neither the name of the Roboterclub Aachen e.V. nor the
  15:/home/jonas/warwick/3dProfilometer/xpcc/src/xpcc/driver/connectivity/i2c/mock_master.cpp ****  *       names of its contributors may be used to endorse or promote products
  16:/home/jonas/warwick/3dProfilometer/xpcc/src/xpcc/driver/connectivity/i2c/mock_master.cpp ****  *       derived from this software without specific prior written permission.
  17:/home/jonas/warwick/3dProfilometer/xpcc/src/xpcc/driver/connectivity/i2c/mock_master.cpp ****  *
  18:/home/jonas/warwick/3dProfilometer/xpcc/src/xpcc/driver/connectivity/i2c/mock_master.cpp ****  * THIS SOFTWARE IS PROVIDED BY ROBOTERCLUB AACHEN E.V. ''AS IS'' AND ANY
  19:/home/jonas/warwick/3dProfilometer/xpcc/src/xpcc/driver/connectivity/i2c/mock_master.cpp ****  * EXPRESS OR IMPLIED WARRANTIES, INCLUDING, BUT NOT LIMITED TO, THE IMPLIED
  20:/home/jonas/warwick/3dProfilometer/xpcc/src/xpcc/driver/connectivity/i2c/mock_master.cpp ****  * WARRANTIES OF MERCHANTABILITY AND FITNESS FOR A PARTICULAR PURPOSE ARE
  21:/home/jonas/warwick/3dProfilometer/xpcc/src/xpcc/driver/connectivity/i2c/mock_master.cpp ****  * DISCLAIMED. IN NO EVENT SHALL ROBOTERCLUB AACHEN E.V. BE LIABLE FOR ANY
  22:/home/jonas/warwick/3dProfilometer/xpcc/src/xpcc/driver/connectivity/i2c/mock_master.cpp ****  * DIRECT, INDIRECT, INCIDENTAL, SPECIAL, EXEMPLARY, OR CONSEQUENTIAL DAMAGES
  23:/home/jonas/warwick/3dProfilometer/xpcc/src/xpcc/driver/connectivity/i2c/mock_master.cpp ****  * (INCLUDING, BUT NOT LIMITED TO, PROCUREMENT OF SUBSTITUTE GOODS OR SERVICES;
  24:/home/jonas/warwick/3dProfilometer/xpcc/src/xpcc/driver/connectivity/i2c/mock_master.cpp ****  * LOSS OF USE, DATA, OR PROFITS; OR BUSINESS INTERRUPTION) HOWEVER CAUSED AND
  25:/home/jonas/warwick/3dProfilometer/xpcc/src/xpcc/driver/connectivity/i2c/mock_master.cpp ****  * ON ANY THEORY OF LIABILITY, WHETHER IN CONTRACT, STRICT LIABILITY, OR TORT
  26:/home/jonas/warwick/3dProfilometer/xpcc/src/xpcc/driver/connectivity/i2c/mock_master.cpp ****  * (INCLUDING NEGLIGENCE OR OTHERWISE) ARISING IN ANY WAY OUT OF THE USE OF
  27:/home/jonas/warwick/3dProfilometer/xpcc/src/xpcc/driver/connectivity/i2c/mock_master.cpp ****  * THIS SOFTWARE, EVEN IF ADVISED OF THE POSSIBILITY OF SUCH DAMAGE.
  28:/home/jonas/warwick/3dProfilometer/xpcc/src/xpcc/driver/connectivity/i2c/mock_master.cpp ****  *
  29:/home/jonas/warwick/3dProfilometer/xpcc/src/xpcc/driver/connectivity/i2c/mock_master.cpp ****  * $$
  30:/home/jonas/warwick/3dProfilometer/xpcc/src/xpcc/driver/connectivity/i2c/mock_master.cpp ****  */
  31:/home/jonas/warwick/3dProfilometer/xpcc/src/xpcc/driver/connectivity/i2c/mock_master.cpp **** // ----------------------------------------------------------------------------
  32:/home/jonas/warwick/3dProfilometer/xpcc/src/xpcc/driver/connectivity/i2c/mock_master.cpp **** 
  33:/home/jonas/warwick/3dProfilometer/xpcc/src/xpcc/driver/connectivity/i2c/mock_master.cpp **** #include "mock_master.hpp"
  34:/home/jonas/warwick/3dProfilometer/xpcc/src/xpcc/driver/connectivity/i2c/mock_master.cpp **** 
  35:/home/jonas/warwick/3dProfilometer/xpcc/src/xpcc/driver/connectivity/i2c/mock_master.cpp **** xpcc::i2c::MockMaster::Behavior xpcc::i2c::MockMaster::behavior = xpcc::i2c::MockMaster::AUTO_MODE;
  36:/home/jonas/warwick/3dProfilometer/xpcc/src/xpcc/driver/connectivity/i2c/mock_master.cpp **** xpcc::i2c::MockMaster::SlaveDevice xpcc::i2c::MockMaster::slaveDevice = xpcc::i2c::MockMaster::DEVI
  37:/home/jonas/warwick/3dProfilometer/xpcc/src/xpcc/driver/connectivity/i2c/mock_master.cpp **** xpcc::i2c::Delegate *xpcc::i2c::MockMaster::delegate;
  38:/home/jonas/warwick/3dProfilometer/xpcc/src/xpcc/driver/connectivity/i2c/mock_master.cpp **** xpcc::i2c::MockMaster::ErrorState xpcc::i2c::MockMaster::error;
  39:/home/jonas/warwick/3dProfilometer/xpcc/src/xpcc/driver/connectivity/i2c/mock_master.cpp **** xpcc::i2c::Delegate::NextOperation xpcc::i2c::MockMaster::nextOperation;
  40:/home/jonas/warwick/3dProfilometer/xpcc/src/xpcc/driver/connectivity/i2c/mock_master.cpp **** 
  41:/home/jonas/warwick/3dProfilometer/xpcc/src/xpcc/driver/connectivity/i2c/mock_master.cpp **** void
  42:/home/jonas/warwick/3dProfilometer/xpcc/src/xpcc/driver/connectivity/i2c/mock_master.cpp **** xpcc::i2c::MockMaster::initialize(SlaveDevice slaveDevice, Behavior behavior)
  43:/home/jonas/warwick/3dProfilometer/xpcc/src/xpcc/driver/connectivity/i2c/mock_master.cpp **** {
  28              		.loc 1 43 0
  29              		.cfi_startproc
  30              		@ args = 0, pretend = 0, frame = 0
  31              		@ frame_needed = 0, uses_anonymous_args = 0
  32              		@ link register save eliminated.
  33              	.LVL0:
  44:/home/jonas/warwick/3dProfilometer/xpcc/src/xpcc/driver/connectivity/i2c/mock_master.cpp **** 	MockMaster::slaveDevice = slaveDevice;
  34              		.loc 1 44 0
  35 0000 024B     		ldr	r3, .L2
  36 0002 1870     		strb	r0, [r3, #0]
  45:/home/jonas/warwick/3dProfilometer/xpcc/src/xpcc/driver/connectivity/i2c/mock_master.cpp **** 	MockMaster::behavior = behavior;
  37              		.loc 1 45 0
  38 0004 024B     		ldr	r3, .L2+4
  39 0006 1970     		strb	r1, [r3, #0]
  40 0008 7047     		bx	lr
  41              	.L3:
  42 000a 00BF     		.align	2
  43              	.L2:
  44 000c 00000000 		.word	.LANCHOR0
  45 0010 00000000 		.word	.LANCHOR1
  46              		.cfi_endproc
  47              	.LFE1:
  49              		.section	.text._ZN4xpcc3i2c10MockMaster13getErrorStateEv,"ax",%progbits
  50              		.align	2
  51              		.global	_ZN4xpcc3i2c10MockMaster13getErrorStateEv
  52              		.thumb
  53              		.thumb_func
  55              	_ZN4xpcc3i2c10MockMaster13getErrorStateEv:
  56              	.LFB2:
  46:/home/jonas/warwick/3dProfilometer/xpcc/src/xpcc/driver/connectivity/i2c/mock_master.cpp **** }
  47:/home/jonas/warwick/3dProfilometer/xpcc/src/xpcc/driver/connectivity/i2c/mock_master.cpp **** 
  48:/home/jonas/warwick/3dProfilometer/xpcc/src/xpcc/driver/connectivity/i2c/mock_master.cpp **** uint8_t
  49:/home/jonas/warwick/3dProfilometer/xpcc/src/xpcc/driver/connectivity/i2c/mock_master.cpp **** xpcc::i2c::MockMaster::getErrorState()
  50:/home/jonas/warwick/3dProfilometer/xpcc/src/xpcc/driver/connectivity/i2c/mock_master.cpp **** {
  57              		.loc 1 50 0
  58              		.cfi_startproc
  59              		@ args = 0, pretend = 0, frame = 0
  60              		@ frame_needed = 0, uses_anonymous_args = 0
  61              		@ link register save eliminated.
  51:/home/jonas/warwick/3dProfilometer/xpcc/src/xpcc/driver/connectivity/i2c/mock_master.cpp **** 	return error;
  62              		.loc 1 51 0
  63 0000 014B     		ldr	r3, .L5
  52:/home/jonas/warwick/3dProfilometer/xpcc/src/xpcc/driver/connectivity/i2c/mock_master.cpp **** }
  64              		.loc 1 52 0
  65 0002 1878     		ldrb	r0, [r3, #0]	@ zero_extendqisi2
  66 0004 7047     		bx	lr
  67              	.L6:
  68 0006 00BF     		.align	2
  69              	.L5:
  70 0008 00000000 		.word	.LANCHOR2
  71              		.cfi_endproc
  72              	.LFE2:
  74              		.section	.text._ZN4xpcc3i2c10MockMaster5startEPNS0_8DelegateE,"ax",%progbits
  75              		.align	2
  76              		.global	_ZN4xpcc3i2c10MockMaster5startEPNS0_8DelegateE
  77              		.thumb
  78              		.thumb_func
  80              	_ZN4xpcc3i2c10MockMaster5startEPNS0_8DelegateE:
  81              	.LFB3:
  53:/home/jonas/warwick/3dProfilometer/xpcc/src/xpcc/driver/connectivity/i2c/mock_master.cpp **** 
  54:/home/jonas/warwick/3dProfilometer/xpcc/src/xpcc/driver/connectivity/i2c/mock_master.cpp **** bool
  55:/home/jonas/warwick/3dProfilometer/xpcc/src/xpcc/driver/connectivity/i2c/mock_master.cpp **** xpcc::i2c::MockMaster::start(Delegate *delegate)
  56:/home/jonas/warwick/3dProfilometer/xpcc/src/xpcc/driver/connectivity/i2c/mock_master.cpp **** {
  82              		.loc 1 56 0
  83              		.cfi_startproc
  84              		@ args = 0, pretend = 0, frame = 48
  85              		@ frame_needed = 0, uses_anonymous_args = 0
  86              	.LVL1:
  87 0000 70B5     		push	{r4, r5, r6, lr}
  88              	.LCFI0:
  89              		.cfi_def_cfa_offset 16
  90              		.cfi_offset 4, -16
  91              		.cfi_offset 5, -12
  92              		.cfi_offset 6, -8
  93              		.cfi_offset 14, -4
  57:/home/jonas/warwick/3dProfilometer/xpcc/src/xpcc/driver/connectivity/i2c/mock_master.cpp **** 	if (!MockMaster::delegate && delegate && delegate->attaching()){
  94              		.loc 1 57 0
  95 0002 3F4C     		ldr	r4, .L46
  96 0004 2368     		ldr	r3, [r4, #0]
  56:/home/jonas/warwick/3dProfilometer/xpcc/src/xpcc/driver/connectivity/i2c/mock_master.cpp **** {
  97              		.loc 1 56 0
  98 0006 8CB0     		sub	sp, sp, #48
  99              	.LCFI1:
 100              		.cfi_def_cfa_offset 64
 101              		.loc 1 57 0
 102 0008 13B1     		cbz	r3, .L45
 103              	.LVL2:
 104              	.L8:
 105              	.LBB9:
 106              	.LBB10:
 107              	.LBB11:
  58:/home/jonas/warwick/3dProfilometer/xpcc/src/xpcc/driver/connectivity/i2c/mock_master.cpp **** 		MockMaster::delegate = delegate;
  59:/home/jonas/warwick/3dProfilometer/xpcc/src/xpcc/driver/connectivity/i2c/mock_master.cpp **** 		nextOperation = Delegate::RESTART_OP;
  60:/home/jonas/warwick/3dProfilometer/xpcc/src/xpcc/driver/connectivity/i2c/mock_master.cpp **** 
  61:/home/jonas/warwick/3dProfilometer/xpcc/src/xpcc/driver/connectivity/i2c/mock_master.cpp **** 		if (behavior == AUTO_MODE){
  62:/home/jonas/warwick/3dProfilometer/xpcc/src/xpcc/driver/connectivity/i2c/mock_master.cpp **** 			while (MockMaster::delegate)
  63:/home/jonas/warwick/3dProfilometer/xpcc/src/xpcc/driver/connectivity/i2c/mock_master.cpp **** 				update();
  64:/home/jonas/warwick/3dProfilometer/xpcc/src/xpcc/driver/connectivity/i2c/mock_master.cpp **** 		}
  65:/home/jonas/warwick/3dProfilometer/xpcc/src/xpcc/driver/connectivity/i2c/mock_master.cpp **** 
  66:/home/jonas/warwick/3dProfilometer/xpcc/src/xpcc/driver/connectivity/i2c/mock_master.cpp **** 		return true;
  67:/home/jonas/warwick/3dProfilometer/xpcc/src/xpcc/driver/connectivity/i2c/mock_master.cpp **** 	}
  68:/home/jonas/warwick/3dProfilometer/xpcc/src/xpcc/driver/connectivity/i2c/mock_master.cpp **** 	else
  69:/home/jonas/warwick/3dProfilometer/xpcc/src/xpcc/driver/connectivity/i2c/mock_master.cpp **** 		return false;
 108              		.loc 1 69 0
 109 000a 0020     		movs	r0, #0
 110              	.L43:
 111              	.LBE11:
 112              	.LBE10:
 113              	.LBE9:
  70:/home/jonas/warwick/3dProfilometer/xpcc/src/xpcc/driver/connectivity/i2c/mock_master.cpp **** }
 114              		.loc 1 70 0
 115 000c 0CB0     		add	sp, sp, #48
 116 000e 70BD     		pop	{r4, r5, r6, pc}
 117              	.LVL3:
 118              	.L45:
  57:/home/jonas/warwick/3dProfilometer/xpcc/src/xpcc/driver/connectivity/i2c/mock_master.cpp **** 	if (!MockMaster::delegate && delegate && delegate->attaching()){
 119              		.loc 1 57 0 discriminator 1
 120 0010 0028     		cmp	r0, #0
 121 0012 FAD0     		beq	.L8
  57:/home/jonas/warwick/3dProfilometer/xpcc/src/xpcc/driver/connectivity/i2c/mock_master.cpp **** 	if (!MockMaster::delegate && delegate && delegate->attaching()){
 122              		.loc 1 57 0 is_stmt 0 discriminator 3
 123 0014 0368     		ldr	r3, [r0, #0]
 124 0016 1B68     		ldr	r3, [r3, #0]
 125 0018 0190     		str	r0, [sp, #4]
 126 001a 9847     		blx	r3
 127              	.LVL4:
 128 001c 0199     		ldr	r1, [sp, #4]
 129 001e 0028     		cmp	r0, #0
 130 0020 F3D0     		beq	.L8
  61:/home/jonas/warwick/3dProfilometer/xpcc/src/xpcc/driver/connectivity/i2c/mock_master.cpp **** 		if (behavior == AUTO_MODE){
 131              		.loc 1 61 0 is_stmt 1
 132 0022 384B     		ldr	r3, .L46+4
  59:/home/jonas/warwick/3dProfilometer/xpcc/src/xpcc/driver/connectivity/i2c/mock_master.cpp **** 		nextOperation = Delegate::RESTART_OP;
 133              		.loc 1 59 0
 134 0024 384D     		ldr	r5, .L46+8
  61:/home/jonas/warwick/3dProfilometer/xpcc/src/xpcc/driver/connectivity/i2c/mock_master.cpp **** 		if (behavior == AUTO_MODE){
 135              		.loc 1 61 0
 136 0026 1B78     		ldrb	r3, [r3, #0]	@ zero_extendqisi2
  58:/home/jonas/warwick/3dProfilometer/xpcc/src/xpcc/driver/connectivity/i2c/mock_master.cpp **** 		MockMaster::delegate = delegate;
 137              		.loc 1 58 0
 138 0028 2160     		str	r1, [r4, #0]
  59:/home/jonas/warwick/3dProfilometer/xpcc/src/xpcc/driver/connectivity/i2c/mock_master.cpp **** 		nextOperation = Delegate::RESTART_OP;
 139              		.loc 1 59 0
 140 002a 0122     		movs	r2, #1
 141 002c 2A70     		strb	r2, [r5, #0]
  61:/home/jonas/warwick/3dProfilometer/xpcc/src/xpcc/driver/connectivity/i2c/mock_master.cpp **** 		if (behavior == AUTO_MODE){
 142              		.loc 1 61 0
 143 002e BBB9     		cbnz	r3, .L22
 144              	.L42:
  62:/home/jonas/warwick/3dProfilometer/xpcc/src/xpcc/driver/connectivity/i2c/mock_master.cpp **** 			while (MockMaster::delegate)
 145              		.loc 1 62 0 discriminator 1
 146 0030 B1B1     		cbz	r1, .L22
 147              	.L35:
 148              	.LBB19:
 149              	.LBB17:
  71:/home/jonas/warwick/3dProfilometer/xpcc/src/xpcc/driver/connectivity/i2c/mock_master.cpp **** 
  72:/home/jonas/warwick/3dProfilometer/xpcc/src/xpcc/driver/connectivity/i2c/mock_master.cpp **** void xpcc::i2c::MockMaster::update(){
  73:/home/jonas/warwick/3dProfilometer/xpcc/src/xpcc/driver/connectivity/i2c/mock_master.cpp **** 	if (delegate)
  74:/home/jonas/warwick/3dProfilometer/xpcc/src/xpcc/driver/connectivity/i2c/mock_master.cpp **** 	{
  75:/home/jonas/warwick/3dProfilometer/xpcc/src/xpcc/driver/connectivity/i2c/mock_master.cpp **** 		switch (nextOperation)
 150              		.loc 1 75 0
 151 0032 2B78     		ldrb	r3, [r5, #0]	@ zero_extendqisi2
 152 0034 032B     		cmp	r3, #3
 153 0036 FCD8     		bhi	.L35
 154 0038 DFE803F0 		tbb	[pc, r3]
 155              	.L15:
 156 003c 21       		.byte	(.L11-.L15)/2
 157 003d 2A       		.byte	(.L12-.L15)/2
 158 003e 14       		.byte	(.L13-.L15)/2
 159 003f 02       		.byte	(.L14-.L15)/2
 160              		.align	1
 161              	.L14:
 162              	.LBB15:
 163              	.LBB12:
  76:/home/jonas/warwick/3dProfilometer/xpcc/src/xpcc/driver/connectivity/i2c/mock_master.cpp **** 		{
  77:/home/jonas/warwick/3dProfilometer/xpcc/src/xpcc/driver/connectivity/i2c/mock_master.cpp **** 			case Delegate::STOP_OP:
  78:/home/jonas/warwick/3dProfilometer/xpcc/src/xpcc/driver/connectivity/i2c/mock_master.cpp **** 				delegate->stopped(Delegate::NORMAL_STOP);
  79:/home/jonas/warwick/3dProfilometer/xpcc/src/xpcc/driver/connectivity/i2c/mock_master.cpp **** 				delegate = 0;
  80:/home/jonas/warwick/3dProfilometer/xpcc/src/xpcc/driver/connectivity/i2c/mock_master.cpp **** 				break;
  81:/home/jonas/warwick/3dProfilometer/xpcc/src/xpcc/driver/connectivity/i2c/mock_master.cpp **** 				
  82:/home/jonas/warwick/3dProfilometer/xpcc/src/xpcc/driver/connectivity/i2c/mock_master.cpp **** 			case Delegate::RESTART_OP:
  83:/home/jonas/warwick/3dProfilometer/xpcc/src/xpcc/driver/connectivity/i2c/mock_master.cpp **** 				if (slaveDevice != DEVICE_MISSING){
  84:/home/jonas/warwick/3dProfilometer/xpcc/src/xpcc/driver/connectivity/i2c/mock_master.cpp **** 					nextOperation = delegate->started().next;
  85:/home/jonas/warwick/3dProfilometer/xpcc/src/xpcc/driver/connectivity/i2c/mock_master.cpp **** 				}
  86:/home/jonas/warwick/3dProfilometer/xpcc/src/xpcc/driver/connectivity/i2c/mock_master.cpp **** 				else{
  87:/home/jonas/warwick/3dProfilometer/xpcc/src/xpcc/driver/connectivity/i2c/mock_master.cpp **** 					delegate->started();
  88:/home/jonas/warwick/3dProfilometer/xpcc/src/xpcc/driver/connectivity/i2c/mock_master.cpp **** 					error = ADDRESS_NACK;
  89:/home/jonas/warwick/3dProfilometer/xpcc/src/xpcc/driver/connectivity/i2c/mock_master.cpp **** 					delegate->stopped(Delegate::ERROR_CONDITION);
  90:/home/jonas/warwick/3dProfilometer/xpcc/src/xpcc/driver/connectivity/i2c/mock_master.cpp **** 					delegate = 0;
  91:/home/jonas/warwick/3dProfilometer/xpcc/src/xpcc/driver/connectivity/i2c/mock_master.cpp **** 				}
  92:/home/jonas/warwick/3dProfilometer/xpcc/src/xpcc/driver/connectivity/i2c/mock_master.cpp **** 				break;
  93:/home/jonas/warwick/3dProfilometer/xpcc/src/xpcc/driver/connectivity/i2c/mock_master.cpp **** 				
  94:/home/jonas/warwick/3dProfilometer/xpcc/src/xpcc/driver/connectivity/i2c/mock_master.cpp **** 			case Delegate::READ_OP:
  95:/home/jonas/warwick/3dProfilometer/xpcc/src/xpcc/driver/connectivity/i2c/mock_master.cpp **** 				{
  96:/home/jonas/warwick/3dProfilometer/xpcc/src/xpcc/driver/connectivity/i2c/mock_master.cpp **** 					Delegate::Reading r = delegate->reading();
 164              		.loc 1 96 0
 165 0040 0B68     		ldr	r3, [r1, #0]
 166 0042 06A8     		add	r0, sp, #24
 167 0044 9B68     		ldr	r3, [r3, #8]
 168 0046 9847     		blx	r3
 169              	.LVL5:
  97:/home/jonas/warwick/3dProfilometer/xpcc/src/xpcc/driver/connectivity/i2c/mock_master.cpp **** 					if (r.buffer && r.size){
 170              		.loc 1 97 0
 171 0048 079B     		ldr	r3, [sp, #28]
 172 004a 002B     		cmp	r3, #0
 173 004c 36D0     		beq	.L20
 174 004e 089B     		ldr	r3, [sp, #32]
 175 0050 002B     		cmp	r3, #0
 176 0052 33D0     		beq	.L20
  98:/home/jonas/warwick/3dProfilometer/xpcc/src/xpcc/driver/connectivity/i2c/mock_master.cpp **** 						nextOperation = (Delegate::NextOperation)r.next;
 177              		.loc 1 98 0
 178 0054 9DF81830 		ldrb	r3, [sp, #24]	@ zero_extendqisi2
 179 0058 2168     		ldr	r1, [r4, #0]
 180 005a 2B70     		strb	r3, [r5, #0]
 181              	.LBE12:
 182              	.LBE15:
 183              	.LBE17:
 184              	.LBE19:
  62:/home/jonas/warwick/3dProfilometer/xpcc/src/xpcc/driver/connectivity/i2c/mock_master.cpp **** 			while (MockMaster::delegate)
 185              		.loc 1 62 0
 186 005c 0029     		cmp	r1, #0
 187 005e E8D1     		bne	.L35
 188              	.L22:
 189              	.LBB20:
 190              	.LBB18:
 191              	.LBB16:
  66:/home/jonas/warwick/3dProfilometer/xpcc/src/xpcc/driver/connectivity/i2c/mock_master.cpp **** 		return true;
 192              		.loc 1 66 0
 193 0060 0120     		movs	r0, #1
 194 0062 D3E7     		b	.L43
 195              	.L13:
 196              	.LBB13:
  99:/home/jonas/warwick/3dProfilometer/xpcc/src/xpcc/driver/connectivity/i2c/mock_master.cpp **** 					}
 100:/home/jonas/warwick/3dProfilometer/xpcc/src/xpcc/driver/connectivity/i2c/mock_master.cpp **** 					else{
 101:/home/jonas/warwick/3dProfilometer/xpcc/src/xpcc/driver/connectivity/i2c/mock_master.cpp **** 						error = UNKNOWN_ERROR;
 102:/home/jonas/warwick/3dProfilometer/xpcc/src/xpcc/driver/connectivity/i2c/mock_master.cpp **** 						delegate->stopped(Delegate::ERROR_CONDITION);
 103:/home/jonas/warwick/3dProfilometer/xpcc/src/xpcc/driver/connectivity/i2c/mock_master.cpp **** 						delegate = 0;
 104:/home/jonas/warwick/3dProfilometer/xpcc/src/xpcc/driver/connectivity/i2c/mock_master.cpp **** 					}
 105:/home/jonas/warwick/3dProfilometer/xpcc/src/xpcc/driver/connectivity/i2c/mock_master.cpp **** 				}
 106:/home/jonas/warwick/3dProfilometer/xpcc/src/xpcc/driver/connectivity/i2c/mock_master.cpp **** 				break;
 107:/home/jonas/warwick/3dProfilometer/xpcc/src/xpcc/driver/connectivity/i2c/mock_master.cpp **** 				
 108:/home/jonas/warwick/3dProfilometer/xpcc/src/xpcc/driver/connectivity/i2c/mock_master.cpp **** 			case Delegate::WRITE_OP:
 109:/home/jonas/warwick/3dProfilometer/xpcc/src/xpcc/driver/connectivity/i2c/mock_master.cpp **** 			{
 110:/home/jonas/warwick/3dProfilometer/xpcc/src/xpcc/driver/connectivity/i2c/mock_master.cpp **** 				Delegate::Writing w = delegate->writing();
 197              		.loc 1 110 0
 198 0064 0B68     		ldr	r3, [r1, #0]
 199 0066 09A8     		add	r0, sp, #36
 200 0068 DB68     		ldr	r3, [r3, #12]
 201 006a 9847     		blx	r3
 202              	.LVL6:
 111:/home/jonas/warwick/3dProfilometer/xpcc/src/xpcc/driver/connectivity/i2c/mock_master.cpp **** 				if (w.buffer && w.size){
 203              		.loc 1 111 0
 204 006c 0A9B     		ldr	r3, [sp, #40]
 205 006e 2BB3     		cbz	r3, .L20
 206 0070 0B9B     		ldr	r3, [sp, #44]
 207 0072 1BB3     		cbz	r3, .L20
 112:/home/jonas/warwick/3dProfilometer/xpcc/src/xpcc/driver/connectivity/i2c/mock_master.cpp **** 					nextOperation = (Delegate::NextOperation)w.next;
 208              		.loc 1 112 0
 209 0074 9DF82430 		ldrb	r3, [sp, #36]	@ zero_extendqisi2
 210 0078 2168     		ldr	r1, [r4, #0]
 211 007a 2B70     		strb	r3, [r5, #0]
 212 007c D8E7     		b	.L42
 213              	.L11:
 214              	.LBE13:
  78:/home/jonas/warwick/3dProfilometer/xpcc/src/xpcc/driver/connectivity/i2c/mock_master.cpp **** 				delegate->stopped(Delegate::NORMAL_STOP);
 215              		.loc 1 78 0
 216 007e 0B68     		ldr	r3, [r1, #0]
 217 0080 0846     		mov	r0, r1
 218 0082 1B69     		ldr	r3, [r3, #16]
 219 0084 0021     		movs	r1, #0
 220 0086 9847     		blx	r3
 221              	.LVL7:
  79:/home/jonas/warwick/3dProfilometer/xpcc/src/xpcc/driver/connectivity/i2c/mock_master.cpp **** 				delegate = 0;
 222              		.loc 1 79 0
 223 0088 0023     		movs	r3, #0
 224 008a 2360     		str	r3, [r4, #0]
  66:/home/jonas/warwick/3dProfilometer/xpcc/src/xpcc/driver/connectivity/i2c/mock_master.cpp **** 		return true;
 225              		.loc 1 66 0
 226 008c 0120     		movs	r0, #1
 227 008e BDE7     		b	.L43
 228              	.L12:
  83:/home/jonas/warwick/3dProfilometer/xpcc/src/xpcc/driver/connectivity/i2c/mock_master.cpp **** 				if (slaveDevice != DEVICE_MISSING){
 229              		.loc 1 83 0
 230 0090 1E4B     		ldr	r3, .L46+12
 231 0092 1E78     		ldrb	r6, [r3, #0]	@ zero_extendqisi2
  84:/home/jonas/warwick/3dProfilometer/xpcc/src/xpcc/driver/connectivity/i2c/mock_master.cpp **** 					nextOperation = delegate->started().next;
 232              		.loc 1 84 0
 233 0094 0B68     		ldr	r3, [r1, #0]
  83:/home/jonas/warwick/3dProfilometer/xpcc/src/xpcc/driver/connectivity/i2c/mock_master.cpp **** 				if (slaveDevice != DEVICE_MISSING){
 234              		.loc 1 83 0
 235 0096 012E     		cmp	r6, #1
  84:/home/jonas/warwick/3dProfilometer/xpcc/src/xpcc/driver/connectivity/i2c/mock_master.cpp **** 					nextOperation = delegate->started().next;
 236              		.loc 1 84 0
 237 0098 0846     		mov	r0, r1
 238 009a 5B68     		ldr	r3, [r3, #4]
  83:/home/jonas/warwick/3dProfilometer/xpcc/src/xpcc/driver/connectivity/i2c/mock_master.cpp **** 				if (slaveDevice != DEVICE_MISSING){
 239              		.loc 1 83 0
 240 009c 19D0     		beq	.L17
  84:/home/jonas/warwick/3dProfilometer/xpcc/src/xpcc/driver/connectivity/i2c/mock_master.cpp **** 					nextOperation = delegate->started().next;
 241              		.loc 1 84 0
 242 009e 9847     		blx	r3
 243              	.LVL8:
 244 00a0 00B2     		sxth	r0, r0
 245 00a2 C0F30723 		ubfx	r3, r0, #8, #8
 246 00a6 8DF80800 		strb	r0, [sp, #8]
 247 00aa 8DF80930 		strb	r3, [sp, #9]
 248 00ae BDF80830 		ldrh	r3, [sp, #8]
 249 00b2 2168     		ldr	r1, [r4, #0]
 250 00b4 ADF81430 		strh	r3, [sp, #20]	@ movhi
 251 00b8 2B70     		strb	r3, [r5, #0]
 252 00ba B9E7     		b	.L42
 253              	.L20:
 254              	.LBB14:
 113:/home/jonas/warwick/3dProfilometer/xpcc/src/xpcc/driver/connectivity/i2c/mock_master.cpp **** 				}
 114:/home/jonas/warwick/3dProfilometer/xpcc/src/xpcc/driver/connectivity/i2c/mock_master.cpp **** 				else {
 115:/home/jonas/warwick/3dProfilometer/xpcc/src/xpcc/driver/connectivity/i2c/mock_master.cpp **** 					error = UNKNOWN_ERROR;
 116:/home/jonas/warwick/3dProfilometer/xpcc/src/xpcc/driver/connectivity/i2c/mock_master.cpp **** 					delegate->stopped(Delegate::ERROR_CONDITION);
 255              		.loc 1 116 0
 256 00bc 2068     		ldr	r0, [r4, #0]
 115:/home/jonas/warwick/3dProfilometer/xpcc/src/xpcc/driver/connectivity/i2c/mock_master.cpp **** 					error = UNKNOWN_ERROR;
 257              		.loc 1 115 0
 258 00be 144A     		ldr	r2, .L46+16
 259              		.loc 1 116 0
 260 00c0 0368     		ldr	r3, [r0, #0]
 115:/home/jonas/warwick/3dProfilometer/xpcc/src/xpcc/driver/connectivity/i2c/mock_master.cpp **** 					error = UNKNOWN_ERROR;
 261              		.loc 1 115 0
 262 00c2 0521     		movs	r1, #5
 263 00c4 1170     		strb	r1, [r2, #0]
 264              		.loc 1 116 0
 265 00c6 1B69     		ldr	r3, [r3, #16]
 266 00c8 0121     		movs	r1, #1
 267 00ca 9847     		blx	r3
 268              	.LVL9:
 117:/home/jonas/warwick/3dProfilometer/xpcc/src/xpcc/driver/connectivity/i2c/mock_master.cpp **** 					delegate = 0;
 269              		.loc 1 117 0
 270 00cc 0023     		movs	r3, #0
 271 00ce 2360     		str	r3, [r4, #0]
 272 00d0 C6E7     		b	.L22
 273              	.L17:
 274              	.LBE14:
  87:/home/jonas/warwick/3dProfilometer/xpcc/src/xpcc/driver/connectivity/i2c/mock_master.cpp **** 					delegate->started();
 275              		.loc 1 87 0
 276 00d2 9847     		blx	r3
 277              	.LVL10:
 278 00d4 03B2     		sxth	r3, r0
 279 00d6 8DF80830 		strb	r3, [sp, #8]
 280 00da C3F30723 		ubfx	r3, r3, #8, #8
 281 00de 8DF80930 		strb	r3, [sp, #9]
 282 00e2 BDF80820 		ldrh	r2, [sp, #8]
  89:/home/jonas/warwick/3dProfilometer/xpcc/src/xpcc/driver/connectivity/i2c/mock_master.cpp **** 					delegate->stopped(Delegate::ERROR_CONDITION);
 283              		.loc 1 89 0
 284 00e6 2068     		ldr	r0, [r4, #0]
  87:/home/jonas/warwick/3dProfilometer/xpcc/src/xpcc/driver/connectivity/i2c/mock_master.cpp **** 					delegate->started();
 285              		.loc 1 87 0
 286 00e8 ADF81020 		strh	r2, [sp, #16]	@ movhi
  89:/home/jonas/warwick/3dProfilometer/xpcc/src/xpcc/driver/connectivity/i2c/mock_master.cpp **** 					delegate->stopped(Delegate::ERROR_CONDITION);
 287              		.loc 1 89 0
 288 00ec 0368     		ldr	r3, [r0, #0]
  88:/home/jonas/warwick/3dProfilometer/xpcc/src/xpcc/driver/connectivity/i2c/mock_master.cpp **** 					error = ADDRESS_NACK;
 289              		.loc 1 88 0
 290 00ee 084A     		ldr	r2, .L46+16
  89:/home/jonas/warwick/3dProfilometer/xpcc/src/xpcc/driver/connectivity/i2c/mock_master.cpp **** 					delegate->stopped(Delegate::ERROR_CONDITION);
 291              		.loc 1 89 0
 292 00f0 1B69     		ldr	r3, [r3, #16]
  88:/home/jonas/warwick/3dProfilometer/xpcc/src/xpcc/driver/connectivity/i2c/mock_master.cpp **** 					error = ADDRESS_NACK;
 293              		.loc 1 88 0
 294 00f2 0221     		movs	r1, #2
 295 00f4 1170     		strb	r1, [r2, #0]
  89:/home/jonas/warwick/3dProfilometer/xpcc/src/xpcc/driver/connectivity/i2c/mock_master.cpp **** 					delegate->stopped(Delegate::ERROR_CONDITION);
 296              		.loc 1 89 0
 297 00f6 3146     		mov	r1, r6
 298 00f8 9847     		blx	r3
 299              	.LVL11:
  90:/home/jonas/warwick/3dProfilometer/xpcc/src/xpcc/driver/connectivity/i2c/mock_master.cpp **** 					delegate = 0;
 300              		.loc 1 90 0
 301 00fa 0023     		movs	r3, #0
 302 00fc 2360     		str	r3, [r4, #0]
 303 00fe AFE7     		b	.L22
 304              	.L47:
 305              		.align	2
 306              	.L46:
 307 0100 00000000 		.word	.LANCHOR3
 308 0104 00000000 		.word	.LANCHOR1
 309 0108 00000000 		.word	.LANCHOR4
 310 010c 00000000 		.word	.LANCHOR0
 311 0110 00000000 		.word	.LANCHOR2
 312              	.LBE16:
 313              	.LBE18:
 314              	.LBE20:
 315              		.cfi_endproc
 316              	.LFE3:
 318              		.section	.text._ZN4xpcc3i2c10MockMaster6updateEv,"ax",%progbits
 319              		.align	2
 320              		.global	_ZN4xpcc3i2c10MockMaster6updateEv
 321              		.thumb
 322              		.thumb_func
 324              	_ZN4xpcc3i2c10MockMaster6updateEv:
 325              	.LFB4:
  72:/home/jonas/warwick/3dProfilometer/xpcc/src/xpcc/driver/connectivity/i2c/mock_master.cpp **** void xpcc::i2c::MockMaster::update(){
 326              		.loc 1 72 0
 327              		.cfi_startproc
 328              		@ args = 0, pretend = 0, frame = 40
 329              		@ frame_needed = 0, uses_anonymous_args = 0
 330 0000 70B5     		push	{r4, r5, r6, lr}
 331              	.LCFI2:
 332              		.cfi_def_cfa_offset 16
 333              		.cfi_offset 4, -16
 334              		.cfi_offset 5, -12
 335              		.cfi_offset 6, -8
 336              		.cfi_offset 14, -4
 337              	.LBB21:
  73:/home/jonas/warwick/3dProfilometer/xpcc/src/xpcc/driver/connectivity/i2c/mock_master.cpp **** 	if (delegate)
 338              		.loc 1 73 0
 339 0002 314C     		ldr	r4, .L75
 340 0004 2168     		ldr	r1, [r4, #0]
 341              	.LBE21:
  72:/home/jonas/warwick/3dProfilometer/xpcc/src/xpcc/driver/connectivity/i2c/mock_master.cpp **** void xpcc::i2c::MockMaster::update(){
 342              		.loc 1 72 0
 343 0006 8AB0     		sub	sp, sp, #40
 344              	.LCFI3:
 345              		.cfi_def_cfa_offset 56
 346              	.LBB29:
  73:/home/jonas/warwick/3dProfilometer/xpcc/src/xpcc/driver/connectivity/i2c/mock_master.cpp **** 	if (delegate)
 347              		.loc 1 73 0
 348 0008 A1B1     		cbz	r1, .L48
 349              	.LBB22:
  75:/home/jonas/warwick/3dProfilometer/xpcc/src/xpcc/driver/connectivity/i2c/mock_master.cpp **** 		switch (nextOperation)
 350              		.loc 1 75 0
 351 000a 304D     		ldr	r5, .L75+4
 352 000c 2B78     		ldrb	r3, [r5, #0]	@ zero_extendqisi2
 353 000e 032B     		cmp	r3, #3
 354 0010 10D8     		bhi	.L48
 355 0012 DFE803F0 		tbb	[pc, r3]
 356              	.L54:
 357 0016 1D       		.byte	(.L50-.L54)/2
 358 0017 25       		.byte	(.L51-.L54)/2
 359 0018 02       		.byte	(.L52-.L54)/2
 360 0019 11       		.byte	(.L53-.L54)/2
 361              		.align	1
 362              	.L52:
 363              	.LBB23:
 364              	.LBB24:
 110:/home/jonas/warwick/3dProfilometer/xpcc/src/xpcc/driver/connectivity/i2c/mock_master.cpp **** 				Delegate::Writing w = delegate->writing();
 365              		.loc 1 110 0
 366 001a 0B68     		ldr	r3, [r1, #0]
 367 001c 07A8     		add	r0, sp, #28
 368 001e DB68     		ldr	r3, [r3, #12]
 369 0020 9847     		blx	r3
 370              	.LVL12:
 111:/home/jonas/warwick/3dProfilometer/xpcc/src/xpcc/driver/connectivity/i2c/mock_master.cpp **** 				if (w.buffer && w.size){
 371              		.loc 1 111 0
 372 0022 089B     		ldr	r3, [sp, #32]
 373 0024 002B     		cmp	r3, #0
 374 0026 2DD0     		beq	.L58
 111:/home/jonas/warwick/3dProfilometer/xpcc/src/xpcc/driver/connectivity/i2c/mock_master.cpp **** 				if (w.buffer && w.size){
 375              		.loc 1 111 0 is_stmt 0 discriminator 1
 376 0028 099B     		ldr	r3, [sp, #36]
 377 002a 002B     		cmp	r3, #0
 378 002c 2AD0     		beq	.L58
 112:/home/jonas/warwick/3dProfilometer/xpcc/src/xpcc/driver/connectivity/i2c/mock_master.cpp **** 					nextOperation = (Delegate::NextOperation)w.next;
 379              		.loc 1 112 0 is_stmt 1
 380 002e 9DF81C30 		ldrb	r3, [sp, #28]	@ zero_extendqisi2
 381 0032 2B70     		strb	r3, [r5, #0]
 382              	.L48:
 383              	.LBE24:
 384              	.LBE23:
 385              	.LBE22:
 386              	.LBE29:
 118:/home/jonas/warwick/3dProfilometer/xpcc/src/xpcc/driver/connectivity/i2c/mock_master.cpp **** 				}
 119:/home/jonas/warwick/3dProfilometer/xpcc/src/xpcc/driver/connectivity/i2c/mock_master.cpp **** 			}
 120:/home/jonas/warwick/3dProfilometer/xpcc/src/xpcc/driver/connectivity/i2c/mock_master.cpp **** 			break;
 121:/home/jonas/warwick/3dProfilometer/xpcc/src/xpcc/driver/connectivity/i2c/mock_master.cpp **** 		}
 122:/home/jonas/warwick/3dProfilometer/xpcc/src/xpcc/driver/connectivity/i2c/mock_master.cpp **** 	}
 123:/home/jonas/warwick/3dProfilometer/xpcc/src/xpcc/driver/connectivity/i2c/mock_master.cpp **** }
 387              		.loc 1 123 0
 388 0034 0AB0     		add	sp, sp, #40
 389 0036 70BD     		pop	{r4, r5, r6, pc}
 390              	.L53:
 391              	.LBB30:
 392              	.LBB28:
 393              	.LBB27:
 394              	.LBB25:
  96:/home/jonas/warwick/3dProfilometer/xpcc/src/xpcc/driver/connectivity/i2c/mock_master.cpp **** 					Delegate::Reading r = delegate->reading();
 395              		.loc 1 96 0
 396 0038 0B68     		ldr	r3, [r1, #0]
 397 003a 04A8     		add	r0, sp, #16
 398 003c 9B68     		ldr	r3, [r3, #8]
 399 003e 9847     		blx	r3
 400              	.LVL13:
  97:/home/jonas/warwick/3dProfilometer/xpcc/src/xpcc/driver/connectivity/i2c/mock_master.cpp **** 					if (r.buffer && r.size){
 401              		.loc 1 97 0
 402 0040 059B     		ldr	r3, [sp, #20]
 403 0042 FBB1     		cbz	r3, .L58
  97:/home/jonas/warwick/3dProfilometer/xpcc/src/xpcc/driver/connectivity/i2c/mock_master.cpp **** 					if (r.buffer && r.size){
 404              		.loc 1 97 0 is_stmt 0 discriminator 1
 405 0044 069B     		ldr	r3, [sp, #24]
 406 0046 EBB1     		cbz	r3, .L58
  98:/home/jonas/warwick/3dProfilometer/xpcc/src/xpcc/driver/connectivity/i2c/mock_master.cpp **** 						nextOperation = (Delegate::NextOperation)r.next;
 407              		.loc 1 98 0 is_stmt 1
 408 0048 9DF81030 		ldrb	r3, [sp, #16]	@ zero_extendqisi2
 409 004c 2B70     		strb	r3, [r5, #0]
 410 004e F1E7     		b	.L48
 411              	.L50:
 412              	.LBE25:
  78:/home/jonas/warwick/3dProfilometer/xpcc/src/xpcc/driver/connectivity/i2c/mock_master.cpp **** 				delegate->stopped(Delegate::NORMAL_STOP);
 413              		.loc 1 78 0
 414 0050 0B68     		ldr	r3, [r1, #0]
 415 0052 0846     		mov	r0, r1
 416 0054 1B69     		ldr	r3, [r3, #16]
 417 0056 0021     		movs	r1, #0
 418 0058 9847     		blx	r3
 419              	.LVL14:
  79:/home/jonas/warwick/3dProfilometer/xpcc/src/xpcc/driver/connectivity/i2c/mock_master.cpp **** 				delegate = 0;
 420              		.loc 1 79 0
 421 005a 0023     		movs	r3, #0
 422 005c 2360     		str	r3, [r4, #0]
  80:/home/jonas/warwick/3dProfilometer/xpcc/src/xpcc/driver/connectivity/i2c/mock_master.cpp **** 				break;
 423              		.loc 1 80 0
 424 005e E9E7     		b	.L48
 425              	.L51:
  83:/home/jonas/warwick/3dProfilometer/xpcc/src/xpcc/driver/connectivity/i2c/mock_master.cpp **** 				if (slaveDevice != DEVICE_MISSING){
 426              		.loc 1 83 0
 427 0060 1B4B     		ldr	r3, .L75+8
 428 0062 1E78     		ldrb	r6, [r3, #0]	@ zero_extendqisi2
  84:/home/jonas/warwick/3dProfilometer/xpcc/src/xpcc/driver/connectivity/i2c/mock_master.cpp **** 					nextOperation = delegate->started().next;
 429              		.loc 1 84 0
 430 0064 0B68     		ldr	r3, [r1, #0]
  83:/home/jonas/warwick/3dProfilometer/xpcc/src/xpcc/driver/connectivity/i2c/mock_master.cpp **** 				if (slaveDevice != DEVICE_MISSING){
 431              		.loc 1 83 0
 432 0066 012E     		cmp	r6, #1
  84:/home/jonas/warwick/3dProfilometer/xpcc/src/xpcc/driver/connectivity/i2c/mock_master.cpp **** 					nextOperation = delegate->started().next;
 433              		.loc 1 84 0
 434 0068 0846     		mov	r0, r1
 435 006a 5B68     		ldr	r3, [r3, #4]
  83:/home/jonas/warwick/3dProfilometer/xpcc/src/xpcc/driver/connectivity/i2c/mock_master.cpp **** 				if (slaveDevice != DEVICE_MISSING){
 436              		.loc 1 83 0
 437 006c 15D0     		beq	.L55
  84:/home/jonas/warwick/3dProfilometer/xpcc/src/xpcc/driver/connectivity/i2c/mock_master.cpp **** 					nextOperation = delegate->started().next;
 438              		.loc 1 84 0
 439 006e 9847     		blx	r3
 440              	.LVL15:
 441 0070 00B2     		sxth	r0, r0
 442 0072 C3B2     		uxtb	r3, r0
 443 0074 8DF80000 		strb	r0, [sp, #0]
 444 0078 C0F30720 		ubfx	r0, r0, #8, #8
 445 007c 8DF80100 		strb	r0, [sp, #1]
 446 0080 2B70     		strb	r3, [r5, #0]
 447 0082 D7E7     		b	.L48
 448              	.L58:
 449              	.LBB26:
 116:/home/jonas/warwick/3dProfilometer/xpcc/src/xpcc/driver/connectivity/i2c/mock_master.cpp **** 					delegate->stopped(Delegate::ERROR_CONDITION);
 450              		.loc 1 116 0
 451 0084 2068     		ldr	r0, [r4, #0]
 115:/home/jonas/warwick/3dProfilometer/xpcc/src/xpcc/driver/connectivity/i2c/mock_master.cpp **** 					error = UNKNOWN_ERROR;
 452              		.loc 1 115 0
 453 0086 134A     		ldr	r2, .L75+12
 116:/home/jonas/warwick/3dProfilometer/xpcc/src/xpcc/driver/connectivity/i2c/mock_master.cpp **** 					delegate->stopped(Delegate::ERROR_CONDITION);
 454              		.loc 1 116 0
 455 0088 0368     		ldr	r3, [r0, #0]
 115:/home/jonas/warwick/3dProfilometer/xpcc/src/xpcc/driver/connectivity/i2c/mock_master.cpp **** 					error = UNKNOWN_ERROR;
 456              		.loc 1 115 0
 457 008a 0521     		movs	r1, #5
 458 008c 1170     		strb	r1, [r2, #0]
 116:/home/jonas/warwick/3dProfilometer/xpcc/src/xpcc/driver/connectivity/i2c/mock_master.cpp **** 					delegate->stopped(Delegate::ERROR_CONDITION);
 459              		.loc 1 116 0
 460 008e 1B69     		ldr	r3, [r3, #16]
 461 0090 0121     		movs	r1, #1
 462 0092 9847     		blx	r3
 463              	.LVL16:
 117:/home/jonas/warwick/3dProfilometer/xpcc/src/xpcc/driver/connectivity/i2c/mock_master.cpp **** 					delegate = 0;
 464              		.loc 1 117 0
 465 0094 0023     		movs	r3, #0
 466 0096 2360     		str	r3, [r4, #0]
 467              	.LBE26:
 120:/home/jonas/warwick/3dProfilometer/xpcc/src/xpcc/driver/connectivity/i2c/mock_master.cpp **** 			break;
 468              		.loc 1 120 0
 469 0098 CCE7     		b	.L48
 470              	.L55:
  87:/home/jonas/warwick/3dProfilometer/xpcc/src/xpcc/driver/connectivity/i2c/mock_master.cpp **** 					delegate->started();
 471              		.loc 1 87 0
 472 009a 9847     		blx	r3
 473              	.LVL17:
 474 009c 03B2     		sxth	r3, r0
 475 009e 8DF80030 		strb	r3, [sp, #0]
 476 00a2 C3F30723 		ubfx	r3, r3, #8, #8
 477 00a6 8DF80130 		strb	r3, [sp, #1]
 478 00aa BDF80020 		ldrh	r2, [sp, #0]
  89:/home/jonas/warwick/3dProfilometer/xpcc/src/xpcc/driver/connectivity/i2c/mock_master.cpp **** 					delegate->stopped(Delegate::ERROR_CONDITION);
 479              		.loc 1 89 0
 480 00ae 2068     		ldr	r0, [r4, #0]
  87:/home/jonas/warwick/3dProfilometer/xpcc/src/xpcc/driver/connectivity/i2c/mock_master.cpp **** 					delegate->started();
 481              		.loc 1 87 0
 482 00b0 ADF80C20 		strh	r2, [sp, #12]	@ movhi
  89:/home/jonas/warwick/3dProfilometer/xpcc/src/xpcc/driver/connectivity/i2c/mock_master.cpp **** 					delegate->stopped(Delegate::ERROR_CONDITION);
 483              		.loc 1 89 0
 484 00b4 0368     		ldr	r3, [r0, #0]
  88:/home/jonas/warwick/3dProfilometer/xpcc/src/xpcc/driver/connectivity/i2c/mock_master.cpp **** 					error = ADDRESS_NACK;
 485              		.loc 1 88 0
 486 00b6 074A     		ldr	r2, .L75+12
  89:/home/jonas/warwick/3dProfilometer/xpcc/src/xpcc/driver/connectivity/i2c/mock_master.cpp **** 					delegate->stopped(Delegate::ERROR_CONDITION);
 487              		.loc 1 89 0
 488 00b8 1B69     		ldr	r3, [r3, #16]
  88:/home/jonas/warwick/3dProfilometer/xpcc/src/xpcc/driver/connectivity/i2c/mock_master.cpp **** 					error = ADDRESS_NACK;
 489              		.loc 1 88 0
 490 00ba 0221     		movs	r1, #2
 491 00bc 1170     		strb	r1, [r2, #0]
  89:/home/jonas/warwick/3dProfilometer/xpcc/src/xpcc/driver/connectivity/i2c/mock_master.cpp **** 					delegate->stopped(Delegate::ERROR_CONDITION);
 492              		.loc 1 89 0
 493 00be 3146     		mov	r1, r6
 494 00c0 9847     		blx	r3
 495              	.LVL18:
  90:/home/jonas/warwick/3dProfilometer/xpcc/src/xpcc/driver/connectivity/i2c/mock_master.cpp **** 					delegate = 0;
 496              		.loc 1 90 0
 497 00c2 0023     		movs	r3, #0
 498 00c4 2360     		str	r3, [r4, #0]
 499 00c6 B5E7     		b	.L48
 500              	.L76:
 501              		.align	2
 502              	.L75:
 503 00c8 00000000 		.word	.LANCHOR3
 504 00cc 00000000 		.word	.LANCHOR4
 505 00d0 00000000 		.word	.LANCHOR0
 506 00d4 00000000 		.word	.LANCHOR2
 507              	.LBE27:
 508              	.LBE28:
 509              	.LBE30:
 510              		.cfi_endproc
 511              	.LFE4:
 513              		.global	_ZN4xpcc3i2c10MockMaster13nextOperationE
 514              		.global	_ZN4xpcc3i2c10MockMaster5errorE
 515              		.global	_ZN4xpcc3i2c10MockMaster8delegateE
 516              		.global	_ZN4xpcc3i2c10MockMaster11slaveDeviceE
 517              		.global	_ZN4xpcc3i2c10MockMaster8behaviorE
 518              		.section	.bss._ZN4xpcc3i2c10MockMaster8behaviorE,"aw",%nobits
 519              		.set	.LANCHOR1,. + 0
 522              	_ZN4xpcc3i2c10MockMaster8behaviorE:
 523 0000 00       		.space	1
 524              		.section	.bss._ZN4xpcc3i2c10MockMaster11slaveDeviceE,"aw",%nobits
 525              		.set	.LANCHOR0,. + 0
 528              	_ZN4xpcc3i2c10MockMaster11slaveDeviceE:
 529 0000 00       		.space	1
 530              		.section	.bss._ZN4xpcc3i2c10MockMaster8delegateE,"aw",%nobits
 531              		.align	2
 532              		.set	.LANCHOR3,. + 0
 535              	_ZN4xpcc3i2c10MockMaster8delegateE:
 536 0000 00000000 		.space	4
 537              		.section	.bss._ZN4xpcc3i2c10MockMaster13nextOperationE,"aw",%nobits
 538              		.set	.LANCHOR4,. + 0
 541              	_ZN4xpcc3i2c10MockMaster13nextOperationE:
 542 0000 00       		.space	1
 543              		.section	.bss._ZN4xpcc3i2c10MockMaster5errorE,"aw",%nobits
 544              		.set	.LANCHOR2,. + 0
 547              	_ZN4xpcc3i2c10MockMaster5errorE:
 548 0000 00       		.space	1
 549              		.text
 550              	.Letext0:
 551              		.file 2 "/home/jonas/warwick/3dProfilometer/xpcc/src/xpcc/driver/connectivity/i2c/delegate.hpp"
 552              		.file 3 "/home/jonas/warwick/3dProfilometer/xpcc/src/xpcc/driver/connectivity/i2c/master.hpp"
 553              		.file 4 "/home/jonas/warwick/3dProfilometer/xpcc/src/xpcc/driver/connectivity/i2c/mock_master.hpp"
 554              		.file 5 "/home/jonas/warwick/3dProfilometer/xpcc/src/xpcc/driver/connectivity/i2c/constants.hpp"
 555              		.file 6 "/opt/arm-2012.09/bin/../lib/gcc/arm-none-eabi/4.7.2/../../../../arm-none-eabi/include/std
 556              		.file 7 "/opt/arm-2012.09/bin/../lib/gcc/arm-none-eabi/4.7.2/../../../../arm-none-eabi/include/c++
 557              		.file 8 "/home/jonas/warwick/3dProfilometer/xpcc/src/xpcc/driver/interface.hpp"
 558              		.file 9 "<built-in>"