   1              		.syntax unified
   2              		.cpu cortex-m4
   3              		.eabi_attribute 27, 3
   4              		.fpu fpv4-sp-d16
   5              		.eabi_attribute 20, 1
   6              		.eabi_attribute 21, 1
   7              		.eabi_attribute 23, 3
   8              		.eabi_attribute 24, 1
   9              		.eabi_attribute 25, 1
  10              		.eabi_attribute 26, 1
  11              		.eabi_attribute 30, 2
  12              		.eabi_attribute 34, 1
  13              		.eabi_attribute 18, 4
  14              		.thumb
  15              		.file	"cxxabi.cpp"
  16              		.text
  17              	.Ltext0:
  18              		.cfi_sections	.debug_frame
  19              		.section	.text.__cxa_pure_virtual,"ax",%progbits
  20              		.align	2
  21              		.global	__cxa_pure_virtual
  22              		.thumb
  23              		.thumb_func
  25              	__cxa_pure_virtual:
  26              	.LFB0:
  27              		.file 1 "/home/jonas/warwick/3dProfilometer/xpcc/src/xpcc/architecture/platform/cortex_m3/common/c
   1:/home/jonas/warwick/3dProfilometer/xpcc/src/xpcc/architecture/platform/cortex_m3/common/cxxabi.cpp **** // coding: utf-8
   2:/home/jonas/warwick/3dProfilometer/xpcc/src/xpcc/architecture/platform/cortex_m3/common/cxxabi.cpp **** // ----------------------------------------------------------------------------
   3:/home/jonas/warwick/3dProfilometer/xpcc/src/xpcc/architecture/platform/cortex_m3/common/cxxabi.cpp **** /* Copyright (c) 2011, Roboterclub Aachen e.V.
   4:/home/jonas/warwick/3dProfilometer/xpcc/src/xpcc/architecture/platform/cortex_m3/common/cxxabi.cpp ****  * All rights reserved.
   5:/home/jonas/warwick/3dProfilometer/xpcc/src/xpcc/architecture/platform/cortex_m3/common/cxxabi.cpp ****  *
   6:/home/jonas/warwick/3dProfilometer/xpcc/src/xpcc/architecture/platform/cortex_m3/common/cxxabi.cpp ****  * Redistribution and use in source and binary forms, with or without
   7:/home/jonas/warwick/3dProfilometer/xpcc/src/xpcc/architecture/platform/cortex_m3/common/cxxabi.cpp ****  * modification, are permitted provided that the following conditions are met:
   8:/home/jonas/warwick/3dProfilometer/xpcc/src/xpcc/architecture/platform/cortex_m3/common/cxxabi.cpp ****  *     * Redistributions of source code must retain the above copyright
   9:/home/jonas/warwick/3dProfilometer/xpcc/src/xpcc/architecture/platform/cortex_m3/common/cxxabi.cpp ****  *       notice, this list of conditions and the following disclaimer.
  10:/home/jonas/warwick/3dProfilometer/xpcc/src/xpcc/architecture/platform/cortex_m3/common/cxxabi.cpp ****  *     * Redistributions in binary form must reproduce the above copyright
  11:/home/jonas/warwick/3dProfilometer/xpcc/src/xpcc/architecture/platform/cortex_m3/common/cxxabi.cpp ****  *       notice, this list of conditions and the following disclaimer in the
  12:/home/jonas/warwick/3dProfilometer/xpcc/src/xpcc/architecture/platform/cortex_m3/common/cxxabi.cpp ****  *       documentation and/or other materials provided with the distribution.
  13:/home/jonas/warwick/3dProfilometer/xpcc/src/xpcc/architecture/platform/cortex_m3/common/cxxabi.cpp ****  *     * Neither the name of the Roboterclub Aachen e.V. nor the
  14:/home/jonas/warwick/3dProfilometer/xpcc/src/xpcc/architecture/platform/cortex_m3/common/cxxabi.cpp ****  *       names of its contributors may be used to endorse or promote products
  15:/home/jonas/warwick/3dProfilometer/xpcc/src/xpcc/architecture/platform/cortex_m3/common/cxxabi.cpp ****  *       derived from this software without specific prior written permission.
  16:/home/jonas/warwick/3dProfilometer/xpcc/src/xpcc/architecture/platform/cortex_m3/common/cxxabi.cpp ****  *
  17:/home/jonas/warwick/3dProfilometer/xpcc/src/xpcc/architecture/platform/cortex_m3/common/cxxabi.cpp ****  * THIS SOFTWARE IS PROVIDED BY ROBOTERCLUB AACHEN E.V. ''AS IS'' AND ANY
  18:/home/jonas/warwick/3dProfilometer/xpcc/src/xpcc/architecture/platform/cortex_m3/common/cxxabi.cpp ****  * EXPRESS OR IMPLIED WARRANTIES, INCLUDING, BUT NOT LIMITED TO, THE IMPLIED
  19:/home/jonas/warwick/3dProfilometer/xpcc/src/xpcc/architecture/platform/cortex_m3/common/cxxabi.cpp ****  * WARRANTIES OF MERCHANTABILITY AND FITNESS FOR A PARTICULAR PURPOSE ARE
  20:/home/jonas/warwick/3dProfilometer/xpcc/src/xpcc/architecture/platform/cortex_m3/common/cxxabi.cpp ****  * DISCLAIMED. IN NO EVENT SHALL ROBOTERCLUB AACHEN E.V. BE LIABLE FOR ANY
  21:/home/jonas/warwick/3dProfilometer/xpcc/src/xpcc/architecture/platform/cortex_m3/common/cxxabi.cpp ****  * DIRECT, INDIRECT, INCIDENTAL, SPECIAL, EXEMPLARY, OR CONSEQUENTIAL DAMAGES
  22:/home/jonas/warwick/3dProfilometer/xpcc/src/xpcc/architecture/platform/cortex_m3/common/cxxabi.cpp ****  * (INCLUDING, BUT NOT LIMITED TO, PROCUREMENT OF SUBSTITUTE GOODS OR SERVICES;
  23:/home/jonas/warwick/3dProfilometer/xpcc/src/xpcc/architecture/platform/cortex_m3/common/cxxabi.cpp ****  * LOSS OF USE, DATA, OR PROFITS; OR BUSINESS INTERRUPTION) HOWEVER CAUSED AND
  24:/home/jonas/warwick/3dProfilometer/xpcc/src/xpcc/architecture/platform/cortex_m3/common/cxxabi.cpp ****  * ON ANY THEORY OF LIABILITY, WHETHER IN CONTRACT, STRICT LIABILITY, OR TORT
  25:/home/jonas/warwick/3dProfilometer/xpcc/src/xpcc/architecture/platform/cortex_m3/common/cxxabi.cpp ****  * (INCLUDING NEGLIGENCE OR OTHERWISE) ARISING IN ANY WAY OUT OF THE USE OF
  26:/home/jonas/warwick/3dProfilometer/xpcc/src/xpcc/architecture/platform/cortex_m3/common/cxxabi.cpp ****  * THIS SOFTWARE, EVEN IF ADVISED OF THE POSSIBILITY OF SUCH DAMAGE.
  27:/home/jonas/warwick/3dProfilometer/xpcc/src/xpcc/architecture/platform/cortex_m3/common/cxxabi.cpp ****  */
  28:/home/jonas/warwick/3dProfilometer/xpcc/src/xpcc/architecture/platform/cortex_m3/common/cxxabi.cpp **** // ----------------------------------------------------------------------------
  29:/home/jonas/warwick/3dProfilometer/xpcc/src/xpcc/architecture/platform/cortex_m3/common/cxxabi.cpp **** /**
  30:/home/jonas/warwick/3dProfilometer/xpcc/src/xpcc/architecture/platform/cortex_m3/common/cxxabi.cpp ****  * \file	cxxabi.cpp
  31:/home/jonas/warwick/3dProfilometer/xpcc/src/xpcc/architecture/platform/cortex_m3/common/cxxabi.cpp ****  * \brief	Minimal C++ support, no exception handling, no RTTI
  32:/home/jonas/warwick/3dProfilometer/xpcc/src/xpcc/architecture/platform/cortex_m3/common/cxxabi.cpp ****  */
  33:/home/jonas/warwick/3dProfilometer/xpcc/src/xpcc/architecture/platform/cortex_m3/common/cxxabi.cpp **** // ----------------------------------------------------------------------------
  34:/home/jonas/warwick/3dProfilometer/xpcc/src/xpcc/architecture/platform/cortex_m3/common/cxxabi.cpp **** 
  35:/home/jonas/warwick/3dProfilometer/xpcc/src/xpcc/architecture/platform/cortex_m3/common/cxxabi.cpp **** #include <stdlib.h>                   // for prototypes of malloc() and free()
  36:/home/jonas/warwick/3dProfilometer/xpcc/src/xpcc/architecture/platform/cortex_m3/common/cxxabi.cpp **** 
  37:/home/jonas/warwick/3dProfilometer/xpcc/src/xpcc/architecture/platform/cortex_m3/common/cxxabi.cpp **** extern "C"
  38:/home/jonas/warwick/3dProfilometer/xpcc/src/xpcc/architecture/platform/cortex_m3/common/cxxabi.cpp **** {
  39:/home/jonas/warwick/3dProfilometer/xpcc/src/xpcc/architecture/platform/cortex_m3/common/cxxabi.cpp **** 	// ------------------------------------------------------------------------
  40:/home/jonas/warwick/3dProfilometer/xpcc/src/xpcc/architecture/platform/cortex_m3/common/cxxabi.cpp **** 	void* __dso_handle = (void *) &__dso_handle;
  41:/home/jonas/warwick/3dProfilometer/xpcc/src/xpcc/architecture/platform/cortex_m3/common/cxxabi.cpp **** 	
  42:/home/jonas/warwick/3dProfilometer/xpcc/src/xpcc/architecture/platform/cortex_m3/common/cxxabi.cpp **** 	void
  43:/home/jonas/warwick/3dProfilometer/xpcc/src/xpcc/architecture/platform/cortex_m3/common/cxxabi.cpp **** 	__cxa_pure_virtual()
  44:/home/jonas/warwick/3dProfilometer/xpcc/src/xpcc/architecture/platform/cortex_m3/common/cxxabi.cpp **** 	{
  28              		.loc 1 44 0
  29              		.cfi_startproc
  30              		@ args = 0, pretend = 0, frame = 0
  31              		@ frame_needed = 0, uses_anonymous_args = 0
  32              		@ link register save eliminated.
  33 0000 7047     		bx	lr
  34              		.cfi_endproc
  35              	.LFE0:
  37 0002 00BF     		.section	.text.__cxa_guard_acquire,"ax",%progbits
  38              		.align	2
  39              		.global	__cxa_guard_acquire
  40              		.thumb
  41              		.thumb_func
  43              	__cxa_guard_acquire:
  44              	.LFB1:
  45:/home/jonas/warwick/3dProfilometer/xpcc/src/xpcc/architecture/platform/cortex_m3/common/cxxabi.cpp **** 		// put error handling here
  46:/home/jonas/warwick/3dProfilometer/xpcc/src/xpcc/architecture/platform/cortex_m3/common/cxxabi.cpp **** 	}
  47:/home/jonas/warwick/3dProfilometer/xpcc/src/xpcc/architecture/platform/cortex_m3/common/cxxabi.cpp **** 	
  48:/home/jonas/warwick/3dProfilometer/xpcc/src/xpcc/architecture/platform/cortex_m3/common/cxxabi.cpp **** 	// ------------------------------------------------------------------------
  49:/home/jonas/warwick/3dProfilometer/xpcc/src/xpcc/architecture/platform/cortex_m3/common/cxxabi.cpp **** 	__extension__ typedef int __guard __attribute__((mode (__DI__)));
  50:/home/jonas/warwick/3dProfilometer/xpcc/src/xpcc/architecture/platform/cortex_m3/common/cxxabi.cpp **** 	
  51:/home/jonas/warwick/3dProfilometer/xpcc/src/xpcc/architecture/platform/cortex_m3/common/cxxabi.cpp **** 	int
  52:/home/jonas/warwick/3dProfilometer/xpcc/src/xpcc/architecture/platform/cortex_m3/common/cxxabi.cpp **** 	__cxa_guard_acquire(__guard *g)
  53:/home/jonas/warwick/3dProfilometer/xpcc/src/xpcc/architecture/platform/cortex_m3/common/cxxabi.cpp **** 	{
  45              		.loc 1 53 0
  46              		.cfi_startproc
  47              		@ args = 0, pretend = 0, frame = 0
  48              		@ frame_needed = 0, uses_anonymous_args = 0
  49              		@ link register save eliminated.
  50              	.LVL0:
  54:/home/jonas/warwick/3dProfilometer/xpcc/src/xpcc/architecture/platform/cortex_m3/common/cxxabi.cpp **** 		return !*(char *)(g);
  51              		.loc 1 54 0
  52 0000 0078     		ldrb	r0, [r0, #0]	@ zero_extendqisi2
  53              	.LVL1:
  55:/home/jonas/warwick/3dProfilometer/xpcc/src/xpcc/architecture/platform/cortex_m3/common/cxxabi.cpp **** 	}
  54              		.loc 1 55 0
  55 0002 D0F10100 		rsbs	r0, r0, #1
  56 0006 38BF     		it	cc
  57 0008 0020     		movcc	r0, #0
  58 000a 7047     		bx	lr
  59              		.cfi_endproc
  60              	.LFE1:
  62              		.section	.text.__cxa_guard_release,"ax",%progbits
  63              		.align	2
  64              		.global	__cxa_guard_release
  65              		.thumb
  66              		.thumb_func
  68              	__cxa_guard_release:
  69              	.LFB2:
  56:/home/jonas/warwick/3dProfilometer/xpcc/src/xpcc/architecture/platform/cortex_m3/common/cxxabi.cpp **** 	
  57:/home/jonas/warwick/3dProfilometer/xpcc/src/xpcc/architecture/platform/cortex_m3/common/cxxabi.cpp **** 	void
  58:/home/jonas/warwick/3dProfilometer/xpcc/src/xpcc/architecture/platform/cortex_m3/common/cxxabi.cpp **** 	__cxa_guard_release (__guard *g)
  59:/home/jonas/warwick/3dProfilometer/xpcc/src/xpcc/architecture/platform/cortex_m3/common/cxxabi.cpp **** 	{
  70              		.loc 1 59 0
  71              		.cfi_startproc
  72              		@ args = 0, pretend = 0, frame = 0
  73              		@ frame_needed = 0, uses_anonymous_args = 0
  74              		@ link register save eliminated.
  75              	.LVL2:
  60:/home/jonas/warwick/3dProfilometer/xpcc/src/xpcc/architecture/platform/cortex_m3/common/cxxabi.cpp **** 		*(char *) g = 1;
  76              		.loc 1 60 0
  77 0000 0123     		movs	r3, #1
  78 0002 0370     		strb	r3, [r0, #0]
  79 0004 7047     		bx	lr
  80              		.cfi_endproc
  81              	.LFE2:
  83 0006 00BF     		.section	.text.__cxa_guard_abort,"ax",%progbits
  84              		.align	2
  85              		.global	__cxa_guard_abort
  86              		.thumb
  87              		.thumb_func
  89              	__cxa_guard_abort:
  90              	.LFB3:
  61:/home/jonas/warwick/3dProfilometer/xpcc/src/xpcc/architecture/platform/cortex_m3/common/cxxabi.cpp **** 	}
  62:/home/jonas/warwick/3dProfilometer/xpcc/src/xpcc/architecture/platform/cortex_m3/common/cxxabi.cpp **** 	
  63:/home/jonas/warwick/3dProfilometer/xpcc/src/xpcc/architecture/platform/cortex_m3/common/cxxabi.cpp **** 	void
  64:/home/jonas/warwick/3dProfilometer/xpcc/src/xpcc/architecture/platform/cortex_m3/common/cxxabi.cpp **** 	__cxa_guard_abort (__guard *)
  65:/home/jonas/warwick/3dProfilometer/xpcc/src/xpcc/architecture/platform/cortex_m3/common/cxxabi.cpp **** 	{
  91              		.loc 1 65 0
  92              		.cfi_startproc
  93              		@ args = 0, pretend = 0, frame = 0
  94              		@ frame_needed = 0, uses_anonymous_args = 0
  95              		@ link register save eliminated.
  96 0000 7047     		bx	lr
  97              		.cfi_endproc
  98              	.LFE3:
 100 0002 00BF     		.section	.text.__aeabi_atexit,"ax",%progbits
 101              		.align	2
 102              		.global	__aeabi_atexit
 103              		.thumb
 104              		.thumb_func
 106              	__aeabi_atexit:
 107              	.LFB4:
  66:/home/jonas/warwick/3dProfilometer/xpcc/src/xpcc/architecture/platform/cortex_m3/common/cxxabi.cpp **** 	}
  67:/home/jonas/warwick/3dProfilometer/xpcc/src/xpcc/architecture/platform/cortex_m3/common/cxxabi.cpp **** 	
  68:/home/jonas/warwick/3dProfilometer/xpcc/src/xpcc/architecture/platform/cortex_m3/common/cxxabi.cpp **** 	// ------------------------------------------------------------------------
  69:/home/jonas/warwick/3dProfilometer/xpcc/src/xpcc/architecture/platform/cortex_m3/common/cxxabi.cpp **** 	int
  70:/home/jonas/warwick/3dProfilometer/xpcc/src/xpcc/architecture/platform/cortex_m3/common/cxxabi.cpp **** 	__aeabi_atexit(void */*object*/, void (*/*destructor*/)(void *), void */*dso_handle*/)
  71:/home/jonas/warwick/3dProfilometer/xpcc/src/xpcc/architecture/platform/cortex_m3/common/cxxabi.cpp **** 	{
 108              		.loc 1 71 0
 109              		.cfi_startproc
 110              		@ args = 0, pretend = 0, frame = 0
 111              		@ frame_needed = 0, uses_anonymous_args = 0
 112              		@ link register save eliminated.
  72:/home/jonas/warwick/3dProfilometer/xpcc/src/xpcc/architecture/platform/cortex_m3/common/cxxabi.cpp **** 		return 0;
  73:/home/jonas/warwick/3dProfilometer/xpcc/src/xpcc/architecture/platform/cortex_m3/common/cxxabi.cpp **** 	}
 113              		.loc 1 73 0
 114 0000 0020     		movs	r0, #0
 115 0002 7047     		bx	lr
 116              		.cfi_endproc
 117              	.LFE4:
 119              		.section	.text._Znwj,"ax",%progbits
 120              		.align	2
 121              		.global	_Znwj
 122              		.thumb
 123              		.thumb_func
 125              	_Znwj:
 126              	.LFB5:
  74:/home/jonas/warwick/3dProfilometer/xpcc/src/xpcc/architecture/platform/cortex_m3/common/cxxabi.cpp **** }
  75:/home/jonas/warwick/3dProfilometer/xpcc/src/xpcc/architecture/platform/cortex_m3/common/cxxabi.cpp **** 
  76:/home/jonas/warwick/3dProfilometer/xpcc/src/xpcc/architecture/platform/cortex_m3/common/cxxabi.cpp **** // ----------------------------------------------------------------------------
  77:/home/jonas/warwick/3dProfilometer/xpcc/src/xpcc/architecture/platform/cortex_m3/common/cxxabi.cpp **** void *
  78:/home/jonas/warwick/3dProfilometer/xpcc/src/xpcc/architecture/platform/cortex_m3/common/cxxabi.cpp **** operator new(size_t size) throw ()
  79:/home/jonas/warwick/3dProfilometer/xpcc/src/xpcc/architecture/platform/cortex_m3/common/cxxabi.cpp **** {
 127              		.loc 1 79 0
 128              		.cfi_startproc
 129              		@ args = 0, pretend = 0, frame = 0
 130              		@ frame_needed = 0, uses_anonymous_args = 0
 131              	.LVL3:
 132 0000 08B5     		push	{r3, lr}
 133              	.LCFI0:
 134              		.cfi_def_cfa_offset 8
 135              		.cfi_offset 3, -8
 136              		.cfi_offset 14, -4
  80:/home/jonas/warwick/3dProfilometer/xpcc/src/xpcc/architecture/platform/cortex_m3/common/cxxabi.cpp **** 	return malloc(size);
 137              		.loc 1 80 0
 138 0002 014B     		ldr	r3, .L7
 139 0004 9847     		blx	r3
 140              	.LVL4:
  81:/home/jonas/warwick/3dProfilometer/xpcc/src/xpcc/architecture/platform/cortex_m3/common/cxxabi.cpp **** }
 141              		.loc 1 81 0
 142 0006 08BD     		pop	{r3, pc}
 143              	.L8:
 144              		.align	2
 145              	.L7:
 146 0008 00000000 		.word	malloc
 147              		.cfi_endproc
 148              	.LFE5:
 150              		.section	.text._Znaj,"ax",%progbits
 151              		.align	2
 152              		.global	_Znaj
 153              		.thumb
 154              		.thumb_func
 156              	_Znaj:
 157              	.LFB6:
  82:/home/jonas/warwick/3dProfilometer/xpcc/src/xpcc/architecture/platform/cortex_m3/common/cxxabi.cpp **** 
  83:/home/jonas/warwick/3dProfilometer/xpcc/src/xpcc/architecture/platform/cortex_m3/common/cxxabi.cpp **** void *
  84:/home/jonas/warwick/3dProfilometer/xpcc/src/xpcc/architecture/platform/cortex_m3/common/cxxabi.cpp **** operator new[](size_t size) throw ()
  85:/home/jonas/warwick/3dProfilometer/xpcc/src/xpcc/architecture/platform/cortex_m3/common/cxxabi.cpp **** {
 158              		.loc 1 85 0
 159              		.cfi_startproc
 160              		@ args = 0, pretend = 0, frame = 0
 161              		@ frame_needed = 0, uses_anonymous_args = 0
 162              	.LVL5:
 163 0000 08B5     		push	{r3, lr}
 164              	.LCFI1:
 165              		.cfi_def_cfa_offset 8
 166              		.cfi_offset 3, -8
 167              		.cfi_offset 14, -4
  86:/home/jonas/warwick/3dProfilometer/xpcc/src/xpcc/architecture/platform/cortex_m3/common/cxxabi.cpp **** 	return malloc(size);
 168              		.loc 1 86 0
 169 0002 014B     		ldr	r3, .L10
 170 0004 9847     		blx	r3
 171              	.LVL6:
  87:/home/jonas/warwick/3dProfilometer/xpcc/src/xpcc/architecture/platform/cortex_m3/common/cxxabi.cpp **** }
 172              		.loc 1 87 0
 173 0006 08BD     		pop	{r3, pc}
 174              	.L11:
 175              		.align	2
 176              	.L10:
 177 0008 00000000 		.word	malloc
 178              		.cfi_endproc
 179              	.LFE6:
 181              		.section	.text._ZdlPv,"ax",%progbits
 182              		.align	2
 183              		.global	_ZdlPv
 184              		.thumb
 185              		.thumb_func
 187              	_ZdlPv:
 188              	.LFB7:
  88:/home/jonas/warwick/3dProfilometer/xpcc/src/xpcc/architecture/platform/cortex_m3/common/cxxabi.cpp **** 
  89:/home/jonas/warwick/3dProfilometer/xpcc/src/xpcc/architecture/platform/cortex_m3/common/cxxabi.cpp **** void
  90:/home/jonas/warwick/3dProfilometer/xpcc/src/xpcc/architecture/platform/cortex_m3/common/cxxabi.cpp **** operator delete(void *p) throw ()
  91:/home/jonas/warwick/3dProfilometer/xpcc/src/xpcc/architecture/platform/cortex_m3/common/cxxabi.cpp **** {
 189              		.loc 1 91 0
 190              		.cfi_startproc
 191              		@ args = 0, pretend = 0, frame = 0
 192              		@ frame_needed = 0, uses_anonymous_args = 0
 193              	.LVL7:
 194 0000 08B5     		push	{r3, lr}
 195              	.LCFI2:
 196              		.cfi_def_cfa_offset 8
 197              		.cfi_offset 3, -8
 198              		.cfi_offset 14, -4
  92:/home/jonas/warwick/3dProfilometer/xpcc/src/xpcc/architecture/platform/cortex_m3/common/cxxabi.cpp **** 	free(p);
 199              		.loc 1 92 0
 200 0002 014B     		ldr	r3, .L13
 201 0004 9847     		blx	r3
 202              	.LVL8:
 203 0006 08BD     		pop	{r3, pc}
 204              	.L14:
 205              		.align	2
 206              	.L13:
 207 0008 00000000 		.word	free
 208              		.cfi_endproc
 209              	.LFE7:
 211              		.section	.text._ZdaPv,"ax",%progbits
 212              		.align	2
 213              		.global	_ZdaPv
 214              		.thumb
 215              		.thumb_func
 217              	_ZdaPv:
 218              	.LFB8:
  93:/home/jonas/warwick/3dProfilometer/xpcc/src/xpcc/architecture/platform/cortex_m3/common/cxxabi.cpp **** }
  94:/home/jonas/warwick/3dProfilometer/xpcc/src/xpcc/architecture/platform/cortex_m3/common/cxxabi.cpp **** 
  95:/home/jonas/warwick/3dProfilometer/xpcc/src/xpcc/architecture/platform/cortex_m3/common/cxxabi.cpp **** void
  96:/home/jonas/warwick/3dProfilometer/xpcc/src/xpcc/architecture/platform/cortex_m3/common/cxxabi.cpp **** operator delete[](void* p) throw ()
  97:/home/jonas/warwick/3dProfilometer/xpcc/src/xpcc/architecture/platform/cortex_m3/common/cxxabi.cpp **** {
 219              		.loc 1 97 0
 220              		.cfi_startproc
 221              		@ args = 0, pretend = 0, frame = 0
 222              		@ frame_needed = 0, uses_anonymous_args = 0
 223              	.LVL9:
 224 0000 08B5     		push	{r3, lr}
 225              	.LCFI3:
 226              		.cfi_def_cfa_offset 8
 227              		.cfi_offset 3, -8
 228              		.cfi_offset 14, -4
  98:/home/jonas/warwick/3dProfilometer/xpcc/src/xpcc/architecture/platform/cortex_m3/common/cxxabi.cpp **** 	free(p);
 229              		.loc 1 98 0
 230 0002 014B     		ldr	r3, .L16
 231 0004 9847     		blx	r3
 232              	.LVL10:
 233 0006 08BD     		pop	{r3, pc}
 234              	.L17:
 235              		.align	2
 236              	.L16:
 237 0008 00000000 		.word	free
 238              		.cfi_endproc
 239              	.LFE8:
 241              		.global	__dso_handle
 242              		.section	.data.__dso_handle,"aw",%progbits
 243              		.align	2
 246              	__dso_handle:
 247 0000 00000000 		.word	__dso_handle
 248              		.text
 249              	.Letext0:
 250              		.file 2 "/opt/arm-2012.09/bin/../lib/gcc/arm-none-eabi/4.7.2/include/stddef.h"