   1              		.syntax unified
   2              		.cpu cortex-m4
   3              		.eabi_attribute 27, 3
   4              		.fpu fpv4-sp-d16
   5              		.eabi_attribute 20, 1
   6              		.eabi_attribute 21, 1
   7              		.eabi_attribute 23, 3
   8              		.eabi_attribute 24, 1
   9              		.eabi_attribute 25, 1
  10              		.eabi_attribute 26, 1
  11              		.eabi_attribute 30, 2
  12              		.eabi_attribute 34, 1
  13              		.eabi_attribute 18, 4
  14              		.thumb
  15              		.file	"syscalls.cpp"
  16              		.text
  17              	.Ltext0:
  18              		.cfi_sections	.debug_frame
  19              		.section	.text.abort,"ax",%progbits
  20              		.align	2
  21              		.global	abort
  22              		.thumb
  23              		.thumb_func
  25              	abort:
  26              	.LFB0:
  27              		.file 1 "/home/jonas/warwick/3dProfilometer/xpcc/src/xpcc/architecture/platform/cortex_m3/common/s
   1:/home/jonas/warwick/3dProfilometer/xpcc/src/xpcc/architecture/platform/cortex_m3/common/syscalls.cpp **** // coding: utf-8
   2:/home/jonas/warwick/3dProfilometer/xpcc/src/xpcc/architecture/platform/cortex_m3/common/syscalls.cpp **** // ----------------------------------------------------------------------------
   3:/home/jonas/warwick/3dProfilometer/xpcc/src/xpcc/architecture/platform/cortex_m3/common/syscalls.cpp **** /* Copyright (c) 2010, Roboterclub Aachen e.V.
   4:/home/jonas/warwick/3dProfilometer/xpcc/src/xpcc/architecture/platform/cortex_m3/common/syscalls.cpp ****  * All rights reserved.
   5:/home/jonas/warwick/3dProfilometer/xpcc/src/xpcc/architecture/platform/cortex_m3/common/syscalls.cpp ****  *
   6:/home/jonas/warwick/3dProfilometer/xpcc/src/xpcc/architecture/platform/cortex_m3/common/syscalls.cpp ****  * Redistribution and use in source and binary forms, with or without
   7:/home/jonas/warwick/3dProfilometer/xpcc/src/xpcc/architecture/platform/cortex_m3/common/syscalls.cpp ****  * modification, are permitted provided that the following conditions are met:
   8:/home/jonas/warwick/3dProfilometer/xpcc/src/xpcc/architecture/platform/cortex_m3/common/syscalls.cpp ****  *
   9:/home/jonas/warwick/3dProfilometer/xpcc/src/xpcc/architecture/platform/cortex_m3/common/syscalls.cpp ****  *     * Redistributions of source code must retain the above copyright
  10:/home/jonas/warwick/3dProfilometer/xpcc/src/xpcc/architecture/platform/cortex_m3/common/syscalls.cpp ****  *       notice, this list of conditions and the following disclaimer.
  11:/home/jonas/warwick/3dProfilometer/xpcc/src/xpcc/architecture/platform/cortex_m3/common/syscalls.cpp ****  *     * Redistributions in binary form must reproduce the above copyright
  12:/home/jonas/warwick/3dProfilometer/xpcc/src/xpcc/architecture/platform/cortex_m3/common/syscalls.cpp ****  *       notice, this list of conditions and the following disclaimer in the
  13:/home/jonas/warwick/3dProfilometer/xpcc/src/xpcc/architecture/platform/cortex_m3/common/syscalls.cpp ****  *       documentation and/or other materials provided with the distribution.
  14:/home/jonas/warwick/3dProfilometer/xpcc/src/xpcc/architecture/platform/cortex_m3/common/syscalls.cpp ****  *     * Neither the name of the Roboterclub Aachen e.V. nor the
  15:/home/jonas/warwick/3dProfilometer/xpcc/src/xpcc/architecture/platform/cortex_m3/common/syscalls.cpp ****  *       names of its contributors may be used to endorse or promote products
  16:/home/jonas/warwick/3dProfilometer/xpcc/src/xpcc/architecture/platform/cortex_m3/common/syscalls.cpp ****  *       derived from this software without specific prior written permission.
  17:/home/jonas/warwick/3dProfilometer/xpcc/src/xpcc/architecture/platform/cortex_m3/common/syscalls.cpp ****  *
  18:/home/jonas/warwick/3dProfilometer/xpcc/src/xpcc/architecture/platform/cortex_m3/common/syscalls.cpp ****  * THIS SOFTWARE IS PROVIDED BY ROBOTERCLUB AACHEN E.V. ''AS IS'' AND ANY
  19:/home/jonas/warwick/3dProfilometer/xpcc/src/xpcc/architecture/platform/cortex_m3/common/syscalls.cpp ****  * EXPRESS OR IMPLIED WARRANTIES, INCLUDING, BUT NOT LIMITED TO, THE IMPLIED
  20:/home/jonas/warwick/3dProfilometer/xpcc/src/xpcc/architecture/platform/cortex_m3/common/syscalls.cpp ****  * WARRANTIES OF MERCHANTABILITY AND FITNESS FOR A PARTICULAR PURPOSE ARE
  21:/home/jonas/warwick/3dProfilometer/xpcc/src/xpcc/architecture/platform/cortex_m3/common/syscalls.cpp ****  * DISCLAIMED. IN NO EVENT SHALL ROBOTERCLUB AACHEN E.V. BE LIABLE FOR ANY
  22:/home/jonas/warwick/3dProfilometer/xpcc/src/xpcc/architecture/platform/cortex_m3/common/syscalls.cpp ****  * DIRECT, INDIRECT, INCIDENTAL, SPECIAL, EXEMPLARY, OR CONSEQUENTIAL DAMAGES
  23:/home/jonas/warwick/3dProfilometer/xpcc/src/xpcc/architecture/platform/cortex_m3/common/syscalls.cpp ****  * (INCLUDING, BUT NOT LIMITED TO, PROCUREMENT OF SUBSTITUTE GOODS OR SERVICES;
  24:/home/jonas/warwick/3dProfilometer/xpcc/src/xpcc/architecture/platform/cortex_m3/common/syscalls.cpp ****  * LOSS OF USE, DATA, OR PROFITS; OR BUSINESS INTERRUPTION) HOWEVER CAUSED AND
  25:/home/jonas/warwick/3dProfilometer/xpcc/src/xpcc/architecture/platform/cortex_m3/common/syscalls.cpp ****  * ON ANY THEORY OF LIABILITY, WHETHER IN CONTRACT, STRICT LIABILITY, OR TORT
  26:/home/jonas/warwick/3dProfilometer/xpcc/src/xpcc/architecture/platform/cortex_m3/common/syscalls.cpp ****  * (INCLUDING NEGLIGENCE OR OTHERWISE) ARISING IN ANY WAY OUT OF THE USE OF
  27:/home/jonas/warwick/3dProfilometer/xpcc/src/xpcc/architecture/platform/cortex_m3/common/syscalls.cpp ****  * THIS SOFTWARE, EVEN IF ADVISED OF THE POSSIBILITY OF SUCH DAMAGE.
  28:/home/jonas/warwick/3dProfilometer/xpcc/src/xpcc/architecture/platform/cortex_m3/common/syscalls.cpp ****  */
  29:/home/jonas/warwick/3dProfilometer/xpcc/src/xpcc/architecture/platform/cortex_m3/common/syscalls.cpp **** // ----------------------------------------------------------------------------
  30:/home/jonas/warwick/3dProfilometer/xpcc/src/xpcc/architecture/platform/cortex_m3/common/syscalls.cpp **** /**
  31:/home/jonas/warwick/3dProfilometer/xpcc/src/xpcc/architecture/platform/cortex_m3/common/syscalls.cpp ****  * @file	syscalls.cpp
  32:/home/jonas/warwick/3dProfilometer/xpcc/src/xpcc/architecture/platform/cortex_m3/common/syscalls.cpp ****  * @brief	Stubs for newlib
  33:/home/jonas/warwick/3dProfilometer/xpcc/src/xpcc/architecture/platform/cortex_m3/common/syscalls.cpp ****  * 
  34:/home/jonas/warwick/3dProfilometer/xpcc/src/xpcc/architecture/platform/cortex_m3/common/syscalls.cpp ****  * Except for _sbrk_r() (which is needed for malloc()) all these stubs are
  35:/home/jonas/warwick/3dProfilometer/xpcc/src/xpcc/architecture/platform/cortex_m3/common/syscalls.cpp ****  * only dummy functions which don't do anything useful.
  36:/home/jonas/warwick/3dProfilometer/xpcc/src/xpcc/architecture/platform/cortex_m3/common/syscalls.cpp ****  * 
  37:/home/jonas/warwick/3dProfilometer/xpcc/src/xpcc/architecture/platform/cortex_m3/common/syscalls.cpp ****  * _exit() and exit() are defined in the file "startup.S". They are marked
  38:/home/jonas/warwick/3dProfilometer/xpcc/src/xpcc/architecture/platform/cortex_m3/common/syscalls.cpp ****  * as weak references, so they can be easily overwritten by user code.
  39:/home/jonas/warwick/3dProfilometer/xpcc/src/xpcc/architecture/platform/cortex_m3/common/syscalls.cpp ****  */
  40:/home/jonas/warwick/3dProfilometer/xpcc/src/xpcc/architecture/platform/cortex_m3/common/syscalls.cpp **** // ----------------------------------------------------------------------------
  41:/home/jonas/warwick/3dProfilometer/xpcc/src/xpcc/architecture/platform/cortex_m3/common/syscalls.cpp **** 
  42:/home/jonas/warwick/3dProfilometer/xpcc/src/xpcc/architecture/platform/cortex_m3/common/syscalls.cpp **** #include <stdlib.h>
  43:/home/jonas/warwick/3dProfilometer/xpcc/src/xpcc/architecture/platform/cortex_m3/common/syscalls.cpp **** #include <stdint.h>
  44:/home/jonas/warwick/3dProfilometer/xpcc/src/xpcc/architecture/platform/cortex_m3/common/syscalls.cpp **** 
  45:/home/jonas/warwick/3dProfilometer/xpcc/src/xpcc/architecture/platform/cortex_m3/common/syscalls.cpp **** #include <reent.h>
  46:/home/jonas/warwick/3dProfilometer/xpcc/src/xpcc/architecture/platform/cortex_m3/common/syscalls.cpp **** #include <sys/stat.h>
  47:/home/jonas/warwick/3dProfilometer/xpcc/src/xpcc/architecture/platform/cortex_m3/common/syscalls.cpp **** 
  48:/home/jonas/warwick/3dProfilometer/xpcc/src/xpcc/architecture/platform/cortex_m3/common/syscalls.cpp **** // ----------------------------------------------------------------------------
  49:/home/jonas/warwick/3dProfilometer/xpcc/src/xpcc/architecture/platform/cortex_m3/common/syscalls.cpp **** // __heap_start is set in the linker command file and is the end of
  50:/home/jonas/warwick/3dProfilometer/xpcc/src/xpcc/architecture/platform/cortex_m3/common/syscalls.cpp **** // statically allocated data (thus start of heap).
  51:/home/jonas/warwick/3dProfilometer/xpcc/src/xpcc/architecture/platform/cortex_m3/common/syscalls.cpp **** 
  52:/home/jonas/warwick/3dProfilometer/xpcc/src/xpcc/architecture/platform/cortex_m3/common/syscalls.cpp **** extern uint8_t __heap_start;
  53:/home/jonas/warwick/3dProfilometer/xpcc/src/xpcc/architecture/platform/cortex_m3/common/syscalls.cpp **** extern uint8_t __heap_end;
  54:/home/jonas/warwick/3dProfilometer/xpcc/src/xpcc/architecture/platform/cortex_m3/common/syscalls.cpp **** uint8_t *__brkval = &__heap_start;		// Points to current end of the heap
  55:/home/jonas/warwick/3dProfilometer/xpcc/src/xpcc/architecture/platform/cortex_m3/common/syscalls.cpp **** 
  56:/home/jonas/warwick/3dProfilometer/xpcc/src/xpcc/architecture/platform/cortex_m3/common/syscalls.cpp **** // ----------------------------------------------------------------------------
  57:/home/jonas/warwick/3dProfilometer/xpcc/src/xpcc/architecture/platform/cortex_m3/common/syscalls.cpp **** /*
  58:/home/jonas/warwick/3dProfilometer/xpcc/src/xpcc/architecture/platform/cortex_m3/common/syscalls.cpp ****  * @brief	Simple abort implementation
  59:/home/jonas/warwick/3dProfilometer/xpcc/src/xpcc/architecture/platform/cortex_m3/common/syscalls.cpp ****  * 
  60:/home/jonas/warwick/3dProfilometer/xpcc/src/xpcc/architecture/platform/cortex_m3/common/syscalls.cpp ****  * Does nothing except starting a infinite loop
  61:/home/jonas/warwick/3dProfilometer/xpcc/src/xpcc/architecture/platform/cortex_m3/common/syscalls.cpp ****  */ 
  62:/home/jonas/warwick/3dProfilometer/xpcc/src/xpcc/architecture/platform/cortex_m3/common/syscalls.cpp **** extern "C"
  63:/home/jonas/warwick/3dProfilometer/xpcc/src/xpcc/architecture/platform/cortex_m3/common/syscalls.cpp **** void
  64:/home/jonas/warwick/3dProfilometer/xpcc/src/xpcc/architecture/platform/cortex_m3/common/syscalls.cpp **** abort(void)
  65:/home/jonas/warwick/3dProfilometer/xpcc/src/xpcc/architecture/platform/cortex_m3/common/syscalls.cpp **** {
  28              		.loc 1 65 0
  29              		.cfi_startproc
  30              		@ Volatile: function does not return.
  31              		@ args = 0, pretend = 0, frame = 0
  32              		@ frame_needed = 0, uses_anonymous_args = 0
  33              		@ link register save eliminated.
  34              	.L2:
  35 0000 FEE7     		b	.L2
  36              		.cfi_endproc
  37              	.LFE0:
  39 0002 00BF     		.section	.text._open_r,"ax",%progbits
  40              		.align	2
  41              		.global	_open_r
  42              		.thumb
  43              		.thumb_func
  45              	_open_r:
  46              	.LFB1:
  66:/home/jonas/warwick/3dProfilometer/xpcc/src/xpcc/architecture/platform/cortex_m3/common/syscalls.cpp **** 	while(1) {
  67:/home/jonas/warwick/3dProfilometer/xpcc/src/xpcc/architecture/platform/cortex_m3/common/syscalls.cpp **** 		// do nothing
  68:/home/jonas/warwick/3dProfilometer/xpcc/src/xpcc/architecture/platform/cortex_m3/common/syscalls.cpp **** 	}
  69:/home/jonas/warwick/3dProfilometer/xpcc/src/xpcc/architecture/platform/cortex_m3/common/syscalls.cpp **** }
  70:/home/jonas/warwick/3dProfilometer/xpcc/src/xpcc/architecture/platform/cortex_m3/common/syscalls.cpp **** 
  71:/home/jonas/warwick/3dProfilometer/xpcc/src/xpcc/architecture/platform/cortex_m3/common/syscalls.cpp **** // ----------------------------------------------------------------------------
  72:/home/jonas/warwick/3dProfilometer/xpcc/src/xpcc/architecture/platform/cortex_m3/common/syscalls.cpp **** extern "C"
  73:/home/jonas/warwick/3dProfilometer/xpcc/src/xpcc/architecture/platform/cortex_m3/common/syscalls.cpp **** int
  74:/home/jonas/warwick/3dProfilometer/xpcc/src/xpcc/architecture/platform/cortex_m3/common/syscalls.cpp **** _open_r(struct _reent */*r*/, const char */*name*/, int /*flags*/, int /*mode*/)
  75:/home/jonas/warwick/3dProfilometer/xpcc/src/xpcc/architecture/platform/cortex_m3/common/syscalls.cpp **** {
  47              		.loc 1 75 0
  48              		.cfi_startproc
  49              		@ args = 0, pretend = 0, frame = 0
  50              		@ frame_needed = 0, uses_anonymous_args = 0
  51              		@ link register save eliminated.
  76:/home/jonas/warwick/3dProfilometer/xpcc/src/xpcc/architecture/platform/cortex_m3/common/syscalls.cpp **** 	return -1;
  77:/home/jonas/warwick/3dProfilometer/xpcc/src/xpcc/architecture/platform/cortex_m3/common/syscalls.cpp **** }
  52              		.loc 1 77 0
  53 0000 4FF0FF30 		mov	r0, #-1
  54 0004 7047     		bx	lr
  55              		.cfi_endproc
  56              	.LFE1:
  58 0006 00BF     		.section	.text._read_r,"ax",%progbits
  59              		.align	2
  60              		.global	_read_r
  61              		.thumb
  62              		.thumb_func
  64              	_read_r:
  65              	.LFB2:
  78:/home/jonas/warwick/3dProfilometer/xpcc/src/xpcc/architecture/platform/cortex_m3/common/syscalls.cpp **** 
  79:/home/jonas/warwick/3dProfilometer/xpcc/src/xpcc/architecture/platform/cortex_m3/common/syscalls.cpp **** extern "C"
  80:/home/jonas/warwick/3dProfilometer/xpcc/src/xpcc/architecture/platform/cortex_m3/common/syscalls.cpp **** _ssize_t
  81:/home/jonas/warwick/3dProfilometer/xpcc/src/xpcc/architecture/platform/cortex_m3/common/syscalls.cpp **** _read_r(struct _reent */*r*/, int /*file*/, void */*ptr*/, size_t /*len*/)
  82:/home/jonas/warwick/3dProfilometer/xpcc/src/xpcc/architecture/platform/cortex_m3/common/syscalls.cpp **** {
  66              		.loc 1 82 0
  67              		.cfi_startproc
  68              		@ args = 0, pretend = 0, frame = 0
  69              		@ frame_needed = 0, uses_anonymous_args = 0
  70              		@ link register save eliminated.
  83:/home/jonas/warwick/3dProfilometer/xpcc/src/xpcc/architecture/platform/cortex_m3/common/syscalls.cpp **** 	return 0;
  84:/home/jonas/warwick/3dProfilometer/xpcc/src/xpcc/architecture/platform/cortex_m3/common/syscalls.cpp **** }
  71              		.loc 1 84 0
  72 0000 0020     		movs	r0, #0
  73 0002 7047     		bx	lr
  74              		.cfi_endproc
  75              	.LFE2:
  77              		.section	.text._write_r,"ax",%progbits
  78              		.align	2
  79              		.global	_write_r
  80              		.thumb
  81              		.thumb_func
  83              	_write_r:
  84              	.LFB3:
  85:/home/jonas/warwick/3dProfilometer/xpcc/src/xpcc/architecture/platform/cortex_m3/common/syscalls.cpp **** 
  86:/home/jonas/warwick/3dProfilometer/xpcc/src/xpcc/architecture/platform/cortex_m3/common/syscalls.cpp **** extern "C"
  87:/home/jonas/warwick/3dProfilometer/xpcc/src/xpcc/architecture/platform/cortex_m3/common/syscalls.cpp **** _ssize_t
  88:/home/jonas/warwick/3dProfilometer/xpcc/src/xpcc/architecture/platform/cortex_m3/common/syscalls.cpp **** _write_r(struct _reent */*r*/, int /*file*/, const void */*ptr*/, size_t /*len*/)
  89:/home/jonas/warwick/3dProfilometer/xpcc/src/xpcc/architecture/platform/cortex_m3/common/syscalls.cpp **** {
  85              		.loc 1 89 0
  86              		.cfi_startproc
  87              		@ args = 0, pretend = 0, frame = 0
  88              		@ frame_needed = 0, uses_anonymous_args = 0
  89              		@ link register save eliminated.
  90:/home/jonas/warwick/3dProfilometer/xpcc/src/xpcc/architecture/platform/cortex_m3/common/syscalls.cpp **** 	return 0;
  91:/home/jonas/warwick/3dProfilometer/xpcc/src/xpcc/architecture/platform/cortex_m3/common/syscalls.cpp **** }
  90              		.loc 1 91 0
  91 0000 0020     		movs	r0, #0
  92 0002 7047     		bx	lr
  93              		.cfi_endproc
  94              	.LFE3:
  96              		.section	.text._close_r,"ax",%progbits
  97              		.align	2
  98              		.global	_close_r
  99              		.thumb
 100              		.thumb_func
 102              	_close_r:
 103              	.LFB4:
  92:/home/jonas/warwick/3dProfilometer/xpcc/src/xpcc/architecture/platform/cortex_m3/common/syscalls.cpp **** 
  93:/home/jonas/warwick/3dProfilometer/xpcc/src/xpcc/architecture/platform/cortex_m3/common/syscalls.cpp **** extern "C"
  94:/home/jonas/warwick/3dProfilometer/xpcc/src/xpcc/architecture/platform/cortex_m3/common/syscalls.cpp **** int
  95:/home/jonas/warwick/3dProfilometer/xpcc/src/xpcc/architecture/platform/cortex_m3/common/syscalls.cpp **** _close_r(struct _reent */*r*/, int /*file*/)
  96:/home/jonas/warwick/3dProfilometer/xpcc/src/xpcc/architecture/platform/cortex_m3/common/syscalls.cpp **** {
 104              		.loc 1 96 0
 105              		.cfi_startproc
 106              		@ args = 0, pretend = 0, frame = 0
 107              		@ frame_needed = 0, uses_anonymous_args = 0
 108              		@ link register save eliminated.
  97:/home/jonas/warwick/3dProfilometer/xpcc/src/xpcc/architecture/platform/cortex_m3/common/syscalls.cpp **** 	return 0;
  98:/home/jonas/warwick/3dProfilometer/xpcc/src/xpcc/architecture/platform/cortex_m3/common/syscalls.cpp **** }
 109              		.loc 1 98 0
 110 0000 0020     		movs	r0, #0
 111 0002 7047     		bx	lr
 112              		.cfi_endproc
 113              	.LFE4:
 115              		.section	.text._lseek_r,"ax",%progbits
 116              		.align	2
 117              		.global	_lseek_r
 118              		.thumb
 119              		.thumb_func
 121              	_lseek_r:
 122              	.LFB5:
  99:/home/jonas/warwick/3dProfilometer/xpcc/src/xpcc/architecture/platform/cortex_m3/common/syscalls.cpp **** 
 100:/home/jonas/warwick/3dProfilometer/xpcc/src/xpcc/architecture/platform/cortex_m3/common/syscalls.cpp **** // ----------------------------------------------------------------------------
 101:/home/jonas/warwick/3dProfilometer/xpcc/src/xpcc/architecture/platform/cortex_m3/common/syscalls.cpp **** extern "C"
 102:/home/jonas/warwick/3dProfilometer/xpcc/src/xpcc/architecture/platform/cortex_m3/common/syscalls.cpp **** _off_t
 103:/home/jonas/warwick/3dProfilometer/xpcc/src/xpcc/architecture/platform/cortex_m3/common/syscalls.cpp **** _lseek_r(struct _reent */*r*/, int /*file*/, _off_t /*ptr*/, int /*dir*/)
 104:/home/jonas/warwick/3dProfilometer/xpcc/src/xpcc/architecture/platform/cortex_m3/common/syscalls.cpp **** {
 123              		.loc 1 104 0
 124              		.cfi_startproc
 125              		@ args = 0, pretend = 0, frame = 0
 126              		@ frame_needed = 0, uses_anonymous_args = 0
 127              		@ link register save eliminated.
 105:/home/jonas/warwick/3dProfilometer/xpcc/src/xpcc/architecture/platform/cortex_m3/common/syscalls.cpp **** 	return (_off_t) 0;		// Always indicate we are at file beginning.
 106:/home/jonas/warwick/3dProfilometer/xpcc/src/xpcc/architecture/platform/cortex_m3/common/syscalls.cpp **** }
 128              		.loc 1 106 0
 129 0000 0020     		movs	r0, #0
 130 0002 7047     		bx	lr
 131              		.cfi_endproc
 132              	.LFE5:
 134              		.section	.text._fstat_r,"ax",%progbits
 135              		.align	2
 136              		.global	_fstat_r
 137              		.thumb
 138              		.thumb_func
 140              	_fstat_r:
 141              	.LFB6:
 107:/home/jonas/warwick/3dProfilometer/xpcc/src/xpcc/architecture/platform/cortex_m3/common/syscalls.cpp **** 
 108:/home/jonas/warwick/3dProfilometer/xpcc/src/xpcc/architecture/platform/cortex_m3/common/syscalls.cpp **** // ----------------------------------------------------------------------------
 109:/home/jonas/warwick/3dProfilometer/xpcc/src/xpcc/architecture/platform/cortex_m3/common/syscalls.cpp **** extern "C"
 110:/home/jonas/warwick/3dProfilometer/xpcc/src/xpcc/architecture/platform/cortex_m3/common/syscalls.cpp **** int
 111:/home/jonas/warwick/3dProfilometer/xpcc/src/xpcc/architecture/platform/cortex_m3/common/syscalls.cpp **** _fstat_r(struct _reent */*r*/, int /*file*/, struct stat *st)
 112:/home/jonas/warwick/3dProfilometer/xpcc/src/xpcc/architecture/platform/cortex_m3/common/syscalls.cpp **** {
 142              		.loc 1 112 0
 143              		.cfi_startproc
 144              		@ args = 0, pretend = 0, frame = 0
 145              		@ frame_needed = 0, uses_anonymous_args = 0
 146              		@ link register save eliminated.
 147              	.LVL0:
 113:/home/jonas/warwick/3dProfilometer/xpcc/src/xpcc/architecture/platform/cortex_m3/common/syscalls.cpp **** 	st->st_mode = S_IFCHR;	// Always set as character device.
 148              		.loc 1 113 0
 149 0000 4FF40053 		mov	r3, #8192
 150 0004 5360     		str	r3, [r2, #4]
 114:/home/jonas/warwick/3dProfilometer/xpcc/src/xpcc/architecture/platform/cortex_m3/common/syscalls.cpp **** 	return 0;
 115:/home/jonas/warwick/3dProfilometer/xpcc/src/xpcc/architecture/platform/cortex_m3/common/syscalls.cpp **** }
 151              		.loc 1 115 0
 152 0006 0020     		movs	r0, #0
 153 0008 7047     		bx	lr
 154              		.cfi_endproc
 155              	.LFE6:
 157 000a 00BF     		.section	.text._isatty,"ax",%progbits
 158              		.align	2
 159              		.global	_isatty
 160              		.thumb
 161              		.thumb_func
 163              	_isatty:
 164              	.LFB7:
 116:/home/jonas/warwick/3dProfilometer/xpcc/src/xpcc/architecture/platform/cortex_m3/common/syscalls.cpp **** 
 117:/home/jonas/warwick/3dProfilometer/xpcc/src/xpcc/architecture/platform/cortex_m3/common/syscalls.cpp **** // ----------------------------------------------------------------------------
 118:/home/jonas/warwick/3dProfilometer/xpcc/src/xpcc/architecture/platform/cortex_m3/common/syscalls.cpp **** extern "C"
 119:/home/jonas/warwick/3dProfilometer/xpcc/src/xpcc/architecture/platform/cortex_m3/common/syscalls.cpp **** int
 120:/home/jonas/warwick/3dProfilometer/xpcc/src/xpcc/architecture/platform/cortex_m3/common/syscalls.cpp **** _isatty(int /*file*/)
 121:/home/jonas/warwick/3dProfilometer/xpcc/src/xpcc/architecture/platform/cortex_m3/common/syscalls.cpp **** {
 165              		.loc 1 121 0
 166              		.cfi_startproc
 167              		@ args = 0, pretend = 0, frame = 0
 168              		@ frame_needed = 0, uses_anonymous_args = 0
 169              		@ link register save eliminated.
 122:/home/jonas/warwick/3dProfilometer/xpcc/src/xpcc/architecture/platform/cortex_m3/common/syscalls.cpp **** 	return 1;
 123:/home/jonas/warwick/3dProfilometer/xpcc/src/xpcc/architecture/platform/cortex_m3/common/syscalls.cpp **** }
 170              		.loc 1 123 0
 171 0000 0120     		movs	r0, #1
 172 0002 7047     		bx	lr
 173              		.cfi_endproc
 174              	.LFE7:
 176              		.section	.text._sbrk_r,"ax",%progbits
 177              		.align	2
 178              		.global	_sbrk_r
 179              		.thumb
 180              		.thumb_func
 182              	_sbrk_r:
 183              	.LFB8:
 124:/home/jonas/warwick/3dProfilometer/xpcc/src/xpcc/architecture/platform/cortex_m3/common/syscalls.cpp **** 
 125:/home/jonas/warwick/3dProfilometer/xpcc/src/xpcc/architecture/platform/cortex_m3/common/syscalls.cpp **** // ----------------------------------------------------------------------------
 126:/home/jonas/warwick/3dProfilometer/xpcc/src/xpcc/architecture/platform/cortex_m3/common/syscalls.cpp **** /* Support function. Adjusts end of heap to provide more memory to
 127:/home/jonas/warwick/3dProfilometer/xpcc/src/xpcc/architecture/platform/cortex_m3/common/syscalls.cpp ****  * memory allocator. Simple and dumb with no sanity checks.
 128:/home/jonas/warwick/3dProfilometer/xpcc/src/xpcc/architecture/platform/cortex_m3/common/syscalls.cpp ****  * 
 129:/home/jonas/warwick/3dProfilometer/xpcc/src/xpcc/architecture/platform/cortex_m3/common/syscalls.cpp ****  *  struct _reent *r -- re-entrancy structure, used by newlib to
 130:/home/jonas/warwick/3dProfilometer/xpcc/src/xpcc/architecture/platform/cortex_m3/common/syscalls.cpp ****  *                      support multiple threads of operation.
 131:/home/jonas/warwick/3dProfilometer/xpcc/src/xpcc/architecture/platform/cortex_m3/common/syscalls.cpp ****  *  ptrdiff_t size   -- number of bytes to add.
 132:/home/jonas/warwick/3dProfilometer/xpcc/src/xpcc/architecture/platform/cortex_m3/common/syscalls.cpp ****  *                      Returns pointer to start of new heap area.
 133:/home/jonas/warwick/3dProfilometer/xpcc/src/xpcc/architecture/platform/cortex_m3/common/syscalls.cpp ****  *
 134:/home/jonas/warwick/3dProfilometer/xpcc/src/xpcc/architecture/platform/cortex_m3/common/syscalls.cpp ****  *  Note:  This implementation is not thread safe (despite taking a
 135:/home/jonas/warwick/3dProfilometer/xpcc/src/xpcc/architecture/platform/cortex_m3/common/syscalls.cpp ****  *         _reent structure as a parameter).
 136:/home/jonas/warwick/3dProfilometer/xpcc/src/xpcc/architecture/platform/cortex_m3/common/syscalls.cpp ****  *         Since the _reent struct is not used in the current implementation, 
 137:/home/jonas/warwick/3dProfilometer/xpcc/src/xpcc/architecture/platform/cortex_m3/common/syscalls.cpp ****  *         the following messages must be suppressed.
 138:/home/jonas/warwick/3dProfilometer/xpcc/src/xpcc/architecture/platform/cortex_m3/common/syscalls.cpp ****  */
 139:/home/jonas/warwick/3dProfilometer/xpcc/src/xpcc/architecture/platform/cortex_m3/common/syscalls.cpp **** extern "C"
 140:/home/jonas/warwick/3dProfilometer/xpcc/src/xpcc/architecture/platform/cortex_m3/common/syscalls.cpp **** void *
 141:/home/jonas/warwick/3dProfilometer/xpcc/src/xpcc/architecture/platform/cortex_m3/common/syscalls.cpp **** _sbrk_r(struct _reent *,  ptrdiff_t size)
 142:/home/jonas/warwick/3dProfilometer/xpcc/src/xpcc/architecture/platform/cortex_m3/common/syscalls.cpp **** {
 184              		.loc 1 142 0
 185              		.cfi_startproc
 186              		@ args = 0, pretend = 0, frame = 0
 187              		@ frame_needed = 0, uses_anonymous_args = 0
 188              		@ link register save eliminated.
 189              	.LVL1:
 190              	.LBB5:
 143:/home/jonas/warwick/3dProfilometer/xpcc/src/xpcc/architecture/platform/cortex_m3/common/syscalls.cpp **** 	// move heap pointer
 144:/home/jonas/warwick/3dProfilometer/xpcc/src/xpcc/architecture/platform/cortex_m3/common/syscalls.cpp **** 	uint8_t *heap = __brkval;
 191              		.loc 1 144 0
 192 0000 044B     		ldr	r3, .L15
 193 0002 1868     		ldr	r0, [r3, #0]
 194              	.LVL2:
 145:/home/jonas/warwick/3dProfilometer/xpcc/src/xpcc/architecture/platform/cortex_m3/common/syscalls.cpp **** 	__brkval += size;
 195              		.loc 1 145 0
 196 0004 4118     		adds	r1, r0, r1
 197              	.LVL3:
 198 0006 1960     		str	r1, [r3, #0]
 146:/home/jonas/warwick/3dProfilometer/xpcc/src/xpcc/architecture/platform/cortex_m3/common/syscalls.cpp **** 	
 147:/home/jonas/warwick/3dProfilometer/xpcc/src/xpcc/architecture/platform/cortex_m3/common/syscalls.cpp **** 	if (__brkval >= &__heap_end) {
 199              		.loc 1 147 0
 200 0008 034B     		ldr	r3, .L15+4
 201 000a 9942     		cmp	r1, r3
 202 000c 00D3     		bcc	.L11
 203              	.L13:
 204 000e FEE7     		b	.L13
 205              	.L11:
 206              	.LBE5:
 148:/home/jonas/warwick/3dProfilometer/xpcc/src/xpcc/architecture/platform/cortex_m3/common/syscalls.cpp **** 		// ERROR: heap and stack collision!
 149:/home/jonas/warwick/3dProfilometer/xpcc/src/xpcc/architecture/platform/cortex_m3/common/syscalls.cpp **** 		abort();
 150:/home/jonas/warwick/3dProfilometer/xpcc/src/xpcc/architecture/platform/cortex_m3/common/syscalls.cpp **** 	}
 151:/home/jonas/warwick/3dProfilometer/xpcc/src/xpcc/architecture/platform/cortex_m3/common/syscalls.cpp **** 	
 152:/home/jonas/warwick/3dProfilometer/xpcc/src/xpcc/architecture/platform/cortex_m3/common/syscalls.cpp **** 	//  Return pointer to start of new heap area.
 153:/home/jonas/warwick/3dProfilometer/xpcc/src/xpcc/architecture/platform/cortex_m3/common/syscalls.cpp **** 	return heap;
 154:/home/jonas/warwick/3dProfilometer/xpcc/src/xpcc/architecture/platform/cortex_m3/common/syscalls.cpp **** }
 207              		.loc 1 154 0
 208 0010 7047     		bx	lr
 209              	.L16:
 210 0012 00BF     		.align	2
 211              	.L15:
 212 0014 00000000 		.word	.LANCHOR0
 213 0018 00000000 		.word	__heap_end
 214              		.cfi_endproc
 215              	.LFE8:
 217              		.global	__brkval
 218              		.section	.data.__brkval,"aw",%progbits
 219              		.align	2
 220              		.set	.LANCHOR0,. + 0
 223              	__brkval:
 224 0000 00000000 		.word	__heap_start
 225              		.text
 226              	.Letext0:
 227              		.file 2 "/opt/arm-2012.09/bin/../lib/gcc/arm-none-eabi/4.7.2/include/stddef.h"
 228              		.file 3 "/opt/arm-2012.09/bin/../lib/gcc/arm-none-eabi/4.7.2/../../../../arm-none-eabi/include/sys
 229              		.file 4 "/opt/arm-2012.09/bin/../lib/gcc/arm-none-eabi/4.7.2/../../../../arm-none-eabi/include/sys
 230              		.file 5 "/opt/arm-2012.09/bin/../lib/gcc/arm-none-eabi/4.7.2/../../../../arm-none-eabi/include/sys
 231              		.file 6 "/opt/arm-2012.09/bin/../lib/gcc/arm-none-eabi/4.7.2/../../../../arm-none-eabi/include/std
 232              		.file 7 "/opt/arm-2012.09/bin/../lib/gcc/arm-none-eabi/4.7.2/../../../../arm-none-eabi/include/sys
 233              		.file 8 "/opt/arm-2012.09/bin/../lib/gcc/arm-none-eabi/4.7.2/../../../../arm-none-eabi/include/sys