   1              		.syntax unified
   2              		.cpu cortex-m4
   3              		.eabi_attribute 27, 3
   4              		.fpu fpv4-sp-d16
   5              		.eabi_attribute 20, 1
   6              		.eabi_attribute 21, 1
   7              		.eabi_attribute 23, 3
   8              		.eabi_attribute 24, 1
   9              		.eabi_attribute 25, 1
  10              		.eabi_attribute 26, 1
  11              		.eabi_attribute 30, 2
  12              		.eabi_attribute 34, 1
  13              		.eabi_attribute 18, 4
  14              		.thumb
  15              		.file	"can_lawicel_formatter.cpp"
  16              		.text
  17              	.Ltext0:
  18              		.cfi_sections	.debug_frame
  19              		.section	.text._ZN4xpcc19CanLawicelFormatter19convertToCanMessageEPKcRNS_3can7MessageE,"ax",%progb
  20              		.align	2
  21              		.global	_ZN4xpcc19CanLawicelFormatter19convertToCanMessageEPKcRNS_3can7MessageE
  22              		.thumb
  23              		.thumb_func
  25              	_ZN4xpcc19CanLawicelFormatter19convertToCanMessageEPKcRNS_3can7MessageE:
  26              	.LFB18:
  27              		.file 1 "/home/jonas/warwick/3dProfilometer/xpcc/src/xpcc/driver/connectivity/can/can_lawicel_form
   1:/home/jonas/warwick/3dProfilometer/xpcc/src/xpcc/driver/connectivity/can/can_lawicel_formatter/can_lawicel_formatter.cpp **** // coding: utf-8
   2:/home/jonas/warwick/3dProfilometer/xpcc/src/xpcc/driver/connectivity/can/can_lawicel_formatter/can_lawicel_formatter.cpp **** // ----------------------------------------------------------------------------
   3:/home/jonas/warwick/3dProfilometer/xpcc/src/xpcc/driver/connectivity/can/can_lawicel_formatter/can_lawicel_formatter.cpp **** /* Copyright (c) 2011, Roboterclub Aachen e.V.
   4:/home/jonas/warwick/3dProfilometer/xpcc/src/xpcc/driver/connectivity/can/can_lawicel_formatter/can_lawicel_formatter.cpp ****  * All rights reserved.
   5:/home/jonas/warwick/3dProfilometer/xpcc/src/xpcc/driver/connectivity/can/can_lawicel_formatter/can_lawicel_formatter.cpp ****  * 
   6:/home/jonas/warwick/3dProfilometer/xpcc/src/xpcc/driver/connectivity/can/can_lawicel_formatter/can_lawicel_formatter.cpp ****  * Redistribution and use in source and binary forms, with or without
   7:/home/jonas/warwick/3dProfilometer/xpcc/src/xpcc/driver/connectivity/can/can_lawicel_formatter/can_lawicel_formatter.cpp ****  * modification, are permitted provided that the following conditions are met:
   8:/home/jonas/warwick/3dProfilometer/xpcc/src/xpcc/driver/connectivity/can/can_lawicel_formatter/can_lawicel_formatter.cpp ****  * 
   9:/home/jonas/warwick/3dProfilometer/xpcc/src/xpcc/driver/connectivity/can/can_lawicel_formatter/can_lawicel_formatter.cpp ****  *     * Redistributions of source code must retain the above copyright
  10:/home/jonas/warwick/3dProfilometer/xpcc/src/xpcc/driver/connectivity/can/can_lawicel_formatter/can_lawicel_formatter.cpp ****  *       notice, this list of conditions and the following disclaimer.
  11:/home/jonas/warwick/3dProfilometer/xpcc/src/xpcc/driver/connectivity/can/can_lawicel_formatter/can_lawicel_formatter.cpp ****  *     * Redistributions in binary form must reproduce the above copyright
  12:/home/jonas/warwick/3dProfilometer/xpcc/src/xpcc/driver/connectivity/can/can_lawicel_formatter/can_lawicel_formatter.cpp ****  *       notice, this list of conditions and the following disclaimer in the
  13:/home/jonas/warwick/3dProfilometer/xpcc/src/xpcc/driver/connectivity/can/can_lawicel_formatter/can_lawicel_formatter.cpp ****  *       documentation and/or other materials provided with the distribution.
  14:/home/jonas/warwick/3dProfilometer/xpcc/src/xpcc/driver/connectivity/can/can_lawicel_formatter/can_lawicel_formatter.cpp ****  *     * Neither the name of the Roboterclub Aachen e.V. nor the
  15:/home/jonas/warwick/3dProfilometer/xpcc/src/xpcc/driver/connectivity/can/can_lawicel_formatter/can_lawicel_formatter.cpp ****  *       names of its contributors may be used to endorse or promote products
  16:/home/jonas/warwick/3dProfilometer/xpcc/src/xpcc/driver/connectivity/can/can_lawicel_formatter/can_lawicel_formatter.cpp ****  *       derived from this software without specific prior written permission.
  17:/home/jonas/warwick/3dProfilometer/xpcc/src/xpcc/driver/connectivity/can/can_lawicel_formatter/can_lawicel_formatter.cpp ****  * 
  18:/home/jonas/warwick/3dProfilometer/xpcc/src/xpcc/driver/connectivity/can/can_lawicel_formatter/can_lawicel_formatter.cpp ****  * THIS SOFTWARE IS PROVIDED BY ROBOTERCLUB AACHEN E.V. ''AS IS'' AND ANY
  19:/home/jonas/warwick/3dProfilometer/xpcc/src/xpcc/driver/connectivity/can/can_lawicel_formatter/can_lawicel_formatter.cpp ****  * EXPRESS OR IMPLIED WARRANTIES, INCLUDING, BUT NOT LIMITED TO, THE IMPLIED
  20:/home/jonas/warwick/3dProfilometer/xpcc/src/xpcc/driver/connectivity/can/can_lawicel_formatter/can_lawicel_formatter.cpp ****  * WARRANTIES OF MERCHANTABILITY AND FITNESS FOR A PARTICULAR PURPOSE ARE
  21:/home/jonas/warwick/3dProfilometer/xpcc/src/xpcc/driver/connectivity/can/can_lawicel_formatter/can_lawicel_formatter.cpp ****  * DISCLAIMED. IN NO EVENT SHALL ROBOTERCLUB AACHEN E.V. BE LIABLE FOR ANY
  22:/home/jonas/warwick/3dProfilometer/xpcc/src/xpcc/driver/connectivity/can/can_lawicel_formatter/can_lawicel_formatter.cpp ****  * DIRECT, INDIRECT, INCIDENTAL, SPECIAL, EXEMPLARY, OR CONSEQUENTIAL DAMAGES
  23:/home/jonas/warwick/3dProfilometer/xpcc/src/xpcc/driver/connectivity/can/can_lawicel_formatter/can_lawicel_formatter.cpp ****  * (INCLUDING, BUT NOT LIMITED TO, PROCUREMENT OF SUBSTITUTE GOODS OR SERVICES;
  24:/home/jonas/warwick/3dProfilometer/xpcc/src/xpcc/driver/connectivity/can/can_lawicel_formatter/can_lawicel_formatter.cpp ****  * LOSS OF USE, DATA, OR PROFITS; OR BUSINESS INTERRUPTION) HOWEVER CAUSED AND
  25:/home/jonas/warwick/3dProfilometer/xpcc/src/xpcc/driver/connectivity/can/can_lawicel_formatter/can_lawicel_formatter.cpp ****  * ON ANY THEORY OF LIABILITY, WHETHER IN CONTRACT, STRICT LIABILITY, OR TORT
  26:/home/jonas/warwick/3dProfilometer/xpcc/src/xpcc/driver/connectivity/can/can_lawicel_formatter/can_lawicel_formatter.cpp ****  * (INCLUDING NEGLIGENCE OR OTHERWISE) ARISING IN ANY WAY OUT OF THE USE OF
  27:/home/jonas/warwick/3dProfilometer/xpcc/src/xpcc/driver/connectivity/can/can_lawicel_formatter/can_lawicel_formatter.cpp ****  * THIS SOFTWARE, EVEN IF ADVISED OF THE POSSIBILITY OF SUCH DAMAGE.
  28:/home/jonas/warwick/3dProfilometer/xpcc/src/xpcc/driver/connectivity/can/can_lawicel_formatter/can_lawicel_formatter.cpp ****  */
  29:/home/jonas/warwick/3dProfilometer/xpcc/src/xpcc/driver/connectivity/can/can_lawicel_formatter/can_lawicel_formatter.cpp **** // ----------------------------------------------------------------------------
  30:/home/jonas/warwick/3dProfilometer/xpcc/src/xpcc/driver/connectivity/can/can_lawicel_formatter/can_lawicel_formatter.cpp **** 
  31:/home/jonas/warwick/3dProfilometer/xpcc/src/xpcc/driver/connectivity/can/can_lawicel_formatter/can_lawicel_formatter.cpp **** #include "can_lawicel_formatter.hpp"
  32:/home/jonas/warwick/3dProfilometer/xpcc/src/xpcc/driver/connectivity/can/can_lawicel_formatter/can_lawicel_formatter.cpp **** 
  33:/home/jonas/warwick/3dProfilometer/xpcc/src/xpcc/driver/connectivity/can/can_lawicel_formatter/can_lawicel_formatter.cpp **** #include <stdint.h>
  34:/home/jonas/warwick/3dProfilometer/xpcc/src/xpcc/driver/connectivity/can/can_lawicel_formatter/can_lawicel_formatter.cpp **** #include <cstring>
  35:/home/jonas/warwick/3dProfilometer/xpcc/src/xpcc/driver/connectivity/can/can_lawicel_formatter/can_lawicel_formatter.cpp **** 
  36:/home/jonas/warwick/3dProfilometer/xpcc/src/xpcc/driver/connectivity/can/can_lawicel_formatter/can_lawicel_formatter.cpp **** 
  37:/home/jonas/warwick/3dProfilometer/xpcc/src/xpcc/driver/connectivity/can/can_lawicel_formatter/can_lawicel_formatter.cpp **** bool
  38:/home/jonas/warwick/3dProfilometer/xpcc/src/xpcc/driver/connectivity/can/can_lawicel_formatter/can_lawicel_formatter.cpp **** xpcc::CanLawicelFormatter::convertToCanMessage(const char* in,can::Message& out)
  39:/home/jonas/warwick/3dProfilometer/xpcc/src/xpcc/driver/connectivity/can/can_lawicel_formatter/can_lawicel_formatter.cpp **** {
  28              		.loc 1 39 0
  29              		.cfi_startproc
  30              		@ args = 0, pretend = 0, frame = 0
  31              		@ frame_needed = 0, uses_anonymous_args = 0
  32              	.LVL0:
  33 0000 2DE9F047 		push	{r4, r5, r6, r7, r8, r9, sl, lr}
  34              	.LCFI0:
  35              		.cfi_def_cfa_offset 32
  36              		.cfi_offset 4, -32
  37              		.cfi_offset 5, -28
  38              		.cfi_offset 6, -24
  39              		.cfi_offset 7, -20
  40              		.cfi_offset 8, -16
  41              		.cfi_offset 9, -12
  42              		.cfi_offset 10, -8
  43              		.cfi_offset 14, -4
  44              	.LBB85:
  40:/home/jonas/warwick/3dProfilometer/xpcc/src/xpcc/driver/connectivity/can/can_lawicel_formatter/can_lawicel_formatter.cpp **** 	uint8_t dlc_pos;
  41:/home/jonas/warwick/3dProfilometer/xpcc/src/xpcc/driver/connectivity/can/can_lawicel_formatter/can_lawicel_formatter.cpp **** 
  42:/home/jonas/warwick/3dProfilometer/xpcc/src/xpcc/driver/connectivity/can/can_lawicel_formatter/can_lawicel_formatter.cpp **** 	if (in[0] == 'R' || in[0] == 'T') {
  45              		.loc 1 42 0
  46 0004 0378     		ldrb	r3, [r0, #0]	@ zero_extendqisi2
  47 0006 522B     		cmp	r3, #82
  48              	.LBE85:
  39:/home/jonas/warwick/3dProfilometer/xpcc/src/xpcc/driver/connectivity/can/can_lawicel_formatter/can_lawicel_formatter.cpp **** {
  49              		.loc 1 39 0
  50 0008 0446     		mov	r4, r0
  51 000a 0D46     		mov	r5, r1
  52              	.LBB260:
  53              		.loc 1 42 0
  54 000c 00F0C780 		beq	.L4
  55              		.loc 1 42 0 is_stmt 0 discriminator 1
  56 0010 542B     		cmp	r3, #84
  57 0012 00F0C480 		beq	.L4
  58              		.loc 1 42 0
  59 0016 4FF00409 		mov	r9, #4
  60 001a 4FF00508 		mov	r8, #5
  61 001e 4E46     		mov	r6, r9
  43:/home/jonas/warwick/3dProfilometer/xpcc/src/xpcc/driver/connectivity/can/can_lawicel_formatter/can_lawicel_formatter.cpp **** 		out.flags.extended = true;
  44:/home/jonas/warwick/3dProfilometer/xpcc/src/xpcc/driver/connectivity/can/can_lawicel_formatter/can_lawicel_formatter.cpp **** 		dlc_pos = 9;
  45:/home/jonas/warwick/3dProfilometer/xpcc/src/xpcc/driver/connectivity/can/can_lawicel_formatter/can_lawicel_formatter.cpp **** 	}
  46:/home/jonas/warwick/3dProfilometer/xpcc/src/xpcc/driver/connectivity/can/can_lawicel_formatter/can_lawicel_formatter.cpp **** 	else {
  47:/home/jonas/warwick/3dProfilometer/xpcc/src/xpcc/driver/connectivity/can/can_lawicel_formatter/can_lawicel_formatter.cpp **** 		out.flags.extended = false;
  62              		.loc 1 47 0 is_stmt 1
  63 0020 4FF0000A 		mov	sl, #0
  64              	.L3:
  65 0024 2B7B     		ldrb	r3, [r5, #12]	@ zero_extendqisi2
  48:/home/jonas/warwick/3dProfilometer/xpcc/src/xpcc/driver/connectivity/can/can_lawicel_formatter/can_lawicel_formatter.cpp **** 		dlc_pos = 4;
  49:/home/jonas/warwick/3dProfilometer/xpcc/src/xpcc/driver/connectivity/can/can_lawicel_formatter/can_lawicel_formatter.cpp **** 	}
  50:/home/jonas/warwick/3dProfilometer/xpcc/src/xpcc/driver/connectivity/can/can_lawicel_formatter/can_lawicel_formatter.cpp **** 
  51:/home/jonas/warwick/3dProfilometer/xpcc/src/xpcc/driver/connectivity/can/can_lawicel_formatter/can_lawicel_formatter.cpp **** 	if (std::strlen(in) < dlc_pos + 1U)
  66              		.loc 1 51 0
  67 0026 994F     		ldr	r7, .L78
  68 0028 6AF34103 		bfi	r3, sl, #1, #1
  69 002c 2B73     		strb	r3, [r5, #12]
  70 002e 2046     		mov	r0, r4
  71              	.LVL1:
  72 0030 B847     		blx	r7
  73              	.LVL2:
  74 0032 4045     		cmp	r0, r8
  75 0034 C0F0B080 		bcc	.L7
  52:/home/jonas/warwick/3dProfilometer/xpcc/src/xpcc/driver/connectivity/can/can_lawicel_formatter/can_lawicel_formatter.cpp **** 		return false;
  53:/home/jonas/warwick/3dProfilometer/xpcc/src/xpcc/driver/connectivity/can/can_lawicel_formatter/can_lawicel_formatter.cpp **** 
  54:/home/jonas/warwick/3dProfilometer/xpcc/src/xpcc/driver/connectivity/can/can_lawicel_formatter/can_lawicel_formatter.cpp **** 	// get the number of data-bytes for this message
  55:/home/jonas/warwick/3dProfilometer/xpcc/src/xpcc/driver/connectivity/can/can_lawicel_formatter/can_lawicel_formatter.cpp **** 	out.length = in[dlc_pos] - '0';
  76              		.loc 1 55 0
  77 0038 A65D     		ldrb	r6, [r4, r6]	@ zero_extendqisi2
  78 003a 303E     		subs	r6, r6, #48
  79 003c F6B2     		uxtb	r6, r6
  56:/home/jonas/warwick/3dProfilometer/xpcc/src/xpcc/driver/connectivity/can/can_lawicel_formatter/can_lawicel_formatter.cpp **** 	if (out.length > 8)
  80              		.loc 1 56 0
  81 003e 082E     		cmp	r6, #8
  55:/home/jonas/warwick/3dProfilometer/xpcc/src/xpcc/driver/connectivity/can/can_lawicel_formatter/can_lawicel_formatter.cpp **** 	out.length = in[dlc_pos] - '0';
  82              		.loc 1 55 0
  83 0040 6E73     		strb	r6, [r5, #13]
  84              		.loc 1 56 0
  85 0042 00F2A980 		bhi	.L7
  57:/home/jonas/warwick/3dProfilometer/xpcc/src/xpcc/driver/connectivity/can/can_lawicel_formatter/can_lawicel_formatter.cpp **** 		return false;		// too many data-bytes
  58:/home/jonas/warwick/3dProfilometer/xpcc/src/xpcc/driver/connectivity/can/can_lawicel_formatter/can_lawicel_formatter.cpp **** 
  59:/home/jonas/warwick/3dProfilometer/xpcc/src/xpcc/driver/connectivity/can/can_lawicel_formatter/can_lawicel_formatter.cpp **** 	if (in[0] == 'r' || in[0] == 'R') {
  86              		.loc 1 59 0
  87 0046 2378     		ldrb	r3, [r4, #0]	@ zero_extendqisi2
  88 0048 722B     		cmp	r3, #114
  89 004a 00F0B080 		beq	.L8
  90              		.loc 1 59 0 is_stmt 0 discriminator 1
  91 004e 522B     		cmp	r3, #82
  92 0050 00F0AD80 		beq	.L8
  60:/home/jonas/warwick/3dProfilometer/xpcc/src/xpcc/driver/connectivity/can/can_lawicel_formatter/can_lawicel_formatter.cpp **** 		out.flags.rtr = true;
  61:/home/jonas/warwick/3dProfilometer/xpcc/src/xpcc/driver/connectivity/can/can_lawicel_formatter/can_lawicel_formatter.cpp **** 		if (std::strlen(in) != (dlc_pos + 1U))
  62:/home/jonas/warwick/3dProfilometer/xpcc/src/xpcc/driver/connectivity/can/can_lawicel_formatter/can_lawicel_formatter.cpp **** 			return false;
  63:/home/jonas/warwick/3dProfilometer/xpcc/src/xpcc/driver/connectivity/can/can_lawicel_formatter/can_lawicel_formatter.cpp **** 	}
  64:/home/jonas/warwick/3dProfilometer/xpcc/src/xpcc/driver/connectivity/can/can_lawicel_formatter/can_lawicel_formatter.cpp **** 	else {
  65:/home/jonas/warwick/3dProfilometer/xpcc/src/xpcc/driver/connectivity/can/can_lawicel_formatter/can_lawicel_formatter.cpp **** 		out.flags.rtr = false;
  93              		.loc 1 65 0 is_stmt 1
  94 0054 2B7B     		ldrb	r3, [r5, #12]	@ zero_extendqisi2
  95 0056 6FF30003 		bfc	r3, #0, #1
  96 005a 2B73     		strb	r3, [r5, #12]
  66:/home/jonas/warwick/3dProfilometer/xpcc/src/xpcc/driver/connectivity/can/can_lawicel_formatter/can_lawicel_formatter.cpp **** 		if (std::strlen(in) != (out.length * 2 + dlc_pos + 1U))
  97              		.loc 1 66 0
  98 005c 2046     		mov	r0, r4
  99 005e B847     		blx	r7
 100              	.LVL3:
 101 0060 09EB4609 		add	r9, r9, r6, lsl #1
 102 0064 09F10109 		add	r9, r9, #1
 103 0068 4845     		cmp	r0, r9
 104 006a 40F09580 		bne	.L7
 105 006e 0023     		movs	r3, #0
 106              	.L10:
 107              	.LBB86:
 108              	.LBB87:
 109              	.LBB88:
 110              	.LBB89:
 111              	.LBB90:
 112              	.LBB91:
  67:/home/jonas/warwick/3dProfilometer/xpcc/src/xpcc/driver/connectivity/can/can_lawicel_formatter/can_lawicel_formatter.cpp **** 			return false;
  68:/home/jonas/warwick/3dProfilometer/xpcc/src/xpcc/driver/connectivity/can/can_lawicel_formatter/can_lawicel_formatter.cpp **** 	}
  69:/home/jonas/warwick/3dProfilometer/xpcc/src/xpcc/driver/connectivity/can/can_lawicel_formatter/can_lawicel_formatter.cpp **** 
  70:/home/jonas/warwick/3dProfilometer/xpcc/src/xpcc/driver/connectivity/can/can_lawicel_formatter/can_lawicel_formatter.cpp **** 	// read the messge-identifier
  71:/home/jonas/warwick/3dProfilometer/xpcc/src/xpcc/driver/connectivity/can/can_lawicel_formatter/can_lawicel_formatter.cpp **** 	if (out.flags.extended)
  72:/home/jonas/warwick/3dProfilometer/xpcc/src/xpcc/driver/connectivity/can/can_lawicel_formatter/can_lawicel_formatter.cpp **** 	{
  73:/home/jonas/warwick/3dProfilometer/xpcc/src/xpcc/driver/connectivity/can/can_lawicel_formatter/can_lawicel_formatter.cpp **** 		uint16_t id;
  74:/home/jonas/warwick/3dProfilometer/xpcc/src/xpcc/driver/connectivity/can/can_lawicel_formatter/can_lawicel_formatter.cpp **** 		uint16_t id2;
  75:/home/jonas/warwick/3dProfilometer/xpcc/src/xpcc/driver/connectivity/can/can_lawicel_formatter/can_lawicel_formatter.cpp **** 
  76:/home/jonas/warwick/3dProfilometer/xpcc/src/xpcc/driver/connectivity/can/can_lawicel_formatter/can_lawicel_formatter.cpp **** 		id  = hexToByte(&in[1]) << 8;
  77:/home/jonas/warwick/3dProfilometer/xpcc/src/xpcc/driver/connectivity/can/can_lawicel_formatter/can_lawicel_formatter.cpp **** 		id |= hexToByte(&in[3]);
  78:/home/jonas/warwick/3dProfilometer/xpcc/src/xpcc/driver/connectivity/can/can_lawicel_formatter/can_lawicel_formatter.cpp **** 
  79:/home/jonas/warwick/3dProfilometer/xpcc/src/xpcc/driver/connectivity/can/can_lawicel_formatter/can_lawicel_formatter.cpp **** 		id2  = hexToByte(&in[5]) << 8;
  80:/home/jonas/warwick/3dProfilometer/xpcc/src/xpcc/driver/connectivity/can/can_lawicel_formatter/can_lawicel_formatter.cpp **** 		id2 |= hexToByte(&in[7]);
  81:/home/jonas/warwick/3dProfilometer/xpcc/src/xpcc/driver/connectivity/can/can_lawicel_formatter/can_lawicel_formatter.cpp **** 
  82:/home/jonas/warwick/3dProfilometer/xpcc/src/xpcc/driver/connectivity/can/can_lawicel_formatter/can_lawicel_formatter.cpp **** 		out.identifier = (uint32_t) id << 16 | id2;
  83:/home/jonas/warwick/3dProfilometer/xpcc/src/xpcc/driver/connectivity/can/can_lawicel_formatter/can_lawicel_formatter.cpp **** 	}
  84:/home/jonas/warwick/3dProfilometer/xpcc/src/xpcc/driver/connectivity/can/can_lawicel_formatter/can_lawicel_formatter.cpp **** 	else {
  85:/home/jonas/warwick/3dProfilometer/xpcc/src/xpcc/driver/connectivity/can/can_lawicel_formatter/can_lawicel_formatter.cpp **** 		uint16_t id;
  86:/home/jonas/warwick/3dProfilometer/xpcc/src/xpcc/driver/connectivity/can/can_lawicel_formatter/can_lawicel_formatter.cpp **** 
  87:/home/jonas/warwick/3dProfilometer/xpcc/src/xpcc/driver/connectivity/can/can_lawicel_formatter/can_lawicel_formatter.cpp **** 		id  = charToByte(&in[1]) << 8;
  88:/home/jonas/warwick/3dProfilometer/xpcc/src/xpcc/driver/connectivity/can/can_lawicel_formatter/can_lawicel_formatter.cpp **** 		id |= hexToByte(&in[2]);
  89:/home/jonas/warwick/3dProfilometer/xpcc/src/xpcc/driver/connectivity/can/can_lawicel_formatter/can_lawicel_formatter.cpp **** 
  90:/home/jonas/warwick/3dProfilometer/xpcc/src/xpcc/driver/connectivity/can/can_lawicel_formatter/can_lawicel_formatter.cpp **** 		out.identifier = id;
  91:/home/jonas/warwick/3dProfilometer/xpcc/src/xpcc/driver/connectivity/can/can_lawicel_formatter/can_lawicel_formatter.cpp **** 	}
  92:/home/jonas/warwick/3dProfilometer/xpcc/src/xpcc/driver/connectivity/can/can_lawicel_formatter/can_lawicel_formatter.cpp **** 
  93:/home/jonas/warwick/3dProfilometer/xpcc/src/xpcc/driver/connectivity/can/can_lawicel_formatter/can_lawicel_formatter.cpp **** 	// read data if the message is no rtr-frame
  94:/home/jonas/warwick/3dProfilometer/xpcc/src/xpcc/driver/connectivity/can/can_lawicel_formatter/can_lawicel_formatter.cpp **** 	if (!out.flags.rtr)
  95:/home/jonas/warwick/3dProfilometer/xpcc/src/xpcc/driver/connectivity/can/can_lawicel_formatter/can_lawicel_formatter.cpp **** 	{
  96:/home/jonas/warwick/3dProfilometer/xpcc/src/xpcc/driver/connectivity/can/can_lawicel_formatter/can_lawicel_formatter.cpp **** 		const char *buf = &in[dlc_pos + 1];
  97:/home/jonas/warwick/3dProfilometer/xpcc/src/xpcc/driver/connectivity/can/can_lawicel_formatter/can_lawicel_formatter.cpp **** 		uint8_t i;
  98:/home/jonas/warwick/3dProfilometer/xpcc/src/xpcc/driver/connectivity/can/can_lawicel_formatter/can_lawicel_formatter.cpp **** 
  99:/home/jonas/warwick/3dProfilometer/xpcc/src/xpcc/driver/connectivity/can/can_lawicel_formatter/can_lawicel_formatter.cpp **** 		for (i=0; i < out.length; i++)
 100:/home/jonas/warwick/3dProfilometer/xpcc/src/xpcc/driver/connectivity/can/can_lawicel_formatter/can_lawicel_formatter.cpp **** 		{
 101:/home/jonas/warwick/3dProfilometer/xpcc/src/xpcc/driver/connectivity/can/can_lawicel_formatter/can_lawicel_formatter.cpp **** 			out.data[i] = hexToByte(buf);
 102:/home/jonas/warwick/3dProfilometer/xpcc/src/xpcc/driver/connectivity/can/can_lawicel_formatter/can_lawicel_formatter.cpp **** 			buf += 2;
 103:/home/jonas/warwick/3dProfilometer/xpcc/src/xpcc/driver/connectivity/can/can_lawicel_formatter/can_lawicel_formatter.cpp **** 		}
 104:/home/jonas/warwick/3dProfilometer/xpcc/src/xpcc/driver/connectivity/can/can_lawicel_formatter/can_lawicel_formatter.cpp **** 	}
 105:/home/jonas/warwick/3dProfilometer/xpcc/src/xpcc/driver/connectivity/can/can_lawicel_formatter/can_lawicel_formatter.cpp **** 	return true;
 106:/home/jonas/warwick/3dProfilometer/xpcc/src/xpcc/driver/connectivity/can/can_lawicel_formatter/can_lawicel_formatter.cpp **** }
 107:/home/jonas/warwick/3dProfilometer/xpcc/src/xpcc/driver/connectivity/can/can_lawicel_formatter/can_lawicel_formatter.cpp **** 
 108:/home/jonas/warwick/3dProfilometer/xpcc/src/xpcc/driver/connectivity/can/can_lawicel_formatter/can_lawicel_formatter.cpp **** 
 109:/home/jonas/warwick/3dProfilometer/xpcc/src/xpcc/driver/connectivity/can/can_lawicel_formatter/can_lawicel_formatter.cpp **** bool
 110:/home/jonas/warwick/3dProfilometer/xpcc/src/xpcc/driver/connectivity/can/can_lawicel_formatter/can_lawicel_formatter.cpp **** xpcc::CanLawicelFormatter::convertToString(const can::Message& in, char* out)
 111:/home/jonas/warwick/3dProfilometer/xpcc/src/xpcc/driver/connectivity/can/can_lawicel_formatter/can_lawicel_formatter.cpp **** {
 112:/home/jonas/warwick/3dProfilometer/xpcc/src/xpcc/driver/connectivity/can/can_lawicel_formatter/can_lawicel_formatter.cpp **** 	if(in.flags.extended){
 113:/home/jonas/warwick/3dProfilometer/xpcc/src/xpcc/driver/connectivity/can/can_lawicel_formatter/can_lawicel_formatter.cpp **** 		if(in.flags.rtr){
 114:/home/jonas/warwick/3dProfilometer/xpcc/src/xpcc/driver/connectivity/can/can_lawicel_formatter/can_lawicel_formatter.cpp **** 			out[0]='R';
 115:/home/jonas/warwick/3dProfilometer/xpcc/src/xpcc/driver/connectivity/can/can_lawicel_formatter/can_lawicel_formatter.cpp **** 		}
 116:/home/jonas/warwick/3dProfilometer/xpcc/src/xpcc/driver/connectivity/can/can_lawicel_formatter/can_lawicel_formatter.cpp **** 		else{
 117:/home/jonas/warwick/3dProfilometer/xpcc/src/xpcc/driver/connectivity/can/can_lawicel_formatter/can_lawicel_formatter.cpp **** 			out[0]='T';
 118:/home/jonas/warwick/3dProfilometer/xpcc/src/xpcc/driver/connectivity/can/can_lawicel_formatter/can_lawicel_formatter.cpp **** 		}
 119:/home/jonas/warwick/3dProfilometer/xpcc/src/xpcc/driver/connectivity/can/can_lawicel_formatter/can_lawicel_formatter.cpp **** 	}
 120:/home/jonas/warwick/3dProfilometer/xpcc/src/xpcc/driver/connectivity/can/can_lawicel_formatter/can_lawicel_formatter.cpp **** 	else{
 121:/home/jonas/warwick/3dProfilometer/xpcc/src/xpcc/driver/connectivity/can/can_lawicel_formatter/can_lawicel_formatter.cpp **** 		if(in.flags.rtr){
 122:/home/jonas/warwick/3dProfilometer/xpcc/src/xpcc/driver/connectivity/can/can_lawicel_formatter/can_lawicel_formatter.cpp **** 			out[0]='r';
 123:/home/jonas/warwick/3dProfilometer/xpcc/src/xpcc/driver/connectivity/can/can_lawicel_formatter/can_lawicel_formatter.cpp **** 		}
 124:/home/jonas/warwick/3dProfilometer/xpcc/src/xpcc/driver/connectivity/can/can_lawicel_formatter/can_lawicel_formatter.cpp **** 		else{
 125:/home/jonas/warwick/3dProfilometer/xpcc/src/xpcc/driver/connectivity/can/can_lawicel_formatter/can_lawicel_formatter.cpp **** 			out[0]='t';
 126:/home/jonas/warwick/3dProfilometer/xpcc/src/xpcc/driver/connectivity/can/can_lawicel_formatter/can_lawicel_formatter.cpp **** 		}
 127:/home/jonas/warwick/3dProfilometer/xpcc/src/xpcc/driver/connectivity/can/can_lawicel_formatter/can_lawicel_formatter.cpp **** 	}
 128:/home/jonas/warwick/3dProfilometer/xpcc/src/xpcc/driver/connectivity/can/can_lawicel_formatter/can_lawicel_formatter.cpp **** 
 129:/home/jonas/warwick/3dProfilometer/xpcc/src/xpcc/driver/connectivity/can/can_lawicel_formatter/can_lawicel_formatter.cpp **** 	const uint8_t* ptr=reinterpret_cast<const uint8_t*>(&in.identifier);
 130:/home/jonas/warwick/3dProfilometer/xpcc/src/xpcc/driver/connectivity/can/can_lawicel_formatter/can_lawicel_formatter.cpp **** 	uint8_t dataBegin;
 131:/home/jonas/warwick/3dProfilometer/xpcc/src/xpcc/driver/connectivity/can/can_lawicel_formatter/can_lawicel_formatter.cpp **** 	if(in.flags.extended)
 132:/home/jonas/warwick/3dProfilometer/xpcc/src/xpcc/driver/connectivity/can/can_lawicel_formatter/can_lawicel_formatter.cpp **** 	{
 133:/home/jonas/warwick/3dProfilometer/xpcc/src/xpcc/driver/connectivity/can/can_lawicel_formatter/can_lawicel_formatter.cpp **** 		for(int i=3; i>=0; i--){
 134:/home/jonas/warwick/3dProfilometer/xpcc/src/xpcc/driver/connectivity/can/can_lawicel_formatter/can_lawicel_formatter.cpp **** 			out[2*i+1] = byteToHex((*ptr)>>4);
 135:/home/jonas/warwick/3dProfilometer/xpcc/src/xpcc/driver/connectivity/can/can_lawicel_formatter/can_lawicel_formatter.cpp **** 			out[2*i+2] = byteToHex(*ptr);
 136:/home/jonas/warwick/3dProfilometer/xpcc/src/xpcc/driver/connectivity/can/can_lawicel_formatter/can_lawicel_formatter.cpp **** 			++ptr;
 137:/home/jonas/warwick/3dProfilometer/xpcc/src/xpcc/driver/connectivity/can/can_lawicel_formatter/can_lawicel_formatter.cpp **** 		}
 138:/home/jonas/warwick/3dProfilometer/xpcc/src/xpcc/driver/connectivity/can/can_lawicel_formatter/can_lawicel_formatter.cpp **** 		out[9] = byteToHex(in.length);
 139:/home/jonas/warwick/3dProfilometer/xpcc/src/xpcc/driver/connectivity/can/can_lawicel_formatter/can_lawicel_formatter.cpp **** 		out[10] = '\0';
 140:/home/jonas/warwick/3dProfilometer/xpcc/src/xpcc/driver/connectivity/can/can_lawicel_formatter/can_lawicel_formatter.cpp **** 		dataBegin=10;
 141:/home/jonas/warwick/3dProfilometer/xpcc/src/xpcc/driver/connectivity/can/can_lawicel_formatter/can_lawicel_formatter.cpp **** 	}
 142:/home/jonas/warwick/3dProfilometer/xpcc/src/xpcc/driver/connectivity/can/can_lawicel_formatter/can_lawicel_formatter.cpp **** 	else
 143:/home/jonas/warwick/3dProfilometer/xpcc/src/xpcc/driver/connectivity/can/can_lawicel_formatter/can_lawicel_formatter.cpp **** 	{
 144:/home/jonas/warwick/3dProfilometer/xpcc/src/xpcc/driver/connectivity/can/can_lawicel_formatter/can_lawicel_formatter.cpp **** 		out[1] = byteToHex(*(ptr+1));
 145:/home/jonas/warwick/3dProfilometer/xpcc/src/xpcc/driver/connectivity/can/can_lawicel_formatter/can_lawicel_formatter.cpp **** 		out[2] = byteToHex((*(ptr))>>4);
 146:/home/jonas/warwick/3dProfilometer/xpcc/src/xpcc/driver/connectivity/can/can_lawicel_formatter/can_lawicel_formatter.cpp **** 		out[3] = byteToHex((*(ptr)));
 147:/home/jonas/warwick/3dProfilometer/xpcc/src/xpcc/driver/connectivity/can/can_lawicel_formatter/can_lawicel_formatter.cpp **** 		out[4] = byteToHex(in.length);
 148:/home/jonas/warwick/3dProfilometer/xpcc/src/xpcc/driver/connectivity/can/can_lawicel_formatter/can_lawicel_formatter.cpp **** 		out[5] = '\0';	// terminate if no data is appended.
 149:/home/jonas/warwick/3dProfilometer/xpcc/src/xpcc/driver/connectivity/can/can_lawicel_formatter/can_lawicel_formatter.cpp **** 		dataBegin=5;
 150:/home/jonas/warwick/3dProfilometer/xpcc/src/xpcc/driver/connectivity/can/can_lawicel_formatter/can_lawicel_formatter.cpp **** 
 151:/home/jonas/warwick/3dProfilometer/xpcc/src/xpcc/driver/connectivity/can/can_lawicel_formatter/can_lawicel_formatter.cpp **** 	}
 152:/home/jonas/warwick/3dProfilometer/xpcc/src/xpcc/driver/connectivity/can/can_lawicel_formatter/can_lawicel_formatter.cpp **** 
 153:/home/jonas/warwick/3dProfilometer/xpcc/src/xpcc/driver/connectivity/can/can_lawicel_formatter/can_lawicel_formatter.cpp **** 	if (!in.flags.rtr)
 154:/home/jonas/warwick/3dProfilometer/xpcc/src/xpcc/driver/connectivity/can/can_lawicel_formatter/can_lawicel_formatter.cpp **** 	{
 155:/home/jonas/warwick/3dProfilometer/xpcc/src/xpcc/driver/connectivity/can/can_lawicel_formatter/can_lawicel_formatter.cpp **** 		uint_fast8_t i = 0;
 156:/home/jonas/warwick/3dProfilometer/xpcc/src/xpcc/driver/connectivity/can/can_lawicel_formatter/can_lawicel_formatter.cpp **** 		for( ; i < in.length ; i++)
 157:/home/jonas/warwick/3dProfilometer/xpcc/src/xpcc/driver/connectivity/can/can_lawicel_formatter/can_lawicel_formatter.cpp **** 		{
 158:/home/jonas/warwick/3dProfilometer/xpcc/src/xpcc/driver/connectivity/can/can_lawicel_formatter/can_lawicel_formatter.cpp **** 			out[dataBegin+2*i] = byteToHex(in.data[i]>>4);
 159:/home/jonas/warwick/3dProfilometer/xpcc/src/xpcc/driver/connectivity/can/can_lawicel_formatter/can_lawicel_formatter.cpp **** 			out[dataBegin+2*i+1] = byteToHex(in.data[i]);
 160:/home/jonas/warwick/3dProfilometer/xpcc/src/xpcc/driver/connectivity/can/can_lawicel_formatter/can_lawicel_formatter.cpp **** 		}
 161:/home/jonas/warwick/3dProfilometer/xpcc/src/xpcc/driver/connectivity/can/can_lawicel_formatter/can_lawicel_formatter.cpp **** 		out[dataBegin+2*i]='\0';
 162:/home/jonas/warwick/3dProfilometer/xpcc/src/xpcc/driver/connectivity/can/can_lawicel_formatter/can_lawicel_formatter.cpp **** 	}
 163:/home/jonas/warwick/3dProfilometer/xpcc/src/xpcc/driver/connectivity/can/can_lawicel_formatter/can_lawicel_formatter.cpp **** 
 164:/home/jonas/warwick/3dProfilometer/xpcc/src/xpcc/driver/connectivity/can/can_lawicel_formatter/can_lawicel_formatter.cpp **** 	return true;
 165:/home/jonas/warwick/3dProfilometer/xpcc/src/xpcc/driver/connectivity/can/can_lawicel_formatter/can_lawicel_formatter.cpp **** }
 166:/home/jonas/warwick/3dProfilometer/xpcc/src/xpcc/driver/connectivity/can/can_lawicel_formatter/can_lawicel_formatter.cpp **** 
 167:/home/jonas/warwick/3dProfilometer/xpcc/src/xpcc/driver/connectivity/can/can_lawicel_formatter/can_lawicel_formatter.cpp **** 
 168:/home/jonas/warwick/3dProfilometer/xpcc/src/xpcc/driver/connectivity/can/can_lawicel_formatter/can_lawicel_formatter.cpp **** uint8_t
 169:/home/jonas/warwick/3dProfilometer/xpcc/src/xpcc/driver/connectivity/can/can_lawicel_formatter/can_lawicel_formatter.cpp **** xpcc::CanLawicelFormatter::charToByte(const char *s)
 170:/home/jonas/warwick/3dProfilometer/xpcc/src/xpcc/driver/connectivity/can/can_lawicel_formatter/can_lawicel_formatter.cpp **** {
 171:/home/jonas/warwick/3dProfilometer/xpcc/src/xpcc/driver/connectivity/can/can_lawicel_formatter/can_lawicel_formatter.cpp **** 	uint8_t t = *s;
 113              		.loc 1 171 0
 114 0070 6278     		ldrb	r2, [r4, #1]	@ zero_extendqisi2
 115              	.LBE91:
 116              	.LBE90:
 117              	.LBE89:
 118              	.LBE88:
 119              	.LBE87:
  71:/home/jonas/warwick/3dProfilometer/xpcc/src/xpcc/driver/connectivity/can/can_lawicel_formatter/can_lawicel_formatter.cpp **** 	if (out.flags.extended)
 120              		.loc 1 71 0
 121 0072 BAF1000F 		cmp	sl, #0
 122 0076 00F0A480 		beq	.L11
 123              	.LVL4:
 124              	.LBB186:
 125              	.LBB107:
 126              	.LBB104:
 127              	.LBB94:
 128              	.LBB92:
 172:/home/jonas/warwick/3dProfilometer/xpcc/src/xpcc/driver/connectivity/can/can_lawicel_formatter/can_lawicel_formatter.cpp **** 	if (t >= 'a')
 129              		.loc 1 172 0
 130 007a 602A     		cmp	r2, #96
 131 007c 00F2C280 		bhi	.L66
 173:/home/jonas/warwick/3dProfilometer/xpcc/src/xpcc/driver/connectivity/can/can_lawicel_formatter/can_lawicel_formatter.cpp **** 		t = t - 'a' + 10;
 174:/home/jonas/warwick/3dProfilometer/xpcc/src/xpcc/driver/connectivity/can/can_lawicel_formatter/can_lawicel_formatter.cpp **** 	else if (t >= 'A')
 132              		.loc 1 174 0
 133 0080 402A     		cmp	r2, #64
 175:/home/jonas/warwick/3dProfilometer/xpcc/src/xpcc/driver/connectivity/can/can_lawicel_formatter/can_lawicel_formatter.cpp **** 		t = t - 'A' + 10;
 134              		.loc 1 175 0
 135 0082 8CBF     		ite	hi
 136 0084 A2F13700 		subhi	r0, r2, #55
 176:/home/jonas/warwick/3dProfilometer/xpcc/src/xpcc/driver/connectivity/can/can_lawicel_formatter/can_lawicel_formatter.cpp **** 	else
 177:/home/jonas/warwick/3dProfilometer/xpcc/src/xpcc/driver/connectivity/can/can_lawicel_formatter/can_lawicel_formatter.cpp **** 		t = t - '0';
 137              		.loc 1 177 0
 138 0088 A2F13000 		subls	r0, r2, #48
 139 008c C0B2     		uxtb	r0, r0
 140              	.LVL5:
 141              	.L13:
 142              	.LBE92:
 143              	.LBE94:
 144              	.LBB95:
 145              	.LBB96:
 171:/home/jonas/warwick/3dProfilometer/xpcc/src/xpcc/driver/connectivity/can/can_lawicel_formatter/can_lawicel_formatter.cpp **** 	uint8_t t = *s;
 146              		.loc 1 171 0
 147 008e A278     		ldrb	r2, [r4, #2]	@ zero_extendqisi2
 148              	.LBE96:
 149              	.LBE95:
 150              		.file 2 "/home/jonas/warwick/3dProfilometer/xpcc/src/xpcc/driver/connectivity/can/can_lawicel_form
   1:/home/jonas/warwick/3dProfilometer/xpcc/src/xpcc/driver/connectivity/can/can_lawicel_formatter/can_lawicel_formatter.hpp **** // coding: utf-8
   2:/home/jonas/warwick/3dProfilometer/xpcc/src/xpcc/driver/connectivity/can/can_lawicel_formatter/can_lawicel_formatter.hpp **** // ----------------------------------------------------------------------------
   3:/home/jonas/warwick/3dProfilometer/xpcc/src/xpcc/driver/connectivity/can/can_lawicel_formatter/can_lawicel_formatter.hpp **** /* Copyright (c) 2011, Roboterclub Aachen e.V.
   4:/home/jonas/warwick/3dProfilometer/xpcc/src/xpcc/driver/connectivity/can/can_lawicel_formatter/can_lawicel_formatter.hpp ****  * All rights reserved.
   5:/home/jonas/warwick/3dProfilometer/xpcc/src/xpcc/driver/connectivity/can/can_lawicel_formatter/can_lawicel_formatter.hpp ****  * 
   6:/home/jonas/warwick/3dProfilometer/xpcc/src/xpcc/driver/connectivity/can/can_lawicel_formatter/can_lawicel_formatter.hpp ****  * Redistribution and use in source and binary forms, with or without
   7:/home/jonas/warwick/3dProfilometer/xpcc/src/xpcc/driver/connectivity/can/can_lawicel_formatter/can_lawicel_formatter.hpp ****  * modification, are permitted provided that the following conditions are met:
   8:/home/jonas/warwick/3dProfilometer/xpcc/src/xpcc/driver/connectivity/can/can_lawicel_formatter/can_lawicel_formatter.hpp ****  * 
   9:/home/jonas/warwick/3dProfilometer/xpcc/src/xpcc/driver/connectivity/can/can_lawicel_formatter/can_lawicel_formatter.hpp ****  *     * Redistributions of source code must retain the above copyright
  10:/home/jonas/warwick/3dProfilometer/xpcc/src/xpcc/driver/connectivity/can/can_lawicel_formatter/can_lawicel_formatter.hpp ****  *       notice, this list of conditions and the following disclaimer.
  11:/home/jonas/warwick/3dProfilometer/xpcc/src/xpcc/driver/connectivity/can/can_lawicel_formatter/can_lawicel_formatter.hpp ****  *     * Redistributions in binary form must reproduce the above copyright
  12:/home/jonas/warwick/3dProfilometer/xpcc/src/xpcc/driver/connectivity/can/can_lawicel_formatter/can_lawicel_formatter.hpp ****  *       notice, this list of conditions and the following disclaimer in the
  13:/home/jonas/warwick/3dProfilometer/xpcc/src/xpcc/driver/connectivity/can/can_lawicel_formatter/can_lawicel_formatter.hpp ****  *       documentation and/or other materials provided with the distribution.
  14:/home/jonas/warwick/3dProfilometer/xpcc/src/xpcc/driver/connectivity/can/can_lawicel_formatter/can_lawicel_formatter.hpp ****  *     * Neither the name of the Roboterclub Aachen e.V. nor the
  15:/home/jonas/warwick/3dProfilometer/xpcc/src/xpcc/driver/connectivity/can/can_lawicel_formatter/can_lawicel_formatter.hpp ****  *       names of its contributors may be used to endorse or promote products
  16:/home/jonas/warwick/3dProfilometer/xpcc/src/xpcc/driver/connectivity/can/can_lawicel_formatter/can_lawicel_formatter.hpp ****  *       derived from this software without specific prior written permission.
  17:/home/jonas/warwick/3dProfilometer/xpcc/src/xpcc/driver/connectivity/can/can_lawicel_formatter/can_lawicel_formatter.hpp ****  * 
  18:/home/jonas/warwick/3dProfilometer/xpcc/src/xpcc/driver/connectivity/can/can_lawicel_formatter/can_lawicel_formatter.hpp ****  * THIS SOFTWARE IS PROVIDED BY ROBOTERCLUB AACHEN E.V. ''AS IS'' AND ANY
  19:/home/jonas/warwick/3dProfilometer/xpcc/src/xpcc/driver/connectivity/can/can_lawicel_formatter/can_lawicel_formatter.hpp ****  * EXPRESS OR IMPLIED WARRANTIES, INCLUDING, BUT NOT LIMITED TO, THE IMPLIED
  20:/home/jonas/warwick/3dProfilometer/xpcc/src/xpcc/driver/connectivity/can/can_lawicel_formatter/can_lawicel_formatter.hpp ****  * WARRANTIES OF MERCHANTABILITY AND FITNESS FOR A PARTICULAR PURPOSE ARE
  21:/home/jonas/warwick/3dProfilometer/xpcc/src/xpcc/driver/connectivity/can/can_lawicel_formatter/can_lawicel_formatter.hpp ****  * DISCLAIMED. IN NO EVENT SHALL ROBOTERCLUB AACHEN E.V. BE LIABLE FOR ANY
  22:/home/jonas/warwick/3dProfilometer/xpcc/src/xpcc/driver/connectivity/can/can_lawicel_formatter/can_lawicel_formatter.hpp ****  * DIRECT, INDIRECT, INCIDENTAL, SPECIAL, EXEMPLARY, OR CONSEQUENTIAL DAMAGES
  23:/home/jonas/warwick/3dProfilometer/xpcc/src/xpcc/driver/connectivity/can/can_lawicel_formatter/can_lawicel_formatter.hpp ****  * (INCLUDING, BUT NOT LIMITED TO, PROCUREMENT OF SUBSTITUTE GOODS OR SERVICES;
  24:/home/jonas/warwick/3dProfilometer/xpcc/src/xpcc/driver/connectivity/can/can_lawicel_formatter/can_lawicel_formatter.hpp ****  * LOSS OF USE, DATA, OR PROFITS; OR BUSINESS INTERRUPTION) HOWEVER CAUSED AND
  25:/home/jonas/warwick/3dProfilometer/xpcc/src/xpcc/driver/connectivity/can/can_lawicel_formatter/can_lawicel_formatter.hpp ****  * ON ANY THEORY OF LIABILITY, WHETHER IN CONTRACT, STRICT LIABILITY, OR TORT
  26:/home/jonas/warwick/3dProfilometer/xpcc/src/xpcc/driver/connectivity/can/can_lawicel_formatter/can_lawicel_formatter.hpp ****  * (INCLUDING NEGLIGENCE OR OTHERWISE) ARISING IN ANY WAY OUT OF THE USE OF
  27:/home/jonas/warwick/3dProfilometer/xpcc/src/xpcc/driver/connectivity/can/can_lawicel_formatter/can_lawicel_formatter.hpp ****  * THIS SOFTWARE, EVEN IF ADVISED OF THE POSSIBILITY OF SUCH DAMAGE.
  28:/home/jonas/warwick/3dProfilometer/xpcc/src/xpcc/driver/connectivity/can/can_lawicel_formatter/can_lawicel_formatter.hpp ****  */
  29:/home/jonas/warwick/3dProfilometer/xpcc/src/xpcc/driver/connectivity/can/can_lawicel_formatter/can_lawicel_formatter.hpp **** // ----------------------------------------------------------------------------
  30:/home/jonas/warwick/3dProfilometer/xpcc/src/xpcc/driver/connectivity/can/can_lawicel_formatter/can_lawicel_formatter.hpp **** 
  31:/home/jonas/warwick/3dProfilometer/xpcc/src/xpcc/driver/connectivity/can/can_lawicel_formatter/can_lawicel_formatter.hpp **** #ifndef XPCC__CAN_LAWICEL_FORMATTER_HPP
  32:/home/jonas/warwick/3dProfilometer/xpcc/src/xpcc/driver/connectivity/can/can_lawicel_formatter/can_lawicel_formatter.hpp **** #define XPCC__CAN_LAWICEL_FORMATTER_HPP
  33:/home/jonas/warwick/3dProfilometer/xpcc/src/xpcc/driver/connectivity/can/can_lawicel_formatter/can_lawicel_formatter.hpp **** 
  34:/home/jonas/warwick/3dProfilometer/xpcc/src/xpcc/driver/connectivity/can/can_lawicel_formatter/can_lawicel_formatter.hpp **** #include <xpcc/driver/connectivity/can/message.hpp>
  35:/home/jonas/warwick/3dProfilometer/xpcc/src/xpcc/driver/connectivity/can/can_lawicel_formatter/can_lawicel_formatter.hpp **** 
  36:/home/jonas/warwick/3dProfilometer/xpcc/src/xpcc/driver/connectivity/can/can_lawicel_formatter/can_lawicel_formatter.hpp **** namespace xpcc
  37:/home/jonas/warwick/3dProfilometer/xpcc/src/xpcc/driver/connectivity/can/can_lawicel_formatter/can_lawicel_formatter.hpp **** {
  38:/home/jonas/warwick/3dProfilometer/xpcc/src/xpcc/driver/connectivity/can/can_lawicel_formatter/can_lawicel_formatter.hpp **** 	/**
  39:/home/jonas/warwick/3dProfilometer/xpcc/src/xpcc/driver/connectivity/can/can_lawicel_formatter/can_lawicel_formatter.hpp **** 	 * \brief	Converts XPCC CAN messages (xpcc::can::Message) to and from the Lawicel string format (c
  40:/home/jonas/warwick/3dProfilometer/xpcc/src/xpcc/driver/connectivity/can/can_lawicel_formatter/can_lawicel_formatter.hpp **** 	 *
  41:/home/jonas/warwick/3dProfilometer/xpcc/src/xpcc/driver/connectivity/can/can_lawicel_formatter/can_lawicel_formatter.hpp **** 	 * Lawicel AB (\see http://www.lawicel.com/) offers medium sized CAN to USB
  42:/home/jonas/warwick/3dProfilometer/xpcc/src/xpcc/driver/connectivity/can/can_lawicel_formatter/can_lawicel_formatter.hpp **** 	 * and CAN to RS232 converters. Their data format is widely used, including
  43:/home/jonas/warwick/3dProfilometer/xpcc/src/xpcc/driver/connectivity/can/can_lawicel_formatter/can_lawicel_formatter.hpp **** 	 * RCA's BotControl Java GUI and Fabian's USB2CAN dongle.
  44:/home/jonas/warwick/3dProfilometer/xpcc/src/xpcc/driver/connectivity/can/can_lawicel_formatter/can_lawicel_formatter.hpp **** 	 *
  45:/home/jonas/warwick/3dProfilometer/xpcc/src/xpcc/driver/connectivity/can/can_lawicel_formatter/can_lawicel_formatter.hpp **** 	 * This converter only understands messages of type 'r', 't', 'R' and 'T' which
  46:/home/jonas/warwick/3dProfilometer/xpcc/src/xpcc/driver/connectivity/can/can_lawicel_formatter/can_lawicel_formatter.hpp **** 	 * transmits CAN frames. It does not understand commands to change the baud rate et cetera.
  47:/home/jonas/warwick/3dProfilometer/xpcc/src/xpcc/driver/connectivity/can/can_lawicel_formatter/can_lawicel_formatter.hpp **** 	 *
  48:/home/jonas/warwick/3dProfilometer/xpcc/src/xpcc/driver/connectivity/can/can_lawicel_formatter/can_lawicel_formatter.hpp **** 	 */
  49:/home/jonas/warwick/3dProfilometer/xpcc/src/xpcc/driver/connectivity/can/can_lawicel_formatter/can_lawicel_formatter.hpp **** 	class CanLawicelFormatter
  50:/home/jonas/warwick/3dProfilometer/xpcc/src/xpcc/driver/connectivity/can/can_lawicel_formatter/can_lawicel_formatter.hpp **** 	{
  51:/home/jonas/warwick/3dProfilometer/xpcc/src/xpcc/driver/connectivity/can/can_lawicel_formatter/can_lawicel_formatter.hpp **** 	public:
  52:/home/jonas/warwick/3dProfilometer/xpcc/src/xpcc/driver/connectivity/can/can_lawicel_formatter/can_lawicel_formatter.hpp **** 		static bool
  53:/home/jonas/warwick/3dProfilometer/xpcc/src/xpcc/driver/connectivity/can/can_lawicel_formatter/can_lawicel_formatter.hpp **** 		convertToCanMessage(const char* in, can::Message& out);
  54:/home/jonas/warwick/3dProfilometer/xpcc/src/xpcc/driver/connectivity/can/can_lawicel_formatter/can_lawicel_formatter.hpp **** 
  55:/home/jonas/warwick/3dProfilometer/xpcc/src/xpcc/driver/connectivity/can/can_lawicel_formatter/can_lawicel_formatter.hpp **** 		static bool
  56:/home/jonas/warwick/3dProfilometer/xpcc/src/xpcc/driver/connectivity/can/can_lawicel_formatter/can_lawicel_formatter.hpp **** 		convertToString(const can::Message& in, char* out);
  57:/home/jonas/warwick/3dProfilometer/xpcc/src/xpcc/driver/connectivity/can/can_lawicel_formatter/can_lawicel_formatter.hpp **** 		
  58:/home/jonas/warwick/3dProfilometer/xpcc/src/xpcc/driver/connectivity/can/can_lawicel_formatter/can_lawicel_formatter.hpp **** 	private:
  59:/home/jonas/warwick/3dProfilometer/xpcc/src/xpcc/driver/connectivity/can/can_lawicel_formatter/can_lawicel_formatter.hpp **** 		static inline uint8_t
  60:/home/jonas/warwick/3dProfilometer/xpcc/src/xpcc/driver/connectivity/can/can_lawicel_formatter/can_lawicel_formatter.hpp **** 		hexToByte(const char *s)
  61:/home/jonas/warwick/3dProfilometer/xpcc/src/xpcc/driver/connectivity/can/can_lawicel_formatter/can_lawicel_formatter.hpp **** 		{
  62:/home/jonas/warwick/3dProfilometer/xpcc/src/xpcc/driver/connectivity/can/can_lawicel_formatter/can_lawicel_formatter.hpp **** 			return (charToByte(s) << 4) | charToByte(s + 1);
 151              		.loc 2 62 0
 152 0090 0001     		lsls	r0, r0, #4
 153              	.LVL6:
 154              	.LBB100:
 155              	.LBB97:
 172:/home/jonas/warwick/3dProfilometer/xpcc/src/xpcc/driver/connectivity/can/can_lawicel_formatter/can_lawicel_formatter.cpp **** 	if (t >= 'a')
 156              		.loc 1 172 0
 157 0092 602A     		cmp	r2, #96
 158              	.LBE97:
 159              	.LBE100:
 160              		.loc 2 62 0
 161 0094 C0B2     		uxtb	r0, r0
 162              	.LVL7:
 163              	.LBB101:
 164              	.LBB98:
 172:/home/jonas/warwick/3dProfilometer/xpcc/src/xpcc/driver/connectivity/can/can_lawicel_formatter/can_lawicel_formatter.cpp **** 	if (t >= 'a')
 165              		.loc 1 172 0
 166 0096 00F2E480 		bhi	.L67
 174:/home/jonas/warwick/3dProfilometer/xpcc/src/xpcc/driver/connectivity/can/can_lawicel_formatter/can_lawicel_formatter.cpp **** 	else if (t >= 'A')
 167              		.loc 1 174 0
 168 009a 402A     		cmp	r2, #64
 175:/home/jonas/warwick/3dProfilometer/xpcc/src/xpcc/driver/connectivity/can/can_lawicel_formatter/can_lawicel_formatter.cpp **** 		t = t - 'A' + 10;
 169              		.loc 1 175 0
 170 009c 8CBF     		ite	hi
 171 009e A2F13707 		subhi	r7, r2, #55
 172              		.loc 1 177 0
 173 00a2 A2F13007 		subls	r7, r2, #48
 174 00a6 FFB2     		uxtb	r7, r7
 175              	.LVL8:
 176              	.L16:
 177              	.LBE98:
 178              	.LBE101:
 179              	.LBE104:
 180              	.LBE107:
 181              	.LBB108:
 182              	.LBB109:
 183              	.LBB110:
 184              	.LBB111:
 171:/home/jonas/warwick/3dProfilometer/xpcc/src/xpcc/driver/connectivity/can/can_lawicel_formatter/can_lawicel_formatter.cpp **** 	uint8_t t = *s;
 185              		.loc 1 171 0
 186 00a8 E178     		ldrb	r1, [r4, #3]	@ zero_extendqisi2
 187              	.LBE111:
 188              	.LBE110:
 189              	.LBE109:
 190              	.LBE108:
  76:/home/jonas/warwick/3dProfilometer/xpcc/src/xpcc/driver/connectivity/can/can_lawicel_formatter/can_lawicel_formatter.cpp **** 		id  = hexToByte(&in[1]) << 8;
 191              		.loc 1 76 0
 192 00aa 0743     		orrs	r7, r7, r0
 193              	.LVL9:
 194 00ac 3F02     		lsls	r7, r7, #8
 195              	.LVL10:
 196              	.LBB127:
 197              	.LBB124:
 198              	.LBB114:
 199              	.LBB112:
 172:/home/jonas/warwick/3dProfilometer/xpcc/src/xpcc/driver/connectivity/can/can_lawicel_formatter/can_lawicel_formatter.cpp **** 	if (t >= 'a')
 200              		.loc 1 172 0
 201 00ae 6029     		cmp	r1, #96
 202 00b0 40F2BA80 		bls	.L18
 173:/home/jonas/warwick/3dProfilometer/xpcc/src/xpcc/driver/connectivity/can/can_lawicel_formatter/can_lawicel_formatter.cpp **** 		t = t - 'a' + 10;
 203              		.loc 1 173 0
 204 00b4 A1F1570C 		sub	ip, r1, #87
 205 00b8 5FFA8CFC 		uxtb	ip, ip
 206              	.LVL11:
 207              	.L19:
 208              	.LBE112:
 209              	.LBE114:
 210              	.LBB115:
 211              	.LBB116:
 171:/home/jonas/warwick/3dProfilometer/xpcc/src/xpcc/driver/connectivity/can/can_lawicel_formatter/can_lawicel_formatter.cpp **** 	uint8_t t = *s;
 212              		.loc 1 171 0
 213 00bc 2279     		ldrb	r2, [r4, #4]	@ zero_extendqisi2
 214              	.LBE116:
 215              	.LBE115:
 216              		.loc 2 62 0
 217 00be 4FEA0C1C 		lsl	ip, ip, #4
 218              	.LVL12:
 219              	.LBB120:
 220              	.LBB117:
 172:/home/jonas/warwick/3dProfilometer/xpcc/src/xpcc/driver/connectivity/can/can_lawicel_formatter/can_lawicel_formatter.cpp **** 	if (t >= 'a')
 221              		.loc 1 172 0
 222 00c2 602A     		cmp	r2, #96
 223              	.LBE117:
 224              	.LBE120:
 225              		.loc 2 62 0
 226 00c4 5FFA8CFC 		uxtb	ip, ip
 227              	.LVL13:
 228              	.LBB121:
 229              	.LBB118:
 172:/home/jonas/warwick/3dProfilometer/xpcc/src/xpcc/driver/connectivity/can/can_lawicel_formatter/can_lawicel_formatter.cpp **** 	if (t >= 'a')
 230              		.loc 1 172 0
 231 00c8 00F2D380 		bhi	.L68
 174:/home/jonas/warwick/3dProfilometer/xpcc/src/xpcc/driver/connectivity/can/can_lawicel_formatter/can_lawicel_formatter.cpp **** 	else if (t >= 'A')
 232              		.loc 1 174 0
 233 00cc 402A     		cmp	r2, #64
 175:/home/jonas/warwick/3dProfilometer/xpcc/src/xpcc/driver/connectivity/can/can_lawicel_formatter/can_lawicel_formatter.cpp **** 		t = t - 'A' + 10;
 234              		.loc 1 175 0
 235 00ce 8CBF     		ite	hi
 236 00d0 A2F13700 		subhi	r0, r2, #55
 237              		.loc 1 177 0
 238 00d4 A2F13000 		subls	r0, r2, #48
 239 00d8 C0B2     		uxtb	r0, r0
 240              	.LVL14:
 241              	.L22:
 242              	.LBE118:
 243              	.LBE121:
 244              	.LBE124:
 245              	.LBE127:
 246              	.LBB128:
 247              	.LBB129:
 248              	.LBB130:
 249              	.LBB131:
 171:/home/jonas/warwick/3dProfilometer/xpcc/src/xpcc/driver/connectivity/can/can_lawicel_formatter/can_lawicel_formatter.cpp **** 	uint8_t t = *s;
 250              		.loc 1 171 0
 251 00da 6179     		ldrb	r1, [r4, #5]	@ zero_extendqisi2
 252              	.LBE131:
 253              	.LBE130:
 254              	.LBE129:
 255              	.LBE128:
  77:/home/jonas/warwick/3dProfilometer/xpcc/src/xpcc/driver/connectivity/can/can_lawicel_formatter/can_lawicel_formatter.cpp **** 		id |= hexToByte(&in[3]);
 256              		.loc 1 77 0
 257 00dc 40EA0C00 		orr	r0, r0, ip
 258              	.LVL15:
 259              	.LBB150:
 260              	.LBB146:
 261              	.LBB135:
 262              	.LBB132:
 172:/home/jonas/warwick/3dProfilometer/xpcc/src/xpcc/driver/connectivity/can/can_lawicel_formatter/can_lawicel_formatter.cpp **** 	if (t >= 'a')
 263              		.loc 1 172 0
 264 00e0 6029     		cmp	r1, #96
 265              	.LBE132:
 266              	.LBE135:
 267              	.LBE146:
 268              	.LBE150:
  77:/home/jonas/warwick/3dProfilometer/xpcc/src/xpcc/driver/connectivity/can/can_lawicel_formatter/can_lawicel_formatter.cpp **** 		id |= hexToByte(&in[3]);
 269              		.loc 1 77 0
 270 00e2 40EA0700 		orr	r0, r0, r7
 271              	.LVL16:
 272              	.LBB151:
 273              	.LBB147:
 274              	.LBB136:
 275              	.LBB133:
 172:/home/jonas/warwick/3dProfilometer/xpcc/src/xpcc/driver/connectivity/can/can_lawicel_formatter/can_lawicel_formatter.cpp **** 	if (t >= 'a')
 276              		.loc 1 172 0
 277 00e6 40F2AD80 		bls	.L24
 173:/home/jonas/warwick/3dProfilometer/xpcc/src/xpcc/driver/connectivity/can/can_lawicel_formatter/can_lawicel_formatter.cpp **** 		t = t - 'a' + 10;
 278              		.loc 1 173 0
 279 00ea A1F1570C 		sub	ip, r1, #87
 280 00ee 5FFA8CFC 		uxtb	ip, ip
 281              	.LVL17:
 282              	.L25:
 283              	.LBE133:
 284              	.LBE136:
 285              	.LBB137:
 286              	.LBB138:
 171:/home/jonas/warwick/3dProfilometer/xpcc/src/xpcc/driver/connectivity/can/can_lawicel_formatter/can_lawicel_formatter.cpp **** 	uint8_t t = *s;
 287              		.loc 1 171 0
 288 00f2 A279     		ldrb	r2, [r4, #6]	@ zero_extendqisi2
 289              	.LBE138:
 290              	.LBE137:
 291              		.loc 2 62 0
 292 00f4 4FEA0C1C 		lsl	ip, ip, #4
 293              	.LVL18:
 294              	.LBB142:
 295              	.LBB139:
 172:/home/jonas/warwick/3dProfilometer/xpcc/src/xpcc/driver/connectivity/can/can_lawicel_formatter/can_lawicel_formatter.cpp **** 	if (t >= 'a')
 296              		.loc 1 172 0
 297 00f8 602A     		cmp	r2, #96
 298              	.LBE139:
 299              	.LBE142:
 300              		.loc 2 62 0
 301 00fa 5FFA8CFC 		uxtb	ip, ip
 302              	.LVL19:
 303              	.LBB143:
 304              	.LBB140:
 172:/home/jonas/warwick/3dProfilometer/xpcc/src/xpcc/driver/connectivity/can/can_lawicel_formatter/can_lawicel_formatter.cpp **** 	if (t >= 'a')
 305              		.loc 1 172 0
 306 00fe 00F2B480 		bhi	.L69
 174:/home/jonas/warwick/3dProfilometer/xpcc/src/xpcc/driver/connectivity/can/can_lawicel_formatter/can_lawicel_formatter.cpp **** 	else if (t >= 'A')
 307              		.loc 1 174 0
 308 0102 402A     		cmp	r2, #64
 175:/home/jonas/warwick/3dProfilometer/xpcc/src/xpcc/driver/connectivity/can/can_lawicel_formatter/can_lawicel_formatter.cpp **** 		t = t - 'A' + 10;
 309              		.loc 1 175 0
 310 0104 8CBF     		ite	hi
 311 0106 A2F13707 		subhi	r7, r2, #55
 312              		.loc 1 177 0
 313 010a A2F13007 		subls	r7, r2, #48
 314 010e FFB2     		uxtb	r7, r7
 315              	.LVL20:
 316              	.L28:
 317              	.LBE140:
 318              	.LBE143:
 319              	.LBE147:
 320              	.LBE151:
 321              	.LBB152:
 322              	.LBB153:
 323              	.LBB154:
 324              	.LBB155:
 171:/home/jonas/warwick/3dProfilometer/xpcc/src/xpcc/driver/connectivity/can/can_lawicel_formatter/can_lawicel_formatter.cpp **** 	uint8_t t = *s;
 325              		.loc 1 171 0
 326 0110 E179     		ldrb	r1, [r4, #7]	@ zero_extendqisi2
 327              	.LBE155:
 328              	.LBE154:
 329              	.LBE153:
 330              	.LBE152:
  79:/home/jonas/warwick/3dProfilometer/xpcc/src/xpcc/driver/connectivity/can/can_lawicel_formatter/can_lawicel_formatter.cpp **** 		id2  = hexToByte(&in[5]) << 8;
 331              		.loc 1 79 0
 332 0112 47EA0C07 		orr	r7, r7, ip
 333              	.LVL21:
 334 0116 3F02     		lsls	r7, r7, #8
 335              	.LVL22:
 336              	.LBB176:
 337              	.LBB172:
 338              	.LBB159:
 339              	.LBB156:
 172:/home/jonas/warwick/3dProfilometer/xpcc/src/xpcc/driver/connectivity/can/can_lawicel_formatter/can_lawicel_formatter.cpp **** 	if (t >= 'a')
 340              		.loc 1 172 0
 341 0118 6029     		cmp	r1, #96
 342 011a 40F28E80 		bls	.L30
 173:/home/jonas/warwick/3dProfilometer/xpcc/src/xpcc/driver/connectivity/can/can_lawicel_formatter/can_lawicel_formatter.cpp **** 		t = t - 'a' + 10;
 343              		.loc 1 173 0
 344 011e 5739     		subs	r1, r1, #87
 345 0120 C9B2     		uxtb	r1, r1
 346              	.LVL23:
 347              	.L31:
 348              	.LBE156:
 349              	.LBE159:
 350              	.LBB160:
 351              	.LBB161:
 171:/home/jonas/warwick/3dProfilometer/xpcc/src/xpcc/driver/connectivity/can/can_lawicel_formatter/can_lawicel_formatter.cpp **** 	uint8_t t = *s;
 352              		.loc 1 171 0
 353 0122 227A     		ldrb	r2, [r4, #8]	@ zero_extendqisi2
 354              	.LBE161:
 355              	.LBE160:
 356              		.loc 2 62 0
 357 0124 0901     		lsls	r1, r1, #4
 358              	.LVL24:
 359              	.LBB166:
 360              	.LBB162:
 172:/home/jonas/warwick/3dProfilometer/xpcc/src/xpcc/driver/connectivity/can/can_lawicel_formatter/can_lawicel_formatter.cpp **** 	if (t >= 'a')
 361              		.loc 1 172 0
 362 0126 602A     		cmp	r2, #96
 363              	.LBE162:
 364              	.LBE166:
 365              		.loc 2 62 0
 366 0128 C9B2     		uxtb	r1, r1
 367              	.LVL25:
 368              	.LBB167:
 369              	.LBB163:
 172:/home/jonas/warwick/3dProfilometer/xpcc/src/xpcc/driver/connectivity/can/can_lawicel_formatter/can_lawicel_formatter.cpp **** 	if (t >= 'a')
 370              		.loc 1 172 0
 371 012a 00F29480 		bhi	.L70
 174:/home/jonas/warwick/3dProfilometer/xpcc/src/xpcc/driver/connectivity/can/can_lawicel_formatter/can_lawicel_formatter.cpp **** 	else if (t >= 'A')
 372              		.loc 1 174 0
 373 012e 402A     		cmp	r2, #64
 374 0130 00F2A680 		bhi	.L71
 375              		.loc 1 177 0
 376 0134 303A     		subs	r2, r2, #48
 377 0136 D2B2     		uxtb	r2, r2
 378              	.LVL26:
 379              	.L34:
 380              	.LBE163:
 381              	.LBE167:
 382              	.LBE172:
 383              	.LBE176:
  80:/home/jonas/warwick/3dProfilometer/xpcc/src/xpcc/driver/connectivity/can/can_lawicel_formatter/can_lawicel_formatter.cpp **** 		id2 |= hexToByte(&in[7]);
 384              		.loc 1 80 0
 385 0138 0A43     		orrs	r2, r2, r1
 386              	.LVL27:
 387 013a 3A43     		orrs	r2, r2, r7
  82:/home/jonas/warwick/3dProfilometer/xpcc/src/xpcc/driver/connectivity/can/can_lawicel_formatter/can_lawicel_formatter.cpp **** 		out.identifier = (uint32_t) id << 16 | id2;
 388              		.loc 1 82 0
 389 013c 42EA0042 		orr	r2, r2, r0, lsl #16
 390 0140 2A60     		str	r2, [r5, #0]
 391              	.LVL28:
 392              	.L36:
 393              	.LBE186:
 394              	.LBE86:
 395              	.LBB224:
  94:/home/jonas/warwick/3dProfilometer/xpcc/src/xpcc/driver/connectivity/can/can_lawicel_formatter/can_lawicel_formatter.cpp **** 	if (!out.flags.rtr)
 396              		.loc 1 94 0
 397 0142 002B     		cmp	r3, #0
 398 0144 65D1     		bne	.L47
 399              	.LBB225:
  96:/home/jonas/warwick/3dProfilometer/xpcc/src/xpcc/driver/connectivity/can/can_lawicel_formatter/can_lawicel_formatter.cpp **** 		const char *buf = &in[dlc_pos + 1];
 400              		.loc 1 96 0
 401 0146 4444     		add	r4, r4, r8
 402              	.LVL29:
  99:/home/jonas/warwick/3dProfilometer/xpcc/src/xpcc/driver/connectivity/can/can_lawicel_formatter/can_lawicel_formatter.cpp **** 		for (i=0; i < out.length; i++)
 403              		.loc 1 99 0
 404 0148 A6B9     		cbnz	r6, .L54
 405 014a 62E0     		b	.L47
 406              	.LVL30:
 407              	.L74:
 408              	.LBB226:
 409              	.LBB227:
 410              	.LBB228:
 411              	.LBB229:
 173:/home/jonas/warwick/3dProfilometer/xpcc/src/xpcc/driver/connectivity/can/can_lawicel_formatter/can_lawicel_formatter.cpp **** 		t = t - 'a' + 10;
 412              		.loc 1 173 0
 413 014c A2F15700 		sub	r0, r2, #87
 414              	.LBE229:
 415              	.LBE228:
 416              	.LBB233:
 417              	.LBB234:
 171:/home/jonas/warwick/3dProfilometer/xpcc/src/xpcc/driver/connectivity/can/can_lawicel_formatter/can_lawicel_formatter.cpp **** 	uint8_t t = *s;
 418              		.loc 1 171 0
 419 0150 6278     		ldrb	r2, [r4, #1]	@ zero_extendqisi2
 420              	.LBE234:
 421              	.LBE233:
 422              	.LBB241:
 423              	.LBB230:
 173:/home/jonas/warwick/3dProfilometer/xpcc/src/xpcc/driver/connectivity/can/can_lawicel_formatter/can_lawicel_formatter.cpp **** 		t = t - 'a' + 10;
 424              		.loc 1 173 0
 425 0152 C0B2     		uxtb	r0, r0
 426              	.LVL31:
 427              	.LBE230:
 428              	.LBE241:
 429              		.loc 2 62 0
 430 0154 0001     		lsls	r0, r0, #4
 431              	.LVL32:
 432              	.LBB242:
 433              	.LBB235:
 172:/home/jonas/warwick/3dProfilometer/xpcc/src/xpcc/driver/connectivity/can/can_lawicel_formatter/can_lawicel_formatter.cpp **** 	if (t >= 'a')
 434              		.loc 1 172 0
 435 0156 602A     		cmp	r2, #96
 436              	.LBE235:
 437              	.LBE242:
 438              		.loc 2 62 0
 439 0158 C0B2     		uxtb	r0, r0
 440              	.LVL33:
 441              	.LBB243:
 442              	.LBB236:
 172:/home/jonas/warwick/3dProfilometer/xpcc/src/xpcc/driver/connectivity/can/can_lawicel_formatter/can_lawicel_formatter.cpp **** 	if (t >= 'a')
 443              		.loc 1 172 0
 444 015a 1AD8     		bhi	.L72
 445              	.LVL34:
 446              	.L51:
 174:/home/jonas/warwick/3dProfilometer/xpcc/src/xpcc/driver/connectivity/can/can_lawicel_formatter/can_lawicel_formatter.cpp **** 	else if (t >= 'A')
 447              		.loc 1 174 0
 448 015c 402A     		cmp	r2, #64
 449 015e 55D8     		bhi	.L73
 450              		.loc 1 177 0
 451 0160 303A     		subs	r2, r2, #48
 452 0162 D2B2     		uxtb	r2, r2
 453              	.LVL35:
 454              	.L52:
 455              	.LBE236:
 456              	.LBE243:
 457              	.LBE227:
 458              	.LBE226:
 101:/home/jonas/warwick/3dProfilometer/xpcc/src/xpcc/driver/connectivity/can/can_lawicel_formatter/can_lawicel_formatter.cpp **** 			out.data[i] = hexToByte(buf);
 459              		.loc 1 101 0
 460 0164 E918     		adds	r1, r5, r3
  99:/home/jonas/warwick/3dProfilometer/xpcc/src/xpcc/driver/connectivity/can/can_lawicel_formatter/can_lawicel_formatter.cpp **** 		for (i=0; i < out.length; i++)
 461              		.loc 1 99 0
 462 0166 0133     		adds	r3, r3, #1
 463 0168 DBB2     		uxtb	r3, r3
 464              	.LBB253:
 465              	.LBB250:
 466              		.loc 2 62 0
 467 016a 0243     		orrs	r2, r2, r0
 468              	.LVL36:
 469              	.LBE250:
 470              	.LBE253:
 102:/home/jonas/warwick/3dProfilometer/xpcc/src/xpcc/driver/connectivity/can/can_lawicel_formatter/can_lawicel_formatter.cpp **** 			buf += 2;
 471              		.loc 1 102 0
 472 016c 0234     		adds	r4, r4, #2
 473              	.LVL37:
  99:/home/jonas/warwick/3dProfilometer/xpcc/src/xpcc/driver/connectivity/can/can_lawicel_formatter/can_lawicel_formatter.cpp **** 		for (i=0; i < out.length; i++)
 474              		.loc 1 99 0
 475 016e 9E42     		cmp	r6, r3
 101:/home/jonas/warwick/3dProfilometer/xpcc/src/xpcc/driver/connectivity/can/can_lawicel_formatter/can_lawicel_formatter.cpp **** 			out.data[i] = hexToByte(buf);
 476              		.loc 1 101 0
 477 0170 0A71     		strb	r2, [r1, #4]
  99:/home/jonas/warwick/3dProfilometer/xpcc/src/xpcc/driver/connectivity/can/can_lawicel_formatter/can_lawicel_formatter.cpp **** 		for (i=0; i < out.length; i++)
 478              		.loc 1 99 0
 479 0172 4ED9     		bls	.L47
 480              	.LVL38:
 481              	.L54:
 482              	.LBB254:
 483              	.LBB251:
 484              	.LBB244:
 485              	.LBB231:
 171:/home/jonas/warwick/3dProfilometer/xpcc/src/xpcc/driver/connectivity/can/can_lawicel_formatter/can_lawicel_formatter.cpp **** 	uint8_t t = *s;
 486              		.loc 1 171 0 discriminator 2
 487 0174 2278     		ldrb	r2, [r4, #0]	@ zero_extendqisi2
 488              	.LVL39:
 172:/home/jonas/warwick/3dProfilometer/xpcc/src/xpcc/driver/connectivity/can/can_lawicel_formatter/can_lawicel_formatter.cpp **** 	if (t >= 'a')
 489              		.loc 1 172 0 discriminator 2
 490 0176 602A     		cmp	r2, #96
 491 0178 E8D8     		bhi	.L74
 174:/home/jonas/warwick/3dProfilometer/xpcc/src/xpcc/driver/connectivity/can/can_lawicel_formatter/can_lawicel_formatter.cpp **** 	else if (t >= 'A')
 492              		.loc 1 174 0
 493 017a 402A     		cmp	r2, #64
 175:/home/jonas/warwick/3dProfilometer/xpcc/src/xpcc/driver/connectivity/can/can_lawicel_formatter/can_lawicel_formatter.cpp **** 		t = t - 'A' + 10;
 494              		.loc 1 175 0
 495 017c 8CBF     		ite	hi
 496 017e A2F13700 		subhi	r0, r2, #55
 497              		.loc 1 177 0
 498 0182 A2F13000 		subls	r0, r2, #48
 499              	.LBE231:
 500              	.LBE244:
 501              	.LBB245:
 502              	.LBB237:
 171:/home/jonas/warwick/3dProfilometer/xpcc/src/xpcc/driver/connectivity/can/can_lawicel_formatter/can_lawicel_formatter.cpp **** 	uint8_t t = *s;
 503              		.loc 1 171 0
 504 0186 6278     		ldrb	r2, [r4, #1]	@ zero_extendqisi2
 505              	.LBE237:
 506              	.LBE245:
 507              	.LBB246:
 508              	.LBB232:
 509              		.loc 1 177 0
 510 0188 C0B2     		uxtb	r0, r0
 511              	.LVL40:
 512              	.LBE232:
 513              	.LBE246:
 514              		.loc 2 62 0
 515 018a 0001     		lsls	r0, r0, #4
 516              	.LVL41:
 517              	.LBB247:
 518              	.LBB238:
 172:/home/jonas/warwick/3dProfilometer/xpcc/src/xpcc/driver/connectivity/can/can_lawicel_formatter/can_lawicel_formatter.cpp **** 	if (t >= 'a')
 519              		.loc 1 172 0
 520 018c 602A     		cmp	r2, #96
 521              	.LBE238:
 522              	.LBE247:
 523              		.loc 2 62 0
 524 018e C0B2     		uxtb	r0, r0
 525              	.LVL42:
 526              	.LBB248:
 527              	.LBB239:
 172:/home/jonas/warwick/3dProfilometer/xpcc/src/xpcc/driver/connectivity/can/can_lawicel_formatter/can_lawicel_formatter.cpp **** 	if (t >= 'a')
 528              		.loc 1 172 0
 529 0190 E4D9     		bls	.L51
 530              	.LVL43:
 531              	.L72:
 173:/home/jonas/warwick/3dProfilometer/xpcc/src/xpcc/driver/connectivity/can/can_lawicel_formatter/can_lawicel_formatter.cpp **** 		t = t - 'a' + 10;
 532              		.loc 1 173 0
 533 0192 573A     		subs	r2, r2, #87
 534 0194 D2B2     		uxtb	r2, r2
 535              	.LVL44:
 536 0196 E5E7     		b	.L52
 537              	.LVL45:
 538              	.L7:
 539              	.LBE239:
 540              	.LBE248:
 541              	.LBE251:
 542              	.LBE254:
  52:/home/jonas/warwick/3dProfilometer/xpcc/src/xpcc/driver/connectivity/can/can_lawicel_formatter/can_lawicel_formatter.cpp **** 		return false;
 543              		.loc 1 52 0
 544 0198 0020     		movs	r0, #0
 545 019a BDE8F087 		pop	{r4, r5, r6, r7, r8, r9, sl, pc}
 546              	.LVL46:
 547              	.L4:
 548              	.LBE225:
 549              	.LBE224:
 550              	.LBE260:
  39:/home/jonas/warwick/3dProfilometer/xpcc/src/xpcc/driver/connectivity/can/can_lawicel_formatter/can_lawicel_formatter.cpp **** {
 551              		.loc 1 39 0
 552 019e 4FF00909 		mov	r9, #9
 553 01a2 4FF00A08 		mov	r8, #10
 554 01a6 4E46     		mov	r6, r9
  43:/home/jonas/warwick/3dProfilometer/xpcc/src/xpcc/driver/connectivity/can/can_lawicel_formatter/can_lawicel_formatter.cpp **** 		out.flags.extended = true;
 555              		.loc 1 43 0
 556 01a8 4FF0010A 		mov	sl, #1
 557 01ac 3AE7     		b	.L3
 558              	.LVL47:
 559              	.L8:
 560              	.LBB261:
  60:/home/jonas/warwick/3dProfilometer/xpcc/src/xpcc/driver/connectivity/can/can_lawicel_formatter/can_lawicel_formatter.cpp **** 		out.flags.rtr = true;
 561              		.loc 1 60 0
 562 01ae 2B7B     		ldrb	r3, [r5, #12]	@ zero_extendqisi2
 563 01b0 43F00103 		orr	r3, r3, #1
 564 01b4 2B73     		strb	r3, [r5, #12]
  61:/home/jonas/warwick/3dProfilometer/xpcc/src/xpcc/driver/connectivity/can/can_lawicel_formatter/can_lawicel_formatter.cpp **** 		if (std::strlen(in) != (dlc_pos + 1U))
 565              		.loc 1 61 0
 566 01b6 2046     		mov	r0, r4
 567 01b8 B847     		blx	r7
 568              	.LVL48:
 569 01ba 4045     		cmp	r0, r8
 570 01bc ECD1     		bne	.L7
 571 01be 0123     		movs	r3, #1
 572 01c0 56E7     		b	.L10
 573              	.L11:
 574              	.LVL49:
 575              	.LBB257:
 576              	.LBB187:
 577              	.LBB188:
 578              	.LBB189:
 172:/home/jonas/warwick/3dProfilometer/xpcc/src/xpcc/driver/connectivity/can/can_lawicel_formatter/can_lawicel_formatter.cpp **** 	if (t >= 'a')
 579              		.loc 1 172 0
 580 01c2 602A     		cmp	r2, #96
 581 01c4 1AD8     		bhi	.L75
 174:/home/jonas/warwick/3dProfilometer/xpcc/src/xpcc/driver/connectivity/can/can_lawicel_formatter/can_lawicel_formatter.cpp **** 	else if (t >= 'A')
 582              		.loc 1 174 0
 583 01c6 402A     		cmp	r2, #64
 175:/home/jonas/warwick/3dProfilometer/xpcc/src/xpcc/driver/connectivity/can/can_lawicel_formatter/can_lawicel_formatter.cpp **** 		t = t - 'A' + 10;
 584              		.loc 1 175 0
 585 01c8 8CBF     		ite	hi
 586 01ca A2F13701 		subhi	r1, r2, #55
 587              		.loc 1 177 0
 588 01ce A2F13001 		subls	r1, r2, #48
 589 01d2 C9B2     		uxtb	r1, r1
 590              	.LVL50:
 591              	.L38:
 592              	.LBE189:
 593              	.LBE188:
 594              	.LBB191:
 595              	.LBB192:
 596              	.LBB193:
 597              	.LBB194:
 171:/home/jonas/warwick/3dProfilometer/xpcc/src/xpcc/driver/connectivity/can/can_lawicel_formatter/can_lawicel_formatter.cpp **** 	uint8_t t = *s;
 598              		.loc 1 171 0
 599 01d4 A278     		ldrb	r2, [r4, #2]	@ zero_extendqisi2
 600              	.LBE194:
 601              	.LBE193:
 602              	.LBE192:
 603              	.LBE191:
  87:/home/jonas/warwick/3dProfilometer/xpcc/src/xpcc/driver/connectivity/can/can_lawicel_formatter/can_lawicel_formatter.cpp **** 		id  = charToByte(&in[1]) << 8;
 604              		.loc 1 87 0
 605 01d6 0902     		lsls	r1, r1, #8
 606              	.LVL51:
 607              	.LBB213:
 608              	.LBB209:
 609              	.LBB197:
 610              	.LBB195:
 172:/home/jonas/warwick/3dProfilometer/xpcc/src/xpcc/driver/connectivity/can/can_lawicel_formatter/can_lawicel_formatter.cpp **** 	if (t >= 'a')
 611              		.loc 1 172 0
 612 01d8 602A     		cmp	r2, #96
 613 01da 1DD9     		bls	.L40
 173:/home/jonas/warwick/3dProfilometer/xpcc/src/xpcc/driver/connectivity/can/can_lawicel_formatter/can_lawicel_formatter.cpp **** 		t = t - 'a' + 10;
 614              		.loc 1 173 0
 615 01dc A2F15700 		sub	r0, r2, #87
 616 01e0 C0B2     		uxtb	r0, r0
 617              	.LVL52:
 618              	.L41:
 619              	.LBE195:
 620              	.LBE197:
 621              	.LBB198:
 622              	.LBB199:
 171:/home/jonas/warwick/3dProfilometer/xpcc/src/xpcc/driver/connectivity/can/can_lawicel_formatter/can_lawicel_formatter.cpp **** 	uint8_t t = *s;
 623              		.loc 1 171 0
 624 01e2 E278     		ldrb	r2, [r4, #3]	@ zero_extendqisi2
 625              	.LBE199:
 626              	.LBE198:
 627              		.loc 2 62 0
 628 01e4 0001     		lsls	r0, r0, #4
 629              	.LVL53:
 630              	.LBB204:
 631              	.LBB200:
 172:/home/jonas/warwick/3dProfilometer/xpcc/src/xpcc/driver/connectivity/can/can_lawicel_formatter/can_lawicel_formatter.cpp **** 	if (t >= 'a')
 632              		.loc 1 172 0
 633 01e6 602A     		cmp	r2, #96
 634              	.LBE200:
 635              	.LBE204:
 636              		.loc 2 62 0
 637 01e8 C0B2     		uxtb	r0, r0
 638              	.LVL54:
 639              	.LBB205:
 640              	.LBB201:
 172:/home/jonas/warwick/3dProfilometer/xpcc/src/xpcc/driver/connectivity/can/can_lawicel_formatter/can_lawicel_formatter.cpp **** 	if (t >= 'a')
 641              		.loc 1 172 0
 642 01ea 37D8     		bhi	.L76
 174:/home/jonas/warwick/3dProfilometer/xpcc/src/xpcc/driver/connectivity/can/can_lawicel_formatter/can_lawicel_formatter.cpp **** 	else if (t >= 'A')
 643              		.loc 1 174 0
 644 01ec 402A     		cmp	r2, #64
 645 01ee 4AD8     		bhi	.L77
 646              		.loc 1 177 0
 647 01f0 303A     		subs	r2, r2, #48
 648 01f2 D2B2     		uxtb	r2, r2
 649              	.LVL55:
 650              	.L44:
 651              	.LBE201:
 652              	.LBE205:
 653              	.LBE209:
 654              	.LBE213:
  88:/home/jonas/warwick/3dProfilometer/xpcc/src/xpcc/driver/connectivity/can/can_lawicel_formatter/can_lawicel_formatter.cpp **** 		id |= hexToByte(&in[2]);
 655              		.loc 1 88 0
 656 01f4 0243     		orrs	r2, r2, r0
 657              	.LVL56:
 658 01f6 0A43     		orrs	r2, r2, r1
  90:/home/jonas/warwick/3dProfilometer/xpcc/src/xpcc/driver/connectivity/can/can_lawicel_formatter/can_lawicel_formatter.cpp **** 		out.identifier = id;
 659              		.loc 1 90 0
 660 01f8 2A60     		str	r2, [r5, #0]
 661 01fa A2E7     		b	.L36
 662              	.LVL57:
 663              	.L75:
 664              	.LBB214:
 665              	.LBB190:
 173:/home/jonas/warwick/3dProfilometer/xpcc/src/xpcc/driver/connectivity/can/can_lawicel_formatter/can_lawicel_formatter.cpp **** 		t = t - 'a' + 10;
 666              		.loc 1 173 0
 667 01fc A2F15701 		sub	r1, r2, #87
 668 0200 C9B2     		uxtb	r1, r1
 669              	.LVL58:
 670 0202 E7E7     		b	.L38
 671              	.LVL59:
 672              	.L66:
 673              	.LBE190:
 674              	.LBE214:
 675              	.LBE187:
 676              	.LBB218:
 677              	.LBB177:
 678              	.LBB105:
 679              	.LBB102:
 680              	.LBB93:
 681 0204 A2F15700 		sub	r0, r2, #87
 682 0208 C0B2     		uxtb	r0, r0
 683              	.LVL60:
 684 020a 40E7     		b	.L13
 685              	.LVL61:
 686              	.L73:
 687              	.LBE93:
 688              	.LBE102:
 689              	.LBE105:
 690              	.LBE177:
 691              	.LBE218:
 692              	.LBE257:
 693              	.LBB258:
 694              	.LBB256:
 695              	.LBB255:
 696              	.LBB252:
 697              	.LBB249:
 698              	.LBB240:
 175:/home/jonas/warwick/3dProfilometer/xpcc/src/xpcc/driver/connectivity/can/can_lawicel_formatter/can_lawicel_formatter.cpp **** 		t = t - 'A' + 10;
 699              		.loc 1 175 0
 700 020c 373A     		subs	r2, r2, #55
 701 020e D2B2     		uxtb	r2, r2
 702              	.LVL62:
 703 0210 A8E7     		b	.L52
 704              	.LVL63:
 705              	.L47:
 706              	.LBE240:
 707              	.LBE249:
 708              	.LBE252:
 709              	.LBE255:
 105:/home/jonas/warwick/3dProfilometer/xpcc/src/xpcc/driver/connectivity/can/can_lawicel_formatter/can_lawicel_formatter.cpp **** 	return true;
 710              		.loc 1 105 0
 711 0212 0120     		movs	r0, #1
 712 0214 BDE8F087 		pop	{r4, r5, r6, r7, r8, r9, sl, pc}
 713              	.LVL64:
 714              	.L40:
 715              	.LBE256:
 716              	.LBE258:
 717              	.LBB259:
 718              	.LBB219:
 719              	.LBB215:
 720              	.LBB210:
 721              	.LBB206:
 722              	.LBB196:
 174:/home/jonas/warwick/3dProfilometer/xpcc/src/xpcc/driver/connectivity/can/can_lawicel_formatter/can_lawicel_formatter.cpp **** 	else if (t >= 'A')
 723              		.loc 1 174 0
 724 0218 402A     		cmp	r2, #64
 175:/home/jonas/warwick/3dProfilometer/xpcc/src/xpcc/driver/connectivity/can/can_lawicel_formatter/can_lawicel_formatter.cpp **** 		t = t - 'A' + 10;
 725              		.loc 1 175 0
 726 021a 8CBF     		ite	hi
 727 021c A2F13700 		subhi	r0, r2, #55
 728              		.loc 1 177 0
 729 0220 A2F13000 		subls	r0, r2, #48
 730 0224 C0B2     		uxtb	r0, r0
 731              	.LVL65:
 732 0226 DCE7     		b	.L41
 733              	.LVL66:
 734              	.L18:
 735              	.LBE196:
 736              	.LBE206:
 737              	.LBE210:
 738              	.LBE215:
 739              	.LBE219:
 740              	.LBB220:
 741              	.LBB178:
 742              	.LBB125:
 743              	.LBB122:
 744              	.LBB113:
 174:/home/jonas/warwick/3dProfilometer/xpcc/src/xpcc/driver/connectivity/can/can_lawicel_formatter/can_lawicel_formatter.cpp **** 	else if (t >= 'A')
 745              		.loc 1 174 0
 746 0228 4029     		cmp	r1, #64
 175:/home/jonas/warwick/3dProfilometer/xpcc/src/xpcc/driver/connectivity/can/can_lawicel_formatter/can_lawicel_formatter.cpp **** 		t = t - 'A' + 10;
 747              		.loc 1 175 0
 748 022a 8CBF     		ite	hi
 749 022c A1F1370C 		subhi	ip, r1, #55
 750              		.loc 1 177 0
 751 0230 A1F1300C 		subls	ip, r1, #48
 752 0234 5FFA8CFC 		uxtb	ip, ip
 753              	.LVL67:
 754 0238 40E7     		b	.L19
 755              	.LVL68:
 756              	.L30:
 757              	.LBE113:
 758              	.LBE122:
 759              	.LBE125:
 760              	.LBE178:
 761              	.LBB179:
 762              	.LBB173:
 763              	.LBB168:
 764              	.LBB157:
 174:/home/jonas/warwick/3dProfilometer/xpcc/src/xpcc/driver/connectivity/can/can_lawicel_formatter/can_lawicel_formatter.cpp **** 	else if (t >= 'A')
 765              		.loc 1 174 0
 766 023a 4029     		cmp	r1, #64
 767 023c 1DD9     		bls	.L32
 175:/home/jonas/warwick/3dProfilometer/xpcc/src/xpcc/driver/connectivity/can/can_lawicel_formatter/can_lawicel_formatter.cpp **** 		t = t - 'A' + 10;
 768              		.loc 1 175 0
 769 023e 3739     		subs	r1, r1, #55
 770 0240 C9B2     		uxtb	r1, r1
 771              	.LVL69:
 772 0242 6EE7     		b	.L31
 773              	.LVL70:
 774              	.L24:
 775              	.LBE157:
 776              	.LBE168:
 777              	.LBE173:
 778              	.LBE179:
 779              	.LBB180:
 780              	.LBB148:
 781              	.LBB144:
 782              	.LBB134:
 174:/home/jonas/warwick/3dProfilometer/xpcc/src/xpcc/driver/connectivity/can/can_lawicel_formatter/can_lawicel_formatter.cpp **** 	else if (t >= 'A')
 783              		.loc 1 174 0
 784 0244 4029     		cmp	r1, #64
 175:/home/jonas/warwick/3dProfilometer/xpcc/src/xpcc/driver/connectivity/can/can_lawicel_formatter/can_lawicel_formatter.cpp **** 		t = t - 'A' + 10;
 785              		.loc 1 175 0
 786 0246 8CBF     		ite	hi
 787 0248 A1F1370C 		subhi	ip, r1, #55
 788              		.loc 1 177 0
 789 024c A1F1300C 		subls	ip, r1, #48
 790 0250 5FFA8CFC 		uxtb	ip, ip
 791              	.LVL71:
 792 0254 4DE7     		b	.L25
 793              	.LVL72:
 794              	.L70:
 795              	.LBE134:
 796              	.LBE144:
 797              	.LBE148:
 798              	.LBE180:
 799              	.LBB181:
 800              	.LBB174:
 801              	.LBB169:
 802              	.LBB164:
 173:/home/jonas/warwick/3dProfilometer/xpcc/src/xpcc/driver/connectivity/can/can_lawicel_formatter/can_lawicel_formatter.cpp **** 		t = t - 'a' + 10;
 803              		.loc 1 173 0
 804 0256 573A     		subs	r2, r2, #87
 805 0258 D2B2     		uxtb	r2, r2
 806              	.LVL73:
 807 025a 6DE7     		b	.L34
 808              	.LVL74:
 809              	.L76:
 810              	.LBE164:
 811              	.LBE169:
 812              	.LBE174:
 813              	.LBE181:
 814              	.LBE220:
 815              	.LBB221:
 816              	.LBB216:
 817              	.LBB211:
 818              	.LBB207:
 819              	.LBB202:
 820 025c 573A     		subs	r2, r2, #87
 821 025e D2B2     		uxtb	r2, r2
 822              	.LVL75:
 823 0260 C8E7     		b	.L44
 824              	.LVL76:
 825              	.L67:
 826              	.LBE202:
 827              	.LBE207:
 828              	.LBE211:
 829              	.LBE216:
 830              	.LBE221:
 831              	.LBB222:
 832              	.LBB182:
 833              	.LBB106:
 834              	.LBB103:
 835              	.LBB99:
 836 0262 A2F15707 		sub	r7, r2, #87
 837 0266 FFB2     		uxtb	r7, r7
 838              	.LVL77:
 839 0268 1EE7     		b	.L16
 840              	.LVL78:
 841              	.L69:
 842              	.LBE99:
 843              	.LBE103:
 844              	.LBE106:
 845              	.LBE182:
 846              	.LBB183:
 847              	.LBB149:
 848              	.LBB145:
 849              	.LBB141:
 850 026a A2F15707 		sub	r7, r2, #87
 851 026e FFB2     		uxtb	r7, r7
 852              	.LVL79:
 853 0270 4EE7     		b	.L28
 854              	.LVL80:
 855              	.L68:
 856              	.LBE141:
 857              	.LBE145:
 858              	.LBE149:
 859              	.LBE183:
 860              	.LBB184:
 861              	.LBB126:
 862              	.LBB123:
 863              	.LBB119:
 864 0272 A2F15700 		sub	r0, r2, #87
 865 0276 C0B2     		uxtb	r0, r0
 866              	.LVL81:
 867 0278 2FE7     		b	.L22
 868              	.LVL82:
 869              	.L32:
 870              	.LBE119:
 871              	.LBE123:
 872              	.LBE126:
 873              	.LBE184:
 874              	.LBB185:
 875              	.LBB175:
 876              	.LBB170:
 877              	.LBB158:
 878              		.loc 1 177 0
 879 027a 3039     		subs	r1, r1, #48
 880 027c C9B2     		uxtb	r1, r1
 881              	.LVL83:
 882 027e 50E7     		b	.L31
 883              	.LVL84:
 884              	.L71:
 885              	.LBE158:
 886              	.LBE170:
 887              	.LBB171:
 888              	.LBB165:
 175:/home/jonas/warwick/3dProfilometer/xpcc/src/xpcc/driver/connectivity/can/can_lawicel_formatter/can_lawicel_formatter.cpp **** 		t = t - 'A' + 10;
 889              		.loc 1 175 0
 890 0280 373A     		subs	r2, r2, #55
 891 0282 D2B2     		uxtb	r2, r2
 892              	.LVL85:
 893 0284 58E7     		b	.L34
 894              	.LVL86:
 895              	.L77:
 896              	.LBE165:
 897              	.LBE171:
 898              	.LBE175:
 899              	.LBE185:
 900              	.LBE222:
 901              	.LBB223:
 902              	.LBB217:
 903              	.LBB212:
 904              	.LBB208:
 905              	.LBB203:
 906 0286 373A     		subs	r2, r2, #55
 907 0288 D2B2     		uxtb	r2, r2
 908              	.LVL87:
 909 028a B3E7     		b	.L44
 910              	.L79:
 911              		.align	2
 912              	.L78:
 913 028c 00000000 		.word	strlen
 914              	.LBE203:
 915              	.LBE208:
 916              	.LBE212:
 917              	.LBE217:
 918              	.LBE223:
 919              	.LBE259:
 920              	.LBE261:
 921              		.cfi_endproc
 922              	.LFE18:
 924              		.section	.text._ZN4xpcc19CanLawicelFormatter15convertToStringERKNS_3can7MessageEPc,"ax",%progbits
 925              		.align	2
 926              		.global	_ZN4xpcc19CanLawicelFormatter15convertToStringERKNS_3can7MessageEPc
 927              		.thumb
 928              		.thumb_func
 930              	_ZN4xpcc19CanLawicelFormatter15convertToStringERKNS_3can7MessageEPc:
 931              	.LFB19:
 111:/home/jonas/warwick/3dProfilometer/xpcc/src/xpcc/driver/connectivity/can/can_lawicel_formatter/can_lawicel_formatter.cpp **** {
 932              		.loc 1 111 0
 933              		.cfi_startproc
 934              		@ args = 0, pretend = 0, frame = 0
 935              		@ frame_needed = 0, uses_anonymous_args = 0
 936              		@ link register save eliminated.
 937              	.LVL88:
 938 0000 70B4     		push	{r4, r5, r6}
 939              	.LCFI1:
 940              		.cfi_def_cfa_offset 12
 941              		.cfi_offset 4, -12
 942              		.cfi_offset 5, -8
 943              		.cfi_offset 6, -4
 944              	.LBB262:
 112:/home/jonas/warwick/3dProfilometer/xpcc/src/xpcc/driver/connectivity/can/can_lawicel_formatter/can_lawicel_formatter.cpp **** 	if(in.flags.extended){
 945              		.loc 1 112 0
 946 0002 037B     		ldrb	r3, [r0, #12]	@ zero_extendqisi2
 947 0004 9A07     		lsls	r2, r3, #30
 948 0006 2ED5     		bpl	.L81
 113:/home/jonas/warwick/3dProfilometer/xpcc/src/xpcc/driver/connectivity/can/can_lawicel_formatter/can_lawicel_formatter.cpp **** 		if(in.flags.rtr){
 949              		.loc 1 113 0
 950 0008 DE07     		lsls	r6, r3, #31
 951 000a 40F18680 		bpl	.L82
 114:/home/jonas/warwick/3dProfilometer/xpcc/src/xpcc/driver/connectivity/can/can_lawicel_formatter/can_lawicel_formatter.cpp **** 			out[0]='R';
 952              		.loc 1 114 0
 953 000e 5223     		movs	r3, #82
 954 0010 0B70     		strb	r3, [r1, #0]
 955              	.LVL89:
 956              	.LBB263:
 131:/home/jonas/warwick/3dProfilometer/xpcc/src/xpcc/driver/connectivity/can/can_lawicel_formatter/can_lawicel_formatter.cpp **** 	if(in.flags.extended)
 957              		.loc 1 131 0
 958 0012 037B     		ldrb	r3, [r0, #12]	@ zero_extendqisi2
 959 0014 9B07     		lsls	r3, r3, #30
 960 0016 2DD4     		bmi	.L112
 961              	.L85:
 962              	.LVL90:
 963              	.LBB264:
 964              	.LBB265:
 178:/home/jonas/warwick/3dProfilometer/xpcc/src/xpcc/driver/connectivity/can/can_lawicel_formatter/can_lawicel_formatter.cpp **** 	return t;
 179:/home/jonas/warwick/3dProfilometer/xpcc/src/xpcc/driver/connectivity/can/can_lawicel_formatter/can_lawicel_formatter.cpp **** }
 180:/home/jonas/warwick/3dProfilometer/xpcc/src/xpcc/driver/connectivity/can/can_lawicel_formatter/can_lawicel_formatter.cpp **** 
 181:/home/jonas/warwick/3dProfilometer/xpcc/src/xpcc/driver/connectivity/can/can_lawicel_formatter/can_lawicel_formatter.cpp **** char
 182:/home/jonas/warwick/3dProfilometer/xpcc/src/xpcc/driver/connectivity/can/can_lawicel_formatter/can_lawicel_formatter.cpp **** xpcc::CanLawicelFormatter::byteToHex(uint8_t num)
 183:/home/jonas/warwick/3dProfilometer/xpcc/src/xpcc/driver/connectivity/can/can_lawicel_formatter/can_lawicel_formatter.cpp **** {
 184:/home/jonas/warwick/3dProfilometer/xpcc/src/xpcc/driver/connectivity/can/can_lawicel_formatter/can_lawicel_formatter.cpp **** 	num &= 0x0f;
 965              		.loc 1 184 0
 966 0018 4378     		ldrb	r3, [r0, #1]	@ zero_extendqisi2
 967 001a 03F00F03 		and	r3, r3, #15
 968              	.LVL91:
 185:/home/jonas/warwick/3dProfilometer/xpcc/src/xpcc/driver/connectivity/can/can_lawicel_formatter/can_lawicel_formatter.cpp **** 	if(num<10)
 969              		.loc 1 185 0
 970 001e 092B     		cmp	r3, #9
 971 0020 00F28A80 		bhi	.L94
 186:/home/jonas/warwick/3dProfilometer/xpcc/src/xpcc/driver/connectivity/can/can_lawicel_formatter/can_lawicel_formatter.cpp **** 		return '0' + num;
 972              		.loc 1 186 0
 973 0024 3033     		adds	r3, r3, #48
 974              	.LVL92:
 975              	.L95:
 976              	.LBE265:
 977              	.LBE264:
 144:/home/jonas/warwick/3dProfilometer/xpcc/src/xpcc/driver/connectivity/can/can_lawicel_formatter/can_lawicel_formatter.cpp **** 		out[1] = byteToHex(*(ptr+1));
 978              		.loc 1 144 0
 979 0026 4B70     		strb	r3, [r1, #1]
 980              	.LVL93:
 145:/home/jonas/warwick/3dProfilometer/xpcc/src/xpcc/driver/connectivity/can/can_lawicel_formatter/can_lawicel_formatter.cpp **** 		out[2] = byteToHex((*(ptr))>>4);
 981              		.loc 1 145 0
 982 0028 0378     		ldrb	r3, [r0, #0]	@ zero_extendqisi2
 983              	.LBB267:
 984              	.LBB268:
 184:/home/jonas/warwick/3dProfilometer/xpcc/src/xpcc/driver/connectivity/can/can_lawicel_formatter/can_lawicel_formatter.cpp **** 	num &= 0x0f;
 985              		.loc 1 184 0
 986 002a 1B09     		lsrs	r3, r3, #4
 987              	.LVL94:
 185:/home/jonas/warwick/3dProfilometer/xpcc/src/xpcc/driver/connectivity/can/can_lawicel_formatter/can_lawicel_formatter.cpp **** 	if(num<10)
 988              		.loc 1 185 0
 989 002c 092B     		cmp	r3, #9
 990 002e 00F28180 		bhi	.L96
 991              		.loc 1 186 0
 992 0032 3033     		adds	r3, r3, #48
 993              	.LVL95:
 994              	.L97:
 995              	.LBE268:
 996              	.LBE267:
 145:/home/jonas/warwick/3dProfilometer/xpcc/src/xpcc/driver/connectivity/can/can_lawicel_formatter/can_lawicel_formatter.cpp **** 		out[2] = byteToHex((*(ptr))>>4);
 997              		.loc 1 145 0
 998 0034 8B70     		strb	r3, [r1, #2]
 999              	.LVL96:
 1000              	.LBB270:
 1001              	.LBB271:
 184:/home/jonas/warwick/3dProfilometer/xpcc/src/xpcc/driver/connectivity/can/can_lawicel_formatter/can_lawicel_formatter.cpp **** 	num &= 0x0f;
 1002              		.loc 1 184 0
 1003 0036 0378     		ldrb	r3, [r0, #0]	@ zero_extendqisi2
 1004 0038 03F00F03 		and	r3, r3, #15
 1005              	.LVL97:
 185:/home/jonas/warwick/3dProfilometer/xpcc/src/xpcc/driver/connectivity/can/can_lawicel_formatter/can_lawicel_formatter.cpp **** 	if(num<10)
 1006              		.loc 1 185 0
 1007 003c 092B     		cmp	r3, #9
 1008 003e 77D8     		bhi	.L98
 1009              		.loc 1 186 0
 1010 0040 3033     		adds	r3, r3, #48
 1011              	.LVL98:
 1012              	.L99:
 1013              	.LBE271:
 1014              	.LBE270:
 146:/home/jonas/warwick/3dProfilometer/xpcc/src/xpcc/driver/connectivity/can/can_lawicel_formatter/can_lawicel_formatter.cpp **** 		out[3] = byteToHex((*(ptr)));
 1015              		.loc 1 146 0
 1016 0042 CB70     		strb	r3, [r1, #3]
 1017              	.LVL99:
 1018              	.LBB273:
 1019              	.LBB274:
 184:/home/jonas/warwick/3dProfilometer/xpcc/src/xpcc/driver/connectivity/can/can_lawicel_formatter/can_lawicel_formatter.cpp **** 	num &= 0x0f;
 1020              		.loc 1 184 0
 1021 0044 437B     		ldrb	r3, [r0, #13]	@ zero_extendqisi2
 1022 0046 03F00F03 		and	r3, r3, #15
 1023              	.LVL100:
 185:/home/jonas/warwick/3dProfilometer/xpcc/src/xpcc/driver/connectivity/can/can_lawicel_formatter/can_lawicel_formatter.cpp **** 	if(num<10)
 1024              		.loc 1 185 0
 1025 004a 092B     		cmp	r3, #9
 1026 004c 6ED8     		bhi	.L100
 1027              		.loc 1 186 0
 1028 004e 3033     		adds	r3, r3, #48
 1029              	.LVL101:
 1030              	.L101:
 1031              	.LBE274:
 1032              	.LBE273:
 147:/home/jonas/warwick/3dProfilometer/xpcc/src/xpcc/driver/connectivity/can/can_lawicel_formatter/can_lawicel_formatter.cpp **** 		out[4] = byteToHex(in.length);
 1033              		.loc 1 147 0
 1034 0050 0B71     		strb	r3, [r1, #4]
 148:/home/jonas/warwick/3dProfilometer/xpcc/src/xpcc/driver/connectivity/can/can_lawicel_formatter/can_lawicel_formatter.cpp **** 		out[5] = '\0';	// terminate if no data is appended.
 1035              		.loc 1 148 0
 1036 0052 0023     		movs	r3, #0
 1037 0054 4B71     		strb	r3, [r1, #5]
 1038              	.LVL102:
 1039              	.LBE263:
 1040              	.LBB301:
 153:/home/jonas/warwick/3dProfilometer/xpcc/src/xpcc/driver/connectivity/can/can_lawicel_formatter/can_lawicel_formatter.cpp **** 	if (!in.flags.rtr)
 1041              		.loc 1 153 0
 1042 0056 037B     		ldrb	r3, [r0, #12]	@ zero_extendqisi2
 1043              	.LBE301:
 1044              	.LBB316:
 149:/home/jonas/warwick/3dProfilometer/xpcc/src/xpcc/driver/connectivity/can/can_lawicel_formatter/can_lawicel_formatter.cpp **** 		dataBegin=5;
 1045              		.loc 1 149 0
 1046 0058 0526     		movs	r6, #5
 1047              	.LVL103:
 1048              	.LBE316:
 1049              	.LBB317:
 153:/home/jonas/warwick/3dProfilometer/xpcc/src/xpcc/driver/connectivity/can/can_lawicel_formatter/can_lawicel_formatter.cpp **** 	if (!in.flags.rtr)
 1050              		.loc 1 153 0
 1051 005a 13F00103 		ands	r3, r3, #1
 1052 005e 2ED0     		beq	.L113
 1053              	.LVL104:
 1054              	.L102:
 1055              	.LBE317:
 1056              	.LBE262:
 165:/home/jonas/warwick/3dProfilometer/xpcc/src/xpcc/driver/connectivity/can/can_lawicel_formatter/can_lawicel_formatter.cpp **** }
 1057              		.loc 1 165 0
 1058 0060 0120     		movs	r0, #1
 1059 0062 70BC     		pop	{r4, r5, r6}
 1060 0064 7047     		bx	lr
 1061              	.LVL105:
 1062              	.L81:
 1063              	.LBB325:
 121:/home/jonas/warwick/3dProfilometer/xpcc/src/xpcc/driver/connectivity/can/can_lawicel_formatter/can_lawicel_formatter.cpp **** 		if(in.flags.rtr){
 1064              		.loc 1 121 0
 1065 0066 DA07     		lsls	r2, r3, #31
 1066 0068 54D4     		bmi	.L114
 125:/home/jonas/warwick/3dProfilometer/xpcc/src/xpcc/driver/connectivity/can/can_lawicel_formatter/can_lawicel_formatter.cpp **** 			out[0]='t';
 1067              		.loc 1 125 0
 1068 006a 7423     		movs	r3, #116
 1069 006c 0B70     		strb	r3, [r1, #0]
 1070              	.L83:
 1071              	.LVL106:
 1072              	.LBB318:
 131:/home/jonas/warwick/3dProfilometer/xpcc/src/xpcc/driver/connectivity/can/can_lawicel_formatter/can_lawicel_formatter.cpp **** 	if(in.flags.extended)
 1073              		.loc 1 131 0
 1074 006e 037B     		ldrb	r3, [r0, #12]	@ zero_extendqisi2
 1075 0070 9B07     		lsls	r3, r3, #30
 1076 0072 D1D5     		bpl	.L85
 1077              	.L112:
 1078              	.LBE318:
 129:/home/jonas/warwick/3dProfilometer/xpcc/src/xpcc/driver/connectivity/can/can_lawicel_formatter/can_lawicel_formatter.cpp **** 	const uint8_t* ptr=reinterpret_cast<const uint8_t*>(&in.identifier);
 1079              		.loc 1 129 0
 1080 0074 0246     		mov	r2, r0
 1081 0076 0323     		movs	r3, #3
 1082              	.LVL107:
 1083              	.L90:
 1084              	.LBB319:
 1085              	.LBB276:
 1086              	.LBB277:
 134:/home/jonas/warwick/3dProfilometer/xpcc/src/xpcc/driver/connectivity/can/can_lawicel_formatter/can_lawicel_formatter.cpp **** 			out[2*i+1] = byteToHex((*ptr)>>4);
 1087              		.loc 1 134 0 discriminator 2
 1088 0078 1478     		ldrb	r4, [r2, #0]	@ zero_extendqisi2
 1089 007a 5D00     		lsls	r5, r3, #1
 1090              	.LBB278:
 1091              	.LBB279:
 184:/home/jonas/warwick/3dProfilometer/xpcc/src/xpcc/driver/connectivity/can/can_lawicel_formatter/can_lawicel_formatter.cpp **** 	num &= 0x0f;
 1092              		.loc 1 184 0 discriminator 2
 1093 007c 2409     		lsrs	r4, r4, #4
 1094              	.LBE279:
 1095              	.LBE278:
 134:/home/jonas/warwick/3dProfilometer/xpcc/src/xpcc/driver/connectivity/can/can_lawicel_formatter/can_lawicel_formatter.cpp **** 			out[2*i+1] = byteToHex((*ptr)>>4);
 1096              		.loc 1 134 0 discriminator 2
 1097 007e 0135     		adds	r5, r5, #1
 1098              	.LVL108:
 1099              	.LBB282:
 1100              	.LBB280:
 185:/home/jonas/warwick/3dProfilometer/xpcc/src/xpcc/driver/connectivity/can/can_lawicel_formatter/can_lawicel_formatter.cpp **** 	if(num<10)
 1101              		.loc 1 185 0 discriminator 2
 1102 0080 092C     		cmp	r4, #9
 1103 0082 4FD8     		bhi	.L86
 1104              		.loc 1 186 0
 1105 0084 3034     		adds	r4, r4, #48
 1106              	.LVL109:
 1107              	.L87:
 1108              	.LBE280:
 1109              	.LBE282:
 134:/home/jonas/warwick/3dProfilometer/xpcc/src/xpcc/driver/connectivity/can/can_lawicel_formatter/can_lawicel_formatter.cpp **** 			out[2*i+1] = byteToHex((*ptr)>>4);
 1110              		.loc 1 134 0
 1111 0086 4C55     		strb	r4, [r1, r5]
 1112              	.LBB283:
 1113              	.LBB284:
 184:/home/jonas/warwick/3dProfilometer/xpcc/src/xpcc/driver/connectivity/can/can_lawicel_formatter/can_lawicel_formatter.cpp **** 	num &= 0x0f;
 1114              		.loc 1 184 0
 1115 0088 1478     		ldrb	r4, [r2, #0]	@ zero_extendqisi2
 1116 008a 04F00F04 		and	r4, r4, #15
 1117              	.LBE284:
 1118              	.LBE283:
 135:/home/jonas/warwick/3dProfilometer/xpcc/src/xpcc/driver/connectivity/can/can_lawicel_formatter/can_lawicel_formatter.cpp **** 			out[2*i+2] = byteToHex(*ptr);
 1119              		.loc 1 135 0
 1120 008e 5D1C     		adds	r5, r3, #1
 1121              	.LVL110:
 1122              	.LBB287:
 1123              	.LBB285:
 185:/home/jonas/warwick/3dProfilometer/xpcc/src/xpcc/driver/connectivity/can/can_lawicel_formatter/can_lawicel_formatter.cpp **** 	if(num<10)
 1124              		.loc 1 185 0
 1125 0090 092C     		cmp	r4, #9
 1126 0092 45D8     		bhi	.L88
 1127              		.loc 1 186 0
 1128 0094 3034     		adds	r4, r4, #48
 1129              	.LVL111:
 1130              	.L89:
 1131              	.LBE285:
 1132              	.LBE287:
 133:/home/jonas/warwick/3dProfilometer/xpcc/src/xpcc/driver/connectivity/can/can_lawicel_formatter/can_lawicel_formatter.cpp **** 		for(int i=3; i>=0; i--){
 1133              		.loc 1 133 0
 1134 0096 013B     		subs	r3, r3, #1
 136:/home/jonas/warwick/3dProfilometer/xpcc/src/xpcc/driver/connectivity/can/can_lawicel_formatter/can_lawicel_formatter.cpp **** 			++ptr;
 1135              		.loc 1 136 0
 1136 0098 0132     		adds	r2, r2, #1
 1137              	.LVL112:
 133:/home/jonas/warwick/3dProfilometer/xpcc/src/xpcc/driver/connectivity/can/can_lawicel_formatter/can_lawicel_formatter.cpp **** 		for(int i=3; i>=0; i--){
 1138              		.loc 1 133 0
 1139 009a 5E1C     		adds	r6, r3, #1
 135:/home/jonas/warwick/3dProfilometer/xpcc/src/xpcc/driver/connectivity/can/can_lawicel_formatter/can_lawicel_formatter.cpp **** 			out[2*i+2] = byteToHex(*ptr);
 1140              		.loc 1 135 0
 1141 009c 01F81540 		strb	r4, [r1, r5, lsl #1]
 133:/home/jonas/warwick/3dProfilometer/xpcc/src/xpcc/driver/connectivity/can/can_lawicel_formatter/can_lawicel_formatter.cpp **** 		for(int i=3; i>=0; i--){
 1142              		.loc 1 133 0
 1143 00a0 EAD1     		bne	.L90
 1144              	.LVL113:
 1145              	.LBE277:
 1146              	.LBB290:
 1147              	.LBB291:
 184:/home/jonas/warwick/3dProfilometer/xpcc/src/xpcc/driver/connectivity/can/can_lawicel_formatter/can_lawicel_formatter.cpp **** 	num &= 0x0f;
 1148              		.loc 1 184 0
 1149 00a2 437B     		ldrb	r3, [r0, #13]	@ zero_extendqisi2
 1150              	.LVL114:
 1151 00a4 03F00F03 		and	r3, r3, #15
 1152              	.LVL115:
 185:/home/jonas/warwick/3dProfilometer/xpcc/src/xpcc/driver/connectivity/can/can_lawicel_formatter/can_lawicel_formatter.cpp **** 	if(num<10)
 1153              		.loc 1 185 0
 1154 00a8 092B     		cmp	r3, #9
 1155 00aa 3DD8     		bhi	.L91
 1156              		.loc 1 186 0
 1157 00ac 3033     		adds	r3, r3, #48
 1158              	.LVL116:
 1159              	.L92:
 1160              	.LBE291:
 1161              	.LBE290:
 138:/home/jonas/warwick/3dProfilometer/xpcc/src/xpcc/driver/connectivity/can/can_lawicel_formatter/can_lawicel_formatter.cpp **** 		out[9] = byteToHex(in.length);
 1162              		.loc 1 138 0
 1163 00ae 4B72     		strb	r3, [r1, #9]
 139:/home/jonas/warwick/3dProfilometer/xpcc/src/xpcc/driver/connectivity/can/can_lawicel_formatter/can_lawicel_formatter.cpp **** 		out[10] = '\0';
 1164              		.loc 1 139 0
 1165 00b0 0023     		movs	r3, #0
 1166 00b2 8B72     		strb	r3, [r1, #10]
 1167              	.LVL117:
 1168              	.LBE276:
 1169              	.LBE319:
 1170              	.LBB320:
 153:/home/jonas/warwick/3dProfilometer/xpcc/src/xpcc/driver/connectivity/can/can_lawicel_formatter/can_lawicel_formatter.cpp **** 	if (!in.flags.rtr)
 1171              		.loc 1 153 0
 1172 00b4 037B     		ldrb	r3, [r0, #12]	@ zero_extendqisi2
 1173              	.LBE320:
 1174              	.LBB321:
 1175              	.LBB295:
 140:/home/jonas/warwick/3dProfilometer/xpcc/src/xpcc/driver/connectivity/can/can_lawicel_formatter/can_lawicel_formatter.cpp **** 		dataBegin=10;
 1176              		.loc 1 140 0
 1177 00b6 0A26     		movs	r6, #10
 1178              	.LVL118:
 1179              	.LBE295:
 1180              	.LBE321:
 1181              	.LBB322:
 153:/home/jonas/warwick/3dProfilometer/xpcc/src/xpcc/driver/connectivity/can/can_lawicel_formatter/can_lawicel_formatter.cpp **** 	if (!in.flags.rtr)
 1182              		.loc 1 153 0
 1183 00b8 13F00103 		ands	r3, r3, #1
 1184 00bc D0D1     		bne	.L102
 1185              	.LVL119:
 1186              	.L113:
 1187              	.LBB302:
 156:/home/jonas/warwick/3dProfilometer/xpcc/src/xpcc/driver/connectivity/can/can_lawicel_formatter/can_lawicel_formatter.cpp **** 		for( ; i < in.length ; i++)
 1188              		.loc 1 156 0 discriminator 1
 1189 00be 427B     		ldrb	r2, [r0, #13]	@ zero_extendqisi2
 1190 00c0 72B9     		cbnz	r2, .L109
 1191 00c2 3BE0     		b	.L119
 1192              	.LVL120:
 1193              	.L117:
 1194              	.LBB303:
 1195              	.LBB304:
 1196              		.loc 1 186 0
 1197 00c4 3035     		adds	r5, r5, #48
 1198              	.LVL121:
 1199              	.LBE304:
 1200              	.LBE303:
 158:/home/jonas/warwick/3dProfilometer/xpcc/src/xpcc/driver/connectivity/can/can_lawicel_formatter/can_lawicel_formatter.cpp **** 			out[dataBegin+2*i] = byteToHex(in.data[i]>>4);
 1201              		.loc 1 158 0
 1202 00c6 0D55     		strb	r5, [r1, r4]
 1203              	.LBB306:
 1204              	.LBB307:
 184:/home/jonas/warwick/3dProfilometer/xpcc/src/xpcc/driver/connectivity/can/can_lawicel_formatter/can_lawicel_formatter.cpp **** 	num &= 0x0f;
 1205              		.loc 1 184 0
 1206 00c8 1279     		ldrb	r2, [r2, #4]	@ zero_extendqisi2
 1207 00ca 02F00F02 		and	r2, r2, #15
 1208              	.LBE307:
 1209              	.LBE306:
 159:/home/jonas/warwick/3dProfilometer/xpcc/src/xpcc/driver/connectivity/can/can_lawicel_formatter/can_lawicel_formatter.cpp **** 			out[dataBegin+2*i+1] = byteToHex(in.data[i]);
 1210              		.loc 1 159 0
 1211 00ce 0134     		adds	r4, r4, #1
 1212              	.LVL122:
 1213              	.LBB311:
 1214              	.LBB308:
 185:/home/jonas/warwick/3dProfilometer/xpcc/src/xpcc/driver/connectivity/can/can_lawicel_formatter/can_lawicel_formatter.cpp **** 	if(num<10)
 1215              		.loc 1 185 0
 1216 00d0 092A     		cmp	r2, #9
 1217 00d2 14D8     		bhi	.L107
 1218              	.LVL123:
 1219              	.L118:
 1220              		.loc 1 186 0
 1221 00d4 3032     		adds	r2, r2, #48
 1222              	.LBE308:
 1223              	.LBE311:
 159:/home/jonas/warwick/3dProfilometer/xpcc/src/xpcc/driver/connectivity/can/can_lawicel_formatter/can_lawicel_formatter.cpp **** 			out[dataBegin+2*i+1] = byteToHex(in.data[i]);
 1224              		.loc 1 159 0
 1225 00d6 0A55     		strb	r2, [r1, r4]
 156:/home/jonas/warwick/3dProfilometer/xpcc/src/xpcc/driver/connectivity/can/can_lawicel_formatter/can_lawicel_formatter.cpp **** 		for( ; i < in.length ; i++)
 1226              		.loc 1 156 0
 1227 00d8 427B     		ldrb	r2, [r0, #13]	@ zero_extendqisi2
 1228 00da 0133     		adds	r3, r3, #1
 1229              	.LVL124:
 1230 00dc 9A42     		cmp	r2, r3
 1231 00de 14D9     		bls	.L116
 1232              	.LVL125:
 1233              	.L109:
 158:/home/jonas/warwick/3dProfilometer/xpcc/src/xpcc/driver/connectivity/can/can_lawicel_formatter/can_lawicel_formatter.cpp **** 			out[dataBegin+2*i] = byteToHex(in.data[i]>>4);
 1234              		.loc 1 158 0 discriminator 2
 1235 00e0 C218     		adds	r2, r0, r3
 1236 00e2 06EB4304 		add	r4, r6, r3, lsl #1
 1237              	.LVL126:
 1238 00e6 1579     		ldrb	r5, [r2, #4]	@ zero_extendqisi2
 1239              	.LBB312:
 1240              	.LBB305:
 184:/home/jonas/warwick/3dProfilometer/xpcc/src/xpcc/driver/connectivity/can/can_lawicel_formatter/can_lawicel_formatter.cpp **** 	num &= 0x0f;
 1241              		.loc 1 184 0 discriminator 2
 1242 00e8 2D09     		lsrs	r5, r5, #4
 1243              	.LVL127:
 185:/home/jonas/warwick/3dProfilometer/xpcc/src/xpcc/driver/connectivity/can/can_lawicel_formatter/can_lawicel_formatter.cpp **** 	if(num<10)
 1244              		.loc 1 185 0 discriminator 2
 1245 00ea 092D     		cmp	r5, #9
 1246 00ec EAD9     		bls	.L117
 187:/home/jonas/warwick/3dProfilometer/xpcc/src/xpcc/driver/connectivity/can/can_lawicel_formatter/can_lawicel_formatter.cpp **** 	else
 188:/home/jonas/warwick/3dProfilometer/xpcc/src/xpcc/driver/connectivity/can/can_lawicel_formatter/can_lawicel_formatter.cpp **** 		return  'A' + (num-10);
 1247              		.loc 1 188 0
 1248 00ee 3735     		adds	r5, r5, #55
 1249              	.LVL128:
 1250              	.LBE305:
 1251              	.LBE312:
 158:/home/jonas/warwick/3dProfilometer/xpcc/src/xpcc/driver/connectivity/can/can_lawicel_formatter/can_lawicel_formatter.cpp **** 			out[dataBegin+2*i] = byteToHex(in.data[i]>>4);
 1252              		.loc 1 158 0
 1253 00f0 0D55     		strb	r5, [r1, r4]
 1254              	.LBB313:
 1255              	.LBB309:
 184:/home/jonas/warwick/3dProfilometer/xpcc/src/xpcc/driver/connectivity/can/can_lawicel_formatter/can_lawicel_formatter.cpp **** 	num &= 0x0f;
 1256              		.loc 1 184 0
 1257 00f2 1279     		ldrb	r2, [r2, #4]	@ zero_extendqisi2
 1258 00f4 02F00F02 		and	r2, r2, #15
 1259              	.LBE309:
 1260              	.LBE313:
 159:/home/jonas/warwick/3dProfilometer/xpcc/src/xpcc/driver/connectivity/can/can_lawicel_formatter/can_lawicel_formatter.cpp **** 			out[dataBegin+2*i+1] = byteToHex(in.data[i]);
 1261              		.loc 1 159 0
 1262 00f8 0134     		adds	r4, r4, #1
 1263              	.LVL129:
 1264              	.LBB314:
 1265              	.LBB310:
 185:/home/jonas/warwick/3dProfilometer/xpcc/src/xpcc/driver/connectivity/can/can_lawicel_formatter/can_lawicel_formatter.cpp **** 	if(num<10)
 1266              		.loc 1 185 0
 1267 00fa 092A     		cmp	r2, #9
 1268 00fc EAD9     		bls	.L118
 1269              	.LVL130:
 1270              	.L107:
 1271              		.loc 1 188 0
 1272 00fe 3732     		adds	r2, r2, #55
 1273              	.LBE310:
 1274              	.LBE314:
 159:/home/jonas/warwick/3dProfilometer/xpcc/src/xpcc/driver/connectivity/can/can_lawicel_formatter/can_lawicel_formatter.cpp **** 			out[dataBegin+2*i+1] = byteToHex(in.data[i]);
 1275              		.loc 1 159 0
 1276 0100 0A55     		strb	r2, [r1, r4]
 156:/home/jonas/warwick/3dProfilometer/xpcc/src/xpcc/driver/connectivity/can/can_lawicel_formatter/can_lawicel_formatter.cpp **** 		for( ; i < in.length ; i++)
 1277              		.loc 1 156 0
 1278 0102 427B     		ldrb	r2, [r0, #13]	@ zero_extendqisi2
 1279 0104 0133     		adds	r3, r3, #1
 1280              	.LVL131:
 1281 0106 9A42     		cmp	r2, r3
 1282 0108 EAD8     		bhi	.L109
 1283              	.LVL132:
 1284              	.L116:
 1285 010a 5B00     		lsls	r3, r3, #1
 1286              	.LVL133:
 1287              	.L104:
 161:/home/jonas/warwick/3dProfilometer/xpcc/src/xpcc/driver/connectivity/can/can_lawicel_formatter/can_lawicel_formatter.cpp **** 		out[dataBegin+2*i]='\0';
 1288              		.loc 1 161 0
 1289 010c 8919     		adds	r1, r1, r6
 1290              	.LVL134:
 1291 010e 0020     		movs	r0, #0
 1292              	.LVL135:
 1293 0110 C854     		strb	r0, [r1, r3]
 1294 0112 A5E7     		b	.L102
 1295              	.LVL136:
 1296              	.L114:
 1297              	.LBE302:
 1298              	.LBE322:
 122:/home/jonas/warwick/3dProfilometer/xpcc/src/xpcc/driver/connectivity/can/can_lawicel_formatter/can_lawicel_formatter.cpp **** 			out[0]='r';
 1299              		.loc 1 122 0
 1300 0114 7223     		movs	r3, #114
 1301 0116 0B70     		strb	r3, [r1, #0]
 1302 0118 A9E7     		b	.L83
 1303              	.L82:
 117:/home/jonas/warwick/3dProfilometer/xpcc/src/xpcc/driver/connectivity/can/can_lawicel_formatter/can_lawicel_formatter.cpp **** 			out[0]='T';
 1304              		.loc 1 117 0
 1305 011a 5423     		movs	r3, #84
 1306 011c 0B70     		strb	r3, [r1, #0]
 1307 011e A6E7     		b	.L83
 1308              	.LVL137:
 1309              	.L88:
 1310              	.LBB323:
 1311              	.LBB296:
 1312              	.LBB293:
 1313              	.LBB288:
 1314              	.LBB286:
 1315              		.loc 1 188 0
 1316 0120 3734     		adds	r4, r4, #55
 1317              	.LVL138:
 1318 0122 B8E7     		b	.L89
 1319              	.LVL139:
 1320              	.L86:
 1321              	.LBE286:
 1322              	.LBE288:
 1323              	.LBB289:
 1324              	.LBB281:
 1325 0124 3734     		adds	r4, r4, #55
 1326              	.LVL140:
 1327 0126 AEE7     		b	.L87
 1328              	.LVL141:
 1329              	.L91:
 1330              	.LBE281:
 1331              	.LBE289:
 1332              	.LBE293:
 1333              	.LBB294:
 1334              	.LBB292:
 1335 0128 3733     		adds	r3, r3, #55
 1336              	.LVL142:
 1337 012a C0E7     		b	.L92
 1338              	.LVL143:
 1339              	.L100:
 1340              	.LBE292:
 1341              	.LBE294:
 1342              	.LBE296:
 1343              	.LBB297:
 1344              	.LBB275:
 1345 012c 3733     		adds	r3, r3, #55
 1346              	.LVL144:
 1347 012e 8FE7     		b	.L101
 1348              	.LVL145:
 1349              	.L98:
 1350              	.LBE275:
 1351              	.LBE297:
 1352              	.LBB298:
 1353              	.LBB272:
 1354 0130 3733     		adds	r3, r3, #55
 1355              	.LVL146:
 1356 0132 86E7     		b	.L99
 1357              	.LVL147:
 1358              	.L96:
 1359              	.LBE272:
 1360              	.LBE298:
 1361              	.LBB299:
 1362              	.LBB269:
 1363 0134 3733     		adds	r3, r3, #55
 1364              	.LVL148:
 1365 0136 7DE7     		b	.L97
 1366              	.LVL149:
 1367              	.L94:
 1368              	.LBE269:
 1369              	.LBE299:
 1370              	.LBB300:
 1371              	.LBB266:
 1372 0138 3733     		adds	r3, r3, #55
 1373              	.LVL150:
 1374 013a 74E7     		b	.L95
 1375              	.LVL151:
 1376              	.L119:
 1377              	.LBE266:
 1378              	.LBE300:
 1379              	.LBE323:
 1380              	.LBB324:
 1381              	.LBB315:
 156:/home/jonas/warwick/3dProfilometer/xpcc/src/xpcc/driver/connectivity/can/can_lawicel_formatter/can_lawicel_formatter.cpp **** 		for( ; i < in.length ; i++)
 1382              		.loc 1 156 0
 1383 013c 1346     		mov	r3, r2
 1384 013e E5E7     		b	.L104
 1385              	.LBE315:
 1386              	.LBE324:
 1387              	.LBE325:
 1388              		.cfi_endproc
 1389              	.LFE19:
 1391              		.section	.text._ZN4xpcc19CanLawicelFormatter10charToByteEPKc,"ax",%progbits
 1392              		.align	2
 1393              		.global	_ZN4xpcc19CanLawicelFormatter10charToByteEPKc
 1394              		.thumb
 1395              		.thumb_func
 1397              	_ZN4xpcc19CanLawicelFormatter10charToByteEPKc:
 1398              	.LFB20:
 170:/home/jonas/warwick/3dProfilometer/xpcc/src/xpcc/driver/connectivity/can/can_lawicel_formatter/can_lawicel_formatter.cpp **** {
 1399              		.loc 1 170 0
 1400              		.cfi_startproc
 1401              		@ args = 0, pretend = 0, frame = 0
 1402              		@ frame_needed = 0, uses_anonymous_args = 0
 1403              		@ link register save eliminated.
 1404              	.LVL152:
 1405              	.LBB326:
 171:/home/jonas/warwick/3dProfilometer/xpcc/src/xpcc/driver/connectivity/can/can_lawicel_formatter/can_lawicel_formatter.cpp **** 	uint8_t t = *s;
 1406              		.loc 1 171 0
 1407 0000 0078     		ldrb	r0, [r0, #0]	@ zero_extendqisi2
 1408              	.LVL153:
 172:/home/jonas/warwick/3dProfilometer/xpcc/src/xpcc/driver/connectivity/can/can_lawicel_formatter/can_lawicel_formatter.cpp **** 	if (t >= 'a')
 1409              		.loc 1 172 0
 1410 0002 6028     		cmp	r0, #96
 1411 0004 07D8     		bhi	.L124
 174:/home/jonas/warwick/3dProfilometer/xpcc/src/xpcc/driver/connectivity/can/can_lawicel_formatter/can_lawicel_formatter.cpp **** 	else if (t >= 'A')
 1412              		.loc 1 174 0
 1413 0006 4028     		cmp	r0, #64
 1414 0008 02D8     		bhi	.L125
 177:/home/jonas/warwick/3dProfilometer/xpcc/src/xpcc/driver/connectivity/can/can_lawicel_formatter/can_lawicel_formatter.cpp **** 		t = t - '0';
 1415              		.loc 1 177 0
 1416 000a 3038     		subs	r0, r0, #48
 1417 000c C0B2     		uxtb	r0, r0
 1418              	.LVL154:
 1419              	.LBE326:
 179:/home/jonas/warwick/3dProfilometer/xpcc/src/xpcc/driver/connectivity/can/can_lawicel_formatter/can_lawicel_formatter.cpp **** }
 1420              		.loc 1 179 0
 1421 000e 7047     		bx	lr
 1422              	.LVL155:
 1423              	.L125:
 1424              	.LBB327:
 175:/home/jonas/warwick/3dProfilometer/xpcc/src/xpcc/driver/connectivity/can/can_lawicel_formatter/can_lawicel_formatter.cpp **** 		t = t - 'A' + 10;
 1425              		.loc 1 175 0
 1426 0010 3738     		subs	r0, r0, #55
 1427 0012 C0B2     		uxtb	r0, r0
 1428              	.LVL156:
 1429 0014 7047     		bx	lr
 1430              	.LVL157:
 1431              	.L124:
 173:/home/jonas/warwick/3dProfilometer/xpcc/src/xpcc/driver/connectivity/can/can_lawicel_formatter/can_lawicel_formatter.cpp **** 		t = t - 'a' + 10;
 1432              		.loc 1 173 0
 1433 0016 5738     		subs	r0, r0, #87
 1434 0018 C0B2     		uxtb	r0, r0
 1435              	.LVL158:
 1436 001a 7047     		bx	lr
 1437              	.LBE327:
 1438              		.cfi_endproc
 1439              	.LFE20:
 1441              		.section	.text._ZN4xpcc19CanLawicelFormatter9byteToHexEh,"ax",%progbits
 1442              		.align	2
 1443              		.global	_ZN4xpcc19CanLawicelFormatter9byteToHexEh
 1444              		.thumb
 1445              		.thumb_func
 1447              	_ZN4xpcc19CanLawicelFormatter9byteToHexEh:
 1448              	.LFB21:
 183:/home/jonas/warwick/3dProfilometer/xpcc/src/xpcc/driver/connectivity/can/can_lawicel_formatter/can_lawicel_formatter.cpp **** {
 1449              		.loc 1 183 0
 1450              		.cfi_startproc
 1451              		@ args = 0, pretend = 0, frame = 0
 1452              		@ frame_needed = 0, uses_anonymous_args = 0
 1453              		@ link register save eliminated.
 1454              	.LVL159:
 184:/home/jonas/warwick/3dProfilometer/xpcc/src/xpcc/driver/connectivity/can/can_lawicel_formatter/can_lawicel_formatter.cpp **** 	num &= 0x0f;
 1455              		.loc 1 184 0
 1456 0000 00F00F00 		and	r0, r0, #15
 1457              	.LVL160:
 185:/home/jonas/warwick/3dProfilometer/xpcc/src/xpcc/driver/connectivity/can/can_lawicel_formatter/can_lawicel_formatter.cpp **** 	if(num<10)
 1458              		.loc 1 185 0
 1459 0004 0928     		cmp	r0, #9
 1460 0006 01D9     		bls	.L129
 1461              		.loc 1 188 0
 1462 0008 3730     		adds	r0, r0, #55
 1463              	.LVL161:
 189:/home/jonas/warwick/3dProfilometer/xpcc/src/xpcc/driver/connectivity/can/can_lawicel_formatter/can_lawicel_formatter.cpp **** }
 1464              		.loc 1 189 0
 1465 000a 7047     		bx	lr
 1466              	.LVL162:
 1467              	.L129:
 186:/home/jonas/warwick/3dProfilometer/xpcc/src/xpcc/driver/connectivity/can/can_lawicel_formatter/can_lawicel_formatter.cpp **** 		return '0' + num;
 1468              		.loc 1 186 0
 1469 000c 3030     		adds	r0, r0, #48
 1470              	.LVL163:
 1471 000e 7047     		bx	lr
 1472              		.cfi_endproc
 1473              	.LFE21:
 1475              		.text
 1476              	.Letext0:
 1477              		.file 3 "/opt/arm-2012.09/bin/../lib/gcc/arm-none-eabi/4.7.2/../../../../arm-none-eabi/include/std
 1478              		.file 4 "/home/jonas/warwick/3dProfilometer/xpcc/src/xpcc/driver/connectivity/can/message.hpp"
 1479              		.file 5 "/opt/arm-2012.09/bin/../lib/gcc/arm-none-eabi/4.7.2/include/stddef.h"
 1480              		.file 6 "<built-in>"
 1481              		.file 7 "/opt/arm-2012.09/bin/../lib/gcc/arm-none-eabi/4.7.2/../../../../arm-none-eabi/include/c++
 1482              		.file 8 "/opt/arm-2012.09/bin/../lib/gcc/arm-none-eabi/4.7.2/../../../../arm-none-eabi/include/str